
./08_c_program_to_demonstrate_the_working_of_keyword_long.elf:     file format elf32-littleriscv


Disassembly of section .text:

00010094 <exit>:
   10094:	ff010113          	addi	sp,sp,-16
   10098:	00000593          	li	a1,0
   1009c:	00812423          	sw	s0,8(sp)
   100a0:	00112623          	sw	ra,12(sp)
   100a4:	00050413          	mv	s0,a0
   100a8:	659020ef          	jal	ra,12f00 <__call_exitprocs>
   100ac:	1b81a503          	lw	a0,440(gp) # 26a78 <_global_impure_ptr>
   100b0:	03c52783          	lw	a5,60(a0)
   100b4:	00078463          	beqz	a5,100bc <exit+0x28>
   100b8:	000780e7          	jalr	a5
   100bc:	00040513          	mv	a0,s0
   100c0:	6150f0ef          	jal	ra,1fed4 <_exit>

000100c4 <register_fini>:
   100c4:	00000793          	li	a5,0
   100c8:	00078863          	beqz	a5,100d8 <register_fini+0x14>
   100cc:	00013537          	lui	a0,0x13
   100d0:	6f050513          	addi	a0,a0,1776 # 136f0 <__libc_fini_array>
   100d4:	74d0206f          	j	13020 <atexit>
   100d8:	00008067          	ret

000100dc <_start>:
   100dc:	00016197          	auipc	gp,0x16
   100e0:	7e418193          	addi	gp,gp,2020 # 268c0 <__global_pointer$>
   100e4:	1cc18513          	addi	a0,gp,460 # 26a8c <__malloc_max_total_mem>
   100e8:	22818613          	addi	a2,gp,552 # 26ae8 <__BSS_END__>
   100ec:	40a60633          	sub	a2,a2,a0
   100f0:	00000593          	li	a1,0
   100f4:	19c000ef          	jal	ra,10290 <memset>
   100f8:	00003517          	auipc	a0,0x3
   100fc:	f2850513          	addi	a0,a0,-216 # 13020 <atexit>
   10100:	00050863          	beqz	a0,10110 <_start+0x34>
   10104:	00003517          	auipc	a0,0x3
   10108:	5ec50513          	addi	a0,a0,1516 # 136f0 <__libc_fini_array>
   1010c:	715020ef          	jal	ra,13020 <atexit>
   10110:	0e4000ef          	jal	ra,101f4 <__libc_init_array>
   10114:	00012503          	lw	a0,0(sp)
   10118:	00410593          	addi	a1,sp,4
   1011c:	00000613          	li	a2,0
   10120:	06c000ef          	jal	ra,1018c <main>
   10124:	f71ff06f          	j	10094 <exit>

00010128 <__do_global_dtors_aux>:
   10128:	ff010113          	addi	sp,sp,-16
   1012c:	00812423          	sw	s0,8(sp)
   10130:	1e41c783          	lbu	a5,484(gp) # 26aa4 <completed.1>
   10134:	00112623          	sw	ra,12(sp)
   10138:	02079263          	bnez	a5,1015c <__do_global_dtors_aux+0x34>
   1013c:	00000793          	li	a5,0
   10140:	00078a63          	beqz	a5,10154 <__do_global_dtors_aux+0x2c>
   10144:	00026537          	lui	a0,0x26
   10148:	00050513          	mv	a0,a0
   1014c:	00000097          	auipc	ra,0x0
   10150:	000000e7          	jalr	zero # 0 <exit-0x10094>
   10154:	00100793          	li	a5,1
   10158:	1ef18223          	sb	a5,484(gp) # 26aa4 <completed.1>
   1015c:	00c12083          	lw	ra,12(sp)
   10160:	00812403          	lw	s0,8(sp)
   10164:	01010113          	addi	sp,sp,16
   10168:	00008067          	ret

0001016c <frame_dummy>:
   1016c:	00000793          	li	a5,0
   10170:	00078c63          	beqz	a5,10188 <frame_dummy+0x1c>
   10174:	00026537          	lui	a0,0x26
   10178:	1e818593          	addi	a1,gp,488 # 26aa8 <object.0>
   1017c:	00050513          	mv	a0,a0
   10180:	00000317          	auipc	t1,0x0
   10184:	00000067          	jr	zero # 0 <exit-0x10094>
   10188:	00008067          	ret

0001018c <main>:
   1018c:	ff010113          	addi	sp,sp,-16
   10190:	00112623          	sw	ra,12(sp)
   10194:	00400593          	li	a1,4
   10198:	00025537          	lui	a0,0x25
   1019c:	06050513          	addi	a0,a0,96 # 25060 <__clzsi2+0x50>
   101a0:	20c000ef          	jal	ra,103ac <printf>
   101a4:	00400593          	li	a1,4
   101a8:	00025537          	lui	a0,0x25
   101ac:	07c50513          	addi	a0,a0,124 # 2507c <__clzsi2+0x6c>
   101b0:	1fc000ef          	jal	ra,103ac <printf>
   101b4:	00800593          	li	a1,8
   101b8:	00025537          	lui	a0,0x25
   101bc:	09c50513          	addi	a0,a0,156 # 2509c <__clzsi2+0x8c>
   101c0:	1ec000ef          	jal	ra,103ac <printf>
   101c4:	00800593          	li	a1,8
   101c8:	00025537          	lui	a0,0x25
   101cc:	0c050513          	addi	a0,a0,192 # 250c0 <__clzsi2+0xb0>
   101d0:	1dc000ef          	jal	ra,103ac <printf>
   101d4:	01000593          	li	a1,16
   101d8:	00025537          	lui	a0,0x25
   101dc:	0dc50513          	addi	a0,a0,220 # 250dc <__clzsi2+0xcc>
   101e0:	1cc000ef          	jal	ra,103ac <printf>
   101e4:	00000513          	li	a0,0
   101e8:	00c12083          	lw	ra,12(sp)
   101ec:	01010113          	addi	sp,sp,16
   101f0:	00008067          	ret

000101f4 <__libc_init_array>:
   101f4:	ff010113          	addi	sp,sp,-16
   101f8:	00812423          	sw	s0,8(sp)
   101fc:	000267b7          	lui	a5,0x26
   10200:	00026437          	lui	s0,0x26
   10204:	01212023          	sw	s2,0(sp)
   10208:	0b478793          	addi	a5,a5,180 # 260b4 <__init_array_start>
   1020c:	0b440713          	addi	a4,s0,180 # 260b4 <__init_array_start>
   10210:	00112623          	sw	ra,12(sp)
   10214:	00912223          	sw	s1,4(sp)
   10218:	40e78933          	sub	s2,a5,a4
   1021c:	02e78263          	beq	a5,a4,10240 <__libc_init_array+0x4c>
   10220:	40295913          	srai	s2,s2,0x2
   10224:	0b440413          	addi	s0,s0,180
   10228:	00000493          	li	s1,0
   1022c:	00042783          	lw	a5,0(s0)
   10230:	00148493          	addi	s1,s1,1
   10234:	00440413          	addi	s0,s0,4
   10238:	000780e7          	jalr	a5
   1023c:	ff24e8e3          	bltu	s1,s2,1022c <__libc_init_array+0x38>
   10240:	00026437          	lui	s0,0x26
   10244:	000267b7          	lui	a5,0x26
   10248:	0bc78793          	addi	a5,a5,188 # 260bc <__do_global_dtors_aux_fini_array_entry>
   1024c:	0b440713          	addi	a4,s0,180 # 260b4 <__init_array_start>
   10250:	40e78933          	sub	s2,a5,a4
   10254:	40295913          	srai	s2,s2,0x2
   10258:	02e78063          	beq	a5,a4,10278 <__libc_init_array+0x84>
   1025c:	0b440413          	addi	s0,s0,180
   10260:	00000493          	li	s1,0
   10264:	00042783          	lw	a5,0(s0)
   10268:	00148493          	addi	s1,s1,1
   1026c:	00440413          	addi	s0,s0,4
   10270:	000780e7          	jalr	a5
   10274:	ff24e8e3          	bltu	s1,s2,10264 <__libc_init_array+0x70>
   10278:	00c12083          	lw	ra,12(sp)
   1027c:	00812403          	lw	s0,8(sp)
   10280:	00412483          	lw	s1,4(sp)
   10284:	00012903          	lw	s2,0(sp)
   10288:	01010113          	addi	sp,sp,16
   1028c:	00008067          	ret

00010290 <memset>:
   10290:	00f00313          	li	t1,15
   10294:	00050713          	mv	a4,a0
   10298:	02c37e63          	bgeu	t1,a2,102d4 <memset+0x44>
   1029c:	00f77793          	andi	a5,a4,15
   102a0:	0a079063          	bnez	a5,10340 <memset+0xb0>
   102a4:	08059263          	bnez	a1,10328 <memset+0x98>
   102a8:	ff067693          	andi	a3,a2,-16
   102ac:	00f67613          	andi	a2,a2,15
   102b0:	00e686b3          	add	a3,a3,a4
   102b4:	00b72023          	sw	a1,0(a4)
   102b8:	00b72223          	sw	a1,4(a4)
   102bc:	00b72423          	sw	a1,8(a4)
   102c0:	00b72623          	sw	a1,12(a4)
   102c4:	01070713          	addi	a4,a4,16
   102c8:	fed766e3          	bltu	a4,a3,102b4 <memset+0x24>
   102cc:	00061463          	bnez	a2,102d4 <memset+0x44>
   102d0:	00008067          	ret
   102d4:	40c306b3          	sub	a3,t1,a2
   102d8:	00269693          	slli	a3,a3,0x2
   102dc:	00000297          	auipc	t0,0x0
   102e0:	005686b3          	add	a3,a3,t0
   102e4:	00c68067          	jr	12(a3)
   102e8:	00b70723          	sb	a1,14(a4)
   102ec:	00b706a3          	sb	a1,13(a4)
   102f0:	00b70623          	sb	a1,12(a4)
   102f4:	00b705a3          	sb	a1,11(a4)
   102f8:	00b70523          	sb	a1,10(a4)
   102fc:	00b704a3          	sb	a1,9(a4)
   10300:	00b70423          	sb	a1,8(a4)
   10304:	00b703a3          	sb	a1,7(a4)
   10308:	00b70323          	sb	a1,6(a4)
   1030c:	00b702a3          	sb	a1,5(a4)
   10310:	00b70223          	sb	a1,4(a4)
   10314:	00b701a3          	sb	a1,3(a4)
   10318:	00b70123          	sb	a1,2(a4)
   1031c:	00b700a3          	sb	a1,1(a4)
   10320:	00b70023          	sb	a1,0(a4)
   10324:	00008067          	ret
   10328:	0ff5f593          	zext.b	a1,a1
   1032c:	00859693          	slli	a3,a1,0x8
   10330:	00d5e5b3          	or	a1,a1,a3
   10334:	01059693          	slli	a3,a1,0x10
   10338:	00d5e5b3          	or	a1,a1,a3
   1033c:	f6dff06f          	j	102a8 <memset+0x18>
   10340:	00279693          	slli	a3,a5,0x2
   10344:	00000297          	auipc	t0,0x0
   10348:	005686b3          	add	a3,a3,t0
   1034c:	00008293          	mv	t0,ra
   10350:	fa0680e7          	jalr	-96(a3)
   10354:	00028093          	mv	ra,t0
   10358:	ff078793          	addi	a5,a5,-16
   1035c:	40f70733          	sub	a4,a4,a5
   10360:	00f60633          	add	a2,a2,a5
   10364:	f6c378e3          	bgeu	t1,a2,102d4 <memset+0x44>
   10368:	f3dff06f          	j	102a4 <memset+0x14>

0001036c <_printf_r>:
   1036c:	fc010113          	addi	sp,sp,-64
   10370:	02c12423          	sw	a2,40(sp)
   10374:	02d12623          	sw	a3,44(sp)
   10378:	02e12823          	sw	a4,48(sp)
   1037c:	02f12a23          	sw	a5,52(sp)
   10380:	03012c23          	sw	a6,56(sp)
   10384:	03112e23          	sw	a7,60(sp)
   10388:	00058613          	mv	a2,a1
   1038c:	00852583          	lw	a1,8(a0)
   10390:	02810693          	addi	a3,sp,40
   10394:	00112e23          	sw	ra,28(sp)
   10398:	00d12623          	sw	a3,12(sp)
   1039c:	05c000ef          	jal	ra,103f8 <_vfprintf_r>
   103a0:	01c12083          	lw	ra,28(sp)
   103a4:	04010113          	addi	sp,sp,64
   103a8:	00008067          	ret

000103ac <printf>:
   103ac:	1c01a303          	lw	t1,448(gp) # 26a80 <_impure_ptr>
   103b0:	fc010113          	addi	sp,sp,-64
   103b4:	02c12423          	sw	a2,40(sp)
   103b8:	02d12623          	sw	a3,44(sp)
   103bc:	02b12223          	sw	a1,36(sp)
   103c0:	02e12823          	sw	a4,48(sp)
   103c4:	02f12a23          	sw	a5,52(sp)
   103c8:	03012c23          	sw	a6,56(sp)
   103cc:	03112e23          	sw	a7,60(sp)
   103d0:	00832583          	lw	a1,8(t1) # 10188 <frame_dummy+0x1c>
   103d4:	02410693          	addi	a3,sp,36
   103d8:	00050613          	mv	a2,a0
   103dc:	00030513          	mv	a0,t1
   103e0:	00112e23          	sw	ra,28(sp)
   103e4:	00d12623          	sw	a3,12(sp)
   103e8:	010000ef          	jal	ra,103f8 <_vfprintf_r>
   103ec:	01c12083          	lw	ra,28(sp)
   103f0:	04010113          	addi	sp,sp,64
   103f4:	00008067          	ret

000103f8 <_vfprintf_r>:
   103f8:	e1010113          	addi	sp,sp,-496
   103fc:	1e112623          	sw	ra,492(sp)
   10400:	1e812423          	sw	s0,488(sp)
   10404:	1f212023          	sw	s2,480(sp)
   10408:	00b12423          	sw	a1,8(sp)
   1040c:	00060913          	mv	s2,a2
   10410:	00d12c23          	sw	a3,24(sp)
   10414:	1e912223          	sw	s1,484(sp)
   10418:	1d312e23          	sw	s3,476(sp)
   1041c:	1d412c23          	sw	s4,472(sp)
   10420:	1d512a23          	sw	s5,468(sp)
   10424:	1d612823          	sw	s6,464(sp)
   10428:	1d712623          	sw	s7,460(sp)
   1042c:	1d812423          	sw	s8,456(sp)
   10430:	1d912223          	sw	s9,452(sp)
   10434:	1da12023          	sw	s10,448(sp)
   10438:	1bb12e23          	sw	s11,444(sp)
   1043c:	00050413          	mv	s0,a0
   10440:	02a12823          	sw	a0,48(sp)
   10444:	54c060ef          	jal	ra,16990 <_localeconv_r>
   10448:	00052703          	lw	a4,0(a0)
   1044c:	00070513          	mv	a0,a4
   10450:	02e12c23          	sw	a4,56(sp)
   10454:	69c080ef          	jal	ra,18af0 <strlen>
   10458:	02a12a23          	sw	a0,52(sp)
   1045c:	0e012823          	sw	zero,240(sp)
   10460:	0e012a23          	sw	zero,244(sp)
   10464:	0e012c23          	sw	zero,248(sp)
   10468:	0e012e23          	sw	zero,252(sp)
   1046c:	00040663          	beqz	s0,10478 <_vfprintf_r+0x80>
   10470:	03842783          	lw	a5,56(s0)
   10474:	020782e3          	beqz	a5,10c98 <_vfprintf_r+0x8a0>
   10478:	00812603          	lw	a2,8(sp)
   1047c:	00c61783          	lh	a5,12(a2)
   10480:	01279713          	slli	a4,a5,0x12
   10484:	02074663          	bltz	a4,104b0 <_vfprintf_r+0xb8>
   10488:	06462703          	lw	a4,100(a2)
   1048c:	000026b7          	lui	a3,0x2
   10490:	00d7e7b3          	or	a5,a5,a3
   10494:	ffffe6b7          	lui	a3,0xffffe
   10498:	01079793          	slli	a5,a5,0x10
   1049c:	fff68693          	addi	a3,a3,-1 # ffffdfff <__BSS_END__+0xfffd7517>
   104a0:	4107d793          	srai	a5,a5,0x10
   104a4:	00d77733          	and	a4,a4,a3
   104a8:	00f61623          	sh	a5,12(a2)
   104ac:	06e62223          	sw	a4,100(a2)
   104b0:	0087f713          	andi	a4,a5,8
   104b4:	2e070c63          	beqz	a4,107ac <_vfprintf_r+0x3b4>
   104b8:	00812703          	lw	a4,8(sp)
   104bc:	01072703          	lw	a4,16(a4)
   104c0:	2e070663          	beqz	a4,107ac <_vfprintf_r+0x3b4>
   104c4:	01a7f793          	andi	a5,a5,26
   104c8:	00a00713          	li	a4,10
   104cc:	30e78463          	beq	a5,a4,107d4 <_vfprintf_r+0x3dc>
   104d0:	000257b7          	lui	a5,0x25
   104d4:	14478793          	addi	a5,a5,324 # 25144 <__clzsi2+0x134>
   104d8:	00090c93          	mv	s9,s2
   104dc:	00f12e23          	sw	a5,28(sp)
   104e0:	000cc703          	lbu	a4,0(s9)
   104e4:	000257b7          	lui	a5,0x25
   104e8:	10c10b13          	addi	s6,sp,268
   104ec:	34878793          	addi	a5,a5,840 # 25348 <zeroes.0>
   104f0:	0f612223          	sw	s6,228(sp)
   104f4:	0e012623          	sw	zero,236(sp)
   104f8:	0e012423          	sw	zero,232(sp)
   104fc:	02012223          	sw	zero,36(sp)
   10500:	02012e23          	sw	zero,60(sp)
   10504:	04012223          	sw	zero,68(sp)
   10508:	04012023          	sw	zero,64(sp)
   1050c:	04012623          	sw	zero,76(sp)
   10510:	04012423          	sw	zero,72(sp)
   10514:	00012823          	sw	zero,16(sp)
   10518:	00f12623          	sw	a5,12(sp)
   1051c:	03012a03          	lw	s4,48(sp)
   10520:	000b0413          	mv	s0,s6
   10524:	22070463          	beqz	a4,1074c <_vfprintf_r+0x354>
   10528:	000c8493          	mv	s1,s9
   1052c:	02500693          	li	a3,37
   10530:	40d70663          	beq	a4,a3,1093c <_vfprintf_r+0x544>
   10534:	0014c703          	lbu	a4,1(s1)
   10538:	00148493          	addi	s1,s1,1
   1053c:	fe071ae3          	bnez	a4,10530 <_vfprintf_r+0x138>
   10540:	41948933          	sub	s2,s1,s9
   10544:	21948463          	beq	s1,s9,1074c <_vfprintf_r+0x354>
   10548:	0ec12683          	lw	a3,236(sp)
   1054c:	0e812703          	lw	a4,232(sp)
   10550:	01942023          	sw	s9,0(s0)
   10554:	012686b3          	add	a3,a3,s2
   10558:	00170713          	addi	a4,a4,1
   1055c:	01242223          	sw	s2,4(s0)
   10560:	0ed12623          	sw	a3,236(sp)
   10564:	0ee12423          	sw	a4,232(sp)
   10568:	00700693          	li	a3,7
   1056c:	00840413          	addi	s0,s0,8
   10570:	3ce6ce63          	blt	a3,a4,1094c <_vfprintf_r+0x554>
   10574:	01012783          	lw	a5,16(sp)
   10578:	0004c703          	lbu	a4,0(s1)
   1057c:	012787b3          	add	a5,a5,s2
   10580:	00f12823          	sw	a5,16(sp)
   10584:	1c070463          	beqz	a4,1074c <_vfprintf_r+0x354>
   10588:	0014c883          	lbu	a7,1(s1)
   1058c:	0c0103a3          	sb	zero,199(sp)
   10590:	00148493          	addi	s1,s1,1
   10594:	fff00993          	li	s3,-1
   10598:	00000d13          	li	s10,0
   1059c:	00000c13          	li	s8,0
   105a0:	05a00913          	li	s2,90
   105a4:	00148493          	addi	s1,s1,1
   105a8:	fe088793          	addi	a5,a7,-32
   105ac:	04f96663          	bltu	s2,a5,105f8 <_vfprintf_r+0x200>
   105b0:	01c12703          	lw	a4,28(sp)
   105b4:	00279793          	slli	a5,a5,0x2
   105b8:	00e787b3          	add	a5,a5,a4
   105bc:	0007a783          	lw	a5,0(a5)
   105c0:	00078067          	jr	a5
   105c4:	00000d13          	li	s10,0
   105c8:	fd088793          	addi	a5,a7,-48
   105cc:	00900693          	li	a3,9
   105d0:	0004c883          	lbu	a7,0(s1)
   105d4:	002d1713          	slli	a4,s10,0x2
   105d8:	01a70d33          	add	s10,a4,s10
   105dc:	001d1d13          	slli	s10,s10,0x1
   105e0:	01a78d33          	add	s10,a5,s10
   105e4:	fd088793          	addi	a5,a7,-48
   105e8:	00148493          	addi	s1,s1,1
   105ec:	fef6f2e3          	bgeu	a3,a5,105d0 <_vfprintf_r+0x1d8>
   105f0:	fe088793          	addi	a5,a7,-32
   105f4:	faf97ee3          	bgeu	s2,a5,105b0 <_vfprintf_r+0x1b8>
   105f8:	14088a63          	beqz	a7,1074c <_vfprintf_r+0x354>
   105fc:	15110623          	sb	a7,332(sp)
   10600:	0c0103a3          	sb	zero,199(sp)
   10604:	00100a93          	li	s5,1
   10608:	00100913          	li	s2,1
   1060c:	14c10c93          	addi	s9,sp,332
   10610:	00012a23          	sw	zero,20(sp)
   10614:	00000993          	li	s3,0
   10618:	02012623          	sw	zero,44(sp)
   1061c:	02012423          	sw	zero,40(sp)
   10620:	02012023          	sw	zero,32(sp)
   10624:	002c7293          	andi	t0,s8,2
   10628:	00028463          	beqz	t0,10630 <_vfprintf_r+0x238>
   1062c:	002a8a93          	addi	s5,s5,2
   10630:	084c7d93          	andi	s11,s8,132
   10634:	000d9663          	bnez	s11,10640 <_vfprintf_r+0x248>
   10638:	415d06b3          	sub	a3,s10,s5
   1063c:	44d04ce3          	bgtz	a3,11294 <_vfprintf_r+0xe9c>
   10640:	0c714683          	lbu	a3,199(sp)
   10644:	02068c63          	beqz	a3,1067c <_vfprintf_r+0x284>
   10648:	0ec12603          	lw	a2,236(sp)
   1064c:	0e812683          	lw	a3,232(sp)
   10650:	0c710593          	addi	a1,sp,199
   10654:	00160613          	addi	a2,a2,1
   10658:	00b42023          	sw	a1,0(s0)
   1065c:	00168693          	addi	a3,a3,1
   10660:	00100593          	li	a1,1
   10664:	00b42223          	sw	a1,4(s0)
   10668:	0ec12623          	sw	a2,236(sp)
   1066c:	0ed12423          	sw	a3,232(sp)
   10670:	00700613          	li	a2,7
   10674:	00840413          	addi	s0,s0,8
   10678:	3cd64863          	blt	a2,a3,10a48 <_vfprintf_r+0x650>
   1067c:	02028c63          	beqz	t0,106b4 <_vfprintf_r+0x2bc>
   10680:	0ec12603          	lw	a2,236(sp)
   10684:	0e812683          	lw	a3,232(sp)
   10688:	0c810793          	addi	a5,sp,200
   1068c:	00260613          	addi	a2,a2,2
   10690:	00168693          	addi	a3,a3,1
   10694:	00200593          	li	a1,2
   10698:	00f42023          	sw	a5,0(s0)
   1069c:	00b42223          	sw	a1,4(s0)
   106a0:	0ec12623          	sw	a2,236(sp)
   106a4:	0ed12423          	sw	a3,232(sp)
   106a8:	00700613          	li	a2,7
   106ac:	00840413          	addi	s0,s0,8
   106b0:	4ed648e3          	blt	a2,a3,113a0 <_vfprintf_r+0xfa8>
   106b4:	08000693          	li	a3,128
   106b8:	1cdd88e3          	beq	s11,a3,11088 <_vfprintf_r+0xc90>
   106bc:	412989b3          	sub	s3,s3,s2
   106c0:	2b304ee3          	bgtz	s3,1117c <_vfprintf_r+0xd84>
   106c4:	100c7693          	andi	a3,s8,256
   106c8:	020696e3          	bnez	a3,10ef4 <_vfprintf_r+0xafc>
   106cc:	0ec12683          	lw	a3,236(sp)
   106d0:	0e812783          	lw	a5,232(sp)
   106d4:	01942023          	sw	s9,0(s0)
   106d8:	00d906b3          	add	a3,s2,a3
   106dc:	00178793          	addi	a5,a5,1
   106e0:	01242223          	sw	s2,4(s0)
   106e4:	0ed12623          	sw	a3,236(sp)
   106e8:	0ef12423          	sw	a5,232(sp)
   106ec:	00700613          	li	a2,7
   106f0:	48f64863          	blt	a2,a5,10b80 <_vfprintf_r+0x788>
   106f4:	00840413          	addi	s0,s0,8
   106f8:	004c7713          	andi	a4,s8,4
   106fc:	00070663          	beqz	a4,10708 <_vfprintf_r+0x310>
   10700:	415d0933          	sub	s2,s10,s5
   10704:	4d2040e3          	bgtz	s2,113c4 <_vfprintf_r+0xfcc>
   10708:	000d0313          	mv	t1,s10
   1070c:	015d5463          	bge	s10,s5,10714 <_vfprintf_r+0x31c>
   10710:	000a8313          	mv	t1,s5
   10714:	01012783          	lw	a5,16(sp)
   10718:	006787b3          	add	a5,a5,t1
   1071c:	00f12823          	sw	a5,16(sp)
   10720:	340692e3          	bnez	a3,11264 <_vfprintf_r+0xe6c>
   10724:	01412783          	lw	a5,20(sp)
   10728:	0e012423          	sw	zero,232(sp)
   1072c:	00078863          	beqz	a5,1073c <_vfprintf_r+0x344>
   10730:	01412583          	lw	a1,20(sp)
   10734:	000a0513          	mv	a0,s4
   10738:	144030ef          	jal	ra,1387c <_free_r>
   1073c:	000b0413          	mv	s0,s6
   10740:	00048c93          	mv	s9,s1
   10744:	000cc703          	lbu	a4,0(s9)
   10748:	de0710e3          	bnez	a4,10528 <_vfprintf_r+0x130>
   1074c:	0ec12783          	lw	a5,236(sp)
   10750:	00078463          	beqz	a5,10758 <_vfprintf_r+0x360>
   10754:	24d0106f          	j	121a0 <_vfprintf_r+0x1da8>
   10758:	00812783          	lw	a5,8(sp)
   1075c:	00c7d783          	lhu	a5,12(a5)
   10760:	0407f793          	andi	a5,a5,64
   10764:	00078463          	beqz	a5,1076c <_vfprintf_r+0x374>
   10768:	17c0206f          	j	128e4 <_vfprintf_r+0x24ec>
   1076c:	1ec12083          	lw	ra,492(sp)
   10770:	1e812403          	lw	s0,488(sp)
   10774:	01012503          	lw	a0,16(sp)
   10778:	1e412483          	lw	s1,484(sp)
   1077c:	1e012903          	lw	s2,480(sp)
   10780:	1dc12983          	lw	s3,476(sp)
   10784:	1d812a03          	lw	s4,472(sp)
   10788:	1d412a83          	lw	s5,468(sp)
   1078c:	1d012b03          	lw	s6,464(sp)
   10790:	1cc12b83          	lw	s7,460(sp)
   10794:	1c812c03          	lw	s8,456(sp)
   10798:	1c412c83          	lw	s9,452(sp)
   1079c:	1c012d03          	lw	s10,448(sp)
   107a0:	1bc12d83          	lw	s11,444(sp)
   107a4:	1f010113          	addi	sp,sp,496
   107a8:	00008067          	ret
   107ac:	00812583          	lw	a1,8(sp)
   107b0:	03012503          	lw	a0,48(sp)
   107b4:	60c020ef          	jal	ra,12dc0 <__swsetup_r>
   107b8:	00050463          	beqz	a0,107c0 <_vfprintf_r+0x3c8>
   107bc:	1280206f          	j	128e4 <_vfprintf_r+0x24ec>
   107c0:	00812783          	lw	a5,8(sp)
   107c4:	00a00713          	li	a4,10
   107c8:	00c79783          	lh	a5,12(a5)
   107cc:	01a7f793          	andi	a5,a5,26
   107d0:	d0e790e3          	bne	a5,a4,104d0 <_vfprintf_r+0xd8>
   107d4:	00812783          	lw	a5,8(sp)
   107d8:	00e79783          	lh	a5,14(a5)
   107dc:	ce07cae3          	bltz	a5,104d0 <_vfprintf_r+0xd8>
   107e0:	01812683          	lw	a3,24(sp)
   107e4:	00812583          	lw	a1,8(sp)
   107e8:	03012503          	lw	a0,48(sp)
   107ec:	00090613          	mv	a2,s2
   107f0:	504020ef          	jal	ra,12cf4 <__sbprintf>
   107f4:	00a12823          	sw	a0,16(sp)
   107f8:	f75ff06f          	j	1076c <_vfprintf_r+0x374>
   107fc:	000a0513          	mv	a0,s4
   10800:	190060ef          	jal	ra,16990 <_localeconv_r>
   10804:	00452783          	lw	a5,4(a0)
   10808:	00078513          	mv	a0,a5
   1080c:	04f12423          	sw	a5,72(sp)
   10810:	2e0080ef          	jal	ra,18af0 <strlen>
   10814:	00050793          	mv	a5,a0
   10818:	000a0513          	mv	a0,s4
   1081c:	00078a93          	mv	s5,a5
   10820:	04f12623          	sw	a5,76(sp)
   10824:	16c060ef          	jal	ra,16990 <_localeconv_r>
   10828:	00852703          	lw	a4,8(a0)
   1082c:	04e12023          	sw	a4,64(sp)
   10830:	780a9ae3          	bnez	s5,117c4 <_vfprintf_r+0x13cc>
   10834:	0004c883          	lbu	a7,0(s1)
   10838:	d6dff06f          	j	105a4 <_vfprintf_r+0x1ac>
   1083c:	0004c883          	lbu	a7,0(s1)
   10840:	020c6c13          	ori	s8,s8,32
   10844:	d61ff06f          	j	105a4 <_vfprintf_r+0x1ac>
   10848:	010c6c13          	ori	s8,s8,16
   1084c:	020c7793          	andi	a5,s8,32
   10850:	38078063          	beqz	a5,10bd0 <_vfprintf_r+0x7d8>
   10854:	01812783          	lw	a5,24(sp)
   10858:	00778b93          	addi	s7,a5,7
   1085c:	ff8bfb93          	andi	s7,s7,-8
   10860:	004ba783          	lw	a5,4(s7)
   10864:	000bad83          	lw	s11,0(s7)
   10868:	008b8713          	addi	a4,s7,8
   1086c:	00e12c23          	sw	a4,24(sp)
   10870:	00078913          	mv	s2,a5
   10874:	3807c863          	bltz	a5,10c04 <_vfprintf_r+0x80c>
   10878:	fff00793          	li	a5,-1
   1087c:	000c0693          	mv	a3,s8
   10880:	4cf98463          	beq	s3,a5,10d48 <_vfprintf_r+0x950>
   10884:	012de7b3          	or	a5,s11,s2
   10888:	f7fc7693          	andi	a3,s8,-129
   1088c:	4a079e63          	bnez	a5,10d48 <_vfprintf_r+0x950>
   10890:	4c099263          	bnez	s3,10d54 <_vfprintf_r+0x95c>
   10894:	00000913          	li	s2,0
   10898:	00068c13          	mv	s8,a3
   1089c:	1b010c93          	addi	s9,sp,432
   108a0:	0c714683          	lbu	a3,199(sp)
   108a4:	00090a93          	mv	s5,s2
   108a8:	01395463          	bge	s2,s3,108b0 <_vfprintf_r+0x4b8>
   108ac:	00098a93          	mv	s5,s3
   108b0:	00012a23          	sw	zero,20(sp)
   108b4:	02012623          	sw	zero,44(sp)
   108b8:	02012423          	sw	zero,40(sp)
   108bc:	02012023          	sw	zero,32(sp)
   108c0:	d60682e3          	beqz	a3,10624 <_vfprintf_r+0x22c>
   108c4:	001a8a93          	addi	s5,s5,1
   108c8:	d5dff06f          	j	10624 <_vfprintf_r+0x22c>
   108cc:	010c6c13          	ori	s8,s8,16
   108d0:	020c7793          	andi	a5,s8,32
   108d4:	2c078663          	beqz	a5,10ba0 <_vfprintf_r+0x7a8>
   108d8:	01812783          	lw	a5,24(sp)
   108dc:	00778b93          	addi	s7,a5,7
   108e0:	ff8bfb93          	andi	s7,s7,-8
   108e4:	000bad83          	lw	s11,0(s7)
   108e8:	004ba903          	lw	s2,4(s7)
   108ec:	008b8793          	addi	a5,s7,8
   108f0:	00f12c23          	sw	a5,24(sp)
   108f4:	bffc7693          	andi	a3,s8,-1025
   108f8:	00000613          	li	a2,0
   108fc:	00000793          	li	a5,0
   10900:	0cf103a3          	sb	a5,199(sp)
   10904:	fff00793          	li	a5,-1
   10908:	32f98263          	beq	s3,a5,10c2c <_vfprintf_r+0x834>
   1090c:	012de7b3          	or	a5,s11,s2
   10910:	f7f6fc13          	andi	s8,a3,-129
   10914:	16079ce3          	bnez	a5,1128c <_vfprintf_r+0xe94>
   10918:	70099a63          	bnez	s3,1102c <_vfprintf_r+0xc34>
   1091c:	5e061ae3          	bnez	a2,11710 <_vfprintf_r+0x1318>
   10920:	0016f913          	andi	s2,a3,1
   10924:	1b010c93          	addi	s9,sp,432
   10928:	f6090ce3          	beqz	s2,108a0 <_vfprintf_r+0x4a8>
   1092c:	03000793          	li	a5,48
   10930:	1af107a3          	sb	a5,431(sp)
   10934:	1af10c93          	addi	s9,sp,431
   10938:	f69ff06f          	j	108a0 <_vfprintf_r+0x4a8>
   1093c:	41948933          	sub	s2,s1,s9
   10940:	c19494e3          	bne	s1,s9,10548 <_vfprintf_r+0x150>
   10944:	0004c703          	lbu	a4,0(s1)
   10948:	c3dff06f          	j	10584 <_vfprintf_r+0x18c>
   1094c:	00812583          	lw	a1,8(sp)
   10950:	0e410613          	addi	a2,sp,228
   10954:	000a0513          	mv	a0,s4
   10958:	4510a0ef          	jal	ra,1b5a8 <__sprint_r>
   1095c:	de051ee3          	bnez	a0,10758 <_vfprintf_r+0x360>
   10960:	000b0413          	mv	s0,s6
   10964:	c11ff06f          	j	10574 <_vfprintf_r+0x17c>
   10968:	008c7693          	andi	a3,s8,8
   1096c:	600694e3          	bnez	a3,11774 <_vfprintf_r+0x137c>
   10970:	01812783          	lw	a5,24(sp)
   10974:	0b010513          	addi	a0,sp,176
   10978:	01112a23          	sw	a7,20(sp)
   1097c:	00778b93          	addi	s7,a5,7
   10980:	ff8bfb93          	andi	s7,s7,-8
   10984:	000ba583          	lw	a1,0(s7)
   10988:	004ba603          	lw	a2,4(s7)
   1098c:	008b8793          	addi	a5,s7,8
   10990:	00f12c23          	sw	a5,24(sp)
   10994:	048140ef          	jal	ra,249dc <__extenddftf2>
   10998:	0b012803          	lw	a6,176(sp)
   1099c:	0b412583          	lw	a1,180(sp)
   109a0:	0b812603          	lw	a2,184(sp)
   109a4:	0bc12683          	lw	a3,188(sp)
   109a8:	01412883          	lw	a7,20(sp)
   109ac:	0f010513          	addi	a0,sp,240
   109b0:	01112a23          	sw	a7,20(sp)
   109b4:	0ed12e23          	sw	a3,252(sp)
   109b8:	0f012823          	sw	a6,240(sp)
   109bc:	0eb12a23          	sw	a1,244(sp)
   109c0:	0ec12c23          	sw	a2,248(sp)
   109c4:	74d050ef          	jal	ra,16910 <_ldcheck>
   109c8:	0ca12623          	sw	a0,204(sp)
   109cc:	00200693          	li	a3,2
   109d0:	01412883          	lw	a7,20(sp)
   109d4:	00d51463          	bne	a0,a3,109dc <_vfprintf_r+0x5e4>
   109d8:	3180106f          	j	11cf0 <_vfprintf_r+0x18f8>
   109dc:	00100693          	li	a3,1
   109e0:	00d51463          	bne	a0,a3,109e8 <_vfprintf_r+0x5f0>
   109e4:	46c0106f          	j	11e50 <_vfprintf_r+0x1a58>
   109e8:	06100693          	li	a3,97
   109ec:	74d88ae3          	beq	a7,a3,11940 <_vfprintf_r+0x1548>
   109f0:	04100693          	li	a3,65
   109f4:	05800793          	li	a5,88
   109f8:	74d886e3          	beq	a7,a3,11944 <_vfprintf_r+0x154c>
   109fc:	fff00693          	li	a3,-1
   10a00:	00d99463          	bne	s3,a3,10a08 <_vfprintf_r+0x610>
   10a04:	0700206f          	j	12a74 <_vfprintf_r+0x267c>
   10a08:	fdf8f693          	andi	a3,a7,-33
   10a0c:	04700613          	li	a2,71
   10a10:	00c69463          	bne	a3,a2,10a18 <_vfprintf_r+0x620>
   10a14:	0500206f          	j	12a64 <_vfprintf_r+0x266c>
   10a18:	0fc12d83          	lw	s11,252(sp)
   10a1c:	100c6793          	ori	a5,s8,256
   10a20:	04f12e23          	sw	a5,92(sp)
   10a24:	03812423          	sw	s8,40(sp)
   10a28:	0f012f03          	lw	t5,240(sp)
   10a2c:	0f412e83          	lw	t4,244(sp)
   10a30:	0f812e03          	lw	t3,248(sp)
   10a34:	000dd463          	bgez	s11,10a3c <_vfprintf_r+0x644>
   10a38:	77c0106f          	j	121b4 <_vfprintf_r+0x1dbc>
   10a3c:	06012023          	sw	zero,96(sp)
   10a40:	00012a23          	sw	zero,20(sp)
   10a44:	7510006f          	j	11994 <_vfprintf_r+0x159c>
   10a48:	00812583          	lw	a1,8(sp)
   10a4c:	0e410613          	addi	a2,sp,228
   10a50:	000a0513          	mv	a0,s4
   10a54:	05112a23          	sw	a7,84(sp)
   10a58:	04512823          	sw	t0,80(sp)
   10a5c:	34d0a0ef          	jal	ra,1b5a8 <__sprint_r>
   10a60:	00051ce3          	bnez	a0,11278 <_vfprintf_r+0xe80>
   10a64:	05412883          	lw	a7,84(sp)
   10a68:	05012283          	lw	t0,80(sp)
   10a6c:	000b0413          	mv	s0,s6
   10a70:	c0dff06f          	j	1067c <_vfprintf_r+0x284>
   10a74:	02412783          	lw	a5,36(sp)
   10a78:	00100613          	li	a2,1
   10a7c:	00840993          	addi	s3,s0,8
   10a80:	38f650e3          	bge	a2,a5,11600 <_vfprintf_r+0x1208>
   10a84:	0ec12683          	lw	a3,236(sp)
   10a88:	0e812903          	lw	s2,232(sp)
   10a8c:	00100613          	li	a2,1
   10a90:	00168693          	addi	a3,a3,1
   10a94:	00190913          	addi	s2,s2,1
   10a98:	00c42223          	sw	a2,4(s0)
   10a9c:	01942023          	sw	s9,0(s0)
   10aa0:	0ed12623          	sw	a3,236(sp)
   10aa4:	0f212423          	sw	s2,232(sp)
   10aa8:	00700613          	li	a2,7
   10aac:	01265463          	bge	a2,s2,10ab4 <_vfprintf_r+0x6bc>
   10ab0:	0740106f          	j	11b24 <_vfprintf_r+0x172c>
   10ab4:	03412783          	lw	a5,52(sp)
   10ab8:	03812703          	lw	a4,56(sp)
   10abc:	00190913          	addi	s2,s2,1
   10ac0:	00d78db3          	add	s11,a5,a3
   10ac4:	00e9a023          	sw	a4,0(s3)
   10ac8:	00f9a223          	sw	a5,4(s3)
   10acc:	0fb12623          	sw	s11,236(sp)
   10ad0:	0f212423          	sw	s2,232(sp)
   10ad4:	00700693          	li	a3,7
   10ad8:	00898993          	addi	s3,s3,8
   10adc:	0126d463          	bge	a3,s2,10ae4 <_vfprintf_r+0x6ec>
   10ae0:	0680106f          	j	11b48 <_vfprintf_r+0x1750>
   10ae4:	0f012683          	lw	a3,240(sp)
   10ae8:	0a010593          	addi	a1,sp,160
   10aec:	0b010513          	addi	a0,sp,176
   10af0:	0ad12823          	sw	a3,176(sp)
   10af4:	0f412683          	lw	a3,244(sp)
   10af8:	0a012023          	sw	zero,160(sp)
   10afc:	0a012223          	sw	zero,164(sp)
   10b00:	0ad12a23          	sw	a3,180(sp)
   10b04:	0f812683          	lw	a3,248(sp)
   10b08:	0a012423          	sw	zero,168(sp)
   10b0c:	0a012623          	sw	zero,172(sp)
   10b10:	0ad12c23          	sw	a3,184(sp)
   10b14:	0fc12683          	lw	a3,252(sp)
   10b18:	0ad12e23          	sw	a3,188(sp)
   10b1c:	7bd100ef          	jal	ra,21ad8 <__eqtf2>
   10b20:	02412783          	lw	a5,36(sp)
   10b24:	fff78413          	addi	s0,a5,-1
   10b28:	320506e3          	beqz	a0,11654 <_vfprintf_r+0x125c>
   10b2c:	001c8793          	addi	a5,s9,1
   10b30:	00190913          	addi	s2,s2,1
   10b34:	008d8db3          	add	s11,s11,s0
   10b38:	00f9a023          	sw	a5,0(s3)
   10b3c:	0089a223          	sw	s0,4(s3)
   10b40:	0fb12623          	sw	s11,236(sp)
   10b44:	0f212423          	sw	s2,232(sp)
   10b48:	00700793          	li	a5,7
   10b4c:	00898993          	addi	s3,s3,8
   10b50:	2f27c0e3          	blt	a5,s2,11630 <_vfprintf_r+0x1238>
   10b54:	04412703          	lw	a4,68(sp)
   10b58:	0d410613          	addi	a2,sp,212
   10b5c:	00190793          	addi	a5,s2,1
   10b60:	01b706b3          	add	a3,a4,s11
   10b64:	00c9a023          	sw	a2,0(s3)
   10b68:	00e9a223          	sw	a4,4(s3)
   10b6c:	0ed12623          	sw	a3,236(sp)
   10b70:	0ef12423          	sw	a5,232(sp)
   10b74:	00700613          	li	a2,7
   10b78:	00898413          	addi	s0,s3,8
   10b7c:	b6f65ee3          	bge	a2,a5,106f8 <_vfprintf_r+0x300>
   10b80:	00812583          	lw	a1,8(sp)
   10b84:	0e410613          	addi	a2,sp,228
   10b88:	000a0513          	mv	a0,s4
   10b8c:	21d0a0ef          	jal	ra,1b5a8 <__sprint_r>
   10b90:	6e051463          	bnez	a0,11278 <_vfprintf_r+0xe80>
   10b94:	0ec12683          	lw	a3,236(sp)
   10b98:	000b0413          	mv	s0,s6
   10b9c:	b5dff06f          	j	106f8 <_vfprintf_r+0x300>
   10ba0:	01812703          	lw	a4,24(sp)
   10ba4:	010c7793          	andi	a5,s8,16
   10ba8:	00072d83          	lw	s11,0(a4)
   10bac:	00470713          	addi	a4,a4,4
   10bb0:	00e12c23          	sw	a4,24(sp)
   10bb4:	3a0792e3          	bnez	a5,11758 <_vfprintf_r+0x1360>
   10bb8:	040c7793          	andi	a5,s8,64
   10bbc:	38078ae3          	beqz	a5,11750 <_vfprintf_r+0x1358>
   10bc0:	010d9d93          	slli	s11,s11,0x10
   10bc4:	010ddd93          	srli	s11,s11,0x10
   10bc8:	00000913          	li	s2,0
   10bcc:	d29ff06f          	j	108f4 <_vfprintf_r+0x4fc>
   10bd0:	01812703          	lw	a4,24(sp)
   10bd4:	010c7793          	andi	a5,s8,16
   10bd8:	00072d83          	lw	s11,0(a4)
   10bdc:	00470713          	addi	a4,a4,4
   10be0:	00e12c23          	sw	a4,24(sp)
   10be4:	380792e3          	bnez	a5,11768 <_vfprintf_r+0x1370>
   10be8:	040c7793          	andi	a5,s8,64
   10bec:	36078ae3          	beqz	a5,11760 <_vfprintf_r+0x1368>
   10bf0:	010d9d93          	slli	s11,s11,0x10
   10bf4:	410ddd93          	srai	s11,s11,0x10
   10bf8:	41fdd913          	srai	s2,s11,0x1f
   10bfc:	00090793          	mv	a5,s2
   10c00:	c607dce3          	bgez	a5,10878 <_vfprintf_r+0x480>
   10c04:	01b037b3          	snez	a5,s11
   10c08:	41200833          	neg	a6,s2
   10c0c:	40f80933          	sub	s2,a6,a5
   10c10:	02d00793          	li	a5,45
   10c14:	0cf103a3          	sb	a5,199(sp)
   10c18:	fff00793          	li	a5,-1
   10c1c:	41b00db3          	neg	s11,s11
   10c20:	000c0693          	mv	a3,s8
   10c24:	00100613          	li	a2,1
   10c28:	cef992e3          	bne	s3,a5,1090c <_vfprintf_r+0x514>
   10c2c:	00100793          	li	a5,1
   10c30:	10f60c63          	beq	a2,a5,10d48 <_vfprintf_r+0x950>
   10c34:	00200793          	li	a5,2
   10c38:	40f60663          	beq	a2,a5,11044 <_vfprintf_r+0xc4c>
   10c3c:	1b010c93          	addi	s9,sp,432
   10c40:	01d91793          	slli	a5,s2,0x1d
   10c44:	007df713          	andi	a4,s11,7
   10c48:	003ddd93          	srli	s11,s11,0x3
   10c4c:	03070713          	addi	a4,a4,48
   10c50:	01b7edb3          	or	s11,a5,s11
   10c54:	00395913          	srli	s2,s2,0x3
   10c58:	feec8fa3          	sb	a4,-1(s9)
   10c5c:	012de7b3          	or	a5,s11,s2
   10c60:	000c8593          	mv	a1,s9
   10c64:	fffc8c93          	addi	s9,s9,-1
   10c68:	fc079ce3          	bnez	a5,10c40 <_vfprintf_r+0x848>
   10c6c:	0016f613          	andi	a2,a3,1
   10c70:	40060463          	beqz	a2,11078 <_vfprintf_r+0xc80>
   10c74:	03000613          	li	a2,48
   10c78:	40c70063          	beq	a4,a2,11078 <_vfprintf_r+0xc80>
   10c7c:	ffe58593          	addi	a1,a1,-2
   10c80:	1b010793          	addi	a5,sp,432
   10c84:	fecc8fa3          	sb	a2,-1(s9)
   10c88:	40b78933          	sub	s2,a5,a1
   10c8c:	00068c13          	mv	s8,a3
   10c90:	00058c93          	mv	s9,a1
   10c94:	c0dff06f          	j	108a0 <_vfprintf_r+0x4a8>
   10c98:	03012503          	lw	a0,48(sp)
   10c9c:	215020ef          	jal	ra,136b0 <__sinit>
   10ca0:	fd8ff06f          	j	10478 <_vfprintf_r+0x80>
   10ca4:	01812703          	lw	a4,24(sp)
   10ca8:	0c0103a3          	sb	zero,199(sp)
   10cac:	00100a93          	li	s5,1
   10cb0:	00072783          	lw	a5,0(a4)
   10cb4:	00470713          	addi	a4,a4,4
   10cb8:	00e12c23          	sw	a4,24(sp)
   10cbc:	14f10623          	sb	a5,332(sp)
   10cc0:	00100913          	li	s2,1
   10cc4:	14c10c93          	addi	s9,sp,332
   10cc8:	949ff06f          	j	10610 <_vfprintf_r+0x218>
   10ccc:	01812783          	lw	a5,24(sp)
   10cd0:	0c0103a3          	sb	zero,199(sp)
   10cd4:	0007ac83          	lw	s9,0(a5)
   10cd8:	00478b93          	addi	s7,a5,4
   10cdc:	3c0c88e3          	beqz	s9,118ac <_vfprintf_r+0x14b4>
   10ce0:	fff00693          	li	a3,-1
   10ce4:	00d99463          	bne	s3,a3,10cec <_vfprintf_r+0x8f4>
   10ce8:	1200106f          	j	11e08 <_vfprintf_r+0x1a10>
   10cec:	00098613          	mv	a2,s3
   10cf0:	00000593          	li	a1,0
   10cf4:	000c8513          	mv	a0,s9
   10cf8:	01112c23          	sw	a7,24(sp)
   10cfc:	680060ef          	jal	ra,1737c <memchr>
   10d00:	00a12a23          	sw	a0,20(sp)
   10d04:	01812883          	lw	a7,24(sp)
   10d08:	00051463          	bnez	a0,10d10 <_vfprintf_r+0x918>
   10d0c:	2f90106f          	j	12804 <_vfprintf_r+0x240c>
   10d10:	01412783          	lw	a5,20(sp)
   10d14:	0c714683          	lbu	a3,199(sp)
   10d18:	01712c23          	sw	s7,24(sp)
   10d1c:	41978933          	sub	s2,a5,s9
   10d20:	fff94813          	not	a6,s2
   10d24:	41f85813          	srai	a6,a6,0x1f
   10d28:	00012a23          	sw	zero,20(sp)
   10d2c:	02012623          	sw	zero,44(sp)
   10d30:	02012423          	sw	zero,40(sp)
   10d34:	02012023          	sw	zero,32(sp)
   10d38:	01097ab3          	and	s5,s2,a6
   10d3c:	00000993          	li	s3,0
   10d40:	b80692e3          	bnez	a3,108c4 <_vfprintf_r+0x4cc>
   10d44:	8e1ff06f          	j	10624 <_vfprintf_r+0x22c>
   10d48:	62091ae3          	bnez	s2,11b7c <_vfprintf_r+0x1784>
   10d4c:	00900793          	li	a5,9
   10d50:	63b7e6e3          	bltu	a5,s11,11b7c <_vfprintf_r+0x1784>
   10d54:	030d8d93          	addi	s11,s11,48
   10d58:	1bb107a3          	sb	s11,431(sp)
   10d5c:	00068c13          	mv	s8,a3
   10d60:	00100913          	li	s2,1
   10d64:	1af10c93          	addi	s9,sp,431
   10d68:	b39ff06f          	j	108a0 <_vfprintf_r+0x4a8>
   10d6c:	01812783          	lw	a5,24(sp)
   10d70:	0007ad03          	lw	s10,0(a5)
   10d74:	00478793          	addi	a5,a5,4
   10d78:	1a0d5ae3          	bgez	s10,1172c <_vfprintf_r+0x1334>
   10d7c:	41a00d33          	neg	s10,s10
   10d80:	00f12c23          	sw	a5,24(sp)
   10d84:	0004c883          	lbu	a7,0(s1)
   10d88:	004c6c13          	ori	s8,s8,4
   10d8c:	819ff06f          	j	105a4 <_vfprintf_r+0x1ac>
   10d90:	02b00793          	li	a5,43
   10d94:	0004c883          	lbu	a7,0(s1)
   10d98:	0cf103a3          	sb	a5,199(sp)
   10d9c:	809ff06f          	j	105a4 <_vfprintf_r+0x1ac>
   10da0:	0004c883          	lbu	a7,0(s1)
   10da4:	080c6c13          	ori	s8,s8,128
   10da8:	ffcff06f          	j	105a4 <_vfprintf_r+0x1ac>
   10dac:	0004c883          	lbu	a7,0(s1)
   10db0:	02a00793          	li	a5,42
   10db4:	00148713          	addi	a4,s1,1
   10db8:	00f89463          	bne	a7,a5,10dc0 <_vfprintf_r+0x9c8>
   10dbc:	6dd0106f          	j	12c98 <_vfprintf_r+0x28a0>
   10dc0:	fd088793          	addi	a5,a7,-48
   10dc4:	00900613          	li	a2,9
   10dc8:	00070493          	mv	s1,a4
   10dcc:	00000993          	li	s3,0
   10dd0:	00900693          	li	a3,9
   10dd4:	fcf66a63          	bltu	a2,a5,105a8 <_vfprintf_r+0x1b0>
   10dd8:	0004c883          	lbu	a7,0(s1)
   10ddc:	00299713          	slli	a4,s3,0x2
   10de0:	013709b3          	add	s3,a4,s3
   10de4:	00199993          	slli	s3,s3,0x1
   10de8:	00f989b3          	add	s3,s3,a5
   10dec:	fd088793          	addi	a5,a7,-48
   10df0:	00148493          	addi	s1,s1,1
   10df4:	fef6f2e3          	bgeu	a3,a5,10dd8 <_vfprintf_r+0x9e0>
   10df8:	fb0ff06f          	j	105a8 <_vfprintf_r+0x1b0>
   10dfc:	0004c883          	lbu	a7,0(s1)
   10e00:	001c6c13          	ori	s8,s8,1
   10e04:	fa0ff06f          	j	105a4 <_vfprintf_r+0x1ac>
   10e08:	0c714783          	lbu	a5,199(sp)
   10e0c:	0004c883          	lbu	a7,0(s1)
   10e10:	f8079a63          	bnez	a5,105a4 <_vfprintf_r+0x1ac>
   10e14:	02000793          	li	a5,32
   10e18:	0cf103a3          	sb	a5,199(sp)
   10e1c:	f88ff06f          	j	105a4 <_vfprintf_r+0x1ac>
   10e20:	0004c883          	lbu	a7,0(s1)
   10e24:	008c6c13          	ori	s8,s8,8
   10e28:	f7cff06f          	j	105a4 <_vfprintf_r+0x1ac>
   10e2c:	010c6693          	ori	a3,s8,16
   10e30:	0206f793          	andi	a5,a3,32
   10e34:	0a0784e3          	beqz	a5,116dc <_vfprintf_r+0x12e4>
   10e38:	01812783          	lw	a5,24(sp)
   10e3c:	00100613          	li	a2,1
   10e40:	00778b93          	addi	s7,a5,7
   10e44:	ff8bfb93          	andi	s7,s7,-8
   10e48:	008b8793          	addi	a5,s7,8
   10e4c:	000bad83          	lw	s11,0(s7)
   10e50:	004ba903          	lw	s2,4(s7)
   10e54:	00f12c23          	sw	a5,24(sp)
   10e58:	aa5ff06f          	j	108fc <_vfprintf_r+0x504>
   10e5c:	01812703          	lw	a4,24(sp)
   10e60:	ffff87b7          	lui	a5,0xffff8
   10e64:	8307c793          	xori	a5,a5,-2000
   10e68:	0cf11423          	sh	a5,200(sp)
   10e6c:	00470793          	addi	a5,a4,4
   10e70:	00f12c23          	sw	a5,24(sp)
   10e74:	000257b7          	lui	a5,0x25
   10e78:	11078793          	addi	a5,a5,272 # 25110 <__clzsi2+0x100>
   10e7c:	00072d83          	lw	s11,0(a4)
   10e80:	00000913          	li	s2,0
   10e84:	002c6693          	ori	a3,s8,2
   10e88:	02f12e23          	sw	a5,60(sp)
   10e8c:	00200613          	li	a2,2
   10e90:	07800893          	li	a7,120
   10e94:	a69ff06f          	j	108fc <_vfprintf_r+0x504>
   10e98:	0004c883          	lbu	a7,0(s1)
   10e9c:	06c00793          	li	a5,108
   10ea0:	1ef88ee3          	beq	a7,a5,1189c <_vfprintf_r+0x14a4>
   10ea4:	010c6c13          	ori	s8,s8,16
   10ea8:	efcff06f          	j	105a4 <_vfprintf_r+0x1ac>
   10eac:	0004c883          	lbu	a7,0(s1)
   10eb0:	06800793          	li	a5,104
   10eb4:	1af884e3          	beq	a7,a5,1185c <_vfprintf_r+0x1464>
   10eb8:	040c6c13          	ori	s8,s8,64
   10ebc:	ee8ff06f          	j	105a4 <_vfprintf_r+0x1ac>
   10ec0:	020c7793          	andi	a5,s8,32
   10ec4:	0c078ae3          	beqz	a5,11798 <_vfprintf_r+0x13a0>
   10ec8:	01812783          	lw	a5,24(sp)
   10ecc:	01012683          	lw	a3,16(sp)
   10ed0:	0007a783          	lw	a5,0(a5)
   10ed4:	41f6d713          	srai	a4,a3,0x1f
   10ed8:	00d7a023          	sw	a3,0(a5)
   10edc:	00e7a223          	sw	a4,4(a5)
   10ee0:	01812783          	lw	a5,24(sp)
   10ee4:	00048c93          	mv	s9,s1
   10ee8:	00478793          	addi	a5,a5,4
   10eec:	00f12c23          	sw	a5,24(sp)
   10ef0:	855ff06f          	j	10744 <_vfprintf_r+0x34c>
   10ef4:	06500693          	li	a3,101
   10ef8:	b716dee3          	bge	a3,a7,10a74 <_vfprintf_r+0x67c>
   10efc:	0f012683          	lw	a3,240(sp)
   10f00:	0a010593          	addi	a1,sp,160
   10f04:	0b010513          	addi	a0,sp,176
   10f08:	0ad12823          	sw	a3,176(sp)
   10f0c:	0f412683          	lw	a3,244(sp)
   10f10:	0a012023          	sw	zero,160(sp)
   10f14:	0a012223          	sw	zero,164(sp)
   10f18:	0ad12a23          	sw	a3,180(sp)
   10f1c:	0f812683          	lw	a3,248(sp)
   10f20:	0a012423          	sw	zero,168(sp)
   10f24:	0a012623          	sw	zero,172(sp)
   10f28:	0ad12c23          	sw	a3,184(sp)
   10f2c:	0fc12683          	lw	a3,252(sp)
   10f30:	0ad12e23          	sw	a3,188(sp)
   10f34:	3a5100ef          	jal	ra,21ad8 <__eqtf2>
   10f38:	52051e63          	bnez	a0,11474 <_vfprintf_r+0x107c>
   10f3c:	0ec12683          	lw	a3,236(sp)
   10f40:	0e812783          	lw	a5,232(sp)
   10f44:	00025637          	lui	a2,0x25
   10f48:	14060613          	addi	a2,a2,320 # 25140 <__clzsi2+0x130>
   10f4c:	00c42023          	sw	a2,0(s0)
   10f50:	00168693          	addi	a3,a3,1
   10f54:	00100613          	li	a2,1
   10f58:	00178793          	addi	a5,a5,1
   10f5c:	00c42223          	sw	a2,4(s0)
   10f60:	0ed12623          	sw	a3,236(sp)
   10f64:	0ef12423          	sw	a5,232(sp)
   10f68:	00700613          	li	a2,7
   10f6c:	00840413          	addi	s0,s0,8
   10f70:	54f648e3          	blt	a2,a5,11cc0 <_vfprintf_r+0x18c8>
   10f74:	0cc12783          	lw	a5,204(sp)
   10f78:	02412703          	lw	a4,36(sp)
   10f7c:	7ae7d063          	bge	a5,a4,1171c <_vfprintf_r+0x1324>
   10f80:	03812783          	lw	a5,56(sp)
   10f84:	03412703          	lw	a4,52(sp)
   10f88:	00700613          	li	a2,7
   10f8c:	00f42023          	sw	a5,0(s0)
   10f90:	0e812783          	lw	a5,232(sp)
   10f94:	00d706b3          	add	a3,a4,a3
   10f98:	00e42223          	sw	a4,4(s0)
   10f9c:	00178793          	addi	a5,a5,1
   10fa0:	0ed12623          	sw	a3,236(sp)
   10fa4:	0ef12423          	sw	a5,232(sp)
   10fa8:	00840413          	addi	s0,s0,8
   10fac:	0cf648e3          	blt	a2,a5,1187c <_vfprintf_r+0x1484>
   10fb0:	02412783          	lw	a5,36(sp)
   10fb4:	fff78913          	addi	s2,a5,-1
   10fb8:	f5205063          	blez	s2,106f8 <_vfprintf_r+0x300>
   10fbc:	00025e37          	lui	t3,0x25
   10fc0:	01000613          	li	a2,16
   10fc4:	0e812783          	lw	a5,232(sp)
   10fc8:	348e0b93          	addi	s7,t3,840 # 25348 <zeroes.0>
   10fcc:	51265ae3          	bge	a2,s2,11ce0 <_vfprintf_r+0x18e8>
   10fd0:	00812c83          	lw	s9,8(sp)
   10fd4:	01000993          	li	s3,16
   10fd8:	00700d93          	li	s11,7
   10fdc:	00c0006f          	j	10fe8 <_vfprintf_r+0xbf0>
   10fe0:	ff090913          	addi	s2,s2,-16
   10fe4:	4f29dee3          	bge	s3,s2,11ce0 <_vfprintf_r+0x18e8>
   10fe8:	01068693          	addi	a3,a3,16
   10fec:	00178793          	addi	a5,a5,1
   10ff0:	01742023          	sw	s7,0(s0)
   10ff4:	01342223          	sw	s3,4(s0)
   10ff8:	0ed12623          	sw	a3,236(sp)
   10ffc:	0ef12423          	sw	a5,232(sp)
   11000:	00840413          	addi	s0,s0,8
   11004:	fcfddee3          	bge	s11,a5,10fe0 <_vfprintf_r+0xbe8>
   11008:	0e410613          	addi	a2,sp,228
   1100c:	000c8593          	mv	a1,s9
   11010:	000a0513          	mv	a0,s4
   11014:	5940a0ef          	jal	ra,1b5a8 <__sprint_r>
   11018:	26051063          	bnez	a0,11278 <_vfprintf_r+0xe80>
   1101c:	0ec12683          	lw	a3,236(sp)
   11020:	0e812783          	lw	a5,232(sp)
   11024:	000b0413          	mv	s0,s6
   11028:	fb9ff06f          	j	10fe0 <_vfprintf_r+0xbe8>
   1102c:	00100793          	li	a5,1
   11030:	00f61463          	bne	a2,a5,11038 <_vfprintf_r+0xc40>
   11034:	0390106f          	j	1286c <_vfprintf_r+0x2474>
   11038:	00200793          	li	a5,2
   1103c:	000c0693          	mv	a3,s8
   11040:	bef61ee3          	bne	a2,a5,10c3c <_vfprintf_r+0x844>
   11044:	03c12603          	lw	a2,60(sp)
   11048:	1b010c93          	addi	s9,sp,432
   1104c:	00fdf793          	andi	a5,s11,15
   11050:	00f607b3          	add	a5,a2,a5
   11054:	0007c703          	lbu	a4,0(a5)
   11058:	004ddd93          	srli	s11,s11,0x4
   1105c:	01c91793          	slli	a5,s2,0x1c
   11060:	01b7edb3          	or	s11,a5,s11
   11064:	00495913          	srli	s2,s2,0x4
   11068:	feec8fa3          	sb	a4,-1(s9)
   1106c:	012de7b3          	or	a5,s11,s2
   11070:	fffc8c93          	addi	s9,s9,-1
   11074:	fc079ce3          	bnez	a5,1104c <_vfprintf_r+0xc54>
   11078:	1b010793          	addi	a5,sp,432
   1107c:	41978933          	sub	s2,a5,s9
   11080:	00068c13          	mv	s8,a3
   11084:	81dff06f          	j	108a0 <_vfprintf_r+0x4a8>
   11088:	415d0db3          	sub	s11,s10,s5
   1108c:	e3b05863          	blez	s11,106bc <_vfprintf_r+0x2c4>
   11090:	00025e37          	lui	t3,0x25
   11094:	01000513          	li	a0,16
   11098:	0ec12583          	lw	a1,236(sp)
   1109c:	0e812603          	lw	a2,232(sp)
   110a0:	348e0b93          	addi	s7,t3,840 # 25348 <zeroes.0>
   110a4:	09b55863          	bge	a0,s11,11134 <_vfprintf_r+0xd3c>
   110a8:	00040793          	mv	a5,s0
   110ac:	01000f13          	li	t5,16
   110b0:	000b8413          	mv	s0,s7
   110b4:	00700f93          	li	t6,7
   110b8:	000a8b93          	mv	s7,s5
   110bc:	00090a93          	mv	s5,s2
   110c0:	00088913          	mv	s2,a7
   110c4:	00c0006f          	j	110d0 <_vfprintf_r+0xcd8>
   110c8:	ff0d8d93          	addi	s11,s11,-16
   110cc:	05bf5a63          	bge	t5,s11,11120 <_vfprintf_r+0xd28>
   110d0:	01058593          	addi	a1,a1,16
   110d4:	00160613          	addi	a2,a2,1
   110d8:	0087a023          	sw	s0,0(a5)
   110dc:	01e7a223          	sw	t5,4(a5)
   110e0:	0eb12623          	sw	a1,236(sp)
   110e4:	0ec12423          	sw	a2,232(sp)
   110e8:	00878793          	addi	a5,a5,8
   110ec:	fccfdee3          	bge	t6,a2,110c8 <_vfprintf_r+0xcd0>
   110f0:	00812583          	lw	a1,8(sp)
   110f4:	0e410613          	addi	a2,sp,228
   110f8:	000a0513          	mv	a0,s4
   110fc:	4ac0a0ef          	jal	ra,1b5a8 <__sprint_r>
   11100:	16051c63          	bnez	a0,11278 <_vfprintf_r+0xe80>
   11104:	01000f13          	li	t5,16
   11108:	ff0d8d93          	addi	s11,s11,-16
   1110c:	0ec12583          	lw	a1,236(sp)
   11110:	0e812603          	lw	a2,232(sp)
   11114:	000b0793          	mv	a5,s6
   11118:	00700f93          	li	t6,7
   1111c:	fbbf4ae3          	blt	t5,s11,110d0 <_vfprintf_r+0xcd8>
   11120:	00090893          	mv	a7,s2
   11124:	000a8913          	mv	s2,s5
   11128:	000b8a93          	mv	s5,s7
   1112c:	00040b93          	mv	s7,s0
   11130:	00078413          	mv	s0,a5
   11134:	00bd85b3          	add	a1,s11,a1
   11138:	00160613          	addi	a2,a2,1
   1113c:	01742023          	sw	s7,0(s0)
   11140:	01b42223          	sw	s11,4(s0)
   11144:	0eb12623          	sw	a1,236(sp)
   11148:	0ec12423          	sw	a2,232(sp)
   1114c:	00700693          	li	a3,7
   11150:	00840413          	addi	s0,s0,8
   11154:	d6c6d463          	bge	a3,a2,106bc <_vfprintf_r+0x2c4>
   11158:	00812583          	lw	a1,8(sp)
   1115c:	0e410613          	addi	a2,sp,228
   11160:	000a0513          	mv	a0,s4
   11164:	05112823          	sw	a7,80(sp)
   11168:	4400a0ef          	jal	ra,1b5a8 <__sprint_r>
   1116c:	10051663          	bnez	a0,11278 <_vfprintf_r+0xe80>
   11170:	05012883          	lw	a7,80(sp)
   11174:	000b0413          	mv	s0,s6
   11178:	d44ff06f          	j	106bc <_vfprintf_r+0x2c4>
   1117c:	00025e37          	lui	t3,0x25
   11180:	01000693          	li	a3,16
   11184:	0ec12583          	lw	a1,236(sp)
   11188:	0e812603          	lw	a2,232(sp)
   1118c:	348e0b93          	addi	s7,t3,840 # 25348 <zeroes.0>
   11190:	0936d663          	bge	a3,s3,1121c <_vfprintf_r+0xe24>
   11194:	00040793          	mv	a5,s0
   11198:	00c12b83          	lw	s7,12(sp)
   1119c:	00098413          	mv	s0,s3
   111a0:	01000693          	li	a3,16
   111a4:	00090993          	mv	s3,s2
   111a8:	00700d93          	li	s11,7
   111ac:	00088913          	mv	s2,a7
   111b0:	00c0006f          	j	111bc <_vfprintf_r+0xdc4>
   111b4:	ff040413          	addi	s0,s0,-16
   111b8:	0486da63          	bge	a3,s0,1120c <_vfprintf_r+0xe14>
   111bc:	00c12703          	lw	a4,12(sp)
   111c0:	01058593          	addi	a1,a1,16
   111c4:	00160613          	addi	a2,a2,1
   111c8:	00e7a023          	sw	a4,0(a5)
   111cc:	00d7a223          	sw	a3,4(a5)
   111d0:	0eb12623          	sw	a1,236(sp)
   111d4:	0ec12423          	sw	a2,232(sp)
   111d8:	00878793          	addi	a5,a5,8
   111dc:	fccddce3          	bge	s11,a2,111b4 <_vfprintf_r+0xdbc>
   111e0:	00812583          	lw	a1,8(sp)
   111e4:	0e410613          	addi	a2,sp,228
   111e8:	000a0513          	mv	a0,s4
   111ec:	3bc0a0ef          	jal	ra,1b5a8 <__sprint_r>
   111f0:	08051463          	bnez	a0,11278 <_vfprintf_r+0xe80>
   111f4:	01000693          	li	a3,16
   111f8:	ff040413          	addi	s0,s0,-16
   111fc:	0ec12583          	lw	a1,236(sp)
   11200:	0e812603          	lw	a2,232(sp)
   11204:	000b0793          	mv	a5,s6
   11208:	fa86cae3          	blt	a3,s0,111bc <_vfprintf_r+0xdc4>
   1120c:	00090893          	mv	a7,s2
   11210:	00098913          	mv	s2,s3
   11214:	00040993          	mv	s3,s0
   11218:	00078413          	mv	s0,a5
   1121c:	00b985b3          	add	a1,s3,a1
   11220:	00160613          	addi	a2,a2,1
   11224:	01742023          	sw	s7,0(s0)
   11228:	01342223          	sw	s3,4(s0)
   1122c:	0eb12623          	sw	a1,236(sp)
   11230:	0ec12423          	sw	a2,232(sp)
   11234:	00700693          	li	a3,7
   11238:	00840413          	addi	s0,s0,8
   1123c:	c8c6d463          	bge	a3,a2,106c4 <_vfprintf_r+0x2cc>
   11240:	00812583          	lw	a1,8(sp)
   11244:	0e410613          	addi	a2,sp,228
   11248:	000a0513          	mv	a0,s4
   1124c:	05112823          	sw	a7,80(sp)
   11250:	3580a0ef          	jal	ra,1b5a8 <__sprint_r>
   11254:	02051263          	bnez	a0,11278 <_vfprintf_r+0xe80>
   11258:	05012883          	lw	a7,80(sp)
   1125c:	000b0413          	mv	s0,s6
   11260:	c64ff06f          	j	106c4 <_vfprintf_r+0x2cc>
   11264:	00812583          	lw	a1,8(sp)
   11268:	0e410613          	addi	a2,sp,228
   1126c:	000a0513          	mv	a0,s4
   11270:	3380a0ef          	jal	ra,1b5a8 <__sprint_r>
   11274:	ca050863          	beqz	a0,10724 <_vfprintf_r+0x32c>
   11278:	01412583          	lw	a1,20(sp)
   1127c:	cc058e63          	beqz	a1,10758 <_vfprintf_r+0x360>
   11280:	03012503          	lw	a0,48(sp)
   11284:	5f8020ef          	jal	ra,1387c <_free_r>
   11288:	cd0ff06f          	j	10758 <_vfprintf_r+0x360>
   1128c:	000c0693          	mv	a3,s8
   11290:	99dff06f          	j	10c2c <_vfprintf_r+0x834>
   11294:	00025e37          	lui	t3,0x25
   11298:	01000513          	li	a0,16
   1129c:	0ec12583          	lw	a1,236(sp)
   112a0:	0e812603          	lw	a2,232(sp)
   112a4:	358e0b93          	addi	s7,t3,856 # 25358 <blanks.1>
   112a8:	0ad55463          	bge	a0,a3,11350 <_vfprintf_r+0xf58>
   112ac:	04912a23          	sw	s1,84(sp)
   112b0:	00040793          	mv	a5,s0
   112b4:	000b8493          	mv	s1,s7
   112b8:	01000f13          	li	t5,16
   112bc:	000a8b93          	mv	s7,s5
   112c0:	00700393          	li	t2,7
   112c4:	00090a93          	mv	s5,s2
   112c8:	04512823          	sw	t0,80(sp)
   112cc:	00068413          	mv	s0,a3
   112d0:	00088913          	mv	s2,a7
   112d4:	00c0006f          	j	112e0 <_vfprintf_r+0xee8>
   112d8:	ff040413          	addi	s0,s0,-16
   112dc:	048f5a63          	bge	t5,s0,11330 <_vfprintf_r+0xf38>
   112e0:	01058593          	addi	a1,a1,16
   112e4:	00160613          	addi	a2,a2,1
   112e8:	0097a023          	sw	s1,0(a5)
   112ec:	01e7a223          	sw	t5,4(a5)
   112f0:	0eb12623          	sw	a1,236(sp)
   112f4:	0ec12423          	sw	a2,232(sp)
   112f8:	00878793          	addi	a5,a5,8
   112fc:	fcc3dee3          	bge	t2,a2,112d8 <_vfprintf_r+0xee0>
   11300:	00812583          	lw	a1,8(sp)
   11304:	0e410613          	addi	a2,sp,228
   11308:	000a0513          	mv	a0,s4
   1130c:	29c0a0ef          	jal	ra,1b5a8 <__sprint_r>
   11310:	f60514e3          	bnez	a0,11278 <_vfprintf_r+0xe80>
   11314:	01000f13          	li	t5,16
   11318:	ff040413          	addi	s0,s0,-16
   1131c:	0ec12583          	lw	a1,236(sp)
   11320:	0e812603          	lw	a2,232(sp)
   11324:	000b0793          	mv	a5,s6
   11328:	00700393          	li	t2,7
   1132c:	fa8f4ae3          	blt	t5,s0,112e0 <_vfprintf_r+0xee8>
   11330:	00090893          	mv	a7,s2
   11334:	05012283          	lw	t0,80(sp)
   11338:	000a8913          	mv	s2,s5
   1133c:	000b8a93          	mv	s5,s7
   11340:	00048b93          	mv	s7,s1
   11344:	05412483          	lw	s1,84(sp)
   11348:	00040693          	mv	a3,s0
   1134c:	00078413          	mv	s0,a5
   11350:	00b685b3          	add	a1,a3,a1
   11354:	00160613          	addi	a2,a2,1
   11358:	00d42223          	sw	a3,4(s0)
   1135c:	01742023          	sw	s7,0(s0)
   11360:	0eb12623          	sw	a1,236(sp)
   11364:	0ec12423          	sw	a2,232(sp)
   11368:	00700693          	li	a3,7
   1136c:	00840413          	addi	s0,s0,8
   11370:	acc6d863          	bge	a3,a2,10640 <_vfprintf_r+0x248>
   11374:	00812583          	lw	a1,8(sp)
   11378:	0e410613          	addi	a2,sp,228
   1137c:	000a0513          	mv	a0,s4
   11380:	05112a23          	sw	a7,84(sp)
   11384:	04512823          	sw	t0,80(sp)
   11388:	2200a0ef          	jal	ra,1b5a8 <__sprint_r>
   1138c:	ee0516e3          	bnez	a0,11278 <_vfprintf_r+0xe80>
   11390:	05412883          	lw	a7,84(sp)
   11394:	05012283          	lw	t0,80(sp)
   11398:	000b0413          	mv	s0,s6
   1139c:	aa4ff06f          	j	10640 <_vfprintf_r+0x248>
   113a0:	00812583          	lw	a1,8(sp)
   113a4:	0e410613          	addi	a2,sp,228
   113a8:	000a0513          	mv	a0,s4
   113ac:	05112823          	sw	a7,80(sp)
   113b0:	1f80a0ef          	jal	ra,1b5a8 <__sprint_r>
   113b4:	ec0512e3          	bnez	a0,11278 <_vfprintf_r+0xe80>
   113b8:	05012883          	lw	a7,80(sp)
   113bc:	000b0413          	mv	s0,s6
   113c0:	af4ff06f          	j	106b4 <_vfprintf_r+0x2bc>
   113c4:	00025e37          	lui	t3,0x25
   113c8:	01000713          	li	a4,16
   113cc:	0e812783          	lw	a5,232(sp)
   113d0:	358e0b93          	addi	s7,t3,856 # 25358 <blanks.1>
   113d4:	07275263          	bge	a4,s2,11438 <_vfprintf_r+0x1040>
   113d8:	00812c03          	lw	s8,8(sp)
   113dc:	01000993          	li	s3,16
   113e0:	00700d93          	li	s11,7
   113e4:	00c0006f          	j	113f0 <_vfprintf_r+0xff8>
   113e8:	ff090913          	addi	s2,s2,-16
   113ec:	0529d663          	bge	s3,s2,11438 <_vfprintf_r+0x1040>
   113f0:	01068693          	addi	a3,a3,16
   113f4:	00178793          	addi	a5,a5,1
   113f8:	01742023          	sw	s7,0(s0)
   113fc:	01342223          	sw	s3,4(s0)
   11400:	0ed12623          	sw	a3,236(sp)
   11404:	0ef12423          	sw	a5,232(sp)
   11408:	00840413          	addi	s0,s0,8
   1140c:	fcfddee3          	bge	s11,a5,113e8 <_vfprintf_r+0xff0>
   11410:	0e410613          	addi	a2,sp,228
   11414:	000c0593          	mv	a1,s8
   11418:	000a0513          	mv	a0,s4
   1141c:	18c0a0ef          	jal	ra,1b5a8 <__sprint_r>
   11420:	e4051ce3          	bnez	a0,11278 <_vfprintf_r+0xe80>
   11424:	ff090913          	addi	s2,s2,-16
   11428:	0ec12683          	lw	a3,236(sp)
   1142c:	0e812783          	lw	a5,232(sp)
   11430:	000b0413          	mv	s0,s6
   11434:	fb29cee3          	blt	s3,s2,113f0 <_vfprintf_r+0xff8>
   11438:	012686b3          	add	a3,a3,s2
   1143c:	00178793          	addi	a5,a5,1
   11440:	01742023          	sw	s7,0(s0)
   11444:	01242223          	sw	s2,4(s0)
   11448:	0ed12623          	sw	a3,236(sp)
   1144c:	0ef12423          	sw	a5,232(sp)
   11450:	00700713          	li	a4,7
   11454:	aaf75a63          	bge	a4,a5,10708 <_vfprintf_r+0x310>
   11458:	00812583          	lw	a1,8(sp)
   1145c:	0e410613          	addi	a2,sp,228
   11460:	000a0513          	mv	a0,s4
   11464:	1440a0ef          	jal	ra,1b5a8 <__sprint_r>
   11468:	e00518e3          	bnez	a0,11278 <_vfprintf_r+0xe80>
   1146c:	0ec12683          	lw	a3,236(sp)
   11470:	a98ff06f          	j	10708 <_vfprintf_r+0x310>
   11474:	0cc12503          	lw	a0,204(sp)
   11478:	7ca05263          	blez	a0,11c3c <_vfprintf_r+0x1844>
   1147c:	02412783          	lw	a5,36(sp)
   11480:	00fc8733          	add	a4,s9,a5
   11484:	04e12823          	sw	a4,80(sp)
   11488:	02012703          	lw	a4,32(sp)
   1148c:	00070913          	mv	s2,a4
   11490:	34e7cc63          	blt	a5,a4,117e8 <_vfprintf_r+0x13f0>
   11494:	0ec12683          	lw	a3,236(sp)
   11498:	03205663          	blez	s2,114c4 <_vfprintf_r+0x10cc>
   1149c:	0e812603          	lw	a2,232(sp)
   114a0:	012686b3          	add	a3,a3,s2
   114a4:	01942023          	sw	s9,0(s0)
   114a8:	00160613          	addi	a2,a2,1
   114ac:	01242223          	sw	s2,4(s0)
   114b0:	0ed12623          	sw	a3,236(sp)
   114b4:	0ec12423          	sw	a2,232(sp)
   114b8:	00700593          	li	a1,7
   114bc:	00840413          	addi	s0,s0,8
   114c0:	44c5c8e3          	blt	a1,a2,12110 <_vfprintf_r+0x1d18>
   114c4:	fff94613          	not	a2,s2
   114c8:	02012783          	lw	a5,32(sp)
   114cc:	41f65613          	srai	a2,a2,0x1f
   114d0:	00c978b3          	and	a7,s2,a2
   114d4:	41178933          	sub	s2,a5,a7
   114d8:	3f204a63          	bgtz	s2,118cc <_vfprintf_r+0x14d4>
   114dc:	02012783          	lw	a5,32(sp)
   114e0:	400c7613          	andi	a2,s8,1024
   114e4:	00fc8cb3          	add	s9,s9,a5
   114e8:	1c0616e3          	bnez	a2,11eb4 <_vfprintf_r+0x1abc>
   114ec:	0cc12903          	lw	s2,204(sp)
   114f0:	02412783          	lw	a5,36(sp)
   114f4:	00f94663          	blt	s2,a5,11500 <_vfprintf_r+0x1108>
   114f8:	001c7613          	andi	a2,s8,1
   114fc:	42060ee3          	beqz	a2,12138 <_vfprintf_r+0x1d40>
   11500:	03412783          	lw	a5,52(sp)
   11504:	0e812603          	lw	a2,232(sp)
   11508:	03812703          	lw	a4,56(sp)
   1150c:	00d786b3          	add	a3,a5,a3
   11510:	00160613          	addi	a2,a2,1
   11514:	00e42023          	sw	a4,0(s0)
   11518:	00f42223          	sw	a5,4(s0)
   1151c:	0ed12623          	sw	a3,236(sp)
   11520:	0ec12423          	sw	a2,232(sp)
   11524:	00700593          	li	a1,7
   11528:	00840413          	addi	s0,s0,8
   1152c:	00c5d463          	bge	a1,a2,11534 <_vfprintf_r+0x113c>
   11530:	29c0106f          	j	127cc <_vfprintf_r+0x23d4>
   11534:	02412783          	lw	a5,36(sp)
   11538:	41278933          	sub	s2,a5,s2
   1153c:	05012783          	lw	a5,80(sp)
   11540:	419789b3          	sub	s3,a5,s9
   11544:	01395463          	bge	s2,s3,1154c <_vfprintf_r+0x1154>
   11548:	00090993          	mv	s3,s2
   1154c:	03305863          	blez	s3,1157c <_vfprintf_r+0x1184>
   11550:	0e812783          	lw	a5,232(sp)
   11554:	013686b3          	add	a3,a3,s3
   11558:	01942023          	sw	s9,0(s0)
   1155c:	00178793          	addi	a5,a5,1
   11560:	01342223          	sw	s3,4(s0)
   11564:	0ed12623          	sw	a3,236(sp)
   11568:	0ef12423          	sw	a5,232(sp)
   1156c:	00700613          	li	a2,7
   11570:	00840413          	addi	s0,s0,8
   11574:	00f65463          	bge	a2,a5,1157c <_vfprintf_r+0x1184>
   11578:	2c40106f          	j	1283c <_vfprintf_r+0x2444>
   1157c:	fff9c793          	not	a5,s3
   11580:	41f7d793          	srai	a5,a5,0x1f
   11584:	00f9f9b3          	and	s3,s3,a5
   11588:	41390933          	sub	s2,s2,s3
   1158c:	97205663          	blez	s2,106f8 <_vfprintf_r+0x300>
   11590:	00025e37          	lui	t3,0x25
   11594:	01000613          	li	a2,16
   11598:	0e812783          	lw	a5,232(sp)
   1159c:	348e0b93          	addi	s7,t3,840 # 25348 <zeroes.0>
   115a0:	75265063          	bge	a2,s2,11ce0 <_vfprintf_r+0x18e8>
   115a4:	00812c83          	lw	s9,8(sp)
   115a8:	01000993          	li	s3,16
   115ac:	00700d93          	li	s11,7
   115b0:	00c0006f          	j	115bc <_vfprintf_r+0x11c4>
   115b4:	ff090913          	addi	s2,s2,-16
   115b8:	7329d463          	bge	s3,s2,11ce0 <_vfprintf_r+0x18e8>
   115bc:	01068693          	addi	a3,a3,16
   115c0:	00178793          	addi	a5,a5,1
   115c4:	01742023          	sw	s7,0(s0)
   115c8:	01342223          	sw	s3,4(s0)
   115cc:	0ed12623          	sw	a3,236(sp)
   115d0:	0ef12423          	sw	a5,232(sp)
   115d4:	00840413          	addi	s0,s0,8
   115d8:	fcfddee3          	bge	s11,a5,115b4 <_vfprintf_r+0x11bc>
   115dc:	0e410613          	addi	a2,sp,228
   115e0:	000c8593          	mv	a1,s9
   115e4:	000a0513          	mv	a0,s4
   115e8:	7c1090ef          	jal	ra,1b5a8 <__sprint_r>
   115ec:	c80516e3          	bnez	a0,11278 <_vfprintf_r+0xe80>
   115f0:	0ec12683          	lw	a3,236(sp)
   115f4:	0e812783          	lw	a5,232(sp)
   115f8:	000b0413          	mv	s0,s6
   115fc:	fb9ff06f          	j	115b4 <_vfprintf_r+0x11bc>
   11600:	001c7693          	andi	a3,s8,1
   11604:	c8069063          	bnez	a3,10a84 <_vfprintf_r+0x68c>
   11608:	0e812783          	lw	a5,232(sp)
   1160c:	0ec12683          	lw	a3,236(sp)
   11610:	01942023          	sw	s9,0(s0)
   11614:	00178913          	addi	s2,a5,1
   11618:	00168d93          	addi	s11,a3,1
   1161c:	00c42223          	sw	a2,4(s0)
   11620:	0fb12623          	sw	s11,236(sp)
   11624:	0f212423          	sw	s2,232(sp)
   11628:	00700793          	li	a5,7
   1162c:	d327d463          	bge	a5,s2,10b54 <_vfprintf_r+0x75c>
   11630:	00812583          	lw	a1,8(sp)
   11634:	0e410613          	addi	a2,sp,228
   11638:	000a0513          	mv	a0,s4
   1163c:	76d090ef          	jal	ra,1b5a8 <__sprint_r>
   11640:	c2051ce3          	bnez	a0,11278 <_vfprintf_r+0xe80>
   11644:	0ec12d83          	lw	s11,236(sp)
   11648:	0e812903          	lw	s2,232(sp)
   1164c:	000b0993          	mv	s3,s6
   11650:	d04ff06f          	j	10b54 <_vfprintf_r+0x75c>
   11654:	02412703          	lw	a4,36(sp)
   11658:	00100793          	li	a5,1
   1165c:	cee7dc63          	bge	a5,a4,10b54 <_vfprintf_r+0x75c>
   11660:	00025e37          	lui	t3,0x25
   11664:	01100793          	li	a5,17
   11668:	348e0b93          	addi	s7,t3,840 # 25348 <zeroes.0>
   1166c:	78e7d663          	bge	a5,a4,11df8 <_vfprintf_r+0x1a00>
   11670:	000b8713          	mv	a4,s7
   11674:	01000793          	li	a5,16
   11678:	000a8b93          	mv	s7,s5
   1167c:	00700c93          	li	s9,7
   11680:	00048a93          	mv	s5,s1
   11684:	00070493          	mv	s1,a4
   11688:	00c0006f          	j	11694 <_vfprintf_r+0x129c>
   1168c:	ff040413          	addi	s0,s0,-16
   11690:	7487dc63          	bge	a5,s0,11de8 <_vfprintf_r+0x19f0>
   11694:	010d8d93          	addi	s11,s11,16
   11698:	00190913          	addi	s2,s2,1
   1169c:	0099a023          	sw	s1,0(s3)
   116a0:	00f9a223          	sw	a5,4(s3)
   116a4:	0fb12623          	sw	s11,236(sp)
   116a8:	0f212423          	sw	s2,232(sp)
   116ac:	00898993          	addi	s3,s3,8
   116b0:	fd2cdee3          	bge	s9,s2,1168c <_vfprintf_r+0x1294>
   116b4:	00812583          	lw	a1,8(sp)
   116b8:	0e410613          	addi	a2,sp,228
   116bc:	000a0513          	mv	a0,s4
   116c0:	6e9090ef          	jal	ra,1b5a8 <__sprint_r>
   116c4:	ba051ae3          	bnez	a0,11278 <_vfprintf_r+0xe80>
   116c8:	0ec12d83          	lw	s11,236(sp)
   116cc:	0e812903          	lw	s2,232(sp)
   116d0:	000b0993          	mv	s3,s6
   116d4:	01000793          	li	a5,16
   116d8:	fb5ff06f          	j	1168c <_vfprintf_r+0x1294>
   116dc:	01812703          	lw	a4,24(sp)
   116e0:	0106f793          	andi	a5,a3,16
   116e4:	00072d83          	lw	s11,0(a4)
   116e8:	00470713          	addi	a4,a4,4
   116ec:	00e12c23          	sw	a4,24(sp)
   116f0:	04079a63          	bnez	a5,11744 <_vfprintf_r+0x134c>
   116f4:	0406f793          	andi	a5,a3,64
   116f8:	04078063          	beqz	a5,11738 <_vfprintf_r+0x1340>
   116fc:	010d9d93          	slli	s11,s11,0x10
   11700:	010ddd93          	srli	s11,s11,0x10
   11704:	00000913          	li	s2,0
   11708:	00100613          	li	a2,1
   1170c:	9f0ff06f          	j	108fc <_vfprintf_r+0x504>
   11710:	00000913          	li	s2,0
   11714:	1b010c93          	addi	s9,sp,432
   11718:	988ff06f          	j	108a0 <_vfprintf_r+0x4a8>
   1171c:	001c7793          	andi	a5,s8,1
   11720:	00079463          	bnez	a5,11728 <_vfprintf_r+0x1330>
   11724:	fd5fe06f          	j	106f8 <_vfprintf_r+0x300>
   11728:	859ff06f          	j	10f80 <_vfprintf_r+0xb88>
   1172c:	0004c883          	lbu	a7,0(s1)
   11730:	00f12c23          	sw	a5,24(sp)
   11734:	e71fe06f          	j	105a4 <_vfprintf_r+0x1ac>
   11738:	2006f793          	andi	a5,a3,512
   1173c:	00078463          	beqz	a5,11744 <_vfprintf_r+0x134c>
   11740:	0ffdfd93          	zext.b	s11,s11
   11744:	00000913          	li	s2,0
   11748:	00100613          	li	a2,1
   1174c:	9b0ff06f          	j	108fc <_vfprintf_r+0x504>
   11750:	200c7793          	andi	a5,s8,512
   11754:	200798e3          	bnez	a5,12164 <_vfprintf_r+0x1d6c>
   11758:	00000913          	li	s2,0
   1175c:	998ff06f          	j	108f4 <_vfprintf_r+0x4fc>
   11760:	200c7793          	andi	a5,s8,512
   11764:	200796e3          	bnez	a5,12170 <_vfprintf_r+0x1d78>
   11768:	41fdd913          	srai	s2,s11,0x1f
   1176c:	00090793          	mv	a5,s2
   11770:	904ff06f          	j	10874 <_vfprintf_r+0x47c>
   11774:	01812783          	lw	a5,24(sp)
   11778:	0007a683          	lw	a3,0(a5)
   1177c:	00478793          	addi	a5,a5,4
   11780:	00f12c23          	sw	a5,24(sp)
   11784:	0006a803          	lw	a6,0(a3)
   11788:	0046a583          	lw	a1,4(a3)
   1178c:	0086a603          	lw	a2,8(a3)
   11790:	00c6a683          	lw	a3,12(a3)
   11794:	a18ff06f          	j	109ac <_vfprintf_r+0x5b4>
   11798:	010c7793          	andi	a5,s8,16
   1179c:	5c079c63          	bnez	a5,11d74 <_vfprintf_r+0x197c>
   117a0:	040c7793          	andi	a5,s8,64
   117a4:	1a0796e3          	bnez	a5,12150 <_vfprintf_r+0x1d58>
   117a8:	200c7713          	andi	a4,s8,512
   117ac:	5c070463          	beqz	a4,11d74 <_vfprintf_r+0x197c>
   117b0:	01812783          	lw	a5,24(sp)
   117b4:	01012703          	lw	a4,16(sp)
   117b8:	0007a783          	lw	a5,0(a5)
   117bc:	00e78023          	sb	a4,0(a5)
   117c0:	f20ff06f          	j	10ee0 <_vfprintf_r+0xae8>
   117c4:	04012783          	lw	a5,64(sp)
   117c8:	0004c883          	lbu	a7,0(s1)
   117cc:	00079463          	bnez	a5,117d4 <_vfprintf_r+0x13dc>
   117d0:	dd5fe06f          	j	105a4 <_vfprintf_r+0x1ac>
   117d4:	0007c783          	lbu	a5,0(a5)
   117d8:	00079463          	bnez	a5,117e0 <_vfprintf_r+0x13e8>
   117dc:	dc9fe06f          	j	105a4 <_vfprintf_r+0x1ac>
   117e0:	400c6c13          	ori	s8,s8,1024
   117e4:	dc1fe06f          	j	105a4 <_vfprintf_r+0x1ac>
   117e8:	00078913          	mv	s2,a5
   117ec:	0ec12683          	lw	a3,236(sp)
   117f0:	cb2046e3          	bgtz	s2,1149c <_vfprintf_r+0x10a4>
   117f4:	cd1ff06f          	j	114c4 <_vfprintf_r+0x10cc>
   117f8:	000c0693          	mv	a3,s8
   117fc:	e34ff06f          	j	10e30 <_vfprintf_r+0xa38>
   11800:	000257b7          	lui	a5,0x25
   11804:	12478793          	addi	a5,a5,292 # 25124 <__clzsi2+0x114>
   11808:	02f12e23          	sw	a5,60(sp)
   1180c:	020c7793          	andi	a5,s8,32
   11810:	2e078263          	beqz	a5,11af4 <_vfprintf_r+0x16fc>
   11814:	01812783          	lw	a5,24(sp)
   11818:	00778b93          	addi	s7,a5,7
   1181c:	ff8bfb93          	andi	s7,s7,-8
   11820:	000bad83          	lw	s11,0(s7)
   11824:	004ba903          	lw	s2,4(s7)
   11828:	008b8793          	addi	a5,s7,8
   1182c:	00f12c23          	sw	a5,24(sp)
   11830:	001c7793          	andi	a5,s8,1
   11834:	00078e63          	beqz	a5,11850 <_vfprintf_r+0x1458>
   11838:	012de7b3          	or	a5,s11,s2
   1183c:	00078a63          	beqz	a5,11850 <_vfprintf_r+0x1458>
   11840:	03000793          	li	a5,48
   11844:	0cf10423          	sb	a5,200(sp)
   11848:	0d1104a3          	sb	a7,201(sp)
   1184c:	002c6c13          	ori	s8,s8,2
   11850:	bffc7693          	andi	a3,s8,-1025
   11854:	00200613          	li	a2,2
   11858:	8a4ff06f          	j	108fc <_vfprintf_r+0x504>
   1185c:	0014c883          	lbu	a7,1(s1)
   11860:	200c6c13          	ori	s8,s8,512
   11864:	00148493          	addi	s1,s1,1
   11868:	d3dfe06f          	j	105a4 <_vfprintf_r+0x1ac>
   1186c:	000257b7          	lui	a5,0x25
   11870:	11078793          	addi	a5,a5,272 # 25110 <__clzsi2+0x100>
   11874:	02f12e23          	sw	a5,60(sp)
   11878:	f95ff06f          	j	1180c <_vfprintf_r+0x1414>
   1187c:	00812583          	lw	a1,8(sp)
   11880:	0e410613          	addi	a2,sp,228
   11884:	000a0513          	mv	a0,s4
   11888:	521090ef          	jal	ra,1b5a8 <__sprint_r>
   1188c:	9e0516e3          	bnez	a0,11278 <_vfprintf_r+0xe80>
   11890:	0ec12683          	lw	a3,236(sp)
   11894:	000b0413          	mv	s0,s6
   11898:	f18ff06f          	j	10fb0 <_vfprintf_r+0xbb8>
   1189c:	0014c883          	lbu	a7,1(s1)
   118a0:	020c6c13          	ori	s8,s8,32
   118a4:	00148493          	addi	s1,s1,1
   118a8:	cfdfe06f          	j	105a4 <_vfprintf_r+0x1ac>
   118ac:	00600793          	li	a5,6
   118b0:	00098913          	mv	s2,s3
   118b4:	0737eee3          	bltu	a5,s3,12130 <_vfprintf_r+0x1d38>
   118b8:	000257b7          	lui	a5,0x25
   118bc:	00090a93          	mv	s5,s2
   118c0:	01712c23          	sw	s7,24(sp)
   118c4:	13878c93          	addi	s9,a5,312 # 25138 <__clzsi2+0x128>
   118c8:	d49fe06f          	j	10610 <_vfprintf_r+0x218>
   118cc:	00025e37          	lui	t3,0x25
   118d0:	01000593          	li	a1,16
   118d4:	0e812603          	lw	a2,232(sp)
   118d8:	348e0b93          	addi	s7,t3,840 # 25348 <zeroes.0>
   118dc:	5925da63          	bge	a1,s2,11e70 <_vfprintf_r+0x1a78>
   118e0:	00812d83          	lw	s11,8(sp)
   118e4:	01000e93          	li	t4,16
   118e8:	00700993          	li	s3,7
   118ec:	00c0006f          	j	118f8 <_vfprintf_r+0x1500>
   118f0:	ff090913          	addi	s2,s2,-16
   118f4:	572ede63          	bge	t4,s2,11e70 <_vfprintf_r+0x1a78>
   118f8:	01068693          	addi	a3,a3,16
   118fc:	00160613          	addi	a2,a2,1
   11900:	01742023          	sw	s7,0(s0)
   11904:	01d42223          	sw	t4,4(s0)
   11908:	0ed12623          	sw	a3,236(sp)
   1190c:	0ec12423          	sw	a2,232(sp)
   11910:	00840413          	addi	s0,s0,8
   11914:	fcc9dee3          	bge	s3,a2,118f0 <_vfprintf_r+0x14f8>
   11918:	0e410613          	addi	a2,sp,228
   1191c:	000d8593          	mv	a1,s11
   11920:	000a0513          	mv	a0,s4
   11924:	485090ef          	jal	ra,1b5a8 <__sprint_r>
   11928:	940518e3          	bnez	a0,11278 <_vfprintf_r+0xe80>
   1192c:	0ec12683          	lw	a3,236(sp)
   11930:	0e812603          	lw	a2,232(sp)
   11934:	000b0413          	mv	s0,s6
   11938:	01000e93          	li	t4,16
   1193c:	fb5ff06f          	j	118f0 <_vfprintf_r+0x14f8>
   11940:	07800793          	li	a5,120
   11944:	03000693          	li	a3,48
   11948:	0cf104a3          	sb	a5,201(sp)
   1194c:	002c6793          	ori	a5,s8,2
   11950:	0cd10423          	sb	a3,200(sp)
   11954:	02f12423          	sw	a5,40(sp)
   11958:	06300693          	li	a3,99
   1195c:	00012a23          	sw	zero,20(sp)
   11960:	14c10c93          	addi	s9,sp,332
   11964:	0936c8e3          	blt	a3,s3,121f4 <_vfprintf_r+0x1dfc>
   11968:	0fc12d83          	lw	s11,252(sp)
   1196c:	102c6793          	ori	a5,s8,258
   11970:	04f12e23          	sw	a5,92(sp)
   11974:	06012023          	sw	zero,96(sp)
   11978:	0f012f03          	lw	t5,240(sp)
   1197c:	0f412e83          	lw	t4,244(sp)
   11980:	0f812e03          	lw	t3,248(sp)
   11984:	020dcae3          	bltz	s11,121b8 <_vfprintf_r+0x1dc0>
   11988:	06100713          	li	a4,97
   1198c:	00e89463          	bne	a7,a4,11994 <_vfprintf_r+0x159c>
   11990:	0fc0106f          	j	12a8c <_vfprintf_r+0x2694>
   11994:	fbf88713          	addi	a4,a7,-65
   11998:	02500693          	li	a3,37
   1199c:	00e6ee63          	bltu	a3,a4,119b8 <_vfprintf_r+0x15c0>
   119a0:	000256b7          	lui	a3,0x25
   119a4:	00271713          	slli	a4,a4,0x2
   119a8:	2b068693          	addi	a3,a3,688 # 252b0 <__clzsi2+0x2a0>
   119ac:	00d70733          	add	a4,a4,a3
   119b0:	00072703          	lw	a4,0(a4)
   119b4:	00070067          	jr	a4
   119b8:	00098693          	mv	a3,s3
   119bc:	00200613          	li	a2,2
   119c0:	0b010913          	addi	s2,sp,176
   119c4:	0cc10713          	addi	a4,sp,204
   119c8:	0dc10813          	addi	a6,sp,220
   119cc:	0d010793          	addi	a5,sp,208
   119d0:	00090593          	mv	a1,s2
   119d4:	000a0513          	mv	a0,s4
   119d8:	05112a23          	sw	a7,84(sp)
   119dc:	04d12823          	sw	a3,80(sp)
   119e0:	0be12823          	sw	t5,176(sp)
   119e4:	03e12623          	sw	t5,44(sp)
   119e8:	0bd12a23          	sw	t4,180(sp)
   119ec:	03d12223          	sw	t4,36(sp)
   119f0:	0bc12c23          	sw	t3,184(sp)
   119f4:	03c12023          	sw	t3,32(sp)
   119f8:	0bb12e23          	sw	s11,188(sp)
   119fc:	3ed030ef          	jal	ra,155e8 <_ldtoa_r>
   11a00:	05412883          	lw	a7,84(sp)
   11a04:	06700713          	li	a4,103
   11a08:	02012e03          	lw	t3,32(sp)
   11a0c:	02412e83          	lw	t4,36(sp)
   11a10:	02c12f03          	lw	t5,44(sp)
   11a14:	05012683          	lw	a3,80(sp)
   11a18:	00050c93          	mv	s9,a0
   11a1c:	7ee88e63          	beq	a7,a4,12218 <_vfprintf_r+0x1e20>
   11a20:	04700713          	li	a4,71
   11a24:	7ee88a63          	beq	a7,a4,12218 <_vfprintf_r+0x1e20>
   11a28:	fdf8fa93          	andi	s5,a7,-33
   11a2c:	04600593          	li	a1,70
   11a30:	00d50bb3          	add	s7,a0,a3
   11a34:	0a010c13          	addi	s8,sp,160
   11a38:	00ba9c63          	bne	s5,a1,11a50 <_vfprintf_r+0x1658>
   11a3c:	00054503          	lbu	a0,0(a0)
   11a40:	03000593          	li	a1,48
   11a44:	12b504e3          	beq	a0,a1,1236c <_vfprintf_r+0x1f74>
   11a48:	0cc12683          	lw	a3,204(sp)
   11a4c:	00db8bb3          	add	s7,s7,a3
   11a50:	000c0593          	mv	a1,s8
   11a54:	00090513          	mv	a0,s2
   11a58:	03112023          	sw	a7,32(sp)
   11a5c:	0be12823          	sw	t5,176(sp)
   11a60:	0bd12a23          	sw	t4,180(sp)
   11a64:	0bc12c23          	sw	t3,184(sp)
   11a68:	0bb12e23          	sw	s11,188(sp)
   11a6c:	0a012023          	sw	zero,160(sp)
   11a70:	0a012223          	sw	zero,164(sp)
   11a74:	0a012423          	sw	zero,168(sp)
   11a78:	0a012623          	sw	zero,172(sp)
   11a7c:	05c100ef          	jal	ra,21ad8 <__eqtf2>
   11a80:	02012883          	lw	a7,32(sp)
   11a84:	000b8c13          	mv	s8,s7
   11a88:	02050263          	beqz	a0,11aac <_vfprintf_r+0x16b4>
   11a8c:	0dc12c03          	lw	s8,220(sp)
   11a90:	017c7e63          	bgeu	s8,s7,11aac <_vfprintf_r+0x16b4>
   11a94:	03000593          	li	a1,48
   11a98:	001c0793          	addi	a5,s8,1
   11a9c:	0cf12e23          	sw	a5,220(sp)
   11aa0:	00bc0023          	sb	a1,0(s8)
   11aa4:	0dc12c03          	lw	s8,220(sp)
   11aa8:	ff7c68e3          	bltu	s8,s7,11a98 <_vfprintf_r+0x16a0>
   11aac:	419c07b3          	sub	a5,s8,s9
   11ab0:	02f12223          	sw	a5,36(sp)
   11ab4:	0cc12703          	lw	a4,204(sp)
   11ab8:	04700693          	li	a3,71
   11abc:	02e12023          	sw	a4,32(sp)
   11ac0:	76da8a63          	beq	s5,a3,12234 <_vfprintf_r+0x1e3c>
   11ac4:	04600693          	li	a3,70
   11ac8:	66da80e3          	beq	s5,a3,12928 <_vfprintf_r+0x2530>
   11acc:	fff70d93          	addi	s11,a4,-1
   11ad0:	0db12623          	sw	s11,204(sp)
   11ad4:	06100693          	li	a3,97
   11ad8:	00d89463          	bne	a7,a3,11ae0 <_vfprintf_r+0x16e8>
   11adc:	1680106f          	j	12c44 <_vfprintf_r+0x284c>
   11ae0:	04100613          	li	a2,65
   11ae4:	05000693          	li	a3,80
   11ae8:	76c89463          	bne	a7,a2,12250 <_vfprintf_r+0x1e58>
   11aec:	00100613          	li	a2,1
   11af0:	7680006f          	j	12258 <_vfprintf_r+0x1e60>
   11af4:	01812703          	lw	a4,24(sp)
   11af8:	010c7793          	andi	a5,s8,16
   11afc:	00072d83          	lw	s11,0(a4)
   11b00:	00470713          	addi	a4,a4,4
   11b04:	00e12c23          	sw	a4,24(sp)
   11b08:	06079663          	bnez	a5,11b74 <_vfprintf_r+0x177c>
   11b0c:	040c7793          	andi	a5,s8,64
   11b10:	04078e63          	beqz	a5,11b6c <_vfprintf_r+0x1774>
   11b14:	010d9d93          	slli	s11,s11,0x10
   11b18:	010ddd93          	srli	s11,s11,0x10
   11b1c:	00000913          	li	s2,0
   11b20:	d11ff06f          	j	11830 <_vfprintf_r+0x1438>
   11b24:	00812583          	lw	a1,8(sp)
   11b28:	0e410613          	addi	a2,sp,228
   11b2c:	000a0513          	mv	a0,s4
   11b30:	279090ef          	jal	ra,1b5a8 <__sprint_r>
   11b34:	f4051263          	bnez	a0,11278 <_vfprintf_r+0xe80>
   11b38:	0ec12683          	lw	a3,236(sp)
   11b3c:	0e812903          	lw	s2,232(sp)
   11b40:	000b0993          	mv	s3,s6
   11b44:	f71fe06f          	j	10ab4 <_vfprintf_r+0x6bc>
   11b48:	00812583          	lw	a1,8(sp)
   11b4c:	0e410613          	addi	a2,sp,228
   11b50:	000a0513          	mv	a0,s4
   11b54:	255090ef          	jal	ra,1b5a8 <__sprint_r>
   11b58:	f2051063          	bnez	a0,11278 <_vfprintf_r+0xe80>
   11b5c:	0ec12d83          	lw	s11,236(sp)
   11b60:	0e812903          	lw	s2,232(sp)
   11b64:	000b0993          	mv	s3,s6
   11b68:	f7dfe06f          	j	10ae4 <_vfprintf_r+0x6ec>
   11b6c:	200c7793          	andi	a5,s8,512
   11b70:	60079a63          	bnez	a5,12184 <_vfprintf_r+0x1d8c>
   11b74:	00000913          	li	s2,0
   11b78:	cb9ff06f          	j	11830 <_vfprintf_r+0x1438>
   11b7c:	1b010c93          	addi	s9,sp,432
   11b80:	00912a23          	sw	s1,20(sp)
   11b84:	4006fb93          	andi	s7,a3,1024
   11b88:	000c8493          	mv	s1,s9
   11b8c:	00000c13          	li	s8,0
   11b90:	000a0c93          	mv	s9,s4
   11b94:	0ff00a93          	li	s5,255
   11b98:	00040a13          	mv	s4,s0
   11b9c:	03112023          	sw	a7,32(sp)
   11ba0:	04012403          	lw	s0,64(sp)
   11ba4:	02d12423          	sw	a3,40(sp)
   11ba8:	0240006f          	j	11bcc <_vfprintf_r+0x17d4>
   11bac:	00a00613          	li	a2,10
   11bb0:	00000693          	li	a3,0
   11bb4:	000d8513          	mv	a0,s11
   11bb8:	00090593          	mv	a1,s2
   11bbc:	6000e0ef          	jal	ra,201bc <__udivdi3>
   11bc0:	3c090ae3          	beqz	s2,12794 <_vfprintf_r+0x239c>
   11bc4:	00050d93          	mv	s11,a0
   11bc8:	00058913          	mv	s2,a1
   11bcc:	00a00613          	li	a2,10
   11bd0:	00000693          	li	a3,0
   11bd4:	000d8513          	mv	a0,s11
   11bd8:	00090593          	mv	a1,s2
   11bdc:	3a50e0ef          	jal	ra,20780 <__umoddi3>
   11be0:	03050513          	addi	a0,a0,48
   11be4:	fea48fa3          	sb	a0,-1(s1)
   11be8:	001c0c13          	addi	s8,s8,1
   11bec:	fff48493          	addi	s1,s1,-1
   11bf0:	fa0b8ee3          	beqz	s7,11bac <_vfprintf_r+0x17b4>
   11bf4:	00044703          	lbu	a4,0(s0)
   11bf8:	faec1ae3          	bne	s8,a4,11bac <_vfprintf_r+0x17b4>
   11bfc:	fb5c08e3          	beq	s8,s5,11bac <_vfprintf_r+0x17b4>
   11c00:	4a091063          	bnez	s2,120a0 <_vfprintf_r+0x1ca8>
   11c04:	00900713          	li	a4,9
   11c08:	49b76c63          	bltu	a4,s11,120a0 <_vfprintf_r+0x1ca8>
   11c0c:	02812683          	lw	a3,40(sp)
   11c10:	04812023          	sw	s0,64(sp)
   11c14:	1b010793          	addi	a5,sp,432
   11c18:	000a0413          	mv	s0,s4
   11c1c:	000c8a13          	mv	s4,s9
   11c20:	00048c93          	mv	s9,s1
   11c24:	03812223          	sw	s8,36(sp)
   11c28:	02012883          	lw	a7,32(sp)
   11c2c:	01412483          	lw	s1,20(sp)
   11c30:	41978933          	sub	s2,a5,s9
   11c34:	00068c13          	mv	s8,a3
   11c38:	c69fe06f          	j	108a0 <_vfprintf_r+0x4a8>
   11c3c:	0ec12683          	lw	a3,236(sp)
   11c40:	0e812603          	lw	a2,232(sp)
   11c44:	000255b7          	lui	a1,0x25
   11c48:	14058593          	addi	a1,a1,320 # 25140 <__clzsi2+0x130>
   11c4c:	00b42023          	sw	a1,0(s0)
   11c50:	00168693          	addi	a3,a3,1
   11c54:	00100593          	li	a1,1
   11c58:	00160613          	addi	a2,a2,1
   11c5c:	00b42223          	sw	a1,4(s0)
   11c60:	0ed12623          	sw	a3,236(sp)
   11c64:	0ec12423          	sw	a2,232(sp)
   11c68:	00700593          	li	a1,7
   11c6c:	00840413          	addi	s0,s0,8
   11c70:	46c5c863          	blt	a1,a2,120e0 <_vfprintf_r+0x1ce8>
   11c74:	10051a63          	bnez	a0,11d88 <_vfprintf_r+0x1990>
   11c78:	02412783          	lw	a5,36(sp)
   11c7c:	001c7613          	andi	a2,s8,1
   11c80:	00f66633          	or	a2,a2,a5
   11c84:	00061463          	bnez	a2,11c8c <_vfprintf_r+0x1894>
   11c88:	a71fe06f          	j	106f8 <_vfprintf_r+0x300>
   11c8c:	03412783          	lw	a5,52(sp)
   11c90:	0e812603          	lw	a2,232(sp)
   11c94:	03812703          	lw	a4,56(sp)
   11c98:	00d786b3          	add	a3,a5,a3
   11c9c:	00160613          	addi	a2,a2,1
   11ca0:	00e42023          	sw	a4,0(s0)
   11ca4:	00f42223          	sw	a5,4(s0)
   11ca8:	0ed12623          	sw	a3,236(sp)
   11cac:	0ec12423          	sw	a2,232(sp)
   11cb0:	00700593          	li	a1,7
   11cb4:	50c5cc63          	blt	a1,a2,121cc <_vfprintf_r+0x1dd4>
   11cb8:	00840413          	addi	s0,s0,8
   11cbc:	1000006f          	j	11dbc <_vfprintf_r+0x19c4>
   11cc0:	00812583          	lw	a1,8(sp)
   11cc4:	0e410613          	addi	a2,sp,228
   11cc8:	000a0513          	mv	a0,s4
   11ccc:	0dd090ef          	jal	ra,1b5a8 <__sprint_r>
   11cd0:	da051463          	bnez	a0,11278 <_vfprintf_r+0xe80>
   11cd4:	0ec12683          	lw	a3,236(sp)
   11cd8:	000b0413          	mv	s0,s6
   11cdc:	a98ff06f          	j	10f74 <_vfprintf_r+0xb7c>
   11ce0:	012686b3          	add	a3,a3,s2
   11ce4:	00178793          	addi	a5,a5,1
   11ce8:	01742023          	sw	s7,0(s0)
   11cec:	9f5fe06f          	j	106e0 <_vfprintf_r+0x2e8>
   11cf0:	0f012783          	lw	a5,240(sp)
   11cf4:	0a010593          	addi	a1,sp,160
   11cf8:	0b010513          	addi	a0,sp,176
   11cfc:	0af12823          	sw	a5,176(sp)
   11d00:	0f412783          	lw	a5,244(sp)
   11d04:	0a012023          	sw	zero,160(sp)
   11d08:	0a012223          	sw	zero,164(sp)
   11d0c:	0af12a23          	sw	a5,180(sp)
   11d10:	0f812783          	lw	a5,248(sp)
   11d14:	0a012423          	sw	zero,168(sp)
   11d18:	0a012623          	sw	zero,172(sp)
   11d1c:	0af12c23          	sw	a5,184(sp)
   11d20:	0fc12783          	lw	a5,252(sp)
   11d24:	0af12e23          	sw	a5,188(sp)
   11d28:	7e90f0ef          	jal	ra,21d10 <__letf2>
   11d2c:	01412883          	lw	a7,20(sp)
   11d30:	2c0542e3          	bltz	a0,127f4 <_vfprintf_r+0x23fc>
   11d34:	0c714683          	lbu	a3,199(sp)
   11d38:	04700793          	li	a5,71
   11d3c:	3d17d463          	bge	a5,a7,12104 <_vfprintf_r+0x1d0c>
   11d40:	000257b7          	lui	a5,0x25
   11d44:	10478c93          	addi	s9,a5,260 # 25104 <__clzsi2+0xf4>
   11d48:	00012a23          	sw	zero,20(sp)
   11d4c:	02012623          	sw	zero,44(sp)
   11d50:	02012423          	sw	zero,40(sp)
   11d54:	02012023          	sw	zero,32(sp)
   11d58:	f7fc7c13          	andi	s8,s8,-129
   11d5c:	00300a93          	li	s5,3
   11d60:	00300913          	li	s2,3
   11d64:	00000993          	li	s3,0
   11d68:	00068463          	beqz	a3,11d70 <_vfprintf_r+0x1978>
   11d6c:	b59fe06f          	j	108c4 <_vfprintf_r+0x4cc>
   11d70:	8b5fe06f          	j	10624 <_vfprintf_r+0x22c>
   11d74:	01812783          	lw	a5,24(sp)
   11d78:	01012703          	lw	a4,16(sp)
   11d7c:	0007a783          	lw	a5,0(a5)
   11d80:	00e7a023          	sw	a4,0(a5)
   11d84:	95cff06f          	j	10ee0 <_vfprintf_r+0xae8>
   11d88:	03412783          	lw	a5,52(sp)
   11d8c:	0e812603          	lw	a2,232(sp)
   11d90:	03812703          	lw	a4,56(sp)
   11d94:	00d786b3          	add	a3,a5,a3
   11d98:	00160613          	addi	a2,a2,1
   11d9c:	00e42023          	sw	a4,0(s0)
   11da0:	00f42223          	sw	a5,4(s0)
   11da4:	0ed12623          	sw	a3,236(sp)
   11da8:	0ec12423          	sw	a2,232(sp)
   11dac:	00700593          	li	a1,7
   11db0:	00840413          	addi	s0,s0,8
   11db4:	40c5cc63          	blt	a1,a2,121cc <_vfprintf_r+0x1dd4>
   11db8:	2a054ee3          	bltz	a0,12874 <_vfprintf_r+0x247c>
   11dbc:	02412783          	lw	a5,36(sp)
   11dc0:	00160613          	addi	a2,a2,1
   11dc4:	01942023          	sw	s9,0(s0)
   11dc8:	00d786b3          	add	a3,a5,a3
   11dcc:	00f42223          	sw	a5,4(s0)
   11dd0:	0ed12623          	sw	a3,236(sp)
   11dd4:	0ec12423          	sw	a2,232(sp)
   11dd8:	00700793          	li	a5,7
   11ddc:	00c7c463          	blt	a5,a2,11de4 <_vfprintf_r+0x19ec>
   11de0:	915fe06f          	j	106f4 <_vfprintf_r+0x2fc>
   11de4:	d9dfe06f          	j	10b80 <_vfprintf_r+0x788>
   11de8:	00048793          	mv	a5,s1
   11dec:	000a8493          	mv	s1,s5
   11df0:	000b8a93          	mv	s5,s7
   11df4:	00078b93          	mv	s7,a5
   11df8:	008d8db3          	add	s11,s11,s0
   11dfc:	00190913          	addi	s2,s2,1
   11e00:	0179a023          	sw	s7,0(s3)
   11e04:	d39fe06f          	j	10b3c <_vfprintf_r+0x744>
   11e08:	000c8513          	mv	a0,s9
   11e0c:	05112823          	sw	a7,80(sp)
   11e10:	4e1060ef          	jal	ra,18af0 <strlen>
   11e14:	0c714683          	lbu	a3,199(sp)
   11e18:	fff54813          	not	a6,a0
   11e1c:	41f85813          	srai	a6,a6,0x1f
   11e20:	01712c23          	sw	s7,24(sp)
   11e24:	00012a23          	sw	zero,20(sp)
   11e28:	02012623          	sw	zero,44(sp)
   11e2c:	02012423          	sw	zero,40(sp)
   11e30:	02012023          	sw	zero,32(sp)
   11e34:	05012883          	lw	a7,80(sp)
   11e38:	00050913          	mv	s2,a0
   11e3c:	01057ab3          	and	s5,a0,a6
   11e40:	00000993          	li	s3,0
   11e44:	00068463          	beqz	a3,11e4c <_vfprintf_r+0x1a54>
   11e48:	a7dfe06f          	j	108c4 <_vfprintf_r+0x4cc>
   11e4c:	fd8fe06f          	j	10624 <_vfprintf_r+0x22c>
   11e50:	0fc12783          	lw	a5,252(sp)
   11e54:	3207ce63          	bltz	a5,12190 <_vfprintf_r+0x1d98>
   11e58:	0c714683          	lbu	a3,199(sp)
   11e5c:	04700793          	li	a5,71
   11e60:	1d17d8e3          	bge	a5,a7,12830 <_vfprintf_r+0x2438>
   11e64:	000257b7          	lui	a5,0x25
   11e68:	10c78c93          	addi	s9,a5,268 # 2510c <__clzsi2+0xfc>
   11e6c:	eddff06f          	j	11d48 <_vfprintf_r+0x1950>
   11e70:	00d906b3          	add	a3,s2,a3
   11e74:	00160613          	addi	a2,a2,1
   11e78:	01742023          	sw	s7,0(s0)
   11e7c:	01242223          	sw	s2,4(s0)
   11e80:	0ed12623          	sw	a3,236(sp)
   11e84:	0ec12423          	sw	a2,232(sp)
   11e88:	00700593          	li	a1,7
   11e8c:	00840413          	addi	s0,s0,8
   11e90:	e4c5d663          	bge	a1,a2,114dc <_vfprintf_r+0x10e4>
   11e94:	00812583          	lw	a1,8(sp)
   11e98:	0e410613          	addi	a2,sp,228
   11e9c:	000a0513          	mv	a0,s4
   11ea0:	708090ef          	jal	ra,1b5a8 <__sprint_r>
   11ea4:	bc051a63          	bnez	a0,11278 <_vfprintf_r+0xe80>
   11ea8:	0ec12683          	lw	a3,236(sp)
   11eac:	000b0413          	mv	s0,s6
   11eb0:	e2cff06f          	j	114dc <_vfprintf_r+0x10e4>
   11eb4:	02812d83          	lw	s11,40(sp)
   11eb8:	00025eb7          	lui	t4,0x25
   11ebc:	04912a23          	sw	s1,84(sp)
   11ec0:	05812c23          	sw	s8,88(sp)
   11ec4:	05a12e23          	sw	s10,92(sp)
   11ec8:	03512423          	sw	s5,40(sp)
   11ecc:	00040613          	mv	a2,s0
   11ed0:	04012c03          	lw	s8,64(sp)
   11ed4:	04c12d03          	lw	s10,76(sp)
   11ed8:	02c12403          	lw	s0,44(sp)
   11edc:	00812483          	lw	s1,8(sp)
   11ee0:	00700993          	li	s3,7
   11ee4:	01000b93          	li	s7,16
   11ee8:	348e8913          	addi	s2,t4,840 # 25348 <zeroes.0>
   11eec:	080d8863          	beqz	s11,11f7c <_vfprintf_r+0x1b84>
   11ef0:	16040063          	beqz	s0,12050 <_vfprintf_r+0x1c58>
   11ef4:	fff40413          	addi	s0,s0,-1
   11ef8:	04812783          	lw	a5,72(sp)
   11efc:	01a686b3          	add	a3,a3,s10
   11f00:	01a62223          	sw	s10,4(a2)
   11f04:	00f62023          	sw	a5,0(a2)
   11f08:	0e812783          	lw	a5,232(sp)
   11f0c:	0ed12623          	sw	a3,236(sp)
   11f10:	00860613          	addi	a2,a2,8
   11f14:	00178793          	addi	a5,a5,1
   11f18:	0ef12423          	sw	a5,232(sp)
   11f1c:	14f9c063          	blt	s3,a5,1205c <_vfprintf_r+0x1c64>
   11f20:	05012783          	lw	a5,80(sp)
   11f24:	000c4703          	lbu	a4,0(s8)
   11f28:	41978ab3          	sub	s5,a5,s9
   11f2c:	01575463          	bge	a4,s5,11f34 <_vfprintf_r+0x1b3c>
   11f30:	00070a93          	mv	s5,a4
   11f34:	03505663          	blez	s5,11f60 <_vfprintf_r+0x1b68>
   11f38:	0e812703          	lw	a4,232(sp)
   11f3c:	015686b3          	add	a3,a3,s5
   11f40:	01962023          	sw	s9,0(a2)
   11f44:	00170713          	addi	a4,a4,1
   11f48:	01562223          	sw	s5,4(a2)
   11f4c:	0ed12623          	sw	a3,236(sp)
   11f50:	0ee12423          	sw	a4,232(sp)
   11f54:	12e9c463          	blt	s3,a4,1207c <_vfprintf_r+0x1c84>
   11f58:	000c4703          	lbu	a4,0(s8)
   11f5c:	00860613          	addi	a2,a2,8
   11f60:	fffac593          	not	a1,s5
   11f64:	41f5d593          	srai	a1,a1,0x1f
   11f68:	00baf7b3          	and	a5,s5,a1
   11f6c:	40f70ab3          	sub	s5,a4,a5
   11f70:	03504c63          	bgtz	s5,11fa8 <_vfprintf_r+0x1bb0>
   11f74:	00ec8cb3          	add	s9,s9,a4
   11f78:	f60d9ce3          	bnez	s11,11ef0 <_vfprintf_r+0x1af8>
   11f7c:	f6041ce3          	bnez	s0,11ef4 <_vfprintf_r+0x1afc>
   11f80:	05012783          	lw	a5,80(sp)
   11f84:	05812023          	sw	s8,64(sp)
   11f88:	05412483          	lw	s1,84(sp)
   11f8c:	05812c03          	lw	s8,88(sp)
   11f90:	05c12d03          	lw	s10,92(sp)
   11f94:	02812a83          	lw	s5,40(sp)
   11f98:	00060413          	mv	s0,a2
   11f9c:	d597f863          	bgeu	a5,s9,114ec <_vfprintf_r+0x10f4>
   11fa0:	00078c93          	mv	s9,a5
   11fa4:	d48ff06f          	j	114ec <_vfprintf_r+0x10f4>
   11fa8:	000255b7          	lui	a1,0x25
   11fac:	0e812703          	lw	a4,232(sp)
   11fb0:	34858593          	addi	a1,a1,840 # 25348 <zeroes.0>
   11fb4:	075bd863          	bge	s7,s5,12024 <_vfprintf_r+0x1c2c>
   11fb8:	02812023          	sw	s0,32(sp)
   11fbc:	000a8413          	mv	s0,s5
   11fc0:	00090a93          	mv	s5,s2
   11fc4:	00c0006f          	j	11fd0 <_vfprintf_r+0x1bd8>
   11fc8:	ff040413          	addi	s0,s0,-16
   11fcc:	048bd663          	bge	s7,s0,12018 <_vfprintf_r+0x1c20>
   11fd0:	01068693          	addi	a3,a3,16
   11fd4:	00170713          	addi	a4,a4,1
   11fd8:	01262023          	sw	s2,0(a2)
   11fdc:	01762223          	sw	s7,4(a2)
   11fe0:	0ed12623          	sw	a3,236(sp)
   11fe4:	0ee12423          	sw	a4,232(sp)
   11fe8:	00860613          	addi	a2,a2,8
   11fec:	fce9dee3          	bge	s3,a4,11fc8 <_vfprintf_r+0x1bd0>
   11ff0:	0e410613          	addi	a2,sp,228
   11ff4:	00048593          	mv	a1,s1
   11ff8:	000a0513          	mv	a0,s4
   11ffc:	5ac090ef          	jal	ra,1b5a8 <__sprint_r>
   12000:	a6051c63          	bnez	a0,11278 <_vfprintf_r+0xe80>
   12004:	ff040413          	addi	s0,s0,-16
   12008:	0ec12683          	lw	a3,236(sp)
   1200c:	0e812703          	lw	a4,232(sp)
   12010:	000b0613          	mv	a2,s6
   12014:	fa8bcee3          	blt	s7,s0,11fd0 <_vfprintf_r+0x1bd8>
   12018:	000a8593          	mv	a1,s5
   1201c:	00040a93          	mv	s5,s0
   12020:	02012403          	lw	s0,32(sp)
   12024:	00da86b3          	add	a3,s5,a3
   12028:	00170713          	addi	a4,a4,1
   1202c:	00b62023          	sw	a1,0(a2)
   12030:	01562223          	sw	s5,4(a2)
   12034:	0ed12623          	sw	a3,236(sp)
   12038:	0ee12423          	sw	a4,232(sp)
   1203c:	76e9c263          	blt	s3,a4,127a0 <_vfprintf_r+0x23a8>
   12040:	000c4703          	lbu	a4,0(s8)
   12044:	00860613          	addi	a2,a2,8
   12048:	00ec8cb3          	add	s9,s9,a4
   1204c:	f2dff06f          	j	11f78 <_vfprintf_r+0x1b80>
   12050:	fffc0c13          	addi	s8,s8,-1
   12054:	fffd8d93          	addi	s11,s11,-1
   12058:	ea1ff06f          	j	11ef8 <_vfprintf_r+0x1b00>
   1205c:	0e410613          	addi	a2,sp,228
   12060:	00048593          	mv	a1,s1
   12064:	000a0513          	mv	a0,s4
   12068:	540090ef          	jal	ra,1b5a8 <__sprint_r>
   1206c:	a0051663          	bnez	a0,11278 <_vfprintf_r+0xe80>
   12070:	0ec12683          	lw	a3,236(sp)
   12074:	000b0613          	mv	a2,s6
   12078:	ea9ff06f          	j	11f20 <_vfprintf_r+0x1b28>
   1207c:	0e410613          	addi	a2,sp,228
   12080:	00048593          	mv	a1,s1
   12084:	000a0513          	mv	a0,s4
   12088:	520090ef          	jal	ra,1b5a8 <__sprint_r>
   1208c:	9e051663          	bnez	a0,11278 <_vfprintf_r+0xe80>
   12090:	000c4703          	lbu	a4,0(s8)
   12094:	0ec12683          	lw	a3,236(sp)
   12098:	000b0613          	mv	a2,s6
   1209c:	ec5ff06f          	j	11f60 <_vfprintf_r+0x1b68>
   120a0:	04c12783          	lw	a5,76(sp)
   120a4:	04812583          	lw	a1,72(sp)
   120a8:	00000c13          	li	s8,0
   120ac:	40f484b3          	sub	s1,s1,a5
   120b0:	00078613          	mv	a2,a5
   120b4:	00048513          	mv	a0,s1
   120b8:	2c5060ef          	jal	ra,18b7c <strncpy>
   120bc:	00144703          	lbu	a4,1(s0)
   120c0:	00a00613          	li	a2,10
   120c4:	00000693          	li	a3,0
   120c8:	00e03733          	snez	a4,a4
   120cc:	000d8513          	mv	a0,s11
   120d0:	00090593          	mv	a1,s2
   120d4:	00e40433          	add	s0,s0,a4
   120d8:	0e40e0ef          	jal	ra,201bc <__udivdi3>
   120dc:	ae9ff06f          	j	11bc4 <_vfprintf_r+0x17cc>
   120e0:	00812583          	lw	a1,8(sp)
   120e4:	0e410613          	addi	a2,sp,228
   120e8:	000a0513          	mv	a0,s4
   120ec:	4bc090ef          	jal	ra,1b5a8 <__sprint_r>
   120f0:	98051463          	bnez	a0,11278 <_vfprintf_r+0xe80>
   120f4:	0cc12503          	lw	a0,204(sp)
   120f8:	0ec12683          	lw	a3,236(sp)
   120fc:	000b0413          	mv	s0,s6
   12100:	b75ff06f          	j	11c74 <_vfprintf_r+0x187c>
   12104:	000257b7          	lui	a5,0x25
   12108:	10078c93          	addi	s9,a5,256 # 25100 <__clzsi2+0xf0>
   1210c:	c3dff06f          	j	11d48 <_vfprintf_r+0x1950>
   12110:	00812583          	lw	a1,8(sp)
   12114:	0e410613          	addi	a2,sp,228
   12118:	000a0513          	mv	a0,s4
   1211c:	48c090ef          	jal	ra,1b5a8 <__sprint_r>
   12120:	94051c63          	bnez	a0,11278 <_vfprintf_r+0xe80>
   12124:	0ec12683          	lw	a3,236(sp)
   12128:	000b0413          	mv	s0,s6
   1212c:	b98ff06f          	j	114c4 <_vfprintf_r+0x10cc>
   12130:	00600913          	li	s2,6
   12134:	f84ff06f          	j	118b8 <_vfprintf_r+0x14c0>
   12138:	41278933          	sub	s2,a5,s2
   1213c:	05012783          	lw	a5,80(sp)
   12140:	419789b3          	sub	s3,a5,s9
   12144:	c3395c63          	bge	s2,s3,1157c <_vfprintf_r+0x1184>
   12148:	00090993          	mv	s3,s2
   1214c:	c30ff06f          	j	1157c <_vfprintf_r+0x1184>
   12150:	01812783          	lw	a5,24(sp)
   12154:	01012703          	lw	a4,16(sp)
   12158:	0007a783          	lw	a5,0(a5)
   1215c:	00e79023          	sh	a4,0(a5)
   12160:	d81fe06f          	j	10ee0 <_vfprintf_r+0xae8>
   12164:	0ffdfd93          	zext.b	s11,s11
   12168:	00000913          	li	s2,0
   1216c:	f88fe06f          	j	108f4 <_vfprintf_r+0x4fc>
   12170:	018d9d93          	slli	s11,s11,0x18
   12174:	418ddd93          	srai	s11,s11,0x18
   12178:	41fdd913          	srai	s2,s11,0x1f
   1217c:	00090793          	mv	a5,s2
   12180:	ef4fe06f          	j	10874 <_vfprintf_r+0x47c>
   12184:	0ffdfd93          	zext.b	s11,s11
   12188:	00000913          	li	s2,0
   1218c:	ea4ff06f          	j	11830 <_vfprintf_r+0x1438>
   12190:	02d00793          	li	a5,45
   12194:	0cf103a3          	sb	a5,199(sp)
   12198:	02d00693          	li	a3,45
   1219c:	cc1ff06f          	j	11e5c <_vfprintf_r+0x1a64>
   121a0:	00812583          	lw	a1,8(sp)
   121a4:	03012503          	lw	a0,48(sp)
   121a8:	0e410613          	addi	a2,sp,228
   121ac:	3fc090ef          	jal	ra,1b5a8 <__sprint_r>
   121b0:	da8fe06f          	j	10758 <_vfprintf_r+0x360>
   121b4:	00012a23          	sw	zero,20(sp)
   121b8:	80000737          	lui	a4,0x80000
   121bc:	02d00793          	li	a5,45
   121c0:	01b74db3          	xor	s11,a4,s11
   121c4:	06f12023          	sw	a5,96(sp)
   121c8:	fc0ff06f          	j	11988 <_vfprintf_r+0x1590>
   121cc:	00812583          	lw	a1,8(sp)
   121d0:	0e410613          	addi	a2,sp,228
   121d4:	000a0513          	mv	a0,s4
   121d8:	3d0090ef          	jal	ra,1b5a8 <__sprint_r>
   121dc:	88051e63          	bnez	a0,11278 <_vfprintf_r+0xe80>
   121e0:	0cc12503          	lw	a0,204(sp)
   121e4:	0ec12683          	lw	a3,236(sp)
   121e8:	0e812603          	lw	a2,232(sp)
   121ec:	000b0413          	mv	s0,s6
   121f0:	bc9ff06f          	j	11db8 <_vfprintf_r+0x19c0>
   121f4:	00198593          	addi	a1,s3,1
   121f8:	000a0513          	mv	a0,s4
   121fc:	01112a23          	sw	a7,20(sp)
   12200:	209040ef          	jal	ra,16c08 <_malloc_r>
   12204:	01412883          	lw	a7,20(sp)
   12208:	00050c93          	mv	s9,a0
   1220c:	2a0508e3          	beqz	a0,12cbc <_vfprintf_r+0x28c4>
   12210:	00a12a23          	sw	a0,20(sp)
   12214:	f54ff06f          	j	11968 <_vfprintf_r+0x1570>
   12218:	02812783          	lw	a5,40(sp)
   1221c:	0017f713          	andi	a4,a5,1
   12220:	000710e3          	bnez	a4,12a20 <_vfprintf_r+0x2628>
   12224:	0dc12c03          	lw	s8,220(sp)
   12228:	0cc12703          	lw	a4,204(sp)
   1222c:	419c07b3          	sub	a5,s8,s9
   12230:	02f12223          	sw	a5,36(sp)
   12234:	ffd00693          	li	a3,-3
   12238:	02e12023          	sw	a4,32(sp)
   1223c:	00d74463          	blt	a4,a3,12244 <_vfprintf_r+0x1e4c>
   12240:	50e9d263          	bge	s3,a4,12744 <_vfprintf_r+0x234c>
   12244:	fff70d93          	addi	s11,a4,-1 # 7fffffff <__BSS_END__+0x7ffd9517>
   12248:	ffe88893          	addi	a7,a7,-2
   1224c:	0db12623          	sw	s11,204(sp)
   12250:	0ff8f693          	zext.b	a3,a7
   12254:	00000613          	li	a2,0
   12258:	0cd10a23          	sb	a3,212(sp)
   1225c:	02b00693          	li	a3,43
   12260:	000dd863          	bgez	s11,12270 <_vfprintf_r+0x1e78>
   12264:	00100d93          	li	s11,1
   12268:	40ed8db3          	sub	s11,s11,a4
   1226c:	02d00693          	li	a3,45
   12270:	0cd10aa3          	sb	a3,213(sp)
   12274:	00900713          	li	a4,9
   12278:	6db75a63          	bge	a4,s11,1294c <_vfprintf_r+0x2554>
   1227c:	0e310913          	addi	s2,sp,227
   12280:	00090b93          	mv	s7,s2
   12284:	06300993          	li	s3,99
   12288:	00088c13          	mv	s8,a7
   1228c:	02812023          	sw	s0,32(sp)
   12290:	00a00593          	li	a1,10
   12294:	000d8513          	mv	a0,s11
   12298:	549120ef          	jal	ra,24fe0 <__modsi3>
   1229c:	03050793          	addi	a5,a0,48
   122a0:	fefb8fa3          	sb	a5,-1(s7)
   122a4:	000d8513          	mv	a0,s11
   122a8:	00a00593          	li	a1,10
   122ac:	000d8413          	mv	s0,s11
   122b0:	4ad120ef          	jal	ra,24f5c <__divsi3>
   122b4:	000b8a93          	mv	s5,s7
   122b8:	00050d93          	mv	s11,a0
   122bc:	fffb8b93          	addi	s7,s7,-1
   122c0:	fc89c8e3          	blt	s3,s0,12290 <_vfprintf_r+0x1e98>
   122c4:	03050d93          	addi	s11,a0,48
   122c8:	ffea8713          	addi	a4,s5,-2
   122cc:	ffbb8fa3          	sb	s11,-1(s7)
   122d0:	02012403          	lw	s0,32(sp)
   122d4:	000c0893          	mv	a7,s8
   122d8:	1b277ae3          	bgeu	a4,s2,12c8c <_vfprintf_r+0x2894>
   122dc:	0d610613          	addi	a2,sp,214
   122e0:	00074783          	lbu	a5,0(a4)
   122e4:	00170713          	addi	a4,a4,1
   122e8:	00160613          	addi	a2,a2,1
   122ec:	fef60fa3          	sb	a5,-1(a2)
   122f0:	ff2718e3          	bne	a4,s2,122e0 <_vfprintf_r+0x1ee8>
   122f4:	0e510713          	addi	a4,sp,229
   122f8:	0d610793          	addi	a5,sp,214
   122fc:	41570733          	sub	a4,a4,s5
   12300:	00e78733          	add	a4,a5,a4
   12304:	0d410693          	addi	a3,sp,212
   12308:	40d707b3          	sub	a5,a4,a3
   1230c:	04f12223          	sw	a5,68(sp)
   12310:	04412683          	lw	a3,68(sp)
   12314:	02412783          	lw	a5,36(sp)
   12318:	00100713          	li	a4,1
   1231c:	00f68933          	add	s2,a3,a5
   12320:	74f75e63          	bge	a4,a5,12a7c <_vfprintf_r+0x2684>
   12324:	03412783          	lw	a5,52(sp)
   12328:	00f90933          	add	s2,s2,a5
   1232c:	02812783          	lw	a5,40(sp)
   12330:	fff94813          	not	a6,s2
   12334:	41f85813          	srai	a6,a6,0x1f
   12338:	bff7f713          	andi	a4,a5,-1025
   1233c:	10076c13          	ori	s8,a4,256
   12340:	01097ab3          	and	s5,s2,a6
   12344:	02012623          	sw	zero,44(sp)
   12348:	02012423          	sw	zero,40(sp)
   1234c:	02012023          	sw	zero,32(sp)
   12350:	06012783          	lw	a5,96(sp)
   12354:	3c078e63          	beqz	a5,12730 <_vfprintf_r+0x2338>
   12358:	02d00693          	li	a3,45
   1235c:	0cd103a3          	sb	a3,199(sp)
   12360:	00000993          	li	s3,0
   12364:	001a8a93          	addi	s5,s5,1
   12368:	abcfe06f          	j	10624 <_vfprintf_r+0x22c>
   1236c:	000c0593          	mv	a1,s8
   12370:	00090513          	mv	a0,s2
   12374:	05112823          	sw	a7,80(sp)
   12378:	0be12823          	sw	t5,176(sp)
   1237c:	03e12623          	sw	t5,44(sp)
   12380:	0bd12a23          	sw	t4,180(sp)
   12384:	03d12223          	sw	t4,36(sp)
   12388:	0bc12c23          	sw	t3,184(sp)
   1238c:	03c12023          	sw	t3,32(sp)
   12390:	04d12a23          	sw	a3,84(sp)
   12394:	0bb12e23          	sw	s11,188(sp)
   12398:	0a012023          	sw	zero,160(sp)
   1239c:	0a012223          	sw	zero,164(sp)
   123a0:	0a012423          	sw	zero,168(sp)
   123a4:	0a012623          	sw	zero,172(sp)
   123a8:	7300f0ef          	jal	ra,21ad8 <__eqtf2>
   123ac:	02012e03          	lw	t3,32(sp)
   123b0:	02412e83          	lw	t4,36(sp)
   123b4:	02c12f03          	lw	t5,44(sp)
   123b8:	05012883          	lw	a7,80(sp)
   123bc:	e8050663          	beqz	a0,11a48 <_vfprintf_r+0x1650>
   123c0:	05412683          	lw	a3,84(sp)
   123c4:	00100593          	li	a1,1
   123c8:	40d586b3          	sub	a3,a1,a3
   123cc:	0cd12623          	sw	a3,204(sp)
   123d0:	e7cff06f          	j	11a4c <_vfprintf_r+0x1654>
   123d4:	00198693          	addi	a3,s3,1
   123d8:	00200613          	li	a2,2
   123dc:	de4ff06f          	j	119c0 <_vfprintf_r+0x15c8>
   123e0:	00098693          	mv	a3,s3
   123e4:	00300613          	li	a2,3
   123e8:	dd8ff06f          	j	119c0 <_vfprintf_r+0x15c8>
   123ec:	0b010913          	addi	s2,sp,176
   123f0:	00090513          	mv	a0,s2
   123f4:	07112223          	sw	a7,100(sp)
   123f8:	0be12823          	sw	t5,176(sp)
   123fc:	0bd12a23          	sw	t4,180(sp)
   12400:	0bc12c23          	sw	t3,184(sp)
   12404:	0bb12e23          	sw	s11,188(sp)
   12408:	7dc120ef          	jal	ra,24be4 <__trunctfdf2>
   1240c:	0cc10613          	addi	a2,sp,204
   12410:	2dc060ef          	jal	ra,186ec <frexp>
   12414:	00058613          	mv	a2,a1
   12418:	00050593          	mv	a1,a0
   1241c:	00090513          	mv	a0,s2
   12420:	5bc120ef          	jal	ra,249dc <__extenddftf2>
   12424:	0b012703          	lw	a4,176(sp)
   12428:	09010793          	addi	a5,sp,144
   1242c:	0a010c13          	addi	s8,sp,160
   12430:	08e12823          	sw	a4,144(sp)
   12434:	0b412703          	lw	a4,180(sp)
   12438:	08010613          	addi	a2,sp,128
   1243c:	00078593          	mv	a1,a5
   12440:	08e12a23          	sw	a4,148(sp)
   12444:	0b812703          	lw	a4,184(sp)
   12448:	000c0513          	mv	a0,s8
   1244c:	04f12a23          	sw	a5,84(sp)
   12450:	08e12c23          	sw	a4,152(sp)
   12454:	0bc12703          	lw	a4,188(sp)
   12458:	04c12823          	sw	a2,80(sp)
   1245c:	08012023          	sw	zero,128(sp)
   12460:	08e12e23          	sw	a4,156(sp)
   12464:	3ffc0737          	lui	a4,0x3ffc0
   12468:	08e12623          	sw	a4,140(sp)
   1246c:	08012223          	sw	zero,132(sp)
   12470:	08012423          	sw	zero,136(sp)
   12474:	2010f0ef          	jal	ra,21e74 <__multf3>
   12478:	0a012683          	lw	a3,160(sp)
   1247c:	0a412803          	lw	a6,164(sp)
   12480:	0a812e03          	lw	t3,168(sp)
   12484:	0ac12e83          	lw	t4,172(sp)
   12488:	000c0593          	mv	a1,s8
   1248c:	00090513          	mv	a0,s2
   12490:	0ad12823          	sw	a3,176(sp)
   12494:	04d12c23          	sw	a3,88(sp)
   12498:	0b012a23          	sw	a6,180(sp)
   1249c:	03012623          	sw	a6,44(sp)
   124a0:	0bc12c23          	sw	t3,184(sp)
   124a4:	03c12223          	sw	t3,36(sp)
   124a8:	0bd12e23          	sw	t4,188(sp)
   124ac:	03d12023          	sw	t4,32(sp)
   124b0:	0a012023          	sw	zero,160(sp)
   124b4:	0a012223          	sw	zero,164(sp)
   124b8:	0a012423          	sw	zero,168(sp)
   124bc:	0a012623          	sw	zero,172(sp)
   124c0:	6180f0ef          	jal	ra,21ad8 <__eqtf2>
   124c4:	02012e83          	lw	t4,32(sp)
   124c8:	02412e03          	lw	t3,36(sp)
   124cc:	02c12803          	lw	a6,44(sp)
   124d0:	05812683          	lw	a3,88(sp)
   124d4:	06412883          	lw	a7,100(sp)
   124d8:	00051a63          	bnez	a0,124ec <_vfprintf_r+0x20f4>
   124dc:	00100713          	li	a4,1
   124e0:	0ce12623          	sw	a4,204(sp)
   124e4:	06100713          	li	a4,97
   124e8:	68e88a63          	beq	a7,a4,12b7c <_vfprintf_r+0x2784>
   124ec:	00025737          	lui	a4,0x25
   124f0:	12470393          	addi	t2,a4,292 # 25124 <__clzsi2+0x114>
   124f4:	fff98b93          	addi	s7,s3,-1
   124f8:	07312823          	sw	s3,112(sp)
   124fc:	06812a23          	sw	s0,116(sp)
   12500:	000c8993          	mv	s3,s9
   12504:	07412c23          	sw	s4,120(sp)
   12508:	07912e23          	sw	s9,124(sp)
   1250c:	06912223          	sw	s1,100(sp)
   12510:	07112423          	sw	a7,104(sp)
   12514:	07a12623          	sw	s10,108(sp)
   12518:	02712623          	sw	t2,44(sp)
   1251c:	00068a13          	mv	s4,a3
   12520:	00080a93          	mv	s5,a6
   12524:	000e0c93          	mv	s9,t3
   12528:	000e8413          	mv	s0,t4
   1252c:	04c0006f          	j	12578 <_vfprintf_r+0x2180>
   12530:	000c0593          	mv	a1,s8
   12534:	00090513          	mv	a0,s2
   12538:	02f12223          	sw	a5,36(sp)
   1253c:	02c12023          	sw	a2,32(sp)
   12540:	0ac12c23          	sw	a2,184(sp)
   12544:	0af12e23          	sw	a5,188(sp)
   12548:	0a912823          	sw	s1,176(sp)
   1254c:	0ba12a23          	sw	s10,180(sp)
   12550:	0a012023          	sw	zero,160(sp)
   12554:	0a012223          	sw	zero,164(sp)
   12558:	0a012423          	sw	zero,168(sp)
   1255c:	0a012623          	sw	zero,172(sp)
   12560:	5780f0ef          	jal	ra,21ad8 <__eqtf2>
   12564:	fffb8593          	addi	a1,s7,-1
   12568:	000c8613          	mv	a2,s9
   1256c:	00040793          	mv	a5,s0
   12570:	4c050063          	beqz	a0,12a30 <_vfprintf_r+0x2638>
   12574:	00058b93          	mv	s7,a1
   12578:	05412d03          	lw	s10,84(sp)
   1257c:	400307b7          	lui	a5,0x40030
   12580:	000c0593          	mv	a1,s8
   12584:	000d0613          	mv	a2,s10
   12588:	00090513          	mv	a0,s2
   1258c:	08f12e23          	sw	a5,156(sp)
   12590:	0b412023          	sw	s4,160(sp)
   12594:	0b512223          	sw	s5,164(sp)
   12598:	0b912423          	sw	s9,168(sp)
   1259c:	0a812623          	sw	s0,172(sp)
   125a0:	08012823          	sw	zero,144(sp)
   125a4:	08012a23          	sw	zero,148(sp)
   125a8:	08012c23          	sw	zero,152(sp)
   125ac:	0c90f0ef          	jal	ra,21e74 <__multf3>
   125b0:	00090513          	mv	a0,s2
   125b4:	1e0120ef          	jal	ra,24794 <__fixtfsi>
   125b8:	00050593          	mv	a1,a0
   125bc:	00050d93          	mv	s11,a0
   125c0:	00090513          	mv	a0,s2
   125c4:	0b012a83          	lw	s5,176(sp)
   125c8:	0b412a03          	lw	s4,180(sp)
   125cc:	0b812483          	lw	s1,184(sp)
   125d0:	0bc12403          	lw	s0,188(sp)
   125d4:	2b4120ef          	jal	ra,24888 <__floatsitf>
   125d8:	0b012783          	lw	a5,176(sp)
   125dc:	05012603          	lw	a2,80(sp)
   125e0:	000d0593          	mv	a1,s10
   125e4:	08f12023          	sw	a5,128(sp)
   125e8:	0b412783          	lw	a5,180(sp)
   125ec:	000c0513          	mv	a0,s8
   125f0:	09512823          	sw	s5,144(sp)
   125f4:	08f12223          	sw	a5,132(sp)
   125f8:	0b812783          	lw	a5,184(sp)
   125fc:	09412a23          	sw	s4,148(sp)
   12600:	08912c23          	sw	s1,152(sp)
   12604:	08f12423          	sw	a5,136(sp)
   12608:	0bc12783          	lw	a5,188(sp)
   1260c:	08812e23          	sw	s0,156(sp)
   12610:	08f12623          	sw	a5,140(sp)
   12614:	48d100ef          	jal	ra,232a0 <__subtf3>
   12618:	02c12783          	lw	a5,44(sp)
   1261c:	0a012483          	lw	s1,160(sp)
   12620:	0a412d03          	lw	s10,164(sp)
   12624:	01b787b3          	add	a5,a5,s11
   12628:	0007c683          	lbu	a3,0(a5) # 40030000 <__BSS_END__+0x40009518>
   1262c:	0a812603          	lw	a2,168(sp)
   12630:	0ac12783          	lw	a5,172(sp)
   12634:	05312c23          	sw	s3,88(sp)
   12638:	00d98023          	sb	a3,0(s3)
   1263c:	fff00713          	li	a4,-1
   12640:	00198993          	addi	s3,s3,1
   12644:	00048a13          	mv	s4,s1
   12648:	000d0a93          	mv	s5,s10
   1264c:	00060c93          	mv	s9,a2
   12650:	00078413          	mv	s0,a5
   12654:	eceb9ee3          	bne	s7,a4,12530 <_vfprintf_r+0x2138>
   12658:	00098a93          	mv	s5,s3
   1265c:	00048f93          	mv	t6,s1
   12660:	000d0f13          	mv	t5,s10
   12664:	06812883          	lw	a7,104(sp)
   12668:	07412403          	lw	s0,116(sp)
   1266c:	07012983          	lw	s3,112(sp)
   12670:	02c12383          	lw	t2,44(sp)
   12674:	07812a03          	lw	s4,120(sp)
   12678:	07c12c83          	lw	s9,124(sp)
   1267c:	06412483          	lw	s1,100(sp)
   12680:	06c12d03          	lw	s10,108(sp)
   12684:	fff00693          	li	a3,-1
   12688:	3ffe0837          	lui	a6,0x3ffe0
   1268c:	000c0593          	mv	a1,s8
   12690:	00090513          	mv	a0,s2
   12694:	02712223          	sw	t2,36(sp)
   12698:	03112023          	sw	a7,32(sp)
   1269c:	06d12423          	sw	a3,104(sp)
   126a0:	0bf12823          	sw	t6,176(sp)
   126a4:	07f12223          	sw	t6,100(sp)
   126a8:	0be12a23          	sw	t5,180(sp)
   126ac:	05e12a23          	sw	t5,84(sp)
   126b0:	0ac12c23          	sw	a2,184(sp)
   126b4:	04c12823          	sw	a2,80(sp)
   126b8:	0af12e23          	sw	a5,188(sp)
   126bc:	02f12623          	sw	a5,44(sp)
   126c0:	0a012023          	sw	zero,160(sp)
   126c4:	0a012223          	sw	zero,164(sp)
   126c8:	0a012423          	sw	zero,168(sp)
   126cc:	0b012623          	sw	a6,172(sp)
   126d0:	4dc0f0ef          	jal	ra,21bac <__getf2>
   126d4:	02012883          	lw	a7,32(sp)
   126d8:	02412383          	lw	t2,36(sp)
   126dc:	2ea04463          	bgtz	a0,129c4 <_vfprintf_r+0x25cc>
   126e0:	000c0593          	mv	a1,s8
   126e4:	00090513          	mv	a0,s2
   126e8:	3f00f0ef          	jal	ra,21ad8 <__eqtf2>
   126ec:	02012883          	lw	a7,32(sp)
   126f0:	02412383          	lw	t2,36(sp)
   126f4:	06812683          	lw	a3,104(sp)
   126f8:	00051663          	bnez	a0,12704 <_vfprintf_r+0x230c>
   126fc:	001dfd93          	andi	s11,s11,1
   12700:	2c0d9263          	bnez	s11,129c4 <_vfprintf_r+0x25cc>
   12704:	00168c13          	addi	s8,a3,1
   12708:	018a8c33          	add	s8,s5,s8
   1270c:	03000613          	li	a2,48
   12710:	2e06ce63          	bltz	a3,12a0c <_vfprintf_r+0x2614>
   12714:	001a8a93          	addi	s5,s5,1
   12718:	feca8fa3          	sb	a2,-1(s5)
   1271c:	ff5c1ce3          	bne	s8,s5,12714 <_vfprintf_r+0x231c>
   12720:	419c07b3          	sub	a5,s8,s9
   12724:	02f12223          	sw	a5,36(sp)
   12728:	fdf8fa93          	andi	s5,a7,-33
   1272c:	b88ff06f          	j	11ab4 <_vfprintf_r+0x16bc>
   12730:	0c714683          	lbu	a3,199(sp)
   12734:	00000993          	li	s3,0
   12738:	00068463          	beqz	a3,12740 <_vfprintf_r+0x2348>
   1273c:	988fe06f          	j	108c4 <_vfprintf_r+0x4cc>
   12740:	ee5fd06f          	j	10624 <_vfprintf_r+0x22c>
   12744:	02412783          	lw	a5,36(sp)
   12748:	1af74463          	blt	a4,a5,128f0 <_vfprintf_r+0x24f8>
   1274c:	02812783          	lw	a5,40(sp)
   12750:	00070913          	mv	s2,a4
   12754:	0017f693          	andi	a3,a5,1
   12758:	00068663          	beqz	a3,12764 <_vfprintf_r+0x236c>
   1275c:	03412783          	lw	a5,52(sp)
   12760:	00f70933          	add	s2,a4,a5
   12764:	02812783          	lw	a5,40(sp)
   12768:	4007f693          	andi	a3,a5,1024
   1276c:	00068463          	beqz	a3,12774 <_vfprintf_r+0x237c>
   12770:	40e04c63          	bgtz	a4,12b88 <_vfprintf_r+0x2790>
   12774:	fff94813          	not	a6,s2
   12778:	05c12c03          	lw	s8,92(sp)
   1277c:	41f85813          	srai	a6,a6,0x1f
   12780:	01097ab3          	and	s5,s2,a6
   12784:	06700893          	li	a7,103
   12788:	02012623          	sw	zero,44(sp)
   1278c:	02012423          	sw	zero,40(sp)
   12790:	bc1ff06f          	j	12350 <_vfprintf_r+0x1f58>
   12794:	00900713          	li	a4,9
   12798:	c3b76663          	bltu	a4,s11,11bc4 <_vfprintf_r+0x17cc>
   1279c:	c70ff06f          	j	11c0c <_vfprintf_r+0x1814>
   127a0:	0e410613          	addi	a2,sp,228
   127a4:	00048593          	mv	a1,s1
   127a8:	000a0513          	mv	a0,s4
   127ac:	5fd080ef          	jal	ra,1b5a8 <__sprint_r>
   127b0:	00050463          	beqz	a0,127b8 <_vfprintf_r+0x23c0>
   127b4:	ac5fe06f          	j	11278 <_vfprintf_r+0xe80>
   127b8:	000c4703          	lbu	a4,0(s8)
   127bc:	0ec12683          	lw	a3,236(sp)
   127c0:	000b0613          	mv	a2,s6
   127c4:	00ec8cb3          	add	s9,s9,a4
   127c8:	fb0ff06f          	j	11f78 <_vfprintf_r+0x1b80>
   127cc:	00812583          	lw	a1,8(sp)
   127d0:	0e410613          	addi	a2,sp,228
   127d4:	000a0513          	mv	a0,s4
   127d8:	5d1080ef          	jal	ra,1b5a8 <__sprint_r>
   127dc:	00050463          	beqz	a0,127e4 <_vfprintf_r+0x23ec>
   127e0:	a99fe06f          	j	11278 <_vfprintf_r+0xe80>
   127e4:	0cc12903          	lw	s2,204(sp)
   127e8:	0ec12683          	lw	a3,236(sp)
   127ec:	000b0413          	mv	s0,s6
   127f0:	d45fe06f          	j	11534 <_vfprintf_r+0x113c>
   127f4:	02d00793          	li	a5,45
   127f8:	0cf103a3          	sb	a5,199(sp)
   127fc:	02d00693          	li	a3,45
   12800:	d38ff06f          	j	11d38 <_vfprintf_r+0x1940>
   12804:	0c714683          	lbu	a3,199(sp)
   12808:	01712c23          	sw	s7,24(sp)
   1280c:	02012623          	sw	zero,44(sp)
   12810:	02012423          	sw	zero,40(sp)
   12814:	02012023          	sw	zero,32(sp)
   12818:	00098a93          	mv	s5,s3
   1281c:	00098913          	mv	s2,s3
   12820:	00000993          	li	s3,0
   12824:	00068463          	beqz	a3,1282c <_vfprintf_r+0x2434>
   12828:	89cfe06f          	j	108c4 <_vfprintf_r+0x4cc>
   1282c:	df9fd06f          	j	10624 <_vfprintf_r+0x22c>
   12830:	000257b7          	lui	a5,0x25
   12834:	10878c93          	addi	s9,a5,264 # 25108 <__clzsi2+0xf8>
   12838:	d10ff06f          	j	11d48 <_vfprintf_r+0x1950>
   1283c:	00812583          	lw	a1,8(sp)
   12840:	0e410613          	addi	a2,sp,228
   12844:	000a0513          	mv	a0,s4
   12848:	561080ef          	jal	ra,1b5a8 <__sprint_r>
   1284c:	00050463          	beqz	a0,12854 <_vfprintf_r+0x245c>
   12850:	a29fe06f          	j	11278 <_vfprintf_r+0xe80>
   12854:	0cc12903          	lw	s2,204(sp)
   12858:	02412783          	lw	a5,36(sp)
   1285c:	0ec12683          	lw	a3,236(sp)
   12860:	000b0413          	mv	s0,s6
   12864:	41278933          	sub	s2,a5,s2
   12868:	d15fe06f          	j	1157c <_vfprintf_r+0x1184>
   1286c:	000c0693          	mv	a3,s8
   12870:	ce4fe06f          	j	10d54 <_vfprintf_r+0x95c>
   12874:	00025e37          	lui	t3,0x25
   12878:	ff000593          	li	a1,-16
   1287c:	40a00933          	neg	s2,a0
   12880:	348e0b93          	addi	s7,t3,840 # 25348 <zeroes.0>
   12884:	01000993          	li	s3,16
   12888:	00700d93          	li	s11,7
   1288c:	00b54863          	blt	a0,a1,1289c <_vfprintf_r+0x24a4>
   12890:	0ec0006f          	j	1297c <_vfprintf_r+0x2584>
   12894:	ff090913          	addi	s2,s2,-16
   12898:	0f29d263          	bge	s3,s2,1297c <_vfprintf_r+0x2584>
   1289c:	01068693          	addi	a3,a3,16
   128a0:	00160613          	addi	a2,a2,1
   128a4:	01742023          	sw	s7,0(s0)
   128a8:	01342223          	sw	s3,4(s0)
   128ac:	0ed12623          	sw	a3,236(sp)
   128b0:	0ec12423          	sw	a2,232(sp)
   128b4:	00840413          	addi	s0,s0,8
   128b8:	fccddee3          	bge	s11,a2,12894 <_vfprintf_r+0x249c>
   128bc:	00812583          	lw	a1,8(sp)
   128c0:	0e410613          	addi	a2,sp,228
   128c4:	000a0513          	mv	a0,s4
   128c8:	4e1080ef          	jal	ra,1b5a8 <__sprint_r>
   128cc:	00050463          	beqz	a0,128d4 <_vfprintf_r+0x24dc>
   128d0:	9a9fe06f          	j	11278 <_vfprintf_r+0xe80>
   128d4:	0ec12683          	lw	a3,236(sp)
   128d8:	0e812603          	lw	a2,232(sp)
   128dc:	000b0413          	mv	s0,s6
   128e0:	fb5ff06f          	j	12894 <_vfprintf_r+0x249c>
   128e4:	fff00793          	li	a5,-1
   128e8:	00f12823          	sw	a5,16(sp)
   128ec:	e81fd06f          	j	1076c <_vfprintf_r+0x374>
   128f0:	02412783          	lw	a5,36(sp)
   128f4:	03412703          	lw	a4,52(sp)
   128f8:	06700893          	li	a7,103
   128fc:	00e78933          	add	s2,a5,a4
   12900:	02012783          	lw	a5,32(sp)
   12904:	30f05863          	blez	a5,12c14 <_vfprintf_r+0x281c>
   12908:	02812783          	lw	a5,40(sp)
   1290c:	4007f713          	andi	a4,a5,1024
   12910:	26071e63          	bnez	a4,12b8c <_vfprintf_r+0x2794>
   12914:	fff94813          	not	a6,s2
   12918:	41f85813          	srai	a6,a6,0x1f
   1291c:	05c12c03          	lw	s8,92(sp)
   12920:	01097ab3          	and	s5,s2,a6
   12924:	e65ff06f          	j	12788 <_vfprintf_r+0x2390>
   12928:	02812783          	lw	a5,40(sp)
   1292c:	0017f713          	andi	a4,a5,1
   12930:	02012783          	lw	a5,32(sp)
   12934:	01376733          	or	a4,a4,s3
   12938:	30f05c63          	blez	a5,12c50 <_vfprintf_r+0x2858>
   1293c:	2e071a63          	bnez	a4,12c30 <_vfprintf_r+0x2838>
   12940:	02012903          	lw	s2,32(sp)
   12944:	06600893          	li	a7,102
   12948:	fc1ff06f          	j	12908 <_vfprintf_r+0x2510>
   1294c:	0d610713          	addi	a4,sp,214
   12950:	00061863          	bnez	a2,12960 <_vfprintf_r+0x2568>
   12954:	03000713          	li	a4,48
   12958:	0ce10b23          	sb	a4,214(sp)
   1295c:	0d710713          	addi	a4,sp,215
   12960:	1b010793          	addi	a5,sp,432
   12964:	40f706b3          	sub	a3,a4,a5
   12968:	030d8d93          	addi	s11,s11,48
   1296c:	0dd68793          	addi	a5,a3,221
   12970:	01b70023          	sb	s11,0(a4)
   12974:	04f12223          	sw	a5,68(sp)
   12978:	999ff06f          	j	12310 <_vfprintf_r+0x1f18>
   1297c:	012686b3          	add	a3,a3,s2
   12980:	00160613          	addi	a2,a2,1
   12984:	01742023          	sw	s7,0(s0)
   12988:	01242223          	sw	s2,4(s0)
   1298c:	0ed12623          	sw	a3,236(sp)
   12990:	0ec12423          	sw	a2,232(sp)
   12994:	00700593          	li	a1,7
   12998:	b2c5d063          	bge	a1,a2,11cb8 <_vfprintf_r+0x18c0>
   1299c:	00812583          	lw	a1,8(sp)
   129a0:	0e410613          	addi	a2,sp,228
   129a4:	000a0513          	mv	a0,s4
   129a8:	401080ef          	jal	ra,1b5a8 <__sprint_r>
   129ac:	00050463          	beqz	a0,129b4 <_vfprintf_r+0x25bc>
   129b0:	8c9fe06f          	j	11278 <_vfprintf_r+0xe80>
   129b4:	0ec12683          	lw	a3,236(sp)
   129b8:	0e812603          	lw	a2,232(sp)
   129bc:	000b0413          	mv	s0,s6
   129c0:	bfcff06f          	j	11dbc <_vfprintf_r+0x19c4>
   129c4:	05812783          	lw	a5,88(sp)
   129c8:	00f3c583          	lbu	a1,15(t2)
   129cc:	000a8693          	mv	a3,s5
   129d0:	0cf12e23          	sw	a5,220(sp)
   129d4:	fffac603          	lbu	a2,-1(s5)
   129d8:	02b61063          	bne	a2,a1,129f8 <_vfprintf_r+0x2600>
   129dc:	03000513          	li	a0,48
   129e0:	fea68fa3          	sb	a0,-1(a3)
   129e4:	0dc12683          	lw	a3,220(sp)
   129e8:	fff68793          	addi	a5,a3,-1
   129ec:	0cf12e23          	sw	a5,220(sp)
   129f0:	fff6c603          	lbu	a2,-1(a3)
   129f4:	fec586e3          	beq	a1,a2,129e0 <_vfprintf_r+0x25e8>
   129f8:	00160593          	addi	a1,a2,1
   129fc:	03900513          	li	a0,57
   12a00:	0ff5f593          	zext.b	a1,a1
   12a04:	00a60863          	beq	a2,a0,12a14 <_vfprintf_r+0x261c>
   12a08:	feb68fa3          	sb	a1,-1(a3)
   12a0c:	000a8c13          	mv	s8,s5
   12a10:	d11ff06f          	j	12720 <_vfprintf_r+0x2328>
   12a14:	00a3c583          	lbu	a1,10(t2)
   12a18:	feb68fa3          	sb	a1,-1(a3)
   12a1c:	ff1ff06f          	j	12a0c <_vfprintf_r+0x2614>
   12a20:	00dc8bb3          	add	s7,s9,a3
   12a24:	04700a93          	li	s5,71
   12a28:	0a010c13          	addi	s8,sp,160
   12a2c:	824ff06f          	j	11a50 <_vfprintf_r+0x1658>
   12a30:	00098a93          	mv	s5,s3
   12a34:	00048f93          	mv	t6,s1
   12a38:	000d0f13          	mv	t5,s10
   12a3c:	06812883          	lw	a7,104(sp)
   12a40:	07412403          	lw	s0,116(sp)
   12a44:	07012983          	lw	s3,112(sp)
   12a48:	02c12383          	lw	t2,44(sp)
   12a4c:	07812a03          	lw	s4,120(sp)
   12a50:	07c12c83          	lw	s9,124(sp)
   12a54:	06412483          	lw	s1,100(sp)
   12a58:	06c12d03          	lw	s10,108(sp)
   12a5c:	000b8693          	mv	a3,s7
   12a60:	c29ff06f          	j	12688 <_vfprintf_r+0x2290>
   12a64:	00098463          	beqz	s3,12a6c <_vfprintf_r+0x2674>
   12a68:	fb1fd06f          	j	10a18 <_vfprintf_r+0x620>
   12a6c:	00100993          	li	s3,1
   12a70:	fa9fd06f          	j	10a18 <_vfprintf_r+0x620>
   12a74:	00600993          	li	s3,6
   12a78:	fa1fd06f          	j	10a18 <_vfprintf_r+0x620>
   12a7c:	02812783          	lw	a5,40(sp)
   12a80:	0017f713          	andi	a4,a5,1
   12a84:	8a0704e3          	beqz	a4,1232c <_vfprintf_r+0x1f34>
   12a88:	89dff06f          	j	12324 <_vfprintf_r+0x1f2c>
   12a8c:	0b010913          	addi	s2,sp,176
   12a90:	00090513          	mv	a0,s2
   12a94:	07112223          	sw	a7,100(sp)
   12a98:	0be12823          	sw	t5,176(sp)
   12a9c:	0bd12a23          	sw	t4,180(sp)
   12aa0:	0bc12c23          	sw	t3,184(sp)
   12aa4:	0bb12e23          	sw	s11,188(sp)
   12aa8:	13c120ef          	jal	ra,24be4 <__trunctfdf2>
   12aac:	0cc10613          	addi	a2,sp,204
   12ab0:	43d050ef          	jal	ra,186ec <frexp>
   12ab4:	00058613          	mv	a2,a1
   12ab8:	00050593          	mv	a1,a0
   12abc:	00090513          	mv	a0,s2
   12ac0:	71d110ef          	jal	ra,249dc <__extenddftf2>
   12ac4:	0b012703          	lw	a4,176(sp)
   12ac8:	09010793          	addi	a5,sp,144
   12acc:	0a010c13          	addi	s8,sp,160
   12ad0:	08e12823          	sw	a4,144(sp)
   12ad4:	0b412703          	lw	a4,180(sp)
   12ad8:	08010613          	addi	a2,sp,128
   12adc:	00078593          	mv	a1,a5
   12ae0:	08e12a23          	sw	a4,148(sp)
   12ae4:	0b812703          	lw	a4,184(sp)
   12ae8:	000c0513          	mv	a0,s8
   12aec:	04f12a23          	sw	a5,84(sp)
   12af0:	08e12c23          	sw	a4,152(sp)
   12af4:	0bc12703          	lw	a4,188(sp)
   12af8:	04c12823          	sw	a2,80(sp)
   12afc:	08012023          	sw	zero,128(sp)
   12b00:	08e12e23          	sw	a4,156(sp)
   12b04:	3ffc0737          	lui	a4,0x3ffc0
   12b08:	08e12623          	sw	a4,140(sp)
   12b0c:	08012223          	sw	zero,132(sp)
   12b10:	08012423          	sw	zero,136(sp)
   12b14:	3600f0ef          	jal	ra,21e74 <__multf3>
   12b18:	0a012683          	lw	a3,160(sp)
   12b1c:	0a412803          	lw	a6,164(sp)
   12b20:	0a812e03          	lw	t3,168(sp)
   12b24:	0ac12e83          	lw	t4,172(sp)
   12b28:	000c0593          	mv	a1,s8
   12b2c:	00090513          	mv	a0,s2
   12b30:	0ad12823          	sw	a3,176(sp)
   12b34:	04d12c23          	sw	a3,88(sp)
   12b38:	0b012a23          	sw	a6,180(sp)
   12b3c:	03012623          	sw	a6,44(sp)
   12b40:	0bc12c23          	sw	t3,184(sp)
   12b44:	03c12223          	sw	t3,36(sp)
   12b48:	0bd12e23          	sw	t4,188(sp)
   12b4c:	03d12023          	sw	t4,32(sp)
   12b50:	0a012023          	sw	zero,160(sp)
   12b54:	0a012223          	sw	zero,164(sp)
   12b58:	0a012423          	sw	zero,168(sp)
   12b5c:	0a012623          	sw	zero,172(sp)
   12b60:	7790e0ef          	jal	ra,21ad8 <__eqtf2>
   12b64:	02012e83          	lw	t4,32(sp)
   12b68:	02412e03          	lw	t3,36(sp)
   12b6c:	02c12803          	lw	a6,44(sp)
   12b70:	05812683          	lw	a3,88(sp)
   12b74:	06412883          	lw	a7,100(sp)
   12b78:	960502e3          	beqz	a0,124dc <_vfprintf_r+0x20e4>
   12b7c:	00025737          	lui	a4,0x25
   12b80:	11070393          	addi	t2,a4,272 # 25110 <__clzsi2+0x100>
   12b84:	971ff06f          	j	124f4 <_vfprintf_r+0x20fc>
   12b88:	06700893          	li	a7,103
   12b8c:	04012603          	lw	a2,64(sp)
   12b90:	0ff00693          	li	a3,255
   12b94:	00064703          	lbu	a4,0(a2)
   12b98:	12d70c63          	beq	a4,a3,12cd0 <_vfprintf_r+0x28d8>
   12b9c:	02012783          	lw	a5,32(sp)
   12ba0:	00000513          	li	a0,0
   12ba4:	00000593          	li	a1,0
   12ba8:	00f75e63          	bge	a4,a5,12bc4 <_vfprintf_r+0x27cc>
   12bac:	40e787b3          	sub	a5,a5,a4
   12bb0:	00164703          	lbu	a4,1(a2)
   12bb4:	04070a63          	beqz	a4,12c08 <_vfprintf_r+0x2810>
   12bb8:	00158593          	addi	a1,a1,1
   12bbc:	00160613          	addi	a2,a2,1
   12bc0:	fed714e3          	bne	a4,a3,12ba8 <_vfprintf_r+0x27b0>
   12bc4:	04c12023          	sw	a2,64(sp)
   12bc8:	02f12023          	sw	a5,32(sp)
   12bcc:	02b12423          	sw	a1,40(sp)
   12bd0:	02a12623          	sw	a0,44(sp)
   12bd4:	02c12783          	lw	a5,44(sp)
   12bd8:	02812703          	lw	a4,40(sp)
   12bdc:	04c12583          	lw	a1,76(sp)
   12be0:	05112823          	sw	a7,80(sp)
   12be4:	00e78533          	add	a0,a5,a4
   12be8:	350120ef          	jal	ra,24f38 <__mulsi3>
   12bec:	01250933          	add	s2,a0,s2
   12bf0:	fff94813          	not	a6,s2
   12bf4:	41f85813          	srai	a6,a6,0x1f
   12bf8:	05c12c03          	lw	s8,92(sp)
   12bfc:	05012883          	lw	a7,80(sp)
   12c00:	01097ab3          	and	s5,s2,a6
   12c04:	f4cff06f          	j	12350 <_vfprintf_r+0x1f58>
   12c08:	00064703          	lbu	a4,0(a2)
   12c0c:	00150513          	addi	a0,a0,1
   12c10:	fb1ff06f          	j	12bc0 <_vfprintf_r+0x27c8>
   12c14:	40f90eb3          	sub	t4,s2,a5
   12c18:	001e8913          	addi	s2,t4,1
   12c1c:	fff94813          	not	a6,s2
   12c20:	41f85813          	srai	a6,a6,0x1f
   12c24:	05c12c03          	lw	s8,92(sp)
   12c28:	01097ab3          	and	s5,s2,a6
   12c2c:	b5dff06f          	j	12788 <_vfprintf_r+0x2390>
   12c30:	03412703          	lw	a4,52(sp)
   12c34:	06600893          	li	a7,102
   12c38:	00e78eb3          	add	t4,a5,a4
   12c3c:	013e8933          	add	s2,t4,s3
   12c40:	cc9ff06f          	j	12908 <_vfprintf_r+0x2510>
   12c44:	07000693          	li	a3,112
   12c48:	00100613          	li	a2,1
   12c4c:	e0cff06f          	j	12258 <_vfprintf_r+0x1e60>
   12c50:	00071c63          	bnez	a4,12c68 <_vfprintf_r+0x2870>
   12c54:	05c12c03          	lw	s8,92(sp)
   12c58:	00100a93          	li	s5,1
   12c5c:	06600893          	li	a7,102
   12c60:	00100913          	li	s2,1
   12c64:	b25ff06f          	j	12788 <_vfprintf_r+0x2390>
   12c68:	03412783          	lw	a5,52(sp)
   12c6c:	05c12c03          	lw	s8,92(sp)
   12c70:	06600893          	li	a7,102
   12c74:	00178e93          	addi	t4,a5,1
   12c78:	013e8933          	add	s2,t4,s3
   12c7c:	fff94813          	not	a6,s2
   12c80:	41f85813          	srai	a6,a6,0x1f
   12c84:	01097ab3          	and	s5,s2,a6
   12c88:	b01ff06f          	j	12788 <_vfprintf_r+0x2390>
   12c8c:	00200793          	li	a5,2
   12c90:	04f12223          	sw	a5,68(sp)
   12c94:	e7cff06f          	j	12310 <_vfprintf_r+0x1f18>
   12c98:	01812783          	lw	a5,24(sp)
   12c9c:	0007a983          	lw	s3,0(a5)
   12ca0:	00478793          	addi	a5,a5,4
   12ca4:	0009d463          	bgez	s3,12cac <_vfprintf_r+0x28b4>
   12ca8:	fff00993          	li	s3,-1
   12cac:	0014c883          	lbu	a7,1(s1)
   12cb0:	00f12c23          	sw	a5,24(sp)
   12cb4:	00070493          	mv	s1,a4
   12cb8:	8edfd06f          	j	105a4 <_vfprintf_r+0x1ac>
   12cbc:	00812703          	lw	a4,8(sp)
   12cc0:	00c75783          	lhu	a5,12(a4)
   12cc4:	0407e793          	ori	a5,a5,64
   12cc8:	00f71623          	sh	a5,12(a4)
   12ccc:	a8dfd06f          	j	10758 <_vfprintf_r+0x360>
   12cd0:	02012623          	sw	zero,44(sp)
   12cd4:	02012423          	sw	zero,40(sp)
   12cd8:	efdff06f          	j	12bd4 <_vfprintf_r+0x27dc>

00012cdc <vfprintf>:
   12cdc:	00050793          	mv	a5,a0
   12ce0:	1c01a503          	lw	a0,448(gp) # 26a80 <_impure_ptr>
   12ce4:	00060693          	mv	a3,a2
   12ce8:	00058613          	mv	a2,a1
   12cec:	00078593          	mv	a1,a5
   12cf0:	f08fd06f          	j	103f8 <_vfprintf_r>

00012cf4 <__sbprintf>:
   12cf4:	00c59783          	lh	a5,12(a1)
   12cf8:	00e5d703          	lhu	a4,14(a1)
   12cfc:	0645a303          	lw	t1,100(a1)
   12d00:	ffd7f793          	andi	a5,a5,-3
   12d04:	01079793          	slli	a5,a5,0x10
   12d08:	01c5a883          	lw	a7,28(a1)
   12d0c:	0245a803          	lw	a6,36(a1)
   12d10:	01071713          	slli	a4,a4,0x10
   12d14:	0107d793          	srli	a5,a5,0x10
   12d18:	b8010113          	addi	sp,sp,-1152
   12d1c:	00e7e7b3          	or	a5,a5,a4
   12d20:	46812c23          	sw	s0,1144(sp)
   12d24:	40000713          	li	a4,1024
   12d28:	00f12a23          	sw	a5,20(sp)
   12d2c:	00058413          	mv	s0,a1
   12d30:	07010793          	addi	a5,sp,112
   12d34:	00810593          	addi	a1,sp,8
   12d38:	46912a23          	sw	s1,1140(sp)
   12d3c:	47212823          	sw	s2,1136(sp)
   12d40:	46112e23          	sw	ra,1148(sp)
   12d44:	00050913          	mv	s2,a0
   12d48:	06612623          	sw	t1,108(sp)
   12d4c:	03112223          	sw	a7,36(sp)
   12d50:	03012623          	sw	a6,44(sp)
   12d54:	00f12423          	sw	a5,8(sp)
   12d58:	00f12c23          	sw	a5,24(sp)
   12d5c:	00e12823          	sw	a4,16(sp)
   12d60:	00e12e23          	sw	a4,28(sp)
   12d64:	02012023          	sw	zero,32(sp)
   12d68:	e90fd0ef          	jal	ra,103f8 <_vfprintf_r>
   12d6c:	00050493          	mv	s1,a0
   12d70:	02055c63          	bgez	a0,12da8 <__sbprintf+0xb4>
   12d74:	01415783          	lhu	a5,20(sp)
   12d78:	0407f793          	andi	a5,a5,64
   12d7c:	00078863          	beqz	a5,12d8c <__sbprintf+0x98>
   12d80:	00c45783          	lhu	a5,12(s0)
   12d84:	0407e793          	ori	a5,a5,64
   12d88:	00f41623          	sh	a5,12(s0)
   12d8c:	47c12083          	lw	ra,1148(sp)
   12d90:	47812403          	lw	s0,1144(sp)
   12d94:	47012903          	lw	s2,1136(sp)
   12d98:	00048513          	mv	a0,s1
   12d9c:	47412483          	lw	s1,1140(sp)
   12da0:	48010113          	addi	sp,sp,1152
   12da4:	00008067          	ret
   12da8:	00810593          	addi	a1,sp,8
   12dac:	00090513          	mv	a0,s2
   12db0:	4d0000ef          	jal	ra,13280 <_fflush_r>
   12db4:	fc0500e3          	beqz	a0,12d74 <__sbprintf+0x80>
   12db8:	fff00493          	li	s1,-1
   12dbc:	fb9ff06f          	j	12d74 <__sbprintf+0x80>

00012dc0 <__swsetup_r>:
   12dc0:	1c01a783          	lw	a5,448(gp) # 26a80 <_impure_ptr>
   12dc4:	ff010113          	addi	sp,sp,-16
   12dc8:	00812423          	sw	s0,8(sp)
   12dcc:	00912223          	sw	s1,4(sp)
   12dd0:	00112623          	sw	ra,12(sp)
   12dd4:	00050493          	mv	s1,a0
   12dd8:	00058413          	mv	s0,a1
   12ddc:	00078663          	beqz	a5,12de8 <__swsetup_r+0x28>
   12de0:	0387a703          	lw	a4,56(a5)
   12de4:	08070063          	beqz	a4,12e64 <__swsetup_r+0xa4>
   12de8:	00c41783          	lh	a5,12(s0)
   12dec:	0087f713          	andi	a4,a5,8
   12df0:	08070463          	beqz	a4,12e78 <__swsetup_r+0xb8>
   12df4:	01042703          	lw	a4,16(s0)
   12df8:	0a070063          	beqz	a4,12e98 <__swsetup_r+0xd8>
   12dfc:	0017f693          	andi	a3,a5,1
   12e00:	02068863          	beqz	a3,12e30 <__swsetup_r+0x70>
   12e04:	01442683          	lw	a3,20(s0)
   12e08:	00042423          	sw	zero,8(s0)
   12e0c:	00000513          	li	a0,0
   12e10:	40d006b3          	neg	a3,a3
   12e14:	00d42c23          	sw	a3,24(s0)
   12e18:	02070a63          	beqz	a4,12e4c <__swsetup_r+0x8c>
   12e1c:	00c12083          	lw	ra,12(sp)
   12e20:	00812403          	lw	s0,8(sp)
   12e24:	00412483          	lw	s1,4(sp)
   12e28:	01010113          	addi	sp,sp,16
   12e2c:	00008067          	ret
   12e30:	0027f693          	andi	a3,a5,2
   12e34:	00000613          	li	a2,0
   12e38:	00069463          	bnez	a3,12e40 <__swsetup_r+0x80>
   12e3c:	01442603          	lw	a2,20(s0)
   12e40:	00c42423          	sw	a2,8(s0)
   12e44:	00000513          	li	a0,0
   12e48:	fc071ae3          	bnez	a4,12e1c <__swsetup_r+0x5c>
   12e4c:	0807f713          	andi	a4,a5,128
   12e50:	fc0706e3          	beqz	a4,12e1c <__swsetup_r+0x5c>
   12e54:	0407e793          	ori	a5,a5,64
   12e58:	00f41623          	sh	a5,12(s0)
   12e5c:	fff00513          	li	a0,-1
   12e60:	fbdff06f          	j	12e1c <__swsetup_r+0x5c>
   12e64:	00078513          	mv	a0,a5
   12e68:	049000ef          	jal	ra,136b0 <__sinit>
   12e6c:	00c41783          	lh	a5,12(s0)
   12e70:	0087f713          	andi	a4,a5,8
   12e74:	f80710e3          	bnez	a4,12df4 <__swsetup_r+0x34>
   12e78:	0107f713          	andi	a4,a5,16
   12e7c:	06070a63          	beqz	a4,12ef0 <__swsetup_r+0x130>
   12e80:	0047f713          	andi	a4,a5,4
   12e84:	02071c63          	bnez	a4,12ebc <__swsetup_r+0xfc>
   12e88:	01042703          	lw	a4,16(s0)
   12e8c:	0087e793          	ori	a5,a5,8
   12e90:	00f41623          	sh	a5,12(s0)
   12e94:	f60714e3          	bnez	a4,12dfc <__swsetup_r+0x3c>
   12e98:	2807f693          	andi	a3,a5,640
   12e9c:	20000613          	li	a2,512
   12ea0:	f4c68ee3          	beq	a3,a2,12dfc <__swsetup_r+0x3c>
   12ea4:	00040593          	mv	a1,s0
   12ea8:	00048513          	mv	a0,s1
   12eac:	2f5030ef          	jal	ra,169a0 <__smakebuf_r>
   12eb0:	00c41783          	lh	a5,12(s0)
   12eb4:	01042703          	lw	a4,16(s0)
   12eb8:	f45ff06f          	j	12dfc <__swsetup_r+0x3c>
   12ebc:	03042583          	lw	a1,48(s0)
   12ec0:	00058e63          	beqz	a1,12edc <__swsetup_r+0x11c>
   12ec4:	04040713          	addi	a4,s0,64
   12ec8:	00e58863          	beq	a1,a4,12ed8 <__swsetup_r+0x118>
   12ecc:	00048513          	mv	a0,s1
   12ed0:	1ad000ef          	jal	ra,1387c <_free_r>
   12ed4:	00c41783          	lh	a5,12(s0)
   12ed8:	02042823          	sw	zero,48(s0)
   12edc:	01042703          	lw	a4,16(s0)
   12ee0:	fdb7f793          	andi	a5,a5,-37
   12ee4:	00042223          	sw	zero,4(s0)
   12ee8:	00e42023          	sw	a4,0(s0)
   12eec:	fa1ff06f          	j	12e8c <__swsetup_r+0xcc>
   12ef0:	00900713          	li	a4,9
   12ef4:	00e4a023          	sw	a4,0(s1)
   12ef8:	0407e793          	ori	a5,a5,64
   12efc:	f5dff06f          	j	12e58 <__swsetup_r+0x98>

00012f00 <__call_exitprocs>:
   12f00:	fd010113          	addi	sp,sp,-48
   12f04:	01412c23          	sw	s4,24(sp)
   12f08:	1b81aa03          	lw	s4,440(gp) # 26a78 <_global_impure_ptr>
   12f0c:	03212023          	sw	s2,32(sp)
   12f10:	02112623          	sw	ra,44(sp)
   12f14:	148a2903          	lw	s2,328(s4)
   12f18:	02812423          	sw	s0,40(sp)
   12f1c:	02912223          	sw	s1,36(sp)
   12f20:	01312e23          	sw	s3,28(sp)
   12f24:	01512a23          	sw	s5,20(sp)
   12f28:	01612823          	sw	s6,16(sp)
   12f2c:	01712623          	sw	s7,12(sp)
   12f30:	01812423          	sw	s8,8(sp)
   12f34:	04090063          	beqz	s2,12f74 <__call_exitprocs+0x74>
   12f38:	00050b13          	mv	s6,a0
   12f3c:	00058b93          	mv	s7,a1
   12f40:	00100a93          	li	s5,1
   12f44:	fff00993          	li	s3,-1
   12f48:	00492483          	lw	s1,4(s2)
   12f4c:	fff48413          	addi	s0,s1,-1
   12f50:	02044263          	bltz	s0,12f74 <__call_exitprocs+0x74>
   12f54:	00249493          	slli	s1,s1,0x2
   12f58:	009904b3          	add	s1,s2,s1
   12f5c:	040b8463          	beqz	s7,12fa4 <__call_exitprocs+0xa4>
   12f60:	1044a783          	lw	a5,260(s1)
   12f64:	05778063          	beq	a5,s7,12fa4 <__call_exitprocs+0xa4>
   12f68:	fff40413          	addi	s0,s0,-1
   12f6c:	ffc48493          	addi	s1,s1,-4
   12f70:	ff3416e3          	bne	s0,s3,12f5c <__call_exitprocs+0x5c>
   12f74:	02c12083          	lw	ra,44(sp)
   12f78:	02812403          	lw	s0,40(sp)
   12f7c:	02412483          	lw	s1,36(sp)
   12f80:	02012903          	lw	s2,32(sp)
   12f84:	01c12983          	lw	s3,28(sp)
   12f88:	01812a03          	lw	s4,24(sp)
   12f8c:	01412a83          	lw	s5,20(sp)
   12f90:	01012b03          	lw	s6,16(sp)
   12f94:	00c12b83          	lw	s7,12(sp)
   12f98:	00812c03          	lw	s8,8(sp)
   12f9c:	03010113          	addi	sp,sp,48
   12fa0:	00008067          	ret
   12fa4:	00492783          	lw	a5,4(s2)
   12fa8:	0044a683          	lw	a3,4(s1)
   12fac:	fff78793          	addi	a5,a5,-1
   12fb0:	04878e63          	beq	a5,s0,1300c <__call_exitprocs+0x10c>
   12fb4:	0004a223          	sw	zero,4(s1)
   12fb8:	fa0688e3          	beqz	a3,12f68 <__call_exitprocs+0x68>
   12fbc:	18892783          	lw	a5,392(s2)
   12fc0:	008a9733          	sll	a4,s5,s0
   12fc4:	00492c03          	lw	s8,4(s2)
   12fc8:	00f777b3          	and	a5,a4,a5
   12fcc:	02079263          	bnez	a5,12ff0 <__call_exitprocs+0xf0>
   12fd0:	000680e7          	jalr	a3
   12fd4:	00492703          	lw	a4,4(s2)
   12fd8:	148a2783          	lw	a5,328(s4)
   12fdc:	01871463          	bne	a4,s8,12fe4 <__call_exitprocs+0xe4>
   12fe0:	f92784e3          	beq	a5,s2,12f68 <__call_exitprocs+0x68>
   12fe4:	f80788e3          	beqz	a5,12f74 <__call_exitprocs+0x74>
   12fe8:	00078913          	mv	s2,a5
   12fec:	f5dff06f          	j	12f48 <__call_exitprocs+0x48>
   12ff0:	18c92783          	lw	a5,396(s2)
   12ff4:	0844a583          	lw	a1,132(s1)
   12ff8:	00f77733          	and	a4,a4,a5
   12ffc:	00071c63          	bnez	a4,13014 <__call_exitprocs+0x114>
   13000:	000b0513          	mv	a0,s6
   13004:	000680e7          	jalr	a3
   13008:	fcdff06f          	j	12fd4 <__call_exitprocs+0xd4>
   1300c:	00892223          	sw	s0,4(s2)
   13010:	fa9ff06f          	j	12fb8 <__call_exitprocs+0xb8>
   13014:	00058513          	mv	a0,a1
   13018:	000680e7          	jalr	a3
   1301c:	fb9ff06f          	j	12fd4 <__call_exitprocs+0xd4>

00013020 <atexit>:
   13020:	00050593          	mv	a1,a0
   13024:	00000693          	li	a3,0
   13028:	00000613          	li	a2,0
   1302c:	00000513          	li	a0,0
   13030:	2090906f          	j	1ca38 <__register_exitproc>

00013034 <__sflush_r>:
   13034:	00c59783          	lh	a5,12(a1)
   13038:	fe010113          	addi	sp,sp,-32
   1303c:	00812c23          	sw	s0,24(sp)
   13040:	01312623          	sw	s3,12(sp)
   13044:	00112e23          	sw	ra,28(sp)
   13048:	00912a23          	sw	s1,20(sp)
   1304c:	01212823          	sw	s2,16(sp)
   13050:	0087f713          	andi	a4,a5,8
   13054:	00058413          	mv	s0,a1
   13058:	00050993          	mv	s3,a0
   1305c:	12071263          	bnez	a4,13180 <__sflush_r+0x14c>
   13060:	00001737          	lui	a4,0x1
   13064:	80070713          	addi	a4,a4,-2048 # 800 <exit-0xf894>
   13068:	0045a683          	lw	a3,4(a1)
   1306c:	00e7e733          	or	a4,a5,a4
   13070:	00e59623          	sh	a4,12(a1)
   13074:	18d05863          	blez	a3,13204 <__sflush_r+0x1d0>
   13078:	02842803          	lw	a6,40(s0)
   1307c:	0e080263          	beqz	a6,13160 <__sflush_r+0x12c>
   13080:	00c7d793          	srli	a5,a5,0xc
   13084:	0009a483          	lw	s1,0(s3)
   13088:	0017f793          	andi	a5,a5,1
   1308c:	0009a023          	sw	zero,0(s3)
   13090:	01c42583          	lw	a1,28(s0)
   13094:	18079063          	bnez	a5,13214 <__sflush_r+0x1e0>
   13098:	00000613          	li	a2,0
   1309c:	00100693          	li	a3,1
   130a0:	00098513          	mv	a0,s3
   130a4:	000800e7          	jalr	a6 # 3ffe0000 <__BSS_END__+0x3ffb9518>
   130a8:	fff00793          	li	a5,-1
   130ac:	00050613          	mv	a2,a0
   130b0:	1af50063          	beq	a0,a5,13250 <__sflush_r+0x21c>
   130b4:	00c41703          	lh	a4,12(s0)
   130b8:	02842803          	lw	a6,40(s0)
   130bc:	01c42583          	lw	a1,28(s0)
   130c0:	00477713          	andi	a4,a4,4
   130c4:	00070e63          	beqz	a4,130e0 <__sflush_r+0xac>
   130c8:	00442703          	lw	a4,4(s0)
   130cc:	03042783          	lw	a5,48(s0)
   130d0:	40e60633          	sub	a2,a2,a4
   130d4:	00078663          	beqz	a5,130e0 <__sflush_r+0xac>
   130d8:	03c42783          	lw	a5,60(s0)
   130dc:	40f60633          	sub	a2,a2,a5
   130e0:	00000693          	li	a3,0
   130e4:	00098513          	mv	a0,s3
   130e8:	000800e7          	jalr	a6
   130ec:	fff00793          	li	a5,-1
   130f0:	12f51663          	bne	a0,a5,1321c <__sflush_r+0x1e8>
   130f4:	0009a683          	lw	a3,0(s3)
   130f8:	01d00793          	li	a5,29
   130fc:	0cd7ee63          	bltu	a5,a3,131d8 <__sflush_r+0x1a4>
   13100:	dfc00737          	lui	a4,0xdfc00
   13104:	ffe70713          	addi	a4,a4,-2 # dfbffffe <__BSS_END__+0xdfbd9516>
   13108:	40d75733          	sra	a4,a4,a3
   1310c:	00177713          	andi	a4,a4,1
   13110:	00c41783          	lh	a5,12(s0)
   13114:	0c071463          	bnez	a4,131dc <__sflush_r+0x1a8>
   13118:	01042603          	lw	a2,16(s0)
   1311c:	fffff737          	lui	a4,0xfffff
   13120:	7ff70713          	addi	a4,a4,2047 # fffff7ff <__BSS_END__+0xfffd8d17>
   13124:	00e7f733          	and	a4,a5,a4
   13128:	00c7d793          	srli	a5,a5,0xc
   1312c:	00e41623          	sh	a4,12(s0)
   13130:	00042223          	sw	zero,4(s0)
   13134:	00c42023          	sw	a2,0(s0)
   13138:	0017f793          	andi	a5,a5,1
   1313c:	12079c63          	bnez	a5,13274 <__sflush_r+0x240>
   13140:	03042583          	lw	a1,48(s0)
   13144:	0099a023          	sw	s1,0(s3)
   13148:	00058c63          	beqz	a1,13160 <__sflush_r+0x12c>
   1314c:	04040793          	addi	a5,s0,64
   13150:	00f58663          	beq	a1,a5,1315c <__sflush_r+0x128>
   13154:	00098513          	mv	a0,s3
   13158:	724000ef          	jal	ra,1387c <_free_r>
   1315c:	02042823          	sw	zero,48(s0)
   13160:	00000513          	li	a0,0
   13164:	01c12083          	lw	ra,28(sp)
   13168:	01812403          	lw	s0,24(sp)
   1316c:	01412483          	lw	s1,20(sp)
   13170:	01012903          	lw	s2,16(sp)
   13174:	00c12983          	lw	s3,12(sp)
   13178:	02010113          	addi	sp,sp,32
   1317c:	00008067          	ret
   13180:	0105a903          	lw	s2,16(a1)
   13184:	fc090ee3          	beqz	s2,13160 <__sflush_r+0x12c>
   13188:	0005a483          	lw	s1,0(a1)
   1318c:	0037f793          	andi	a5,a5,3
   13190:	0125a023          	sw	s2,0(a1)
   13194:	412484b3          	sub	s1,s1,s2
   13198:	00000713          	li	a4,0
   1319c:	00079463          	bnez	a5,131a4 <__sflush_r+0x170>
   131a0:	0145a703          	lw	a4,20(a1)
   131a4:	00e42423          	sw	a4,8(s0)
   131a8:	00904863          	bgtz	s1,131b8 <__sflush_r+0x184>
   131ac:	fb5ff06f          	j	13160 <__sflush_r+0x12c>
   131b0:	00a90933          	add	s2,s2,a0
   131b4:	fa9056e3          	blez	s1,13160 <__sflush_r+0x12c>
   131b8:	02442783          	lw	a5,36(s0)
   131bc:	01c42583          	lw	a1,28(s0)
   131c0:	00048693          	mv	a3,s1
   131c4:	00090613          	mv	a2,s2
   131c8:	00098513          	mv	a0,s3
   131cc:	000780e7          	jalr	a5
   131d0:	40a484b3          	sub	s1,s1,a0
   131d4:	fca04ee3          	bgtz	a0,131b0 <__sflush_r+0x17c>
   131d8:	00c41783          	lh	a5,12(s0)
   131dc:	0407e793          	ori	a5,a5,64
   131e0:	01c12083          	lw	ra,28(sp)
   131e4:	00f41623          	sh	a5,12(s0)
   131e8:	01812403          	lw	s0,24(sp)
   131ec:	01412483          	lw	s1,20(sp)
   131f0:	01012903          	lw	s2,16(sp)
   131f4:	00c12983          	lw	s3,12(sp)
   131f8:	fff00513          	li	a0,-1
   131fc:	02010113          	addi	sp,sp,32
   13200:	00008067          	ret
   13204:	03c5a683          	lw	a3,60(a1)
   13208:	e6d048e3          	bgtz	a3,13078 <__sflush_r+0x44>
   1320c:	00000513          	li	a0,0
   13210:	f55ff06f          	j	13164 <__sflush_r+0x130>
   13214:	05042603          	lw	a2,80(s0)
   13218:	ea9ff06f          	j	130c0 <__sflush_r+0x8c>
   1321c:	00c41783          	lh	a5,12(s0)
   13220:	01042683          	lw	a3,16(s0)
   13224:	fffff737          	lui	a4,0xfffff
   13228:	7ff70713          	addi	a4,a4,2047 # fffff7ff <__BSS_END__+0xfffd8d17>
   1322c:	00e7f733          	and	a4,a5,a4
   13230:	00c7d793          	srli	a5,a5,0xc
   13234:	00e41623          	sh	a4,12(s0)
   13238:	00042223          	sw	zero,4(s0)
   1323c:	00d42023          	sw	a3,0(s0)
   13240:	0017f793          	andi	a5,a5,1
   13244:	ee078ee3          	beqz	a5,13140 <__sflush_r+0x10c>
   13248:	04a42823          	sw	a0,80(s0)
   1324c:	ef5ff06f          	j	13140 <__sflush_r+0x10c>
   13250:	0009a783          	lw	a5,0(s3)
   13254:	e60780e3          	beqz	a5,130b4 <__sflush_r+0x80>
   13258:	01d00713          	li	a4,29
   1325c:	00e78663          	beq	a5,a4,13268 <__sflush_r+0x234>
   13260:	01600713          	li	a4,22
   13264:	f6e79ae3          	bne	a5,a4,131d8 <__sflush_r+0x1a4>
   13268:	0099a023          	sw	s1,0(s3)
   1326c:	00000513          	li	a0,0
   13270:	ef5ff06f          	j	13164 <__sflush_r+0x130>
   13274:	ec0696e3          	bnez	a3,13140 <__sflush_r+0x10c>
   13278:	04a42823          	sw	a0,80(s0)
   1327c:	ec5ff06f          	j	13140 <__sflush_r+0x10c>

00013280 <_fflush_r>:
   13280:	fe010113          	addi	sp,sp,-32
   13284:	00812c23          	sw	s0,24(sp)
   13288:	00112e23          	sw	ra,28(sp)
   1328c:	00050413          	mv	s0,a0
   13290:	00050663          	beqz	a0,1329c <_fflush_r+0x1c>
   13294:	03852783          	lw	a5,56(a0)
   13298:	02078063          	beqz	a5,132b8 <_fflush_r+0x38>
   1329c:	00c59783          	lh	a5,12(a1)
   132a0:	02079663          	bnez	a5,132cc <_fflush_r+0x4c>
   132a4:	01c12083          	lw	ra,28(sp)
   132a8:	01812403          	lw	s0,24(sp)
   132ac:	00000513          	li	a0,0
   132b0:	02010113          	addi	sp,sp,32
   132b4:	00008067          	ret
   132b8:	00b12623          	sw	a1,12(sp)
   132bc:	3f4000ef          	jal	ra,136b0 <__sinit>
   132c0:	00c12583          	lw	a1,12(sp)
   132c4:	00c59783          	lh	a5,12(a1)
   132c8:	fc078ee3          	beqz	a5,132a4 <_fflush_r+0x24>
   132cc:	00040513          	mv	a0,s0
   132d0:	01812403          	lw	s0,24(sp)
   132d4:	01c12083          	lw	ra,28(sp)
   132d8:	02010113          	addi	sp,sp,32
   132dc:	d59ff06f          	j	13034 <__sflush_r>

000132e0 <fflush>:
   132e0:	06050663          	beqz	a0,1334c <fflush+0x6c>
   132e4:	fe010113          	addi	sp,sp,-32
   132e8:	00812c23          	sw	s0,24(sp)
   132ec:	00050413          	mv	s0,a0
   132f0:	1c01a503          	lw	a0,448(gp) # 26a80 <_impure_ptr>
   132f4:	00112e23          	sw	ra,28(sp)
   132f8:	00050663          	beqz	a0,13304 <fflush+0x24>
   132fc:	03852783          	lw	a5,56(a0)
   13300:	02078a63          	beqz	a5,13334 <fflush+0x54>
   13304:	00c41783          	lh	a5,12(s0)
   13308:	00079c63          	bnez	a5,13320 <fflush+0x40>
   1330c:	01c12083          	lw	ra,28(sp)
   13310:	01812403          	lw	s0,24(sp)
   13314:	00000513          	li	a0,0
   13318:	02010113          	addi	sp,sp,32
   1331c:	00008067          	ret
   13320:	00040593          	mv	a1,s0
   13324:	01812403          	lw	s0,24(sp)
   13328:	01c12083          	lw	ra,28(sp)
   1332c:	02010113          	addi	sp,sp,32
   13330:	d05ff06f          	j	13034 <__sflush_r>
   13334:	00a12623          	sw	a0,12(sp)
   13338:	378000ef          	jal	ra,136b0 <__sinit>
   1333c:	00c41783          	lh	a5,12(s0)
   13340:	00c12503          	lw	a0,12(sp)
   13344:	fc0784e3          	beqz	a5,1330c <fflush+0x2c>
   13348:	fd9ff06f          	j	13320 <fflush+0x40>
   1334c:	1b81a503          	lw	a0,440(gp) # 26a78 <_global_impure_ptr>
   13350:	000135b7          	lui	a1,0x13
   13354:	28058593          	addi	a1,a1,640 # 13280 <_fflush_r>
   13358:	0c10006f          	j	13c18 <_fwalk_reent>

0001335c <__fp_lock>:
   1335c:	00000513          	li	a0,0
   13360:	00008067          	ret

00013364 <_cleanup_r>:
   13364:	0001d5b7          	lui	a1,0x1d
   13368:	d5858593          	addi	a1,a1,-680 # 1cd58 <_fclose_r>
   1336c:	0ad0006f          	j	13c18 <_fwalk_reent>

00013370 <__fp_unlock>:
   13370:	00000513          	li	a0,0
   13374:	00008067          	ret

00013378 <__sinit.part.0>:
   13378:	fe010113          	addi	sp,sp,-32
   1337c:	000137b7          	lui	a5,0x13
   13380:	00112e23          	sw	ra,28(sp)
   13384:	00812c23          	sw	s0,24(sp)
   13388:	00912a23          	sw	s1,20(sp)
   1338c:	01212823          	sw	s2,16(sp)
   13390:	01312623          	sw	s3,12(sp)
   13394:	01412423          	sw	s4,8(sp)
   13398:	01512223          	sw	s5,4(sp)
   1339c:	01612023          	sw	s6,0(sp)
   133a0:	00452403          	lw	s0,4(a0)
   133a4:	36478793          	addi	a5,a5,868 # 13364 <_cleanup_r>
   133a8:	02f52e23          	sw	a5,60(a0)
   133ac:	2ec50713          	addi	a4,a0,748
   133b0:	00300793          	li	a5,3
   133b4:	2ee52423          	sw	a4,744(a0)
   133b8:	2ef52223          	sw	a5,740(a0)
   133bc:	2e052023          	sw	zero,736(a0)
   133c0:	00400793          	li	a5,4
   133c4:	00050913          	mv	s2,a0
   133c8:	00f42623          	sw	a5,12(s0)
   133cc:	00800613          	li	a2,8
   133d0:	00000593          	li	a1,0
   133d4:	00042023          	sw	zero,0(s0)
   133d8:	00042223          	sw	zero,4(s0)
   133dc:	00042423          	sw	zero,8(s0)
   133e0:	06042223          	sw	zero,100(s0)
   133e4:	00042823          	sw	zero,16(s0)
   133e8:	00042a23          	sw	zero,20(s0)
   133ec:	00042c23          	sw	zero,24(s0)
   133f0:	05c40513          	addi	a0,s0,92
   133f4:	e9dfc0ef          	jal	ra,10290 <memset>
   133f8:	00019b37          	lui	s6,0x19
   133fc:	00892483          	lw	s1,8(s2)
   13400:	00019ab7          	lui	s5,0x19
   13404:	00019a37          	lui	s4,0x19
   13408:	000199b7          	lui	s3,0x19
   1340c:	8d4b0b13          	addi	s6,s6,-1836 # 188d4 <__sread>
   13410:	938a8a93          	addi	s5,s5,-1736 # 18938 <__swrite>
   13414:	9c0a0a13          	addi	s4,s4,-1600 # 189c0 <__sseek>
   13418:	a3898993          	addi	s3,s3,-1480 # 18a38 <__sclose>
   1341c:	000107b7          	lui	a5,0x10
   13420:	03642023          	sw	s6,32(s0)
   13424:	03542223          	sw	s5,36(s0)
   13428:	03442423          	sw	s4,40(s0)
   1342c:	03342623          	sw	s3,44(s0)
   13430:	00842e23          	sw	s0,28(s0)
   13434:	00978793          	addi	a5,a5,9 # 10009 <exit-0x8b>
   13438:	00f4a623          	sw	a5,12(s1)
   1343c:	00800613          	li	a2,8
   13440:	00000593          	li	a1,0
   13444:	0004a023          	sw	zero,0(s1)
   13448:	0004a223          	sw	zero,4(s1)
   1344c:	0004a423          	sw	zero,8(s1)
   13450:	0604a223          	sw	zero,100(s1)
   13454:	0004a823          	sw	zero,16(s1)
   13458:	0004aa23          	sw	zero,20(s1)
   1345c:	0004ac23          	sw	zero,24(s1)
   13460:	05c48513          	addi	a0,s1,92
   13464:	e2dfc0ef          	jal	ra,10290 <memset>
   13468:	00c92403          	lw	s0,12(s2)
   1346c:	000207b7          	lui	a5,0x20
   13470:	0364a023          	sw	s6,32(s1)
   13474:	0354a223          	sw	s5,36(s1)
   13478:	0344a423          	sw	s4,40(s1)
   1347c:	0334a623          	sw	s3,44(s1)
   13480:	0094ae23          	sw	s1,28(s1)
   13484:	01278793          	addi	a5,a5,18 # 20012 <_lseek+0x42>
   13488:	00f42623          	sw	a5,12(s0)
   1348c:	00042023          	sw	zero,0(s0)
   13490:	00042223          	sw	zero,4(s0)
   13494:	00042423          	sw	zero,8(s0)
   13498:	06042223          	sw	zero,100(s0)
   1349c:	00042823          	sw	zero,16(s0)
   134a0:	00042a23          	sw	zero,20(s0)
   134a4:	00042c23          	sw	zero,24(s0)
   134a8:	05c40513          	addi	a0,s0,92
   134ac:	00800613          	li	a2,8
   134b0:	00000593          	li	a1,0
   134b4:	dddfc0ef          	jal	ra,10290 <memset>
   134b8:	01c12083          	lw	ra,28(sp)
   134bc:	03642023          	sw	s6,32(s0)
   134c0:	03542223          	sw	s5,36(s0)
   134c4:	03442423          	sw	s4,40(s0)
   134c8:	03342623          	sw	s3,44(s0)
   134cc:	00842e23          	sw	s0,28(s0)
   134d0:	01812403          	lw	s0,24(sp)
   134d4:	00100793          	li	a5,1
   134d8:	02f92c23          	sw	a5,56(s2)
   134dc:	01412483          	lw	s1,20(sp)
   134e0:	01012903          	lw	s2,16(sp)
   134e4:	00c12983          	lw	s3,12(sp)
   134e8:	00812a03          	lw	s4,8(sp)
   134ec:	00412a83          	lw	s5,4(sp)
   134f0:	00012b03          	lw	s6,0(sp)
   134f4:	02010113          	addi	sp,sp,32
   134f8:	00008067          	ret

000134fc <__sfmoreglue>:
   134fc:	ff010113          	addi	sp,sp,-16
   13500:	fff58793          	addi	a5,a1,-1
   13504:	00812423          	sw	s0,8(sp)
   13508:	00179413          	slli	s0,a5,0x1
   1350c:	00f40433          	add	s0,s0,a5
   13510:	00241413          	slli	s0,s0,0x2
   13514:	00f40433          	add	s0,s0,a5
   13518:	00341413          	slli	s0,s0,0x3
   1351c:	01212023          	sw	s2,0(sp)
   13520:	00058913          	mv	s2,a1
   13524:	07440593          	addi	a1,s0,116
   13528:	00912223          	sw	s1,4(sp)
   1352c:	00112623          	sw	ra,12(sp)
   13530:	6d8030ef          	jal	ra,16c08 <_malloc_r>
   13534:	00050493          	mv	s1,a0
   13538:	02050063          	beqz	a0,13558 <__sfmoreglue+0x5c>
   1353c:	00c50513          	addi	a0,a0,12
   13540:	0004a023          	sw	zero,0(s1)
   13544:	0124a223          	sw	s2,4(s1)
   13548:	00a4a423          	sw	a0,8(s1)
   1354c:	06840613          	addi	a2,s0,104
   13550:	00000593          	li	a1,0
   13554:	d3dfc0ef          	jal	ra,10290 <memset>
   13558:	00c12083          	lw	ra,12(sp)
   1355c:	00812403          	lw	s0,8(sp)
   13560:	00012903          	lw	s2,0(sp)
   13564:	00048513          	mv	a0,s1
   13568:	00412483          	lw	s1,4(sp)
   1356c:	01010113          	addi	sp,sp,16
   13570:	00008067          	ret

00013574 <__sfp>:
   13574:	fe010113          	addi	sp,sp,-32
   13578:	01212823          	sw	s2,16(sp)
   1357c:	1b81a903          	lw	s2,440(gp) # 26a78 <_global_impure_ptr>
   13580:	01312623          	sw	s3,12(sp)
   13584:	00112e23          	sw	ra,28(sp)
   13588:	03892783          	lw	a5,56(s2)
   1358c:	00812c23          	sw	s0,24(sp)
   13590:	00912a23          	sw	s1,20(sp)
   13594:	00050993          	mv	s3,a0
   13598:	0a078663          	beqz	a5,13644 <__sfp+0xd0>
   1359c:	2e090913          	addi	s2,s2,736
   135a0:	fff00493          	li	s1,-1
   135a4:	00492783          	lw	a5,4(s2)
   135a8:	00892403          	lw	s0,8(s2)
   135ac:	fff78793          	addi	a5,a5,-1
   135b0:	0007d863          	bgez	a5,135c0 <__sfp+0x4c>
   135b4:	0800006f          	j	13634 <__sfp+0xc0>
   135b8:	06840413          	addi	s0,s0,104
   135bc:	06978c63          	beq	a5,s1,13634 <__sfp+0xc0>
   135c0:	00c41703          	lh	a4,12(s0)
   135c4:	fff78793          	addi	a5,a5,-1
   135c8:	fe0718e3          	bnez	a4,135b8 <__sfp+0x44>
   135cc:	ffff07b7          	lui	a5,0xffff0
   135d0:	00178793          	addi	a5,a5,1 # ffff0001 <__BSS_END__+0xfffc9519>
   135d4:	00f42623          	sw	a5,12(s0)
   135d8:	06042223          	sw	zero,100(s0)
   135dc:	00042023          	sw	zero,0(s0)
   135e0:	00042423          	sw	zero,8(s0)
   135e4:	00042223          	sw	zero,4(s0)
   135e8:	00042823          	sw	zero,16(s0)
   135ec:	00042a23          	sw	zero,20(s0)
   135f0:	00042c23          	sw	zero,24(s0)
   135f4:	00800613          	li	a2,8
   135f8:	00000593          	li	a1,0
   135fc:	05c40513          	addi	a0,s0,92
   13600:	c91fc0ef          	jal	ra,10290 <memset>
   13604:	02042823          	sw	zero,48(s0)
   13608:	02042a23          	sw	zero,52(s0)
   1360c:	04042223          	sw	zero,68(s0)
   13610:	04042423          	sw	zero,72(s0)
   13614:	01c12083          	lw	ra,28(sp)
   13618:	00040513          	mv	a0,s0
   1361c:	01812403          	lw	s0,24(sp)
   13620:	01412483          	lw	s1,20(sp)
   13624:	01012903          	lw	s2,16(sp)
   13628:	00c12983          	lw	s3,12(sp)
   1362c:	02010113          	addi	sp,sp,32
   13630:	00008067          	ret
   13634:	00092403          	lw	s0,0(s2)
   13638:	00040c63          	beqz	s0,13650 <__sfp+0xdc>
   1363c:	00040913          	mv	s2,s0
   13640:	f65ff06f          	j	135a4 <__sfp+0x30>
   13644:	00090513          	mv	a0,s2
   13648:	d31ff0ef          	jal	ra,13378 <__sinit.part.0>
   1364c:	f51ff06f          	j	1359c <__sfp+0x28>
   13650:	1ac00593          	li	a1,428
   13654:	00098513          	mv	a0,s3
   13658:	5b0030ef          	jal	ra,16c08 <_malloc_r>
   1365c:	00050413          	mv	s0,a0
   13660:	02050863          	beqz	a0,13690 <__sfp+0x11c>
   13664:	00c50513          	addi	a0,a0,12
   13668:	00400793          	li	a5,4
   1366c:	00042023          	sw	zero,0(s0)
   13670:	00f42223          	sw	a5,4(s0)
   13674:	00a42423          	sw	a0,8(s0)
   13678:	1a000613          	li	a2,416
   1367c:	00000593          	li	a1,0
   13680:	c11fc0ef          	jal	ra,10290 <memset>
   13684:	00892023          	sw	s0,0(s2)
   13688:	00040913          	mv	s2,s0
   1368c:	f19ff06f          	j	135a4 <__sfp+0x30>
   13690:	00092023          	sw	zero,0(s2)
   13694:	00c00793          	li	a5,12
   13698:	00f9a023          	sw	a5,0(s3)
   1369c:	f79ff06f          	j	13614 <__sfp+0xa0>

000136a0 <_cleanup>:
   136a0:	1b81a503          	lw	a0,440(gp) # 26a78 <_global_impure_ptr>
   136a4:	0001d5b7          	lui	a1,0x1d
   136a8:	d5858593          	addi	a1,a1,-680 # 1cd58 <_fclose_r>
   136ac:	56c0006f          	j	13c18 <_fwalk_reent>

000136b0 <__sinit>:
   136b0:	03852783          	lw	a5,56(a0)
   136b4:	00078463          	beqz	a5,136bc <__sinit+0xc>
   136b8:	00008067          	ret
   136bc:	cbdff06f          	j	13378 <__sinit.part.0>

000136c0 <__sfp_lock_acquire>:
   136c0:	00008067          	ret

000136c4 <__sfp_lock_release>:
   136c4:	00008067          	ret

000136c8 <__sinit_lock_acquire>:
   136c8:	00008067          	ret

000136cc <__sinit_lock_release>:
   136cc:	00008067          	ret

000136d0 <__fp_lock_all>:
   136d0:	1c01a503          	lw	a0,448(gp) # 26a80 <_impure_ptr>
   136d4:	000135b7          	lui	a1,0x13
   136d8:	35c58593          	addi	a1,a1,860 # 1335c <__fp_lock>
   136dc:	4980006f          	j	13b74 <_fwalk>

000136e0 <__fp_unlock_all>:
   136e0:	1c01a503          	lw	a0,448(gp) # 26a80 <_impure_ptr>
   136e4:	000135b7          	lui	a1,0x13
   136e8:	37058593          	addi	a1,a1,880 # 13370 <__fp_unlock>
   136ec:	4880006f          	j	13b74 <_fwalk>

000136f0 <__libc_fini_array>:
   136f0:	ff010113          	addi	sp,sp,-16
   136f4:	00812423          	sw	s0,8(sp)
   136f8:	000267b7          	lui	a5,0x26
   136fc:	00026437          	lui	s0,0x26
   13700:	0bc78793          	addi	a5,a5,188 # 260bc <__do_global_dtors_aux_fini_array_entry>
   13704:	0c040413          	addi	s0,s0,192 # 260c0 <impure_data>
   13708:	40f40433          	sub	s0,s0,a5
   1370c:	00912223          	sw	s1,4(sp)
   13710:	00112623          	sw	ra,12(sp)
   13714:	40245493          	srai	s1,s0,0x2
   13718:	02048063          	beqz	s1,13738 <__libc_fini_array+0x48>
   1371c:	ffc40413          	addi	s0,s0,-4
   13720:	00f40433          	add	s0,s0,a5
   13724:	00042783          	lw	a5,0(s0)
   13728:	fff48493          	addi	s1,s1,-1
   1372c:	ffc40413          	addi	s0,s0,-4
   13730:	000780e7          	jalr	a5
   13734:	fe0498e3          	bnez	s1,13724 <__libc_fini_array+0x34>
   13738:	00c12083          	lw	ra,12(sp)
   1373c:	00812403          	lw	s0,8(sp)
   13740:	00412483          	lw	s1,4(sp)
   13744:	01010113          	addi	sp,sp,16
   13748:	00008067          	ret

0001374c <_malloc_trim_r>:
   1374c:	fe010113          	addi	sp,sp,-32
   13750:	01312623          	sw	s3,12(sp)
   13754:	00812c23          	sw	s0,24(sp)
   13758:	00912a23          	sw	s1,20(sp)
   1375c:	01212823          	sw	s2,16(sp)
   13760:	01412423          	sw	s4,8(sp)
   13764:	00112e23          	sw	ra,28(sp)
   13768:	00058a13          	mv	s4,a1
   1376c:	00050913          	mv	s2,a0
   13770:	c2818993          	addi	s3,gp,-984 # 264e8 <__malloc_av_>
   13774:	4cd030ef          	jal	ra,17440 <__malloc_lock>
   13778:	0089a703          	lw	a4,8(s3)
   1377c:	000017b7          	lui	a5,0x1
   13780:	fef78413          	addi	s0,a5,-17 # fef <exit-0xf0a5>
   13784:	00472483          	lw	s1,4(a4)
   13788:	ffc4f493          	andi	s1,s1,-4
   1378c:	00848433          	add	s0,s1,s0
   13790:	41440433          	sub	s0,s0,s4
   13794:	00c45413          	srli	s0,s0,0xc
   13798:	fff40413          	addi	s0,s0,-1
   1379c:	00c41413          	slli	s0,s0,0xc
   137a0:	00f44e63          	blt	s0,a5,137bc <_malloc_trim_r+0x70>
   137a4:	00000593          	li	a1,0
   137a8:	00090513          	mv	a0,s2
   137ac:	7e9040ef          	jal	ra,18794 <_sbrk_r>
   137b0:	0089a783          	lw	a5,8(s3)
   137b4:	009787b3          	add	a5,a5,s1
   137b8:	02f50863          	beq	a0,a5,137e8 <_malloc_trim_r+0x9c>
   137bc:	00090513          	mv	a0,s2
   137c0:	485030ef          	jal	ra,17444 <__malloc_unlock>
   137c4:	01c12083          	lw	ra,28(sp)
   137c8:	01812403          	lw	s0,24(sp)
   137cc:	01412483          	lw	s1,20(sp)
   137d0:	01012903          	lw	s2,16(sp)
   137d4:	00c12983          	lw	s3,12(sp)
   137d8:	00812a03          	lw	s4,8(sp)
   137dc:	00000513          	li	a0,0
   137e0:	02010113          	addi	sp,sp,32
   137e4:	00008067          	ret
   137e8:	408005b3          	neg	a1,s0
   137ec:	00090513          	mv	a0,s2
   137f0:	7a5040ef          	jal	ra,18794 <_sbrk_r>
   137f4:	fff00793          	li	a5,-1
   137f8:	04f50863          	beq	a0,a5,13848 <_malloc_trim_r+0xfc>
   137fc:	20018793          	addi	a5,gp,512 # 26ac0 <__malloc_current_mallinfo>
   13800:	0007a703          	lw	a4,0(a5)
   13804:	0089a683          	lw	a3,8(s3)
   13808:	408484b3          	sub	s1,s1,s0
   1380c:	0014e493          	ori	s1,s1,1
   13810:	40870733          	sub	a4,a4,s0
   13814:	00090513          	mv	a0,s2
   13818:	0096a223          	sw	s1,4(a3)
   1381c:	00e7a023          	sw	a4,0(a5)
   13820:	425030ef          	jal	ra,17444 <__malloc_unlock>
   13824:	01c12083          	lw	ra,28(sp)
   13828:	01812403          	lw	s0,24(sp)
   1382c:	01412483          	lw	s1,20(sp)
   13830:	01012903          	lw	s2,16(sp)
   13834:	00c12983          	lw	s3,12(sp)
   13838:	00812a03          	lw	s4,8(sp)
   1383c:	00100513          	li	a0,1
   13840:	02010113          	addi	sp,sp,32
   13844:	00008067          	ret
   13848:	00000593          	li	a1,0
   1384c:	00090513          	mv	a0,s2
   13850:	745040ef          	jal	ra,18794 <_sbrk_r>
   13854:	0089a703          	lw	a4,8(s3)
   13858:	00f00693          	li	a3,15
   1385c:	40e507b3          	sub	a5,a0,a4
   13860:	f4f6dee3          	bge	a3,a5,137bc <_malloc_trim_r+0x70>
   13864:	1c41a683          	lw	a3,452(gp) # 26a84 <__malloc_sbrk_base>
   13868:	0017e793          	ori	a5,a5,1
   1386c:	00f72223          	sw	a5,4(a4)
   13870:	40d50533          	sub	a0,a0,a3
   13874:	20a1a023          	sw	a0,512(gp) # 26ac0 <__malloc_current_mallinfo>
   13878:	f45ff06f          	j	137bc <_malloc_trim_r+0x70>

0001387c <_free_r>:
   1387c:	16058e63          	beqz	a1,139f8 <_free_r+0x17c>
   13880:	ff010113          	addi	sp,sp,-16
   13884:	00812423          	sw	s0,8(sp)
   13888:	00912223          	sw	s1,4(sp)
   1388c:	00058413          	mv	s0,a1
   13890:	00050493          	mv	s1,a0
   13894:	00112623          	sw	ra,12(sp)
   13898:	3a9030ef          	jal	ra,17440 <__malloc_lock>
   1389c:	ffc42503          	lw	a0,-4(s0)
   138a0:	ff840713          	addi	a4,s0,-8
   138a4:	ffe57793          	andi	a5,a0,-2
   138a8:	00f70633          	add	a2,a4,a5
   138ac:	c2818593          	addi	a1,gp,-984 # 264e8 <__malloc_av_>
   138b0:	00462683          	lw	a3,4(a2)
   138b4:	0085a803          	lw	a6,8(a1)
   138b8:	ffc6f693          	andi	a3,a3,-4
   138bc:	18c80e63          	beq	a6,a2,13a58 <_free_r+0x1dc>
   138c0:	00d62223          	sw	a3,4(a2)
   138c4:	00157513          	andi	a0,a0,1
   138c8:	00d60833          	add	a6,a2,a3
   138cc:	08051e63          	bnez	a0,13968 <_free_r+0xec>
   138d0:	ff842303          	lw	t1,-8(s0)
   138d4:	00482803          	lw	a6,4(a6)
   138d8:	40670733          	sub	a4,a4,t1
   138dc:	00872883          	lw	a7,8(a4)
   138e0:	c3018513          	addi	a0,gp,-976 # 264f0 <__malloc_av_+0x8>
   138e4:	006787b3          	add	a5,a5,t1
   138e8:	00187813          	andi	a6,a6,1
   138ec:	14a88063          	beq	a7,a0,13a2c <_free_r+0x1b0>
   138f0:	00c72303          	lw	t1,12(a4)
   138f4:	0068a623          	sw	t1,12(a7)
   138f8:	01132423          	sw	a7,8(t1)
   138fc:	1a080463          	beqz	a6,13aa4 <_free_r+0x228>
   13900:	0017e693          	ori	a3,a5,1
   13904:	00d72223          	sw	a3,4(a4)
   13908:	00f62023          	sw	a5,0(a2)
   1390c:	1ff00693          	li	a3,511
   13910:	06f6ec63          	bltu	a3,a5,13988 <_free_r+0x10c>
   13914:	ff87f693          	andi	a3,a5,-8
   13918:	00868693          	addi	a3,a3,8
   1391c:	0045a503          	lw	a0,4(a1)
   13920:	00d586b3          	add	a3,a1,a3
   13924:	0006a603          	lw	a2,0(a3)
   13928:	0057d813          	srli	a6,a5,0x5
   1392c:	00100793          	li	a5,1
   13930:	010797b3          	sll	a5,a5,a6
   13934:	00a7e7b3          	or	a5,a5,a0
   13938:	ff868513          	addi	a0,a3,-8
   1393c:	00a72623          	sw	a0,12(a4)
   13940:	00c72423          	sw	a2,8(a4)
   13944:	00f5a223          	sw	a5,4(a1)
   13948:	00e6a023          	sw	a4,0(a3)
   1394c:	00e62623          	sw	a4,12(a2)
   13950:	00812403          	lw	s0,8(sp)
   13954:	00c12083          	lw	ra,12(sp)
   13958:	00048513          	mv	a0,s1
   1395c:	00412483          	lw	s1,4(sp)
   13960:	01010113          	addi	sp,sp,16
   13964:	2e10306f          	j	17444 <__malloc_unlock>
   13968:	00482503          	lw	a0,4(a6)
   1396c:	00157513          	andi	a0,a0,1
   13970:	08050663          	beqz	a0,139fc <_free_r+0x180>
   13974:	0017e693          	ori	a3,a5,1
   13978:	fed42e23          	sw	a3,-4(s0)
   1397c:	00f62023          	sw	a5,0(a2)
   13980:	1ff00693          	li	a3,511
   13984:	f8f6f8e3          	bgeu	a3,a5,13914 <_free_r+0x98>
   13988:	0097d693          	srli	a3,a5,0x9
   1398c:	00400613          	li	a2,4
   13990:	10d66e63          	bltu	a2,a3,13aac <_free_r+0x230>
   13994:	0067d693          	srli	a3,a5,0x6
   13998:	03968513          	addi	a0,a3,57
   1399c:	03868613          	addi	a2,a3,56
   139a0:	00351513          	slli	a0,a0,0x3
   139a4:	00a58533          	add	a0,a1,a0
   139a8:	00052683          	lw	a3,0(a0)
   139ac:	ff850513          	addi	a0,a0,-8
   139b0:	00d51863          	bne	a0,a3,139c0 <_free_r+0x144>
   139b4:	1500006f          	j	13b04 <_free_r+0x288>
   139b8:	0086a683          	lw	a3,8(a3)
   139bc:	00d50863          	beq	a0,a3,139cc <_free_r+0x150>
   139c0:	0046a603          	lw	a2,4(a3)
   139c4:	ffc67613          	andi	a2,a2,-4
   139c8:	fec7e8e3          	bltu	a5,a2,139b8 <_free_r+0x13c>
   139cc:	00c6a503          	lw	a0,12(a3)
   139d0:	00a72623          	sw	a0,12(a4)
   139d4:	00d72423          	sw	a3,8(a4)
   139d8:	00812403          	lw	s0,8(sp)
   139dc:	00e52423          	sw	a4,8(a0)
   139e0:	00c12083          	lw	ra,12(sp)
   139e4:	00048513          	mv	a0,s1
   139e8:	00412483          	lw	s1,4(sp)
   139ec:	00e6a623          	sw	a4,12(a3)
   139f0:	01010113          	addi	sp,sp,16
   139f4:	2510306f          	j	17444 <__malloc_unlock>
   139f8:	00008067          	ret
   139fc:	00d787b3          	add	a5,a5,a3
   13a00:	c3018513          	addi	a0,gp,-976 # 264f0 <__malloc_av_+0x8>
   13a04:	00862683          	lw	a3,8(a2)
   13a08:	0ca68c63          	beq	a3,a0,13ae0 <_free_r+0x264>
   13a0c:	00c62803          	lw	a6,12(a2)
   13a10:	0017e513          	ori	a0,a5,1
   13a14:	00f70633          	add	a2,a4,a5
   13a18:	0106a623          	sw	a6,12(a3)
   13a1c:	00d82423          	sw	a3,8(a6)
   13a20:	00a72223          	sw	a0,4(a4)
   13a24:	00f62023          	sw	a5,0(a2)
   13a28:	ee5ff06f          	j	1390c <_free_r+0x90>
   13a2c:	12081c63          	bnez	a6,13b64 <_free_r+0x2e8>
   13a30:	00862583          	lw	a1,8(a2)
   13a34:	00c62603          	lw	a2,12(a2)
   13a38:	00f686b3          	add	a3,a3,a5
   13a3c:	0016e793          	ori	a5,a3,1
   13a40:	00c5a623          	sw	a2,12(a1)
   13a44:	00b62423          	sw	a1,8(a2)
   13a48:	00f72223          	sw	a5,4(a4)
   13a4c:	00d70733          	add	a4,a4,a3
   13a50:	00d72023          	sw	a3,0(a4)
   13a54:	efdff06f          	j	13950 <_free_r+0xd4>
   13a58:	00157513          	andi	a0,a0,1
   13a5c:	00d786b3          	add	a3,a5,a3
   13a60:	02051063          	bnez	a0,13a80 <_free_r+0x204>
   13a64:	ff842503          	lw	a0,-8(s0)
   13a68:	40a70733          	sub	a4,a4,a0
   13a6c:	00c72783          	lw	a5,12(a4)
   13a70:	00872603          	lw	a2,8(a4)
   13a74:	00a686b3          	add	a3,a3,a0
   13a78:	00f62623          	sw	a5,12(a2)
   13a7c:	00c7a423          	sw	a2,8(a5)
   13a80:	0016e613          	ori	a2,a3,1
   13a84:	1c81a783          	lw	a5,456(gp) # 26a88 <__malloc_trim_threshold>
   13a88:	00c72223          	sw	a2,4(a4)
   13a8c:	00e5a423          	sw	a4,8(a1)
   13a90:	ecf6e0e3          	bltu	a3,a5,13950 <_free_r+0xd4>
   13a94:	1d41a583          	lw	a1,468(gp) # 26a94 <__malloc_top_pad>
   13a98:	00048513          	mv	a0,s1
   13a9c:	cb1ff0ef          	jal	ra,1374c <_malloc_trim_r>
   13aa0:	eb1ff06f          	j	13950 <_free_r+0xd4>
   13aa4:	00d787b3          	add	a5,a5,a3
   13aa8:	f5dff06f          	j	13a04 <_free_r+0x188>
   13aac:	01400613          	li	a2,20
   13ab0:	02d67063          	bgeu	a2,a3,13ad0 <_free_r+0x254>
   13ab4:	05400613          	li	a2,84
   13ab8:	06d66463          	bltu	a2,a3,13b20 <_free_r+0x2a4>
   13abc:	00c7d693          	srli	a3,a5,0xc
   13ac0:	06f68513          	addi	a0,a3,111
   13ac4:	06e68613          	addi	a2,a3,110
   13ac8:	00351513          	slli	a0,a0,0x3
   13acc:	ed9ff06f          	j	139a4 <_free_r+0x128>
   13ad0:	05c68513          	addi	a0,a3,92
   13ad4:	05b68613          	addi	a2,a3,91
   13ad8:	00351513          	slli	a0,a0,0x3
   13adc:	ec9ff06f          	j	139a4 <_free_r+0x128>
   13ae0:	00e5aa23          	sw	a4,20(a1)
   13ae4:	00e5a823          	sw	a4,16(a1)
   13ae8:	0017e693          	ori	a3,a5,1
   13aec:	00a72623          	sw	a0,12(a4)
   13af0:	00a72423          	sw	a0,8(a4)
   13af4:	00d72223          	sw	a3,4(a4)
   13af8:	00f70733          	add	a4,a4,a5
   13afc:	00f72023          	sw	a5,0(a4)
   13b00:	e51ff06f          	j	13950 <_free_r+0xd4>
   13b04:	0045a803          	lw	a6,4(a1)
   13b08:	40265613          	srai	a2,a2,0x2
   13b0c:	00100793          	li	a5,1
   13b10:	00c797b3          	sll	a5,a5,a2
   13b14:	0107e7b3          	or	a5,a5,a6
   13b18:	00f5a223          	sw	a5,4(a1)
   13b1c:	eb5ff06f          	j	139d0 <_free_r+0x154>
   13b20:	15400613          	li	a2,340
   13b24:	00d66c63          	bltu	a2,a3,13b3c <_free_r+0x2c0>
   13b28:	00f7d693          	srli	a3,a5,0xf
   13b2c:	07868513          	addi	a0,a3,120
   13b30:	07768613          	addi	a2,a3,119
   13b34:	00351513          	slli	a0,a0,0x3
   13b38:	e6dff06f          	j	139a4 <_free_r+0x128>
   13b3c:	55400613          	li	a2,1364
   13b40:	00d66c63          	bltu	a2,a3,13b58 <_free_r+0x2dc>
   13b44:	0127d693          	srli	a3,a5,0x12
   13b48:	07d68513          	addi	a0,a3,125
   13b4c:	07c68613          	addi	a2,a3,124
   13b50:	00351513          	slli	a0,a0,0x3
   13b54:	e51ff06f          	j	139a4 <_free_r+0x128>
   13b58:	3f800513          	li	a0,1016
   13b5c:	07e00613          	li	a2,126
   13b60:	e45ff06f          	j	139a4 <_free_r+0x128>
   13b64:	0017e693          	ori	a3,a5,1
   13b68:	00d72223          	sw	a3,4(a4)
   13b6c:	00f62023          	sw	a5,0(a2)
   13b70:	de1ff06f          	j	13950 <_free_r+0xd4>

00013b74 <_fwalk>:
   13b74:	fe010113          	addi	sp,sp,-32
   13b78:	01212823          	sw	s2,16(sp)
   13b7c:	01312623          	sw	s3,12(sp)
   13b80:	01412423          	sw	s4,8(sp)
   13b84:	01512223          	sw	s5,4(sp)
   13b88:	01612023          	sw	s6,0(sp)
   13b8c:	00112e23          	sw	ra,28(sp)
   13b90:	00812c23          	sw	s0,24(sp)
   13b94:	00912a23          	sw	s1,20(sp)
   13b98:	00058b13          	mv	s6,a1
   13b9c:	2e050a93          	addi	s5,a0,736
   13ba0:	00000a13          	li	s4,0
   13ba4:	00100993          	li	s3,1
   13ba8:	fff00913          	li	s2,-1
   13bac:	004aa483          	lw	s1,4(s5)
   13bb0:	008aa403          	lw	s0,8(s5)
   13bb4:	fff48493          	addi	s1,s1,-1
   13bb8:	0204c663          	bltz	s1,13be4 <_fwalk+0x70>
   13bbc:	00c45783          	lhu	a5,12(s0)
   13bc0:	fff48493          	addi	s1,s1,-1
   13bc4:	00f9fc63          	bgeu	s3,a5,13bdc <_fwalk+0x68>
   13bc8:	00e41783          	lh	a5,14(s0)
   13bcc:	00040513          	mv	a0,s0
   13bd0:	01278663          	beq	a5,s2,13bdc <_fwalk+0x68>
   13bd4:	000b00e7          	jalr	s6
   13bd8:	00aa6a33          	or	s4,s4,a0
   13bdc:	06840413          	addi	s0,s0,104
   13be0:	fd249ee3          	bne	s1,s2,13bbc <_fwalk+0x48>
   13be4:	000aaa83          	lw	s5,0(s5)
   13be8:	fc0a92e3          	bnez	s5,13bac <_fwalk+0x38>
   13bec:	01c12083          	lw	ra,28(sp)
   13bf0:	01812403          	lw	s0,24(sp)
   13bf4:	01412483          	lw	s1,20(sp)
   13bf8:	01012903          	lw	s2,16(sp)
   13bfc:	00c12983          	lw	s3,12(sp)
   13c00:	00412a83          	lw	s5,4(sp)
   13c04:	00012b03          	lw	s6,0(sp)
   13c08:	000a0513          	mv	a0,s4
   13c0c:	00812a03          	lw	s4,8(sp)
   13c10:	02010113          	addi	sp,sp,32
   13c14:	00008067          	ret

00013c18 <_fwalk_reent>:
   13c18:	fd010113          	addi	sp,sp,-48
   13c1c:	03212023          	sw	s2,32(sp)
   13c20:	01312e23          	sw	s3,28(sp)
   13c24:	01412c23          	sw	s4,24(sp)
   13c28:	01512a23          	sw	s5,20(sp)
   13c2c:	01612823          	sw	s6,16(sp)
   13c30:	01712623          	sw	s7,12(sp)
   13c34:	02112623          	sw	ra,44(sp)
   13c38:	02812423          	sw	s0,40(sp)
   13c3c:	02912223          	sw	s1,36(sp)
   13c40:	00050a93          	mv	s5,a0
   13c44:	00058b93          	mv	s7,a1
   13c48:	2e050b13          	addi	s6,a0,736
   13c4c:	00000a13          	li	s4,0
   13c50:	00100993          	li	s3,1
   13c54:	fff00913          	li	s2,-1
   13c58:	004b2483          	lw	s1,4(s6)
   13c5c:	008b2403          	lw	s0,8(s6)
   13c60:	fff48493          	addi	s1,s1,-1
   13c64:	0204c863          	bltz	s1,13c94 <_fwalk_reent+0x7c>
   13c68:	00c45783          	lhu	a5,12(s0)
   13c6c:	fff48493          	addi	s1,s1,-1
   13c70:	00f9fe63          	bgeu	s3,a5,13c8c <_fwalk_reent+0x74>
   13c74:	00e41783          	lh	a5,14(s0)
   13c78:	00040593          	mv	a1,s0
   13c7c:	000a8513          	mv	a0,s5
   13c80:	01278663          	beq	a5,s2,13c8c <_fwalk_reent+0x74>
   13c84:	000b80e7          	jalr	s7
   13c88:	00aa6a33          	or	s4,s4,a0
   13c8c:	06840413          	addi	s0,s0,104
   13c90:	fd249ce3          	bne	s1,s2,13c68 <_fwalk_reent+0x50>
   13c94:	000b2b03          	lw	s6,0(s6)
   13c98:	fc0b10e3          	bnez	s6,13c58 <_fwalk_reent+0x40>
   13c9c:	02c12083          	lw	ra,44(sp)
   13ca0:	02812403          	lw	s0,40(sp)
   13ca4:	02412483          	lw	s1,36(sp)
   13ca8:	02012903          	lw	s2,32(sp)
   13cac:	01c12983          	lw	s3,28(sp)
   13cb0:	01412a83          	lw	s5,20(sp)
   13cb4:	01012b03          	lw	s6,16(sp)
   13cb8:	00c12b83          	lw	s7,12(sp)
   13cbc:	000a0513          	mv	a0,s4
   13cc0:	01812a03          	lw	s4,24(sp)
   13cc4:	03010113          	addi	sp,sp,48
   13cc8:	00008067          	ret

00013ccc <eshdn1>:
   13ccc:	00450693          	addi	a3,a0,4
   13cd0:	00000713          	li	a4,0
   13cd4:	01a50513          	addi	a0,a0,26
   13cd8:	ffff8837          	lui	a6,0xffff8
   13cdc:	0006d783          	lhu	a5,0(a3)
   13ce0:	0017f613          	andi	a2,a5,1
   13ce4:	00060463          	beqz	a2,13cec <eshdn1+0x20>
   13ce8:	00176713          	ori	a4,a4,1
   13cec:	00277613          	andi	a2,a4,2
   13cf0:	0017d793          	srli	a5,a5,0x1
   13cf4:	00171713          	slli	a4,a4,0x1
   13cf8:	0107e5b3          	or	a1,a5,a6
   13cfc:	00060663          	beqz	a2,13d08 <eshdn1+0x3c>
   13d00:	01059793          	slli	a5,a1,0x10
   13d04:	0107d793          	srli	a5,a5,0x10
   13d08:	00f69023          	sh	a5,0(a3)
   13d0c:	01071713          	slli	a4,a4,0x10
   13d10:	00268693          	addi	a3,a3,2
   13d14:	01075713          	srli	a4,a4,0x10
   13d18:	fcd512e3          	bne	a0,a3,13cdc <eshdn1+0x10>
   13d1c:	00008067          	ret

00013d20 <eshup1>:
   13d20:	01850693          	addi	a3,a0,24
   13d24:	00000713          	li	a4,0
   13d28:	00250513          	addi	a0,a0,2
   13d2c:	0006d783          	lhu	a5,0(a3)
   13d30:	01079613          	slli	a2,a5,0x10
   13d34:	41065613          	srai	a2,a2,0x10
   13d38:	00179793          	slli	a5,a5,0x1
   13d3c:	00065463          	bgez	a2,13d44 <eshup1+0x24>
   13d40:	00176713          	ori	a4,a4,1
   13d44:	00277613          	andi	a2,a4,2
   13d48:	01079793          	slli	a5,a5,0x10
   13d4c:	00171713          	slli	a4,a4,0x1
   13d50:	0107d793          	srli	a5,a5,0x10
   13d54:	00060463          	beqz	a2,13d5c <eshup1+0x3c>
   13d58:	0017e793          	ori	a5,a5,1
   13d5c:	00f69023          	sh	a5,0(a3)
   13d60:	01071713          	slli	a4,a4,0x10
   13d64:	ffe68693          	addi	a3,a3,-2
   13d68:	01075713          	srli	a4,a4,0x10
   13d6c:	fcd510e3          	bne	a0,a3,13d2c <eshup1+0xc>
   13d70:	00008067          	ret

00013d74 <m16m>:
   13d74:	fc010113          	addi	sp,sp,-64
   13d78:	03412423          	sw	s4,40(sp)
   13d7c:	00010a37          	lui	s4,0x10
   13d80:	02812c23          	sw	s0,56(sp)
   13d84:	02912a23          	sw	s1,52(sp)
   13d88:	03212823          	sw	s2,48(sp)
   13d8c:	03312623          	sw	s3,44(sp)
   13d90:	03512223          	sw	s5,36(sp)
   13d94:	02112e23          	sw	ra,60(sp)
   13d98:	00050993          	mv	s3,a0
   13d9c:	00060493          	mv	s1,a2
   13da0:	00011d23          	sh	zero,26(sp)
   13da4:	00011e23          	sh	zero,28(sp)
   13da8:	01858913          	addi	s2,a1,24
   13dac:	01c10413          	addi	s0,sp,28
   13db0:	00810a93          	addi	s5,sp,8
   13db4:	fffa0a13          	addi	s4,s4,-1 # ffff <exit-0x95>
   13db8:	00095503          	lhu	a0,0(s2)
   13dbc:	00098593          	mv	a1,s3
   13dc0:	ffe40413          	addi	s0,s0,-2
   13dc4:	ffe90913          	addi	s2,s2,-2
   13dc8:	02050a63          	beqz	a0,13dfc <m16m+0x88>
   13dcc:	16c110ef          	jal	ra,24f38 <__mulsi3>
   13dd0:	00245703          	lhu	a4,2(s0)
   13dd4:	00045683          	lhu	a3,0(s0)
   13dd8:	014577b3          	and	a5,a0,s4
   13ddc:	00e787b3          	add	a5,a5,a4
   13de0:	01055513          	srli	a0,a0,0x10
   13de4:	0107d713          	srli	a4,a5,0x10
   13de8:	00d50533          	add	a0,a0,a3
   13dec:	00e50533          	add	a0,a0,a4
   13df0:	00a41023          	sh	a0,0(s0)
   13df4:	00f41123          	sh	a5,2(s0)
   13df8:	01055513          	srli	a0,a0,0x10
   13dfc:	fea41f23          	sh	a0,-2(s0)
   13e00:	fb541ce3          	bne	s0,s5,13db8 <m16m+0x44>
   13e04:	00448613          	addi	a2,s1,4
   13e08:	01e10713          	addi	a4,sp,30
   13e0c:	00045783          	lhu	a5,0(s0)
   13e10:	00240413          	addi	s0,s0,2
   13e14:	00260613          	addi	a2,a2,2
   13e18:	fef61f23          	sh	a5,-2(a2)
   13e1c:	fee418e3          	bne	s0,a4,13e0c <m16m+0x98>
   13e20:	03c12083          	lw	ra,60(sp)
   13e24:	03812403          	lw	s0,56(sp)
   13e28:	03412483          	lw	s1,52(sp)
   13e2c:	03012903          	lw	s2,48(sp)
   13e30:	02c12983          	lw	s3,44(sp)
   13e34:	02812a03          	lw	s4,40(sp)
   13e38:	02412a83          	lw	s5,36(sp)
   13e3c:	04010113          	addi	sp,sp,64
   13e40:	00008067          	ret

00013e44 <emovo.constprop.0>:
   13e44:	00055703          	lhu	a4,0(a0)
   13e48:	00255783          	lhu	a5,2(a0)
   13e4c:	00070663          	beqz	a4,13e58 <emovo.constprop.0+0x14>
   13e50:	00008737          	lui	a4,0x8
   13e54:	00e7e7b3          	or	a5,a5,a4
   13e58:	00f59923          	sh	a5,18(a1)
   13e5c:	00255703          	lhu	a4,2(a0)
   13e60:	000087b7          	lui	a5,0x8
   13e64:	fff78793          	addi	a5,a5,-1 # 7fff <exit-0x8095>
   13e68:	02f70463          	beq	a4,a5,13e90 <emovo.constprop.0+0x4c>
   13e6c:	00650793          	addi	a5,a0,6
   13e70:	01058593          	addi	a1,a1,16
   13e74:	01850513          	addi	a0,a0,24
   13e78:	0007d703          	lhu	a4,0(a5)
   13e7c:	00278793          	addi	a5,a5,2
   13e80:	ffe58593          	addi	a1,a1,-2
   13e84:	00e59123          	sh	a4,2(a1)
   13e88:	fea798e3          	bne	a5,a0,13e78 <emovo.constprop.0+0x34>
   13e8c:	00008067          	ret
   13e90:	00650793          	addi	a5,a0,6
   13e94:	01a50513          	addi	a0,a0,26
   13e98:	0007d703          	lhu	a4,0(a5)
   13e9c:	00278793          	addi	a5,a5,2
   13ea0:	02071a63          	bnez	a4,13ed4 <emovo.constprop.0+0x90>
   13ea4:	fef51ae3          	bne	a0,a5,13e98 <emovo.constprop.0+0x54>
   13ea8:	01258713          	addi	a4,a1,18
   13eac:	00058793          	mv	a5,a1
   13eb0:	00278793          	addi	a5,a5,2
   13eb4:	fe079f23          	sh	zero,-2(a5)
   13eb8:	fee79ce3          	bne	a5,a4,13eb0 <emovo.constprop.0+0x6c>
   13ebc:	0125d783          	lhu	a5,18(a1)
   13ec0:	00008737          	lui	a4,0x8
   13ec4:	fff70713          	addi	a4,a4,-1 # 7fff <exit-0x8095>
   13ec8:	00e7e7b3          	or	a5,a5,a4
   13ecc:	00f59923          	sh	a5,18(a1)
   13ed0:	00008067          	ret
   13ed4:	01058713          	addi	a4,a1,16
   13ed8:	00058793          	mv	a5,a1
   13edc:	00278793          	addi	a5,a5,2
   13ee0:	fe079f23          	sh	zero,-2(a5)
   13ee4:	fee79ce3          	bne	a5,a4,13edc <emovo.constprop.0+0x98>
   13ee8:	ffffc7b7          	lui	a5,0xffffc
   13eec:	00f59823          	sh	a5,16(a1)
   13ef0:	ffff87b7          	lui	a5,0xffff8
   13ef4:	fff7c793          	not	a5,a5
   13ef8:	00f59923          	sh	a5,18(a1)
   13efc:	00008067          	ret

00013f00 <enormlz>:
   13f00:	00455783          	lhu	a5,4(a0)
   13f04:	ff010113          	addi	sp,sp,-16
   13f08:	00912223          	sw	s1,4(sp)
   13f0c:	00112623          	sw	ra,12(sp)
   13f10:	00812423          	sw	s0,8(sp)
   13f14:	01212023          	sw	s2,0(sp)
   13f18:	00050493          	mv	s1,a0
   13f1c:	0c079a63          	bnez	a5,13ff0 <enormlz+0xf0>
   13f20:	00655783          	lhu	a5,6(a0)
   13f24:	00000413          	li	s0,0
   13f28:	01079713          	slli	a4,a5,0x10
   13f2c:	41075713          	srai	a4,a4,0x10
   13f30:	0a074263          	bltz	a4,13fd4 <enormlz+0xd4>
   13f34:	01850693          	addi	a3,a0,24
   13f38:	0a000613          	li	a2,160
   13f3c:	02079663          	bnez	a5,13f68 <enormlz+0x68>
   13f40:	00448793          	addi	a5,s1,4
   13f44:	0027d703          	lhu	a4,2(a5) # ffff8002 <__BSS_END__+0xfffd151a>
   13f48:	00278793          	addi	a5,a5,2
   13f4c:	fee79f23          	sh	a4,-2(a5)
   13f50:	fed79ae3          	bne	a5,a3,13f44 <enormlz+0x44>
   13f54:	00049c23          	sh	zero,24(s1)
   13f58:	01040413          	addi	s0,s0,16
   13f5c:	06c40c63          	beq	s0,a2,13fd4 <enormlz+0xd4>
   13f60:	0064d783          	lhu	a5,6(s1)
   13f64:	fc078ee3          	beqz	a5,13f40 <enormlz+0x40>
   13f68:	0ff00713          	li	a4,255
   13f6c:	04f76063          	bltu	a4,a5,13fac <enormlz+0xac>
   13f70:	01848813          	addi	a6,s1,24
   13f74:	00248593          	addi	a1,s1,2
   13f78:	0ff00513          	li	a0,255
   13f7c:	00000793          	li	a5,0
   13f80:	00080713          	mv	a4,a6
   13f84:	00075683          	lhu	a3,0(a4)
   13f88:	ffe70713          	addi	a4,a4,-2
   13f8c:	00869613          	slli	a2,a3,0x8
   13f90:	00c7e7b3          	or	a5,a5,a2
   13f94:	00f71123          	sh	a5,2(a4)
   13f98:	0086d793          	srli	a5,a3,0x8
   13f9c:	feb714e3          	bne	a4,a1,13f84 <enormlz+0x84>
   13fa0:	0064d783          	lhu	a5,6(s1)
   13fa4:	00840413          	addi	s0,s0,8
   13fa8:	fcf57ae3          	bgeu	a0,a5,13f7c <enormlz+0x7c>
   13fac:	0a000913          	li	s2,160
   13fb0:	0140006f          	j	13fc4 <enormlz+0xc4>
   13fb4:	00140413          	addi	s0,s0,1
   13fb8:	d69ff0ef          	jal	ra,13d20 <eshup1>
   13fbc:	00894c63          	blt	s2,s0,13fd4 <enormlz+0xd4>
   13fc0:	0064d783          	lhu	a5,6(s1)
   13fc4:	01079793          	slli	a5,a5,0x10
   13fc8:	4107d793          	srai	a5,a5,0x10
   13fcc:	00048513          	mv	a0,s1
   13fd0:	fe07d2e3          	bgez	a5,13fb4 <enormlz+0xb4>
   13fd4:	00c12083          	lw	ra,12(sp)
   13fd8:	00040513          	mv	a0,s0
   13fdc:	00812403          	lw	s0,8(sp)
   13fe0:	00412483          	lw	s1,4(sp)
   13fe4:	00012903          	lw	s2,0(sp)
   13fe8:	01010113          	addi	sp,sp,16
   13fec:	00008067          	ret
   13ff0:	0ff00713          	li	a4,255
   13ff4:	00000413          	li	s0,0
   13ff8:	04f76063          	bltu	a4,a5,14038 <enormlz+0x138>
   13ffc:	f6f00913          	li	s2,-145
   14000:	0140006f          	j	14014 <enormlz+0x114>
   14004:	fff40413          	addi	s0,s0,-1
   14008:	cc5ff0ef          	jal	ra,13ccc <eshdn1>
   1400c:	fd2404e3          	beq	s0,s2,13fd4 <enormlz+0xd4>
   14010:	0044d783          	lhu	a5,4(s1)
   14014:	00048513          	mv	a0,s1
   14018:	fe0796e3          	bnez	a5,14004 <enormlz+0x104>
   1401c:	00c12083          	lw	ra,12(sp)
   14020:	00040513          	mv	a0,s0
   14024:	00812403          	lw	s0,8(sp)
   14028:	00412483          	lw	s1,4(sp)
   1402c:	00012903          	lw	s2,0(sp)
   14030:	01010113          	addi	sp,sp,16
   14034:	00008067          	ret
   14038:	00450713          	addi	a4,a0,4
   1403c:	01a50593          	addi	a1,a0,26
   14040:	00000793          	li	a5,0
   14044:	00075683          	lhu	a3,0(a4)
   14048:	00270713          	addi	a4,a4,2
   1404c:	0086d613          	srli	a2,a3,0x8
   14050:	00c7e7b3          	or	a5,a5,a2
   14054:	00869693          	slli	a3,a3,0x8
   14058:	fef71f23          	sh	a5,-2(a4)
   1405c:	01069793          	slli	a5,a3,0x10
   14060:	0107d793          	srli	a5,a5,0x10
   14064:	feb710e3          	bne	a4,a1,14044 <enormlz+0x144>
   14068:	0044d783          	lhu	a5,4(s1)
   1406c:	ff800413          	li	s0,-8
   14070:	f8dff06f          	j	13ffc <enormlz+0xfc>

00014074 <eshift.part.0>:
   14074:	fe010113          	addi	sp,sp,-32
   14078:	00812c23          	sw	s0,24(sp)
   1407c:	00912a23          	sw	s1,20(sp)
   14080:	00112e23          	sw	ra,28(sp)
   14084:	01212823          	sw	s2,16(sp)
   14088:	01312623          	sw	s3,12(sp)
   1408c:	00058493          	mv	s1,a1
   14090:	00050413          	mv	s0,a0
   14094:	0a05c463          	bltz	a1,1413c <eshift.part.0+0xc8>
   14098:	00f00793          	li	a5,15
   1409c:	00058613          	mv	a2,a1
   140a0:	00450513          	addi	a0,a0,4
   140a4:	01840693          	addi	a3,s0,24
   140a8:	00f00593          	li	a1,15
   140ac:	0297d463          	bge	a5,s1,140d4 <eshift.part.0+0x60>
   140b0:	00050793          	mv	a5,a0
   140b4:	0027d703          	lhu	a4,2(a5)
   140b8:	00278793          	addi	a5,a5,2
   140bc:	fee79f23          	sh	a4,-2(a5)
   140c0:	fed79ae3          	bne	a5,a3,140b4 <eshift.part.0+0x40>
   140c4:	00041c23          	sh	zero,24(s0)
   140c8:	ff060613          	addi	a2,a2,-16
   140cc:	fec5c2e3          	blt	a1,a2,140b0 <eshift.part.0+0x3c>
   140d0:	00f4f493          	andi	s1,s1,15
   140d4:	00700793          	li	a5,7
   140d8:	0297d863          	bge	a5,s1,14108 <eshift.part.0+0x94>
   140dc:	01840713          	addi	a4,s0,24
   140e0:	00240593          	addi	a1,s0,2
   140e4:	00000793          	li	a5,0
   140e8:	00075683          	lhu	a3,0(a4)
   140ec:	ffe70713          	addi	a4,a4,-2
   140f0:	00869613          	slli	a2,a3,0x8
   140f4:	00c7e7b3          	or	a5,a5,a2
   140f8:	00f71123          	sh	a5,2(a4)
   140fc:	0086d793          	srli	a5,a3,0x8
   14100:	feb714e3          	bne	a4,a1,140e8 <eshift.part.0+0x74>
   14104:	ff848493          	addi	s1,s1,-8
   14108:	00048a63          	beqz	s1,1411c <eshift.part.0+0xa8>
   1410c:	fff48493          	addi	s1,s1,-1
   14110:	00040513          	mv	a0,s0
   14114:	c0dff0ef          	jal	ra,13d20 <eshup1>
   14118:	fe049ae3          	bnez	s1,1410c <eshift.part.0+0x98>
   1411c:	01c12083          	lw	ra,28(sp)
   14120:	01812403          	lw	s0,24(sp)
   14124:	01412483          	lw	s1,20(sp)
   14128:	01012903          	lw	s2,16(sp)
   1412c:	00c12983          	lw	s3,12(sp)
   14130:	00000513          	li	a0,0
   14134:	02010113          	addi	sp,sp,32
   14138:	00008067          	ret
   1413c:	ff100793          	li	a5,-15
   14140:	40b00933          	neg	s2,a1
   14144:	00000993          	li	s3,0
   14148:	01850593          	addi	a1,a0,24
   1414c:	00450693          	addi	a3,a0,4
   14150:	00f00613          	li	a2,15
   14154:	0cf4d863          	bge	s1,a5,14224 <eshift.part.0+0x1b0>
   14158:	01845703          	lhu	a4,24(s0)
   1415c:	00058793          	mv	a5,a1
   14160:	00e9e9b3          	or	s3,s3,a4
   14164:	ffe7d703          	lhu	a4,-2(a5)
   14168:	ffe78793          	addi	a5,a5,-2
   1416c:	00e79123          	sh	a4,2(a5)
   14170:	fed79ae3          	bne	a5,a3,14164 <eshift.part.0+0xf0>
   14174:	00041223          	sh	zero,4(s0)
   14178:	ff090913          	addi	s2,s2,-16
   1417c:	fd264ee3          	blt	a2,s2,14158 <eshift.part.0+0xe4>
   14180:	ff000913          	li	s2,-16
   14184:	ff100713          	li	a4,-15
   14188:	40990933          	sub	s2,s2,s1
   1418c:	00000793          	li	a5,0
   14190:	08e4c463          	blt	s1,a4,14218 <eshift.part.0+0x1a4>
   14194:	00f90933          	add	s2,s2,a5
   14198:	00700793          	li	a5,7
   1419c:	0327de63          	bge	a5,s2,141d8 <eshift.part.0+0x164>
   141a0:	01844783          	lbu	a5,24(s0)
   141a4:	01a40593          	addi	a1,s0,26
   141a8:	00f9e9b3          	or	s3,s3,a5
   141ac:	00000793          	li	a5,0
   141b0:	0006d703          	lhu	a4,0(a3)
   141b4:	00268693          	addi	a3,a3,2
   141b8:	00875613          	srli	a2,a4,0x8
   141bc:	00c7e7b3          	or	a5,a5,a2
   141c0:	00871713          	slli	a4,a4,0x8
   141c4:	fef69f23          	sh	a5,-2(a3)
   141c8:	01071793          	slli	a5,a4,0x10
   141cc:	0107d793          	srli	a5,a5,0x10
   141d0:	feb690e3          	bne	a3,a1,141b0 <eshift.part.0+0x13c>
   141d4:	ff890913          	addi	s2,s2,-8
   141d8:	02090063          	beqz	s2,141f8 <eshift.part.0+0x184>
   141dc:	01845783          	lhu	a5,24(s0)
   141e0:	fff90913          	addi	s2,s2,-1
   141e4:	00040513          	mv	a0,s0
   141e8:	0017f793          	andi	a5,a5,1
   141ec:	00f9e9b3          	or	s3,s3,a5
   141f0:	addff0ef          	jal	ra,13ccc <eshdn1>
   141f4:	fe0914e3          	bnez	s2,141dc <eshift.part.0+0x168>
   141f8:	01c12083          	lw	ra,28(sp)
   141fc:	01812403          	lw	s0,24(sp)
   14200:	01412483          	lw	s1,20(sp)
   14204:	01012903          	lw	s2,16(sp)
   14208:	01303533          	snez	a0,s3
   1420c:	00c12983          	lw	s3,12(sp)
   14210:	02010113          	addi	sp,sp,32
   14214:	00008067          	ret
   14218:	ff097793          	andi	a5,s2,-16
   1421c:	40f007b3          	neg	a5,a5
   14220:	f75ff06f          	j	14194 <eshift.part.0+0x120>
   14224:	ff900793          	li	a5,-7
   14228:	f6f4cce3          	blt	s1,a5,141a0 <eshift.part.0+0x12c>
   1422c:	fb1ff06f          	j	141dc <eshift.part.0+0x168>

00014230 <emovi>:
   14230:	01255783          	lhu	a5,18(a0)
   14234:	000086b7          	lui	a3,0x8
   14238:	fff68693          	addi	a3,a3,-1 # 7fff <exit-0x8095>
   1423c:	00f7d793          	srli	a5,a5,0xf
   14240:	40f007b3          	neg	a5,a5
   14244:	00f59023          	sh	a5,0(a1)
   14248:	01255703          	lhu	a4,18(a0)
   1424c:	01050793          	addi	a5,a0,16
   14250:	00d77733          	and	a4,a4,a3
   14254:	00e59123          	sh	a4,2(a1)
   14258:	02d70663          	beq	a4,a3,14284 <emovi+0x54>
   1425c:	00658713          	addi	a4,a1,6
   14260:	00059223          	sh	zero,4(a1)
   14264:	ffe50513          	addi	a0,a0,-2
   14268:	0007d683          	lhu	a3,0(a5)
   1426c:	ffe78793          	addi	a5,a5,-2
   14270:	00270713          	addi	a4,a4,2
   14274:	fed71f23          	sh	a3,-2(a4)
   14278:	fea798e3          	bne	a5,a0,14268 <emovi+0x38>
   1427c:	00059c23          	sh	zero,24(a1)
   14280:	00008067          	ret
   14284:	01255683          	lhu	a3,18(a0)
   14288:	00e6f6b3          	and	a3,a3,a4
   1428c:	00e69e63          	bne	a3,a4,142a8 <emovi+0x78>
   14290:	01250613          	addi	a2,a0,18
   14294:	00050713          	mv	a4,a0
   14298:	00075683          	lhu	a3,0(a4)
   1429c:	00270713          	addi	a4,a4,2
   142a0:	02069063          	bnez	a3,142c0 <emovi+0x90>
   142a4:	fec71ae3          	bne	a4,a2,14298 <emovi+0x68>
   142a8:	00458793          	addi	a5,a1,4
   142ac:	01a58593          	addi	a1,a1,26
   142b0:	00278793          	addi	a5,a5,2
   142b4:	fe079f23          	sh	zero,-2(a5)
   142b8:	feb79ce3          	bne	a5,a1,142b0 <emovi+0x80>
   142bc:	00008067          	ret
   142c0:	00658713          	addi	a4,a1,6
   142c4:	00059223          	sh	zero,4(a1)
   142c8:	ffc50513          	addi	a0,a0,-4
   142cc:	0007d683          	lhu	a3,0(a5)
   142d0:	ffe78793          	addi	a5,a5,-2
   142d4:	00270713          	addi	a4,a4,2
   142d8:	fed71f23          	sh	a3,-2(a4)
   142dc:	fef518e3          	bne	a0,a5,142cc <emovi+0x9c>
   142e0:	00008067          	ret

000142e4 <ecmp>:
   142e4:	01255783          	lhu	a5,18(a0)
   142e8:	fb010113          	addi	sp,sp,-80
   142ec:	04812423          	sw	s0,72(sp)
   142f0:	fff7c793          	not	a5,a5
   142f4:	04112623          	sw	ra,76(sp)
   142f8:	01179713          	slli	a4,a5,0x11
   142fc:	00058413          	mv	s0,a1
   14300:	00071e63          	bnez	a4,1431c <ecmp+0x38>
   14304:	01250693          	addi	a3,a0,18
   14308:	00050793          	mv	a5,a0
   1430c:	0007d703          	lhu	a4,0(a5)
   14310:	00278793          	addi	a5,a5,2
   14314:	08071c63          	bnez	a4,143ac <ecmp+0xc8>
   14318:	fed79ae3          	bne	a5,a3,1430c <ecmp+0x28>
   1431c:	01245783          	lhu	a5,18(s0)
   14320:	fff7c793          	not	a5,a5
   14324:	01179713          	slli	a4,a5,0x11
   14328:	06070063          	beqz	a4,14388 <ecmp+0xa4>
   1432c:	00810593          	addi	a1,sp,8
   14330:	f01ff0ef          	jal	ra,14230 <emovi>
   14334:	02410593          	addi	a1,sp,36
   14338:	00040513          	mv	a0,s0
   1433c:	ef5ff0ef          	jal	ra,14230 <emovi>
   14340:	00815583          	lhu	a1,8(sp)
   14344:	02415503          	lhu	a0,36(sp)
   14348:	06b50c63          	beq	a0,a1,143c0 <ecmp+0xdc>
   1434c:	00a10793          	addi	a5,sp,10
   14350:	02610713          	addi	a4,sp,38
   14354:	02010613          	addi	a2,sp,32
   14358:	0007d683          	lhu	a3,0(a5)
   1435c:	00278793          	addi	a5,a5,2
   14360:	0a069863          	bnez	a3,14410 <ecmp+0x12c>
   14364:	00075683          	lhu	a3,0(a4)
   14368:	00270713          	addi	a4,a4,2
   1436c:	0a069263          	bnez	a3,14410 <ecmp+0x12c>
   14370:	fef614e3          	bne	a2,a5,14358 <ecmp+0x74>
   14374:	00000513          	li	a0,0
   14378:	04c12083          	lw	ra,76(sp)
   1437c:	04812403          	lw	s0,72(sp)
   14380:	05010113          	addi	sp,sp,80
   14384:	00008067          	ret
   14388:	00040793          	mv	a5,s0
   1438c:	0007d703          	lhu	a4,0(a5)
   14390:	01240693          	addi	a3,s0,18
   14394:	00278793          	addi	a5,a5,2
   14398:	00071a63          	bnez	a4,143ac <ecmp+0xc8>
   1439c:	f8d788e3          	beq	a5,a3,1432c <ecmp+0x48>
   143a0:	0007d703          	lhu	a4,0(a5)
   143a4:	00278793          	addi	a5,a5,2
   143a8:	fe070ae3          	beqz	a4,1439c <ecmp+0xb8>
   143ac:	04c12083          	lw	ra,76(sp)
   143b0:	04812403          	lw	s0,72(sp)
   143b4:	ffe00513          	li	a0,-2
   143b8:	05010113          	addi	sp,sp,80
   143bc:	00008067          	ret
   143c0:	00815603          	lhu	a2,8(sp)
   143c4:	02415683          	lhu	a3,36(sp)
   143c8:	00a03533          	snez	a0,a0
   143cc:	02410713          	addi	a4,sp,36
   143d0:	00810793          	addi	a5,sp,8
   143d4:	40a00533          	neg	a0,a0
   143d8:	00156513          	ori	a0,a0,1
   143dc:	02010593          	addi	a1,sp,32
   143e0:	00278793          	addi	a5,a5,2
   143e4:	00270713          	addi	a4,a4,2
   143e8:	00d61e63          	bne	a2,a3,14404 <ecmp+0x120>
   143ec:	f8b784e3          	beq	a5,a1,14374 <ecmp+0x90>
   143f0:	0007d603          	lhu	a2,0(a5)
   143f4:	00075683          	lhu	a3,0(a4)
   143f8:	00278793          	addi	a5,a5,2
   143fc:	00270713          	addi	a4,a4,2
   14400:	fed606e3          	beq	a2,a3,143ec <ecmp+0x108>
   14404:	f6c6eae3          	bltu	a3,a2,14378 <ecmp+0x94>
   14408:	40a00533          	neg	a0,a0
   1440c:	f6dff06f          	j	14378 <ecmp+0x94>
   14410:	00059c63          	bnez	a1,14428 <ecmp+0x144>
   14414:	04c12083          	lw	ra,76(sp)
   14418:	04812403          	lw	s0,72(sp)
   1441c:	00100513          	li	a0,1
   14420:	05010113          	addi	sp,sp,80
   14424:	00008067          	ret
   14428:	fff00513          	li	a0,-1
   1442c:	f4dff06f          	j	14378 <ecmp+0x94>

00014430 <emdnorm>:
   14430:	fe010113          	addi	sp,sp,-32
   14434:	00812c23          	sw	s0,24(sp)
   14438:	00912a23          	sw	s1,20(sp)
   1443c:	01212823          	sw	s2,16(sp)
   14440:	01312623          	sw	s3,12(sp)
   14444:	01412423          	sw	s4,8(sp)
   14448:	01512223          	sw	s5,4(sp)
   1444c:	00068913          	mv	s2,a3
   14450:	00078413          	mv	s0,a5
   14454:	00112e23          	sw	ra,28(sp)
   14458:	00050493          	mv	s1,a0
   1445c:	00058993          	mv	s3,a1
   14460:	00060a13          	mv	s4,a2
   14464:	00070a93          	mv	s5,a4
   14468:	a99ff0ef          	jal	ra,13f00 <enormlz>
   1446c:	09000793          	li	a5,144
   14470:	40a90933          	sub	s2,s2,a0
   14474:	16a7da63          	bge	a5,a0,145e8 <emdnorm+0x1b8>
   14478:	000087b7          	lui	a5,0x8
   1447c:	ffe78793          	addi	a5,a5,-2 # 7ffe <exit-0x8096>
   14480:	2b27da63          	bge	a5,s2,14734 <emdnorm+0x304>
   14484:	200a8c63          	beqz	s5,1469c <emdnorm+0x26c>
   14488:	00442a83          	lw	s5,4(s0)
   1448c:	00042783          	lw	a5,0(s0)
   14490:	26fa8a63          	beq	s5,a5,14704 <emdnorm+0x2d4>
   14494:	01a40713          	addi	a4,s0,26
   14498:	03440793          	addi	a5,s0,52
   1449c:	00270713          	addi	a4,a4,2
   144a0:	fe071f23          	sh	zero,-2(a4)
   144a4:	fee79ce3          	bne	a5,a4,1449c <emdnorm+0x6c>
   144a8:	03800793          	li	a5,56
   144ac:	36fa8863          	beq	s5,a5,1481c <emdnorm+0x3ec>
   144b0:	1957dc63          	bge	a5,s5,14648 <emdnorm+0x218>
   144b4:	04000793          	li	a5,64
   144b8:	28fa8a63          	beq	s5,a5,1474c <emdnorm+0x31c>
   144bc:	07100793          	li	a5,113
   144c0:	38fa9c63          	bne	s5,a5,14858 <emdnorm+0x428>
   144c4:	400087b7          	lui	a5,0x40008
   144c8:	00a00693          	li	a3,10
   144cc:	ffff8737          	lui	a4,0xffff8
   144d0:	fff78793          	addi	a5,a5,-1 # 40007fff <__BSS_END__+0x3ffe1517>
   144d4:	00d42423          	sw	a3,8(s0)
   144d8:	00f42a23          	sw	a5,20(s0)
   144dc:	00e41c23          	sh	a4,24(s0)
   144e0:	00d42623          	sw	a3,12(s0)
   144e4:	02e41723          	sh	a4,46(s0)
   144e8:	01542023          	sw	s5,0(s0)
   144ec:	21205263          	blez	s2,146f0 <emdnorm+0x2c0>
   144f0:	0144d683          	lhu	a3,20(s1)
   144f4:	01448613          	addi	a2,s1,20
   144f8:	00b00793          	li	a5,11
   144fc:	01169693          	slli	a3,a3,0x11
   14500:	0116d693          	srli	a3,a3,0x11
   14504:	00179793          	slli	a5,a5,0x1
   14508:	00f487b3          	add	a5,s1,a5
   1450c:	01a48593          	addi	a1,s1,26
   14510:	0007d703          	lhu	a4,0(a5)
   14514:	00070463          	beqz	a4,1451c <emdnorm+0xec>
   14518:	0016e693          	ori	a3,a3,1
   1451c:	00079023          	sh	zero,0(a5)
   14520:	00278793          	addi	a5,a5,2
   14524:	feb796e3          	bne	a5,a1,14510 <emdnorm+0xe0>
   14528:	00065703          	lhu	a4,0(a2)
   1452c:	01445583          	lhu	a1,20(s0)
   14530:	fff5c593          	not	a1,a1
   14534:	00b77733          	and	a4,a4,a1
   14538:	00e61023          	sh	a4,0(a2)
   1453c:	01645783          	lhu	a5,22(s0)
   14540:	00d7f733          	and	a4,a5,a3
   14544:	06070063          	beqz	a4,145a4 <emdnorm+0x174>
   14548:	02d79263          	bne	a5,a3,1456c <emdnorm+0x13c>
   1454c:	2c099463          	bnez	s3,14814 <emdnorm+0x3e4>
   14550:	00c42783          	lw	a5,12(s0)
   14554:	01845703          	lhu	a4,24(s0)
   14558:	00179793          	slli	a5,a5,0x1
   1455c:	00f487b3          	add	a5,s1,a5
   14560:	0007d783          	lhu	a5,0(a5)
   14564:	00e7f7b3          	and	a5,a5,a4
   14568:	02078e63          	beqz	a5,145a4 <emdnorm+0x174>
   1456c:	03240793          	addi	a5,s0,50
   14570:	01848613          	addi	a2,s1,24
   14574:	00248593          	addi	a1,s1,2
   14578:	00000513          	li	a0,0
   1457c:	0007d703          	lhu	a4,0(a5)
   14580:	00065683          	lhu	a3,0(a2)
   14584:	ffe60613          	addi	a2,a2,-2
   14588:	ffe78793          	addi	a5,a5,-2
   1458c:	00d70733          	add	a4,a4,a3
   14590:	00a70733          	add	a4,a4,a0
   14594:	01075513          	srli	a0,a4,0x10
   14598:	00e61123          	sh	a4,2(a2)
   1459c:	00157513          	andi	a0,a0,1
   145a0:	fcc59ee3          	bne	a1,a2,1457c <emdnorm+0x14c>
   145a4:	23205863          	blez	s2,147d4 <emdnorm+0x3a4>
   145a8:	0044d783          	lhu	a5,4(s1)
   145ac:	20079463          	bnez	a5,147b4 <emdnorm+0x384>
   145b0:	000087b7          	lui	a5,0x8
   145b4:	00049c23          	sh	zero,24(s1)
   145b8:	ffe78793          	addi	a5,a5,-2 # 7ffe <exit-0x8096>
   145bc:	0f27c263          	blt	a5,s2,146a0 <emdnorm+0x270>
   145c0:	01249123          	sh	s2,2(s1)
   145c4:	01c12083          	lw	ra,28(sp)
   145c8:	01812403          	lw	s0,24(sp)
   145cc:	01412483          	lw	s1,20(sp)
   145d0:	01012903          	lw	s2,16(sp)
   145d4:	00c12983          	lw	s3,12(sp)
   145d8:	00812a03          	lw	s4,8(sp)
   145dc:	00412a83          	lw	s5,4(sp)
   145e0:	02010113          	addi	sp,sp,32
   145e4:	00008067          	ret
   145e8:	04094063          	bltz	s2,14628 <emdnorm+0x1f8>
   145ec:	fc0a82e3          	beqz	s5,145b0 <emdnorm+0x180>
   145f0:	00442a83          	lw	s5,4(s0)
   145f4:	00042783          	lw	a5,0(s0)
   145f8:	e8fa9ee3          	bne	s5,a5,14494 <emdnorm+0x64>
   145fc:	2d204063          	bgtz	s2,148bc <emdnorm+0x48c>
   14600:	09000713          	li	a4,144
   14604:	2ce79063          	bne	a5,a4,148c4 <emdnorm+0x494>
   14608:	00842603          	lw	a2,8(s0)
   1460c:	01445583          	lhu	a1,20(s0)
   14610:	09000a93          	li	s5,144
   14614:	00161613          	slli	a2,a2,0x1
   14618:	00c48633          	add	a2,s1,a2
   1461c:	00065703          	lhu	a4,0(a2)
   14620:	00b776b3          	and	a3,a4,a1
   14624:	f0dff06f          	j	14530 <emdnorm+0x100>
   14628:	f7000793          	li	a5,-144
   1462c:	16f95063          	bge	s2,a5,1478c <emdnorm+0x35c>
   14630:	00248793          	addi	a5,s1,2
   14634:	01a48493          	addi	s1,s1,26
   14638:	00278793          	addi	a5,a5,2
   1463c:	fe079f23          	sh	zero,-2(a5)
   14640:	fef49ce3          	bne	s1,a5,14638 <emdnorm+0x208>
   14644:	f81ff06f          	j	145c4 <emdnorm+0x194>
   14648:	01800793          	li	a5,24
   1464c:	06fa8c63          	beq	s5,a5,146c4 <emdnorm+0x294>
   14650:	03500793          	li	a5,53
   14654:	20fa9263          	bne	s5,a5,14858 <emdnorm+0x428>
   14658:	000017b7          	lui	a5,0x1
   1465c:	04000737          	lui	a4,0x4000
   14660:	00600693          	li	a3,6
   14664:	80078793          	addi	a5,a5,-2048 # 800 <exit-0xf894>
   14668:	7ff70713          	addi	a4,a4,2047 # 40007ff <__BSS_END__+0x3fd9d17>
   1466c:	00d42423          	sw	a3,8(s0)
   14670:	00e42a23          	sw	a4,20(s0)
   14674:	00f41c23          	sh	a5,24(s0)
   14678:	00d42623          	sw	a3,12(s0)
   1467c:	02f41323          	sh	a5,38(s0)
   14680:	01542023          	sw	s5,0(s0)
   14684:	07205663          	blez	s2,146f0 <emdnorm+0x2c0>
   14688:	00c4d683          	lhu	a3,12(s1)
   1468c:	00c48613          	addi	a2,s1,12
   14690:	00700793          	li	a5,7
   14694:	7ff6f693          	andi	a3,a3,2047
   14698:	e6dff06f          	j	14504 <emdnorm+0xd4>
   1469c:	00049c23          	sh	zero,24(s1)
   146a0:	ffff87b7          	lui	a5,0xffff8
   146a4:	fff7c793          	not	a5,a5
   146a8:	00f49123          	sh	a5,2(s1)
   146ac:	00448793          	addi	a5,s1,4
   146b0:	01848493          	addi	s1,s1,24
   146b4:	00079023          	sh	zero,0(a5) # ffff8000 <__BSS_END__+0xfffd1518>
   146b8:	00278793          	addi	a5,a5,2
   146bc:	fef49ce3          	bne	s1,a5,146b4 <emdnorm+0x284>
   146c0:	f05ff06f          	j	145c4 <emdnorm+0x194>
   146c4:	008007b7          	lui	a5,0x800
   146c8:	00400693          	li	a3,4
   146cc:	10000713          	li	a4,256
   146d0:	0ff78793          	addi	a5,a5,255 # 8000ff <__BSS_END__+0x7d9617>
   146d4:	00d42423          	sw	a3,8(s0)
   146d8:	00f42a23          	sw	a5,20(s0)
   146dc:	00e41c23          	sh	a4,24(s0)
   146e0:	00d42623          	sw	a3,12(s0)
   146e4:	02e41123          	sh	a4,34(s0)
   146e8:	01542023          	sw	s5,0(s0)
   146ec:	1b204a63          	bgtz	s2,148a0 <emdnorm+0x470>
   146f0:	0184d783          	lhu	a5,24(s1)
   146f4:	00048513          	mv	a0,s1
   146f8:	0017f793          	andi	a5,a5,1
   146fc:	00f9e9b3          	or	s3,s3,a5
   14700:	dccff0ef          	jal	ra,13ccc <eshdn1>
   14704:	00842783          	lw	a5,8(s0)
   14708:	01445583          	lhu	a1,20(s0)
   1470c:	08f00513          	li	a0,143
   14710:	00179613          	slli	a2,a5,0x1
   14714:	00c48633          	add	a2,s1,a2
   14718:	00065703          	lhu	a4,0(a2)
   1471c:	00b776b3          	and	a3,a4,a1
   14720:	e15548e3          	blt	a0,s5,14530 <emdnorm+0x100>
   14724:	00178793          	addi	a5,a5,1
   14728:	00c00513          	li	a0,12
   1472c:	dcf55ce3          	bge	a0,a5,14504 <emdnorm+0xd4>
   14730:	e01ff06f          	j	14530 <emdnorm+0x100>
   14734:	00248793          	addi	a5,s1,2
   14738:	01a48493          	addi	s1,s1,26
   1473c:	00278793          	addi	a5,a5,2
   14740:	fe079f23          	sh	zero,-2(a5)
   14744:	fe979ce3          	bne	a5,s1,1473c <emdnorm+0x30c>
   14748:	e7dff06f          	j	145c4 <emdnorm+0x194>
   1474c:	00700793          	li	a5,7
   14750:	00f42423          	sw	a5,8(s0)
   14754:	800107b7          	lui	a5,0x80010
   14758:	fff78793          	addi	a5,a5,-1 # 8000ffff <__BSS_END__+0x7ffe9517>
   1475c:	00100713          	li	a4,1
   14760:	00f42a23          	sw	a5,20(s0)
   14764:	00600793          	li	a5,6
   14768:	00e41c23          	sh	a4,24(s0)
   1476c:	00f42623          	sw	a5,12(s0)
   14770:	02e41323          	sh	a4,38(s0)
   14774:	01542023          	sw	s5,0(s0)
   14778:	f7205ce3          	blez	s2,146f0 <emdnorm+0x2c0>
   1477c:	00e4d683          	lhu	a3,14(s1)
   14780:	00e48613          	addi	a2,s1,14
   14784:	00800793          	li	a5,8
   14788:	d7dff06f          	j	14504 <emdnorm+0xd4>
   1478c:	00090593          	mv	a1,s2
   14790:	00048513          	mv	a0,s1
   14794:	8e1ff0ef          	jal	ra,14074 <eshift.part.0>
   14798:	0e050a63          	beqz	a0,1488c <emdnorm+0x45c>
   1479c:	100a8a63          	beqz	s5,148b0 <emdnorm+0x480>
   147a0:	00442a83          	lw	s5,4(s0)
   147a4:	00042783          	lw	a5,0(s0)
   147a8:	00100993          	li	s3,1
   147ac:	cefa94e3          	bne	s5,a5,14494 <emdnorm+0x64>
   147b0:	e51ff06f          	j	14600 <emdnorm+0x1d0>
   147b4:	00048513          	mv	a0,s1
   147b8:	d14ff0ef          	jal	ra,13ccc <eshdn1>
   147bc:	000087b7          	lui	a5,0x8
   147c0:	00190913          	addi	s2,s2,1
   147c4:	00049c23          	sh	zero,24(s1)
   147c8:	ffe78793          	addi	a5,a5,-2 # 7ffe <exit-0x8096>
   147cc:	ed27cae3          	blt	a5,s2,146a0 <emdnorm+0x270>
   147d0:	df1ff06f          	j	145c0 <emdnorm+0x190>
   147d4:	09000793          	li	a5,144
   147d8:	02fa8263          	beq	s5,a5,147fc <emdnorm+0x3cc>
   147dc:	00048513          	mv	a0,s1
   147e0:	d40ff0ef          	jal	ra,13d20 <eshup1>
   147e4:	0044d783          	lhu	a5,4(s1)
   147e8:	00079e63          	bnez	a5,14804 <emdnorm+0x3d4>
   147ec:	00049c23          	sh	zero,24(s1)
   147f0:	dc0958e3          	bgez	s2,145c0 <emdnorm+0x190>
   147f4:	00049123          	sh	zero,2(s1)
   147f8:	dcdff06f          	j	145c4 <emdnorm+0x194>
   147fc:	0044d783          	lhu	a5,4(s1)
   14800:	fe0786e3          	beqz	a5,147ec <emdnorm+0x3bc>
   14804:	00048513          	mv	a0,s1
   14808:	cc4ff0ef          	jal	ra,13ccc <eshdn1>
   1480c:	00190913          	addi	s2,s2,1
   14810:	fddff06f          	j	147ec <emdnorm+0x3bc>
   14814:	d40a0ce3          	beqz	s4,1456c <emdnorm+0x13c>
   14818:	d8dff06f          	j	145a4 <emdnorm+0x174>
   1481c:	008007b7          	lui	a5,0x800
   14820:	00600693          	li	a3,6
   14824:	10000713          	li	a4,256
   14828:	0ff78793          	addi	a5,a5,255 # 8000ff <__BSS_END__+0x7d9617>
   1482c:	00d42423          	sw	a3,8(s0)
   14830:	00f42a23          	sw	a5,20(s0)
   14834:	00e41c23          	sh	a4,24(s0)
   14838:	00d42623          	sw	a3,12(s0)
   1483c:	02e41323          	sh	a4,38(s0)
   14840:	01542023          	sw	s5,0(s0)
   14844:	eb2056e3          	blez	s2,146f0 <emdnorm+0x2c0>
   14848:	00c4c683          	lbu	a3,12(s1)
   1484c:	00c48613          	addi	a2,s1,12
   14850:	00700793          	li	a5,7
   14854:	cb1ff06f          	j	14504 <emdnorm+0xd4>
   14858:	00c00793          	li	a5,12
   1485c:	00f42423          	sw	a5,8(s0)
   14860:	800107b7          	lui	a5,0x80010
   14864:	fff78793          	addi	a5,a5,-1 # 8000ffff <__BSS_END__+0x7ffe9517>
   14868:	00100713          	li	a4,1
   1486c:	00f42a23          	sw	a5,20(s0)
   14870:	00b00793          	li	a5,11
   14874:	00f42623          	sw	a5,12(s0)
   14878:	00e41c23          	sh	a4,24(s0)
   1487c:	02e41823          	sh	a4,48(s0)
   14880:	01542023          	sw	s5,0(s0)
   14884:	000a8793          	mv	a5,s5
   14888:	d75ff06f          	j	145fc <emdnorm+0x1cc>
   1488c:	020a8263          	beqz	s5,148b0 <emdnorm+0x480>
   14890:	00442a83          	lw	s5,4(s0)
   14894:	00042783          	lw	a5,0(s0)
   14898:	befa9ee3          	bne	s5,a5,14494 <emdnorm+0x64>
   1489c:	d65ff06f          	j	14600 <emdnorm+0x1d0>
   148a0:	0084c683          	lbu	a3,8(s1)
   148a4:	00848613          	addi	a2,s1,8
   148a8:	00500793          	li	a5,5
   148ac:	c59ff06f          	j	14504 <emdnorm+0xd4>
   148b0:	00049c23          	sh	zero,24(s1)
   148b4:	00049123          	sh	zero,2(s1)
   148b8:	d0dff06f          	j	145c4 <emdnorm+0x194>
   148bc:	00078a93          	mv	s5,a5
   148c0:	e45ff06f          	j	14704 <emdnorm+0x2d4>
   148c4:	00078a93          	mv	s5,a5
   148c8:	e29ff06f          	j	146f0 <emdnorm+0x2c0>

000148cc <eiremain>:
   148cc:	fd010113          	addi	sp,sp,-48
   148d0:	03212023          	sw	s2,32(sp)
   148d4:	01312e23          	sw	s3,28(sp)
   148d8:	00058913          	mv	s2,a1
   148dc:	00255983          	lhu	s3,2(a0)
   148e0:	02112623          	sw	ra,44(sp)
   148e4:	02812423          	sw	s0,40(sp)
   148e8:	02912223          	sw	s1,36(sp)
   148ec:	01412c23          	sw	s4,24(sp)
   148f0:	00060493          	mv	s1,a2
   148f4:	01712623          	sw	s7,12(sp)
   148f8:	01512a23          	sw	s5,20(sp)
   148fc:	01612823          	sw	s6,16(sp)
   14900:	01812423          	sw	s8,8(sp)
   14904:	01912223          	sw	s9,4(sp)
   14908:	01a12023          	sw	s10,0(sp)
   1490c:	00050b93          	mv	s7,a0
   14910:	df0ff0ef          	jal	ra,13f00 <enormlz>
   14914:	00295403          	lhu	s0,2(s2)
   14918:	00050793          	mv	a5,a0
   1491c:	00090513          	mv	a0,s2
   14920:	40f989b3          	sub	s3,s3,a5
   14924:	03448a13          	addi	s4,s1,52
   14928:	dd8ff0ef          	jal	ra,13f00 <enormlz>
   1492c:	40a40433          	sub	s0,s0,a0
   14930:	04e48713          	addi	a4,s1,78
   14934:	000a0793          	mv	a5,s4
   14938:	00278793          	addi	a5,a5,2
   1493c:	fe079f23          	sh	zero,-2(a5)
   14940:	fee79ce3          	bne	a5,a4,14938 <eiremain+0x6c>
   14944:	09344863          	blt	s0,s3,149d4 <eiremain+0x108>
   14948:	004b8b13          	addi	s6,s7,4
   1494c:	00490a93          	addi	s5,s2,4
   14950:	01ab8c13          	addi	s8,s7,26
   14954:	00290d13          	addi	s10,s2,2
   14958:	000a8713          	mv	a4,s5
   1495c:	000b0793          	mv	a5,s6
   14960:	0007d603          	lhu	a2,0(a5)
   14964:	00075683          	lhu	a3,0(a4)
   14968:	00278793          	addi	a5,a5,2
   1496c:	00270713          	addi	a4,a4,2
   14970:	0ad61a63          	bne	a2,a3,14a24 <eiremain+0x158>
   14974:	fefc16e3          	bne	s8,a5,14960 <eiremain+0x94>
   14978:	018b8613          	addi	a2,s7,24
   1497c:	01890713          	addi	a4,s2,24
   14980:	00000693          	li	a3,0
   14984:	00075783          	lhu	a5,0(a4)
   14988:	00065583          	lhu	a1,0(a2)
   1498c:	ffe70713          	addi	a4,a4,-2
   14990:	ffe60613          	addi	a2,a2,-2
   14994:	40b787b3          	sub	a5,a5,a1
   14998:	40d787b3          	sub	a5,a5,a3
   1499c:	0107d693          	srli	a3,a5,0x10
   149a0:	00f71123          	sh	a5,2(a4)
   149a4:	0016f693          	andi	a3,a3,1
   149a8:	fda71ee3          	bne	a4,s10,14984 <eiremain+0xb8>
   149ac:	00100c93          	li	s9,1
   149b0:	000a0513          	mv	a0,s4
   149b4:	b6cff0ef          	jal	ra,13d20 <eshup1>
   149b8:	04c4d783          	lhu	a5,76(s1)
   149bc:	fff40413          	addi	s0,s0,-1
   149c0:	00090513          	mv	a0,s2
   149c4:	00fce7b3          	or	a5,s9,a5
   149c8:	04f49623          	sh	a5,76(s1)
   149cc:	b54ff0ef          	jal	ra,13d20 <eshup1>
   149d0:	f93454e3          	bge	s0,s3,14958 <eiremain+0x8c>
   149d4:	00040693          	mv	a3,s0
   149d8:	02812403          	lw	s0,40(sp)
   149dc:	02c12083          	lw	ra,44(sp)
   149e0:	01c12983          	lw	s3,28(sp)
   149e4:	01812a03          	lw	s4,24(sp)
   149e8:	01412a83          	lw	s5,20(sp)
   149ec:	01012b03          	lw	s6,16(sp)
   149f0:	00c12b83          	lw	s7,12(sp)
   149f4:	00812c03          	lw	s8,8(sp)
   149f8:	00412c83          	lw	s9,4(sp)
   149fc:	00012d03          	lw	s10,0(sp)
   14a00:	00048793          	mv	a5,s1
   14a04:	00090513          	mv	a0,s2
   14a08:	02412483          	lw	s1,36(sp)
   14a0c:	02012903          	lw	s2,32(sp)
   14a10:	00000713          	li	a4,0
   14a14:	00000613          	li	a2,0
   14a18:	00000593          	li	a1,0
   14a1c:	03010113          	addi	sp,sp,48
   14a20:	a11ff06f          	j	14430 <emdnorm>
   14a24:	00000c93          	li	s9,0
   14a28:	f8c6e4e3          	bltu	a3,a2,149b0 <eiremain+0xe4>
   14a2c:	f4dff06f          	j	14978 <eiremain+0xac>

00014a30 <e113toe.isra.0>:
   14a30:	fd010113          	addi	sp,sp,-48
   14a34:	02812423          	sw	s0,40(sp)
   14a38:	02112623          	sw	ra,44(sp)
   14a3c:	00058413          	mv	s0,a1
   14a40:	00410793          	addi	a5,sp,4
   14a44:	01e10713          	addi	a4,sp,30
   14a48:	00278793          	addi	a5,a5,2
   14a4c:	fe079f23          	sh	zero,-2(a5)
   14a50:	fee79ce3          	bne	a5,a4,14a48 <e113toe.isra.0+0x18>
   14a54:	00e55603          	lhu	a2,14(a0)
   14a58:	000087b7          	lui	a5,0x8
   14a5c:	fff78793          	addi	a5,a5,-1 # 7fff <exit-0x8095>
   14a60:	00f65713          	srli	a4,a2,0xf
   14a64:	40e00733          	neg	a4,a4
   14a68:	00e11223          	sh	a4,4(sp)
   14a6c:	00f67633          	and	a2,a2,a5
   14a70:	06f60063          	beq	a2,a5,14ad0 <e113toe.isra.0+0xa0>
   14a74:	00e50793          	addi	a5,a0,14
   14a78:	00c11323          	sh	a2,6(sp)
   14a7c:	00a10713          	addi	a4,sp,10
   14a80:	ffe7d683          	lhu	a3,-2(a5)
   14a84:	ffe78793          	addi	a5,a5,-2
   14a88:	00270713          	addi	a4,a4,2
   14a8c:	fed71f23          	sh	a3,-2(a4)
   14a90:	fef518e3          	bne	a0,a5,14a80 <e113toe.isra.0+0x50>
   14a94:	02061263          	bnez	a2,14ab8 <e113toe.isra.0+0x88>
   14a98:	00011423          	sh	zero,8(sp)
   14a9c:	00040593          	mv	a1,s0
   14aa0:	00410513          	addi	a0,sp,4
   14aa4:	ba0ff0ef          	jal	ra,13e44 <emovo.constprop.0>
   14aa8:	02c12083          	lw	ra,44(sp)
   14aac:	02812403          	lw	s0,40(sp)
   14ab0:	03010113          	addi	sp,sp,48
   14ab4:	00008067          	ret
   14ab8:	00100793          	li	a5,1
   14abc:	fff00593          	li	a1,-1
   14ac0:	00410513          	addi	a0,sp,4
   14ac4:	00f11423          	sh	a5,8(sp)
   14ac8:	dacff0ef          	jal	ra,14074 <eshift.part.0>
   14acc:	fd1ff06f          	j	14a9c <e113toe.isra.0+0x6c>
   14ad0:	00050793          	mv	a5,a0
   14ad4:	00e50693          	addi	a3,a0,14
   14ad8:	0007d703          	lhu	a4,0(a5)
   14adc:	00278793          	addi	a5,a5,2
   14ae0:	06071c63          	bnez	a4,14b58 <e113toe.isra.0+0x128>
   14ae4:	fed79ae3          	bne	a5,a3,14ad8 <e113toe.isra.0+0xa8>
   14ae8:	01440713          	addi	a4,s0,20
   14aec:	00040793          	mv	a5,s0
   14af0:	00278793          	addi	a5,a5,2
   14af4:	fe079f23          	sh	zero,-2(a5)
   14af8:	fee79ce3          	bne	a5,a4,14af0 <e113toe.isra.0+0xc0>
   14afc:	01240713          	addi	a4,s0,18
   14b00:	00040793          	mv	a5,s0
   14b04:	00278793          	addi	a5,a5,2
   14b08:	fe079f23          	sh	zero,-2(a5)
   14b0c:	fee79ce3          	bne	a5,a4,14b04 <e113toe.isra.0+0xd4>
   14b10:	01245783          	lhu	a5,18(s0)
   14b14:	000086b7          	lui	a3,0x8
   14b18:	fff68693          	addi	a3,a3,-1 # 7fff <exit-0x8095>
   14b1c:	00d7e7b3          	or	a5,a5,a3
   14b20:	01079793          	slli	a5,a5,0x10
   14b24:	0107d793          	srli	a5,a5,0x10
   14b28:	00f41923          	sh	a5,18(s0)
   14b2c:	00e51683          	lh	a3,14(a0)
   14b30:	f606dce3          	bgez	a3,14aa8 <e113toe.isra.0+0x78>
   14b34:	00040693          	mv	a3,s0
   14b38:	0006d603          	lhu	a2,0(a3)
   14b3c:	00268693          	addi	a3,a3,2
   14b40:	f60614e3          	bnez	a2,14aa8 <e113toe.isra.0+0x78>
   14b44:	fee69ae3          	bne	a3,a4,14b38 <e113toe.isra.0+0x108>
   14b48:	ffff8737          	lui	a4,0xffff8
   14b4c:	00e7c7b3          	xor	a5,a5,a4
   14b50:	00f41923          	sh	a5,18(s0)
   14b54:	f55ff06f          	j	14aa8 <e113toe.isra.0+0x78>
   14b58:	01040713          	addi	a4,s0,16
   14b5c:	00040793          	mv	a5,s0
   14b60:	00278793          	addi	a5,a5,2
   14b64:	fe079f23          	sh	zero,-2(a5)
   14b68:	fee79ce3          	bne	a5,a4,14b60 <e113toe.isra.0+0x130>
   14b6c:	ffffc7b7          	lui	a5,0xffffc
   14b70:	00f41823          	sh	a5,16(s0)
   14b74:	ffff87b7          	lui	a5,0xffff8
   14b78:	fff7c793          	not	a5,a5
   14b7c:	00f41923          	sh	a5,18(s0)
   14b80:	f29ff06f          	j	14aa8 <e113toe.isra.0+0x78>

00014b84 <ediv>:
   14b84:	01255783          	lhu	a5,18(a0)
   14b88:	f5010113          	addi	sp,sp,-176
   14b8c:	0a812423          	sw	s0,168(sp)
   14b90:	fff7c793          	not	a5,a5
   14b94:	0a912223          	sw	s1,164(sp)
   14b98:	0b212023          	sw	s2,160(sp)
   14b9c:	09312e23          	sw	s3,156(sp)
   14ba0:	0a112623          	sw	ra,172(sp)
   14ba4:	09412c23          	sw	s4,152(sp)
   14ba8:	09512a23          	sw	s5,148(sp)
   14bac:	09612823          	sw	s6,144(sp)
   14bb0:	09712623          	sw	s7,140(sp)
   14bb4:	09812423          	sw	s8,136(sp)
   14bb8:	09912223          	sw	s9,132(sp)
   14bbc:	09a12023          	sw	s10,128(sp)
   14bc0:	07b12e23          	sw	s11,124(sp)
   14bc4:	01179713          	slli	a4,a5,0x11
   14bc8:	00050493          	mv	s1,a0
   14bcc:	00058993          	mv	s3,a1
   14bd0:	00060413          	mv	s0,a2
   14bd4:	00068913          	mv	s2,a3
   14bd8:	00071e63          	bnez	a4,14bf4 <ediv+0x70>
   14bdc:	01250693          	addi	a3,a0,18
   14be0:	00050793          	mv	a5,a0
   14be4:	0007d703          	lhu	a4,0(a5) # ffff8000 <__BSS_END__+0xfffd1518>
   14be8:	00278793          	addi	a5,a5,2
   14bec:	0e071e63          	bnez	a4,14ce8 <ediv+0x164>
   14bf0:	fed79ae3          	bne	a5,a3,14be4 <ediv+0x60>
   14bf4:	0129d783          	lhu	a5,18(s3)
   14bf8:	fff7c793          	not	a5,a5
   14bfc:	01179713          	slli	a4,a5,0x11
   14c00:	00071e63          	bnez	a4,14c1c <ediv+0x98>
   14c04:	01298693          	addi	a3,s3,18
   14c08:	00098793          	mv	a5,s3
   14c0c:	0007d703          	lhu	a4,0(a5)
   14c10:	00278793          	addi	a5,a5,2
   14c14:	0e071863          	bnez	a4,14d04 <ediv+0x180>
   14c18:	fed79ae3          	bne	a5,a3,14c0c <ediv+0x88>
   14c1c:	00025a37          	lui	s4,0x25
   14c20:	628a0593          	addi	a1,s4,1576 # 25628 <ezero>
   14c24:	00048513          	mv	a0,s1
   14c28:	ebcff0ef          	jal	ra,142e4 <ecmp>
   14c2c:	18050a63          	beqz	a0,14dc0 <ediv+0x23c>
   14c30:	0124d603          	lhu	a2,18(s1)
   14c34:	000087b7          	lui	a5,0x8
   14c38:	fff78793          	addi	a5,a5,-1 # 7fff <exit-0x8095>
   14c3c:	00f67533          	and	a0,a2,a5
   14c40:	0ef51063          	bne	a0,a5,14d20 <ediv+0x19c>
   14c44:	01248693          	addi	a3,s1,18
   14c48:	00048793          	mv	a5,s1
   14c4c:	0007d703          	lhu	a4,0(a5)
   14c50:	00278793          	addi	a5,a5,2
   14c54:	0c071663          	bnez	a4,14d20 <ediv+0x19c>
   14c58:	fed79ae3          	bne	a5,a3,14c4c <ediv+0xc8>
   14c5c:	0129d703          	lhu	a4,18(s3)
   14c60:	fff74793          	not	a5,a4
   14c64:	01179693          	slli	a3,a5,0x11
   14c68:	14069263          	bnez	a3,14dac <ediv+0x228>
   14c6c:	01298693          	addi	a3,s3,18
   14c70:	00098793          	mv	a5,s3
   14c74:	0007d583          	lhu	a1,0(a5)
   14c78:	00278793          	addi	a5,a5,2
   14c7c:	48059a63          	bnez	a1,15110 <ediv+0x58c>
   14c80:	fed79ae3          	bne	a5,a3,14c74 <ediv+0xf0>
   14c84:	01040713          	addi	a4,s0,16
   14c88:	00040793          	mv	a5,s0
   14c8c:	00278793          	addi	a5,a5,2
   14c90:	fe079f23          	sh	zero,-2(a5)
   14c94:	fee79ce3          	bne	a5,a4,14c8c <ediv+0x108>
   14c98:	ffffc7b7          	lui	a5,0xffffc
   14c9c:	00f41823          	sh	a5,16(s0)
   14ca0:	ffff87b7          	lui	a5,0xffff8
   14ca4:	fff7c793          	not	a5,a5
   14ca8:	00f41923          	sh	a5,18(s0)
   14cac:	0ac12083          	lw	ra,172(sp)
   14cb0:	0a812403          	lw	s0,168(sp)
   14cb4:	0a412483          	lw	s1,164(sp)
   14cb8:	0a012903          	lw	s2,160(sp)
   14cbc:	09c12983          	lw	s3,156(sp)
   14cc0:	09812a03          	lw	s4,152(sp)
   14cc4:	09412a83          	lw	s5,148(sp)
   14cc8:	09012b03          	lw	s6,144(sp)
   14ccc:	08c12b83          	lw	s7,140(sp)
   14cd0:	08812c03          	lw	s8,136(sp)
   14cd4:	08412c83          	lw	s9,132(sp)
   14cd8:	08012d03          	lw	s10,128(sp)
   14cdc:	07c12d83          	lw	s11,124(sp)
   14ce0:	0b010113          	addi	sp,sp,176
   14ce4:	00008067          	ret
   14ce8:	01448713          	addi	a4,s1,20
   14cec:	0004d783          	lhu	a5,0(s1)
   14cf0:	00248493          	addi	s1,s1,2
   14cf4:	00240413          	addi	s0,s0,2
   14cf8:	fef41f23          	sh	a5,-2(s0)
   14cfc:	fee498e3          	bne	s1,a4,14cec <ediv+0x168>
   14d00:	fadff06f          	j	14cac <ediv+0x128>
   14d04:	01440713          	addi	a4,s0,20
   14d08:	0009d783          	lhu	a5,0(s3)
   14d0c:	00240413          	addi	s0,s0,2
   14d10:	00298993          	addi	s3,s3,2
   14d14:	fef41f23          	sh	a5,-2(s0)
   14d18:	fee418e3          	bne	s0,a4,14d08 <ediv+0x184>
   14d1c:	f91ff06f          	j	14cac <ediv+0x128>
   14d20:	0129d703          	lhu	a4,18(s3)
   14d24:	fff74793          	not	a5,a4
   14d28:	01179693          	slli	a3,a5,0x11
   14d2c:	0a069463          	bnez	a3,14dd4 <ediv+0x250>
   14d30:	00000813          	li	a6,0
   14d34:	01298693          	addi	a3,s3,18
   14d38:	00098793          	mv	a5,s3
   14d3c:	0007d583          	lhu	a1,0(a5) # ffff8000 <__BSS_END__+0xfffd1518>
   14d40:	00278793          	addi	a5,a5,2
   14d44:	06059263          	bnez	a1,14da8 <ediv+0x224>
   14d48:	fed79ae3          	bne	a5,a3,14d3c <ediv+0x1b8>
   14d4c:	000087b7          	lui	a5,0x8
   14d50:	fff78793          	addi	a5,a5,-1 # 7fff <exit-0x8095>
   14d54:	0cf50863          	beq	a0,a5,14e24 <ediv+0x2a0>
   14d58:	00f65613          	srli	a2,a2,0xf
   14d5c:	0009d783          	lhu	a5,0(s3)
   14d60:	00298993          	addi	s3,s3,2
   14d64:	38079e63          	bnez	a5,15100 <ediv+0x57c>
   14d68:	fed99ae3          	bne	s3,a3,14d5c <ediv+0x1d8>
   14d6c:	00f75793          	srli	a5,a4,0xf
   14d70:	00c7c7b3          	xor	a5,a5,a2
   14d74:	00f79793          	slli	a5,a5,0xf
   14d78:	00f41923          	sh	a5,18(s0)
   14d7c:	01240713          	addi	a4,s0,18
   14d80:	00040793          	mv	a5,s0
   14d84:	00278793          	addi	a5,a5,2
   14d88:	fe079f23          	sh	zero,-2(a5)
   14d8c:	fee79ce3          	bne	a5,a4,14d84 <ediv+0x200>
   14d90:	01245783          	lhu	a5,18(s0)
   14d94:	00008737          	lui	a4,0x8
   14d98:	fff70713          	addi	a4,a4,-1 # 7fff <exit-0x8095>
   14d9c:	00e7e7b3          	or	a5,a5,a4
   14da0:	00f41923          	sh	a5,18(s0)
   14da4:	f09ff06f          	j	14cac <ediv+0x128>
   14da8:	02080663          	beqz	a6,14dd4 <ediv+0x250>
   14dac:	01440793          	addi	a5,s0,20
   14db0:	00240413          	addi	s0,s0,2
   14db4:	fe041f23          	sh	zero,-2(s0)
   14db8:	fef41ce3          	bne	s0,a5,14db0 <ediv+0x22c>
   14dbc:	ef1ff06f          	j	14cac <ediv+0x128>
   14dc0:	628a0593          	addi	a1,s4,1576
   14dc4:	00098513          	mv	a0,s3
   14dc8:	d1cff0ef          	jal	ra,142e4 <ecmp>
   14dcc:	e60512e3          	bnez	a0,14c30 <ediv+0xac>
   14dd0:	eb5ff06f          	j	14c84 <ediv+0x100>
   14dd4:	01c10593          	addi	a1,sp,28
   14dd8:	00048513          	mv	a0,s1
   14ddc:	c54ff0ef          	jal	ra,14230 <emovi>
   14de0:	03810593          	addi	a1,sp,56
   14de4:	00098513          	mv	a0,s3
   14de8:	c48ff0ef          	jal	ra,14230 <emovi>
   14dec:	03a15b03          	lhu	s6,58(sp)
   14df0:	01e15c03          	lhu	s8,30(sp)
   14df4:	040b1463          	bnez	s6,14e3c <ediv+0x2b8>
   14df8:	03a10793          	addi	a5,sp,58
   14dfc:	05010c93          	addi	s9,sp,80
   14e00:	0007d703          	lhu	a4,0(a5)
   14e04:	00278793          	addi	a5,a5,2
   14e08:	2c071863          	bnez	a4,150d8 <ediv+0x554>
   14e0c:	fefc9ae3          	bne	s9,a5,14e00 <ediv+0x27c>
   14e10:	01440793          	addi	a5,s0,20
   14e14:	00240413          	addi	s0,s0,2
   14e18:	fe041f23          	sh	zero,-2(s0)
   14e1c:	fef41ce3          	bne	s0,a5,14e14 <ediv+0x290>
   14e20:	e8dff06f          	j	14cac <ediv+0x128>
   14e24:	01248593          	addi	a1,s1,18
   14e28:	0004d783          	lhu	a5,0(s1)
   14e2c:	00248493          	addi	s1,s1,2
   14e30:	2c079c63          	bnez	a5,15108 <ediv+0x584>
   14e34:	feb49ae3          	bne	s1,a1,14e28 <ediv+0x2a4>
   14e38:	f21ff06f          	j	14d58 <ediv+0x1d4>
   14e3c:	01612223          	sw	s6,4(sp)
   14e40:	040c1663          	bnez	s8,14e8c <ediv+0x308>
   14e44:	01e10793          	addi	a5,sp,30
   14e48:	03410693          	addi	a3,sp,52
   14e4c:	0007d703          	lhu	a4,0(a5)
   14e50:	00278793          	addi	a5,a5,2
   14e54:	28071c63          	bnez	a4,150ec <ediv+0x568>
   14e58:	fed79ae3          	bne	a5,a3,14e4c <ediv+0x2c8>
   14e5c:	01c15683          	lhu	a3,28(sp)
   14e60:	03815603          	lhu	a2,56(sp)
   14e64:	01240713          	addi	a4,s0,18
   14e68:	00040793          	mv	a5,s0
   14e6c:	40c686b3          	sub	a3,a3,a2
   14e70:	00d036b3          	snez	a3,a3
   14e74:	00f69693          	slli	a3,a3,0xf
   14e78:	00d41923          	sh	a3,18(s0)
   14e7c:	00278793          	addi	a5,a5,2
   14e80:	fe079f23          	sh	zero,-2(a5)
   14e84:	fee79ce3          	bne	a5,a4,14e7c <ediv+0x2f8>
   14e88:	f09ff06f          	j	14d90 <ediv+0x20c>
   14e8c:	01812423          	sw	s8,8(sp)
   14e90:	03490793          	addi	a5,s2,52
   14e94:	00f12623          	sw	a5,12(sp)
   14e98:	03812783          	lw	a5,56(sp)
   14e9c:	03890493          	addi	s1,s2,56
   14ea0:	04e90993          	addi	s3,s2,78
   14ea4:	02f92a23          	sw	a5,52(s2)
   14ea8:	00048793          	mv	a5,s1
   14eac:	00278793          	addi	a5,a5,2
   14eb0:	fe079f23          	sh	zero,-2(a5)
   14eb4:	ff379ce3          	bne	a5,s3,14eac <ediv+0x328>
   14eb8:	03810513          	addi	a0,sp,56
   14ebc:	e11fe0ef          	jal	ra,13ccc <eshdn1>
   14ec0:	02215b83          	lhu	s7,34(sp)
   14ec4:	00010a37          	lui	s4,0x10
   14ec8:	03a10d13          	addi	s10,sp,58
   14ecc:	010b9a93          	slli	s5,s7,0x10
   14ed0:	417a8ab3          	sub	s5,s5,s7
   14ed4:	05010c93          	addi	s9,sp,80
   14ed8:	fffa0a13          	addi	s4,s4,-1 # ffff <exit-0x95>
   14edc:	06e10d93          	addi	s11,sp,110
   14ee0:	05610c13          	addi	s8,sp,86
   14ee4:	03c15503          	lhu	a0,60(sp)
   14ee8:	03e15783          	lhu	a5,62(sp)
   14eec:	000a0b13          	mv	s6,s4
   14ef0:	01051513          	slli	a0,a0,0x10
   14ef4:	00f50533          	add	a0,a0,a5
   14ef8:	00aaea63          	bltu	s5,a0,14f0c <ediv+0x388>
   14efc:	000b8593          	mv	a1,s7
   14f00:	064100ef          	jal	ra,24f64 <__hidden___udivsi3>
   14f04:	01051b13          	slli	s6,a0,0x10
   14f08:	010b5b13          	srli	s6,s6,0x10
   14f0c:	05410613          	addi	a2,sp,84
   14f10:	01c10593          	addi	a1,sp,28
   14f14:	000b0513          	mv	a0,s6
   14f18:	e5dfe0ef          	jal	ra,13d74 <m16m>
   14f1c:	03c10713          	addi	a4,sp,60
   14f20:	05810793          	addi	a5,sp,88
   14f24:	0007d603          	lhu	a2,0(a5)
   14f28:	00075683          	lhu	a3,0(a4)
   14f2c:	00278793          	addi	a5,a5,2
   14f30:	00270713          	addi	a4,a4,2
   14f34:	0ed61863          	bne	a2,a3,15024 <ediv+0x4a0>
   14f38:	ffb796e3          	bne	a5,s11,14f24 <ediv+0x3a0>
   14f3c:	00000693          	li	a3,0
   14f40:	06c10613          	addi	a2,sp,108
   14f44:	000c8793          	mv	a5,s9
   14f48:	0007d703          	lhu	a4,0(a5)
   14f4c:	00065583          	lhu	a1,0(a2)
   14f50:	ffe78793          	addi	a5,a5,-2
   14f54:	ffe60613          	addi	a2,a2,-2
   14f58:	40b70733          	sub	a4,a4,a1
   14f5c:	40d70733          	sub	a4,a4,a3
   14f60:	01075693          	srli	a3,a4,0x10
   14f64:	00e79123          	sh	a4,2(a5)
   14f68:	0016f693          	andi	a3,a3,1
   14f6c:	fda79ee3          	bne	a5,s10,14f48 <ediv+0x3c4>
   14f70:	01649023          	sh	s6,0(s1)
   14f74:	03c10793          	addi	a5,sp,60
   14f78:	0027d703          	lhu	a4,2(a5)
   14f7c:	00278793          	addi	a5,a5,2
   14f80:	fee79f23          	sh	a4,-2(a5)
   14f84:	ff979ae3          	bne	a5,s9,14f78 <ediv+0x3f4>
   14f88:	04011823          	sh	zero,80(sp)
   14f8c:	00248493          	addi	s1,s1,2
   14f90:	f4999ae3          	bne	s3,s1,14ee4 <ediv+0x360>
   14f94:	00000713          	li	a4,0
   14f98:	03c10793          	addi	a5,sp,60
   14f9c:	05210693          	addi	a3,sp,82
   14fa0:	0007d603          	lhu	a2,0(a5)
   14fa4:	00278793          	addi	a5,a5,2
   14fa8:	00c76733          	or	a4,a4,a2
   14fac:	fed79ae3          	bne	a5,a3,14fa0 <ediv+0x41c>
   14fb0:	00c12483          	lw	s1,12(sp)
   14fb4:	00e035b3          	snez	a1,a4
   14fb8:	03810793          	addi	a5,sp,56
   14fbc:	0004d703          	lhu	a4,0(s1)
   14fc0:	00278793          	addi	a5,a5,2
   14fc4:	00248493          	addi	s1,s1,2
   14fc8:	fee79f23          	sh	a4,-2(a5)
   14fcc:	fef698e3          	bne	a3,a5,14fbc <ediv+0x438>
   14fd0:	00412783          	lw	a5,4(sp)
   14fd4:	00812703          	lw	a4,8(sp)
   14fd8:	000046b7          	lui	a3,0x4
   14fdc:	fff68693          	addi	a3,a3,-1 # 3fff <exit-0xc095>
   14fe0:	40e78b33          	sub	s6,a5,a4
   14fe4:	03810513          	addi	a0,sp,56
   14fe8:	00090793          	mv	a5,s2
   14fec:	04000713          	li	a4,64
   14ff0:	00db06b3          	add	a3,s6,a3
   14ff4:	00000613          	li	a2,0
   14ff8:	c38ff0ef          	jal	ra,14430 <emdnorm>
   14ffc:	03815703          	lhu	a4,56(sp)
   15000:	01c15783          	lhu	a5,28(sp)
   15004:	00040593          	mv	a1,s0
   15008:	03810513          	addi	a0,sp,56
   1500c:	40e787b3          	sub	a5,a5,a4
   15010:	00f037b3          	snez	a5,a5
   15014:	40f007b3          	neg	a5,a5
   15018:	02f11c23          	sh	a5,56(sp)
   1501c:	e29fe0ef          	jal	ra,13e44 <emovo.constprop.0>
   15020:	c8dff06f          	j	14cac <ediv+0x128>
   15024:	f0c6fce3          	bgeu	a3,a2,14f3c <ediv+0x3b8>
   15028:	fffb0793          	addi	a5,s6,-1
   1502c:	01079513          	slli	a0,a5,0x10
   15030:	01055513          	srli	a0,a0,0x10
   15034:	00000693          	li	a3,0
   15038:	03410613          	addi	a2,sp,52
   1503c:	06c10713          	addi	a4,sp,108
   15040:	00075783          	lhu	a5,0(a4)
   15044:	00065583          	lhu	a1,0(a2)
   15048:	ffe70713          	addi	a4,a4,-2
   1504c:	ffe60613          	addi	a2,a2,-2
   15050:	40b787b3          	sub	a5,a5,a1
   15054:	40d787b3          	sub	a5,a5,a3
   15058:	0107d693          	srli	a3,a5,0x10
   1505c:	00f71123          	sh	a5,2(a4)
   15060:	0016f693          	andi	a3,a3,1
   15064:	fd871ee3          	bne	a4,s8,15040 <ediv+0x4bc>
   15068:	03c10713          	addi	a4,sp,60
   1506c:	05810793          	addi	a5,sp,88
   15070:	0007d603          	lhu	a2,0(a5)
   15074:	00075683          	lhu	a3,0(a4)
   15078:	00278793          	addi	a5,a5,2
   1507c:	00270713          	addi	a4,a4,2
   15080:	00d61863          	bne	a2,a3,15090 <ediv+0x50c>
   15084:	ffb796e3          	bne	a5,s11,15070 <ediv+0x4ec>
   15088:	00050b13          	mv	s6,a0
   1508c:	eb1ff06f          	j	14f3c <ediv+0x3b8>
   15090:	fec6fce3          	bgeu	a3,a2,15088 <ediv+0x504>
   15094:	ffeb0313          	addi	t1,s6,-2
   15098:	01031b13          	slli	s6,t1,0x10
   1509c:	010b5b13          	srli	s6,s6,0x10
   150a0:	00000693          	li	a3,0
   150a4:	03410613          	addi	a2,sp,52
   150a8:	06c10713          	addi	a4,sp,108
   150ac:	00075783          	lhu	a5,0(a4)
   150b0:	00065583          	lhu	a1,0(a2)
   150b4:	ffe70713          	addi	a4,a4,-2
   150b8:	ffe60613          	addi	a2,a2,-2
   150bc:	40b787b3          	sub	a5,a5,a1
   150c0:	40d787b3          	sub	a5,a5,a3
   150c4:	0107d693          	srli	a3,a5,0x10
   150c8:	00f71123          	sh	a5,2(a4)
   150cc:	0016f693          	andi	a3,a3,1
   150d0:	fd871ee3          	bne	a4,s8,150ac <ediv+0x528>
   150d4:	e69ff06f          	j	14f3c <ediv+0x3b8>
   150d8:	03810513          	addi	a0,sp,56
   150dc:	e25fe0ef          	jal	ra,13f00 <enormlz>
   150e0:	40a007b3          	neg	a5,a0
   150e4:	00f12223          	sw	a5,4(sp)
   150e8:	d59ff06f          	j	14e40 <ediv+0x2bc>
   150ec:	01c10513          	addi	a0,sp,28
   150f0:	e11fe0ef          	jal	ra,13f00 <enormlz>
   150f4:	40a007b3          	neg	a5,a0
   150f8:	00f12423          	sw	a5,8(sp)
   150fc:	d95ff06f          	j	14e90 <ediv+0x30c>
   15100:	00000793          	li	a5,0
   15104:	c6dff06f          	j	14d70 <ediv+0x1ec>
   15108:	00000613          	li	a2,0
   1510c:	c51ff06f          	j	14d5c <ediv+0x1d8>
   15110:	00100813          	li	a6,1
   15114:	c25ff06f          	j	14d38 <ediv+0x1b4>

00015118 <emul>:
   15118:	01255803          	lhu	a6,18(a0)
   1511c:	00008737          	lui	a4,0x8
   15120:	f7010113          	addi	sp,sp,-144
   15124:	fff70713          	addi	a4,a4,-1 # 7fff <exit-0x8095>
   15128:	08812423          	sw	s0,136(sp)
   1512c:	08912223          	sw	s1,132(sp)
   15130:	09212023          	sw	s2,128(sp)
   15134:	07512a23          	sw	s5,116(sp)
   15138:	00050493          	mv	s1,a0
   1513c:	08112623          	sw	ra,140(sp)
   15140:	07312e23          	sw	s3,124(sp)
   15144:	07412c23          	sw	s4,120(sp)
   15148:	07612823          	sw	s6,112(sp)
   1514c:	07712623          	sw	s7,108(sp)
   15150:	07812423          	sw	s8,104(sp)
   15154:	07912223          	sw	s9,100(sp)
   15158:	07a12023          	sw	s10,96(sp)
   1515c:	00e87533          	and	a0,a6,a4
   15160:	00058913          	mv	s2,a1
   15164:	00060413          	mv	s0,a2
   15168:	00068a93          	mv	s5,a3
   1516c:	16e51e63          	bne	a0,a4,152e8 <emul+0x1d0>
   15170:	01248993          	addi	s3,s1,18
   15174:	00048713          	mv	a4,s1
   15178:	00075603          	lhu	a2,0(a4)
   1517c:	00270713          	addi	a4,a4,2
   15180:	1e061c63          	bnez	a2,15378 <emul+0x260>
   15184:	ff371ae3          	bne	a4,s3,15178 <emul+0x60>
   15188:	01295603          	lhu	a2,18(s2)
   1518c:	fff64793          	not	a5,a2
   15190:	01179713          	slli	a4,a5,0x11
   15194:	16070063          	beqz	a4,152f4 <emul+0x1dc>
   15198:	00048793          	mv	a5,s1
   1519c:	0007d703          	lhu	a4,0(a5)
   151a0:	00278793          	addi	a5,a5,2
   151a4:	28071063          	bnez	a4,15424 <emul+0x30c>
   151a8:	ff379ae3          	bne	a5,s3,1519c <emul+0x84>
   151ac:	000255b7          	lui	a1,0x25
   151b0:	62858593          	addi	a1,a1,1576 # 25628 <ezero>
   151b4:	00090513          	mv	a0,s2
   151b8:	92cff0ef          	jal	ra,142e4 <ecmp>
   151bc:	28050063          	beqz	a0,1543c <emul+0x324>
   151c0:	01295603          	lhu	a2,18(s2)
   151c4:	00008737          	lui	a4,0x8
   151c8:	fff70713          	addi	a4,a4,-1 # 7fff <exit-0x8095>
   151cc:	00e676b3          	and	a3,a2,a4
   151d0:	01290793          	addi	a5,s2,18
   151d4:	40e69263          	bne	a3,a4,155d8 <emul+0x4c0>
   151d8:	00090713          	mv	a4,s2
   151dc:	00075683          	lhu	a3,0(a4)
   151e0:	00270713          	addi	a4,a4,2
   151e4:	1e069c63          	bnez	a3,153dc <emul+0x2c4>
   151e8:	fef71ae3          	bne	a4,a5,151dc <emul+0xc4>
   151ec:	000255b7          	lui	a1,0x25
   151f0:	62858593          	addi	a1,a1,1576 # 25628 <ezero>
   151f4:	00048513          	mv	a0,s1
   151f8:	8ecff0ef          	jal	ra,142e4 <ecmp>
   151fc:	24050063          	beqz	a0,1543c <emul+0x324>
   15200:	0124d803          	lhu	a6,18(s1)
   15204:	01295603          	lhu	a2,18(s2)
   15208:	000087b7          	lui	a5,0x8
   1520c:	fff78793          	addi	a5,a5,-1 # 7fff <exit-0x8095>
   15210:	00f87733          	and	a4,a6,a5
   15214:	00f676b3          	and	a3,a2,a5
   15218:	1cf70c63          	beq	a4,a5,153f0 <emul+0x2d8>
   1521c:	00068593          	mv	a1,a3
   15220:	00070693          	mv	a3,a4
   15224:	000087b7          	lui	a5,0x8
   15228:	fff78793          	addi	a5,a5,-1 # 7fff <exit-0x8095>
   1522c:	0ef59c63          	bne	a1,a5,15324 <emul+0x20c>
   15230:	01290793          	addi	a5,s2,18
   15234:	00090713          	mv	a4,s2
   15238:	00075583          	lhu	a1,0(a4)
   1523c:	00270713          	addi	a4,a4,2
   15240:	0e059263          	bnez	a1,15324 <emul+0x20c>
   15244:	fee79ae3          	bne	a5,a4,15238 <emul+0x120>
   15248:	00008737          	lui	a4,0x8
   1524c:	fff70713          	addi	a4,a4,-1 # 7fff <exit-0x8095>
   15250:	01248993          	addi	s3,s1,18
   15254:	20e69a63          	bne	a3,a4,15468 <emul+0x350>
   15258:	0004d783          	lhu	a5,0(s1)
   1525c:	00248493          	addi	s1,s1,2
   15260:	20079c63          	bnez	a5,15478 <emul+0x360>
   15264:	fe999ae3          	bne	s3,s1,15258 <emul+0x140>
   15268:	00f85813          	srli	a6,a6,0xf
   1526c:	000087b7          	lui	a5,0x8
   15270:	fff78793          	addi	a5,a5,-1 # 7fff <exit-0x8095>
   15274:	18f68c63          	beq	a3,a5,1540c <emul+0x2f4>
   15278:	00f65793          	srli	a5,a2,0xf
   1527c:	0107c7b3          	xor	a5,a5,a6
   15280:	00f79793          	slli	a5,a5,0xf
   15284:	00f41923          	sh	a5,18(s0)
   15288:	01240713          	addi	a4,s0,18
   1528c:	00040793          	mv	a5,s0
   15290:	00278793          	addi	a5,a5,2
   15294:	fe079f23          	sh	zero,-2(a5)
   15298:	fee79ce3          	bne	a5,a4,15290 <emul+0x178>
   1529c:	01245783          	lhu	a5,18(s0)
   152a0:	00008737          	lui	a4,0x8
   152a4:	fff70713          	addi	a4,a4,-1 # 7fff <exit-0x8095>
   152a8:	00e7e7b3          	or	a5,a5,a4
   152ac:	00f41923          	sh	a5,18(s0)
   152b0:	08c12083          	lw	ra,140(sp)
   152b4:	08812403          	lw	s0,136(sp)
   152b8:	08412483          	lw	s1,132(sp)
   152bc:	08012903          	lw	s2,128(sp)
   152c0:	07c12983          	lw	s3,124(sp)
   152c4:	07812a03          	lw	s4,120(sp)
   152c8:	07412a83          	lw	s5,116(sp)
   152cc:	07012b03          	lw	s6,112(sp)
   152d0:	06c12b83          	lw	s7,108(sp)
   152d4:	06812c03          	lw	s8,104(sp)
   152d8:	06412c83          	lw	s9,100(sp)
   152dc:	06012d03          	lw	s10,96(sp)
   152e0:	09010113          	addi	sp,sp,144
   152e4:	00008067          	ret
   152e8:	0125d603          	lhu	a2,18(a1)
   152ec:	00e677b3          	and	a5,a2,a4
   152f0:	02e79a63          	bne	a5,a4,15324 <emul+0x20c>
   152f4:	01290793          	addi	a5,s2,18
   152f8:	00090713          	mv	a4,s2
   152fc:	00075683          	lhu	a3,0(a4)
   15300:	00270713          	addi	a4,a4,2
   15304:	08069863          	bnez	a3,15394 <emul+0x27c>
   15308:	fef71ae3          	bne	a4,a5,152fc <emul+0x1e4>
   1530c:	00008737          	lui	a4,0x8
   15310:	fff70713          	addi	a4,a4,-1 # 7fff <exit-0x8095>
   15314:	01248993          	addi	s3,s1,18
   15318:	e8e500e3          	beq	a0,a4,15198 <emul+0x80>
   1531c:	00e676b3          	and	a3,a2,a4
   15320:	eae68ce3          	beq	a3,a4,151d8 <emul+0xc0>
   15324:	00048513          	mv	a0,s1
   15328:	00c10593          	addi	a1,sp,12
   1532c:	f05fe0ef          	jal	ra,14230 <emovi>
   15330:	00090513          	mv	a0,s2
   15334:	02810593          	addi	a1,sp,40
   15338:	ef9fe0ef          	jal	ra,14230 <emovi>
   1533c:	00e15903          	lhu	s2,14(sp)
   15340:	02a15483          	lhu	s1,42(sp)
   15344:	06090663          	beqz	s2,153b0 <emul+0x298>
   15348:	14049463          	bnez	s1,15490 <emul+0x378>
   1534c:	02a10793          	addi	a5,sp,42
   15350:	04010693          	addi	a3,sp,64
   15354:	0007d703          	lhu	a4,0(a5)
   15358:	00278793          	addi	a5,a5,2
   1535c:	26071463          	bnez	a4,155c4 <emul+0x4ac>
   15360:	fed79ae3          	bne	a5,a3,15354 <emul+0x23c>
   15364:	01440793          	addi	a5,s0,20
   15368:	00240413          	addi	s0,s0,2
   1536c:	fe041f23          	sh	zero,-2(s0)
   15370:	fe879ce3          	bne	a5,s0,15368 <emul+0x250>
   15374:	f3dff06f          	j	152b0 <emul+0x198>
   15378:	01440713          	addi	a4,s0,20
   1537c:	0004d783          	lhu	a5,0(s1)
   15380:	00240413          	addi	s0,s0,2
   15384:	00248493          	addi	s1,s1,2
   15388:	fef41f23          	sh	a5,-2(s0)
   1538c:	fee418e3          	bne	s0,a4,1537c <emul+0x264>
   15390:	f21ff06f          	j	152b0 <emul+0x198>
   15394:	01490713          	addi	a4,s2,20
   15398:	00095783          	lhu	a5,0(s2)
   1539c:	00290913          	addi	s2,s2,2
   153a0:	00240413          	addi	s0,s0,2
   153a4:	fef41f23          	sh	a5,-2(s0)
   153a8:	ff2718e3          	bne	a4,s2,15398 <emul+0x280>
   153ac:	f05ff06f          	j	152b0 <emul+0x198>
   153b0:	00e10793          	addi	a5,sp,14
   153b4:	02410693          	addi	a3,sp,36
   153b8:	0007d703          	lhu	a4,0(a5)
   153bc:	00278793          	addi	a5,a5,2
   153c0:	1e071a63          	bnez	a4,155b4 <emul+0x49c>
   153c4:	fef69ae3          	bne	a3,a5,153b8 <emul+0x2a0>
   153c8:	01440793          	addi	a5,s0,20
   153cc:	00240413          	addi	s0,s0,2
   153d0:	fe041f23          	sh	zero,-2(s0)
   153d4:	fef41ce3          	bne	s0,a5,153cc <emul+0x2b4>
   153d8:	ed9ff06f          	j	152b0 <emul+0x198>
   153dc:	0124d803          	lhu	a6,18(s1)
   153e0:	00008737          	lui	a4,0x8
   153e4:	fff70713          	addi	a4,a4,-1 # 7fff <exit-0x8095>
   153e8:	00e876b3          	and	a3,a6,a4
   153ec:	e4e694e3          	bne	a3,a4,15234 <emul+0x11c>
   153f0:	01248993          	addi	s3,s1,18
   153f4:	00048793          	mv	a5,s1
   153f8:	0007d703          	lhu	a4,0(a5)
   153fc:	00278793          	addi	a5,a5,2
   15400:	08071063          	bnez	a4,15480 <emul+0x368>
   15404:	fef99ae3          	bne	s3,a5,153f8 <emul+0x2e0>
   15408:	e51ff06f          	j	15258 <emul+0x140>
   1540c:	01290793          	addi	a5,s2,18
   15410:	00095703          	lhu	a4,0(s2)
   15414:	00290913          	addi	s2,s2,2
   15418:	04071c63          	bnez	a4,15470 <emul+0x358>
   1541c:	ff279ae3          	bne	a5,s2,15410 <emul+0x2f8>
   15420:	e59ff06f          	j	15278 <emul+0x160>
   15424:	00008737          	lui	a4,0x8
   15428:	fff70713          	addi	a4,a4,-1 # 7fff <exit-0x8095>
   1542c:	00e676b3          	and	a3,a2,a4
   15430:	01290793          	addi	a5,s2,18
   15434:	dae682e3          	beq	a3,a4,151d8 <emul+0xc0>
   15438:	fbdff06f          	j	153f4 <emul+0x2dc>
   1543c:	01040713          	addi	a4,s0,16
   15440:	00040793          	mv	a5,s0
   15444:	00278793          	addi	a5,a5,2
   15448:	fe079f23          	sh	zero,-2(a5)
   1544c:	fee79ce3          	bne	a5,a4,15444 <emul+0x32c>
   15450:	ffffc7b7          	lui	a5,0xffffc
   15454:	00f41823          	sh	a5,16(s0)
   15458:	ffff87b7          	lui	a5,0xffff8
   1545c:	fff7c793          	not	a5,a5
   15460:	00f41923          	sh	a5,18(s0)
   15464:	e4dff06f          	j	152b0 <emul+0x198>
   15468:	00f85813          	srli	a6,a6,0xf
   1546c:	fa5ff06f          	j	15410 <emul+0x2f8>
   15470:	00000793          	li	a5,0
   15474:	e09ff06f          	j	1527c <emul+0x164>
   15478:	00000813          	li	a6,0
   1547c:	df1ff06f          	j	1526c <emul+0x154>
   15480:	00068593          	mv	a1,a3
   15484:	000086b7          	lui	a3,0x8
   15488:	fff68693          	addi	a3,a3,-1 # 7fff <exit-0x8095>
   1548c:	d99ff06f          	j	15224 <emul+0x10c>
   15490:	00048993          	mv	s3,s1
   15494:	02815783          	lhu	a5,40(sp)
   15498:	01049493          	slli	s1,s1,0x10
   1549c:	038a8a13          	addi	s4,s5,56
   154a0:	0097e7b3          	or	a5,a5,s1
   154a4:	02faaa23          	sw	a5,52(s5)
   154a8:	034a8493          	addi	s1,s5,52
   154ac:	000a0793          	mv	a5,s4
   154b0:	04ea8713          	addi	a4,s5,78
   154b4:	00079023          	sh	zero,0(a5) # ffff8000 <__BSS_END__+0xfffd1518>
   154b8:	00278793          	addi	a5,a5,2
   154bc:	fee79ce3          	bne	a5,a4,154b4 <emul+0x39c>
   154c0:	04ca8c93          	addi	s9,s5,76
   154c4:	00000c13          	li	s8,0
   154c8:	02410b13          	addi	s6,sp,36
   154cc:	01010d13          	addi	s10,sp,16
   154d0:	04610b93          	addi	s7,sp,70
   154d4:	000b5503          	lhu	a0,0(s6)
   154d8:	ffeb0b13          	addi	s6,s6,-2
   154dc:	08051a63          	bnez	a0,15570 <emul+0x458>
   154e0:	04cad783          	lhu	a5,76(s5)
   154e4:	000c8713          	mv	a4,s9
   154e8:	00fc6c33          	or	s8,s8,a5
   154ec:	ffe75603          	lhu	a2,-2(a4)
   154f0:	ffe70713          	addi	a4,a4,-2
   154f4:	00c71123          	sh	a2,2(a4)
   154f8:	feea1ae3          	bne	s4,a4,154ec <emul+0x3d4>
   154fc:	020a9c23          	sh	zero,56(s5)
   15500:	fdab1ae3          	bne	s6,s10,154d4 <emul+0x3bc>
   15504:	02810793          	addi	a5,sp,40
   15508:	04210693          	addi	a3,sp,66
   1550c:	0004d703          	lhu	a4,0(s1)
   15510:	00278793          	addi	a5,a5,2
   15514:	00248493          	addi	s1,s1,2
   15518:	fee79f23          	sh	a4,-2(a5)
   1551c:	fef698e3          	bne	a3,a5,1550c <emul+0x3f4>
   15520:	ffffc6b7          	lui	a3,0xffffc
   15524:	01390933          	add	s2,s2,s3
   15528:	00268693          	addi	a3,a3,2 # ffffc002 <__BSS_END__+0xfffd551a>
   1552c:	000c0593          	mv	a1,s8
   15530:	02810513          	addi	a0,sp,40
   15534:	000a8793          	mv	a5,s5
   15538:	04000713          	li	a4,64
   1553c:	00d906b3          	add	a3,s2,a3
   15540:	00000613          	li	a2,0
   15544:	eedfe0ef          	jal	ra,14430 <emdnorm>
   15548:	02815703          	lhu	a4,40(sp)
   1554c:	00c15783          	lhu	a5,12(sp)
   15550:	00040593          	mv	a1,s0
   15554:	02810513          	addi	a0,sp,40
   15558:	40e787b3          	sub	a5,a5,a4
   1555c:	00f037b3          	snez	a5,a5
   15560:	40f007b3          	neg	a5,a5
   15564:	02f11423          	sh	a5,40(sp)
   15568:	8ddfe0ef          	jal	ra,13e44 <emovo.constprop.0>
   1556c:	d45ff06f          	j	152b0 <emul+0x198>
   15570:	04410613          	addi	a2,sp,68
   15574:	02810593          	addi	a1,sp,40
   15578:	ffcfe0ef          	jal	ra,13d74 <m16m>
   1557c:	000c8513          	mv	a0,s9
   15580:	00000593          	li	a1,0
   15584:	05c10613          	addi	a2,sp,92
