
./08_c_program_to_demonstrate_the_working_of_keyword_long.elf:     file format elf32-littleriscv


Disassembly of section .text:

00010094 <exit>:
   10094:	ff010113          	addi	sp,sp,-16
   10098:	00000593          	li	a1,0
   1009c:	00812423          	sw	s0,8(sp)
   100a0:	00112623          	sw	ra,12(sp)
   100a4:	00050413          	mv	s0,a0
   100a8:	659020ef          	jal	ra,12f00 <__call_exitprocs>
   100ac:	1b81a503          	lw	a0,440(gp) # 26a78 <_global_impure_ptr>
   100b0:	03c52783          	lw	a5,60(a0)
   100b4:	00078463          	beqz	a5,100bc <exit+0x28>
   100b8:	000780e7          	jalr	a5
   100bc:	00040513          	mv	a0,s0
   100c0:	6150f0ef          	jal	ra,1fed4 <_exit>

000100c4 <register_fini>:
   100c4:	00000793          	li	a5,0
   100c8:	00078863          	beqz	a5,100d8 <register_fini+0x14>
   100cc:	00013537          	lui	a0,0x13
   100d0:	6f050513          	addi	a0,a0,1776 # 136f0 <__libc_fini_array>
   100d4:	74d0206f          	j	13020 <atexit>
   100d8:	00008067          	ret

000100dc <_start>:
   100dc:	00016197          	auipc	gp,0x16
   100e0:	7e418193          	addi	gp,gp,2020 # 268c0 <__global_pointer$>
   100e4:	1cc18513          	addi	a0,gp,460 # 26a8c <__malloc_max_total_mem>
   100e8:	22818613          	addi	a2,gp,552 # 26ae8 <__BSS_END__>
   100ec:	40a60633          	sub	a2,a2,a0
   100f0:	00000593          	li	a1,0
   100f4:	19c000ef          	jal	ra,10290 <memset>
   100f8:	00003517          	auipc	a0,0x3
   100fc:	f2850513          	addi	a0,a0,-216 # 13020 <atexit>
   10100:	00050863          	beqz	a0,10110 <_start+0x34>
   10104:	00003517          	auipc	a0,0x3
   10108:	5ec50513          	addi	a0,a0,1516 # 136f0 <__libc_fini_array>
   1010c:	715020ef          	jal	ra,13020 <atexit>
   10110:	0e4000ef          	jal	ra,101f4 <__libc_init_array>
   10114:	00012503          	lw	a0,0(sp)
   10118:	00410593          	addi	a1,sp,4
   1011c:	00000613          	li	a2,0
   10120:	06c000ef          	jal	ra,1018c <main>
   10124:	f71ff06f          	j	10094 <exit>

00010128 <__do_global_dtors_aux>:
   10128:	ff010113          	addi	sp,sp,-16
   1012c:	00812423          	sw	s0,8(sp)
   10130:	1e41c783          	lbu	a5,484(gp) # 26aa4 <completed.1>
   10134:	00112623          	sw	ra,12(sp)
   10138:	02079263          	bnez	a5,1015c <__do_global_dtors_aux+0x34>
   1013c:	00000793          	li	a5,0
   10140:	00078a63          	beqz	a5,10154 <__do_global_dtors_aux+0x2c>
   10144:	00026537          	lui	a0,0x26
   10148:	00050513          	mv	a0,a0
   1014c:	00000097          	auipc	ra,0x0
   10150:	000000e7          	jalr	zero # 0 <exit-0x10094>
   10154:	00100793          	li	a5,1
   10158:	1ef18223          	sb	a5,484(gp) # 26aa4 <completed.1>
   1015c:	00c12083          	lw	ra,12(sp)
   10160:	00812403          	lw	s0,8(sp)
   10164:	01010113          	addi	sp,sp,16
   10168:	00008067          	ret

0001016c <frame_dummy>:
   1016c:	00000793          	li	a5,0
   10170:	00078c63          	beqz	a5,10188 <frame_dummy+0x1c>
   10174:	00026537          	lui	a0,0x26
   10178:	1e818593          	addi	a1,gp,488 # 26aa8 <object.0>
   1017c:	00050513          	mv	a0,a0
   10180:	00000317          	auipc	t1,0x0
   10184:	00000067          	jr	zero # 0 <exit-0x10094>
   10188:	00008067          	ret

0001018c <main>:
   1018c:	ff010113          	addi	sp,sp,-16
   10190:	00112623          	sw	ra,12(sp)
   10194:	00400593          	li	a1,4
   10198:	00025537          	lui	a0,0x25
   1019c:	06050513          	addi	a0,a0,96 # 25060 <__clzsi2+0x50>
   101a0:	20c000ef          	jal	ra,103ac <printf>
   101a4:	00400593          	li	a1,4
   101a8:	00025537          	lui	a0,0x25
   101ac:	07c50513          	addi	a0,a0,124 # 2507c <__clzsi2+0x6c>
   101b0:	1fc000ef          	jal	ra,103ac <printf>
   101b4:	00800593          	li	a1,8
   101b8:	00025537          	lui	a0,0x25
   101bc:	09c50513          	addi	a0,a0,156 # 2509c <__clzsi2+0x8c>
   101c0:	1ec000ef          	jal	ra,103ac <printf>
   101c4:	00800593          	li	a1,8
   101c8:	00025537          	lui	a0,0x25
   101cc:	0c050513          	addi	a0,a0,192 # 250c0 <__clzsi2+0xb0>
   101d0:	1dc000ef          	jal	ra,103ac <printf>
   101d4:	01000593          	li	a1,16
   101d8:	00025537          	lui	a0,0x25
   101dc:	0dc50513          	addi	a0,a0,220 # 250dc <__clzsi2+0xcc>
   101e0:	1cc000ef          	jal	ra,103ac <printf>
   101e4:	00000513          	li	a0,0
   101e8:	00c12083          	lw	ra,12(sp)
   101ec:	01010113          	addi	sp,sp,16
   101f0:	00008067          	ret

000101f4 <__libc_init_array>:
   101f4:	ff010113          	addi	sp,sp,-16
   101f8:	00812423          	sw	s0,8(sp)
   101fc:	000267b7          	lui	a5,0x26
   10200:	00026437          	lui	s0,0x26
   10204:	01212023          	sw	s2,0(sp)
   10208:	0b478793          	addi	a5,a5,180 # 260b4 <__init_array_start>
   1020c:	0b440713          	addi	a4,s0,180 # 260b4 <__init_array_start>
   10210:	00112623          	sw	ra,12(sp)
   10214:	00912223          	sw	s1,4(sp)
   10218:	40e78933          	sub	s2,a5,a4
   1021c:	02e78263          	beq	a5,a4,10240 <__libc_init_array+0x4c>
   10220:	40295913          	srai	s2,s2,0x2
   10224:	0b440413          	addi	s0,s0,180
   10228:	00000493          	li	s1,0
   1022c:	00042783          	lw	a5,0(s0)
   10230:	00148493          	addi	s1,s1,1
   10234:	00440413          	addi	s0,s0,4
   10238:	000780e7          	jalr	a5
   1023c:	ff24e8e3          	bltu	s1,s2,1022c <__libc_init_array+0x38>
   10240:	00026437          	lui	s0,0x26
   10244:	000267b7          	lui	a5,0x26
   10248:	0bc78793          	addi	a5,a5,188 # 260bc <__do_global_dtors_aux_fini_array_entry>
   1024c:	0b440713          	addi	a4,s0,180 # 260b4 <__init_array_start>
   10250:	40e78933          	sub	s2,a5,a4
   10254:	40295913          	srai	s2,s2,0x2
   10258:	02e78063          	beq	a5,a4,10278 <__libc_init_array+0x84>
   1025c:	0b440413          	addi	s0,s0,180
   10260:	00000493          	li	s1,0
   10264:	00042783          	lw	a5,0(s0)
   10268:	00148493          	addi	s1,s1,1
   1026c:	00440413          	addi	s0,s0,4
   10270:	000780e7          	jalr	a5
   10274:	ff24e8e3          	bltu	s1,s2,10264 <__libc_init_array+0x70>
   10278:	00c12083          	lw	ra,12(sp)
   1027c:	00812403          	lw	s0,8(sp)
   10280:	00412483          	lw	s1,4(sp)
   10284:	00012903          	lw	s2,0(sp)
   10288:	01010113          	addi	sp,sp,16
   1028c:	00008067          	ret

00010290 <memset>:
   10290:	00f00313          	li	t1,15
   10294:	00050713          	mv	a4,a0
   10298:	02c37e63          	bgeu	t1,a2,102d4 <memset+0x44>
   1029c:	00f77793          	andi	a5,a4,15
   102a0:	0a079063          	bnez	a5,10340 <memset+0xb0>
   102a4:	08059263          	bnez	a1,10328 <memset+0x98>
   102a8:	ff067693          	andi	a3,a2,-16
   102ac:	00f67613          	andi	a2,a2,15
   102b0:	00e686b3          	add	a3,a3,a4
   102b4:	00b72023          	sw	a1,0(a4)
   102b8:	00b72223          	sw	a1,4(a4)
   102bc:	00b72423          	sw	a1,8(a4)
   102c0:	00b72623          	sw	a1,12(a4)
   102c4:	01070713          	addi	a4,a4,16
   102c8:	fed766e3          	bltu	a4,a3,102b4 <memset+0x24>
   102cc:	00061463          	bnez	a2,102d4 <memset+0x44>
   102d0:	00008067          	ret
   102d4:	40c306b3          	sub	a3,t1,a2
   102d8:	00269693          	slli	a3,a3,0x2
   102dc:	00000297          	auipc	t0,0x0
   102e0:	005686b3          	add	a3,a3,t0
   102e4:	00c68067          	jr	12(a3)
   102e8:	00b70723          	sb	a1,14(a4)
   102ec:	00b706a3          	sb	a1,13(a4)
   102f0:	00b70623          	sb	a1,12(a4)
   102f4:	00b705a3          	sb	a1,11(a4)
   102f8:	00b70523          	sb	a1,10(a4)
   102fc:	00b704a3          	sb	a1,9(a4)
   10300:	00b70423          	sb	a1,8(a4)
   10304:	00b703a3          	sb	a1,7(a4)
   10308:	00b70323          	sb	a1,6(a4)
   1030c:	00b702a3          	sb	a1,5(a4)
   10310:	00b70223          	sb	a1,4(a4)
   10314:	00b701a3          	sb	a1,3(a4)
   10318:	00b70123          	sb	a1,2(a4)
   1031c:	00b700a3          	sb	a1,1(a4)
   10320:	00b70023          	sb	a1,0(a4)
   10324:	00008067          	ret
   10328:	0ff5f593          	zext.b	a1,a1
   1032c:	00859693          	slli	a3,a1,0x8
   10330:	00d5e5b3          	or	a1,a1,a3
   10334:	01059693          	slli	a3,a1,0x10
   10338:	00d5e5b3          	or	a1,a1,a3
   1033c:	f6dff06f          	j	102a8 <memset+0x18>
   10340:	00279693          	slli	a3,a5,0x2
   10344:	00000297          	auipc	t0,0x0
   10348:	005686b3          	add	a3,a3,t0
   1034c:	00008293          	mv	t0,ra
   10350:	fa0680e7          	jalr	-96(a3)
   10354:	00028093          	mv	ra,t0
   10358:	ff078793          	addi	a5,a5,-16
   1035c:	40f70733          	sub	a4,a4,a5
   10360:	00f60633          	add	a2,a2,a5
   10364:	f6c378e3          	bgeu	t1,a2,102d4 <memset+0x44>
   10368:	f3dff06f          	j	102a4 <memset+0x14>

0001036c <_printf_r>:
   1036c:	fc010113          	addi	sp,sp,-64
   10370:	02c12423          	sw	a2,40(sp)
   10374:	02d12623          	sw	a3,44(sp)
   10378:	02e12823          	sw	a4,48(sp)
   1037c:	02f12a23          	sw	a5,52(sp)
   10380:	03012c23          	sw	a6,56(sp)
   10384:	03112e23          	sw	a7,60(sp)
   10388:	00058613          	mv	a2,a1
   1038c:	00852583          	lw	a1,8(a0)
   10390:	02810693          	addi	a3,sp,40
   10394:	00112e23          	sw	ra,28(sp)
   10398:	00d12623          	sw	a3,12(sp)
   1039c:	05c000ef          	jal	ra,103f8 <_vfprintf_r>
   103a0:	01c12083          	lw	ra,28(sp)
   103a4:	04010113          	addi	sp,sp,64
   103a8:	00008067          	ret

000103ac <printf>:
   103ac:	1c01a303          	lw	t1,448(gp) # 26a80 <_impure_ptr>
   103b0:	fc010113          	addi	sp,sp,-64
   103b4:	02c12423          	sw	a2,40(sp)
   103b8:	02d12623          	sw	a3,44(sp)
   103bc:	02b12223          	sw	a1,36(sp)
   103c0:	02e12823          	sw	a4,48(sp)
   103c4:	02f12a23          	sw	a5,52(sp)
   103c8:	03012c23          	sw	a6,56(sp)
   103cc:	03112e23          	sw	a7,60(sp)
   103d0:	00832583          	lw	a1,8(t1) # 10188 <frame_dummy+0x1c>
   103d4:	02410693          	addi	a3,sp,36
   103d8:	00050613          	mv	a2,a0
   103dc:	00030513          	mv	a0,t1
   103e0:	00112e23          	sw	ra,28(sp)
   103e4:	00d12623          	sw	a3,12(sp)
   103e8:	010000ef          	jal	ra,103f8 <_vfprintf_r>
   103ec:	01c12083          	lw	ra,28(sp)
   103f0:	04010113          	addi	sp,sp,64
   103f4:	00008067          	ret

000103f8 <_vfprintf_r>:
   103f8:	e1010113          	addi	sp,sp,-496
   103fc:	1e112623          	sw	ra,492(sp)
   10400:	1e812423          	sw	s0,488(sp)
   10404:	1f212023          	sw	s2,480(sp)
   10408:	00b12423          	sw	a1,8(sp)
   1040c:	00060913          	mv	s2,a2
   10410:	00d12c23          	sw	a3,24(sp)
   10414:	1e912223          	sw	s1,484(sp)
   10418:	1d312e23          	sw	s3,476(sp)
   1041c:	1d412c23          	sw	s4,472(sp)
   10420:	1d512a23          	sw	s5,468(sp)
   10424:	1d612823          	sw	s6,464(sp)
   10428:	1d712623          	sw	s7,460(sp)
   1042c:	1d812423          	sw	s8,456(sp)
   10430:	1d912223          	sw	s9,452(sp)
   10434:	1da12023          	sw	s10,448(sp)
   10438:	1bb12e23          	sw	s11,444(sp)
   1043c:	00050413          	mv	s0,a0
   10440:	02a12823          	sw	a0,48(sp)
   10444:	54c060ef          	jal	ra,16990 <_localeconv_r>
   10448:	00052703          	lw	a4,0(a0)
   1044c:	00070513          	mv	a0,a4
   10450:	02e12c23          	sw	a4,56(sp)
   10454:	69c080ef          	jal	ra,18af0 <strlen>
   10458:	02a12a23          	sw	a0,52(sp)
   1045c:	0e012823          	sw	zero,240(sp)
   10460:	0e012a23          	sw	zero,244(sp)
   10464:	0e012c23          	sw	zero,248(sp)
   10468:	0e012e23          	sw	zero,252(sp)
   1046c:	00040663          	beqz	s0,10478 <_vfprintf_r+0x80>
   10470:	03842783          	lw	a5,56(s0)
   10474:	020782e3          	beqz	a5,10c98 <_vfprintf_r+0x8a0>
   10478:	00812603          	lw	a2,8(sp)
   1047c:	00c61783          	lh	a5,12(a2)
   10480:	01279713          	slli	a4,a5,0x12
   10484:	02074663          	bltz	a4,104b0 <_vfprintf_r+0xb8>
   10488:	06462703          	lw	a4,100(a2)
   1048c:	000026b7          	lui	a3,0x2
   10490:	00d7e7b3          	or	a5,a5,a3
   10494:	ffffe6b7          	lui	a3,0xffffe
   10498:	01079793          	slli	a5,a5,0x10
   1049c:	fff68693          	addi	a3,a3,-1 # ffffdfff <__BSS_END__+0xfffd7517>
   104a0:	4107d793          	srai	a5,a5,0x10
   104a4:	00d77733          	and	a4,a4,a3
   104a8:	00f61623          	sh	a5,12(a2)
   104ac:	06e62223          	sw	a4,100(a2)
   104b0:	0087f713          	andi	a4,a5,8
   104b4:	2e070c63          	beqz	a4,107ac <_vfprintf_r+0x3b4>
   104b8:	00812703          	lw	a4,8(sp)
   104bc:	01072703          	lw	a4,16(a4)
   104c0:	2e070663          	beqz	a4,107ac <_vfprintf_r+0x3b4>
   104c4:	01a7f793          	andi	a5,a5,26
   104c8:	00a00713          	li	a4,10
   104cc:	30e78463          	beq	a5,a4,107d4 <_vfprintf_r+0x3dc>
   104d0:	000257b7          	lui	a5,0x25
   104d4:	14478793          	addi	a5,a5,324 # 25144 <__clzsi2+0x134>
   104d8:	00090c93          	mv	s9,s2
   104dc:	00f12e23          	sw	a5,28(sp)
   104e0:	000cc703          	lbu	a4,0(s9)
   104e4:	000257b7          	lui	a5,0x25
   104e8:	10c10b13          	addi	s6,sp,268
   104ec:	34878793          	addi	a5,a5,840 # 25348 <zeroes.0>
   104f0:	0f612223          	sw	s6,228(sp)
   104f4:	0e012623          	sw	zero,236(sp)
   104f8:	0e012423          	sw	zero,232(sp)
   104fc:	02012223          	sw	zero,36(sp)
   10500:	02012e23          	sw	zero,60(sp)
   10504:	04012223          	sw	zero,68(sp)
   10508:	04012023          	sw	zero,64(sp)
   1050c:	04012623          	sw	zero,76(sp)
   10510:	04012423          	sw	zero,72(sp)
   10514:	00012823          	sw	zero,16(sp)
   10518:	00f12623          	sw	a5,12(sp)
   1051c:	03012a03          	lw	s4,48(sp)
   10520:	000b0413          	mv	s0,s6
   10524:	22070463          	beqz	a4,1074c <_vfprintf_r+0x354>
   10528:	000c8493          	mv	s1,s9
   1052c:	02500693          	li	a3,37
   10530:	40d70663          	beq	a4,a3,1093c <_vfprintf_r+0x544>
   10534:	0014c703          	lbu	a4,1(s1)
   10538:	00148493          	addi	s1,s1,1
   1053c:	fe071ae3          	bnez	a4,10530 <_vfprintf_r+0x138>
   10540:	41948933          	sub	s2,s1,s9
   10544:	21948463          	beq	s1,s9,1074c <_vfprintf_r+0x354>
   10548:	0ec12683          	lw	a3,236(sp)
   1054c:	0e812703          	lw	a4,232(sp)
   10550:	01942023          	sw	s9,0(s0)
   10554:	012686b3          	add	a3,a3,s2
   10558:	00170713          	addi	a4,a4,1
   1055c:	01242223          	sw	s2,4(s0)
   10560:	0ed12623          	sw	a3,236(sp)
   10564:	0ee12423          	sw	a4,232(sp)
   10568:	00700693          	li	a3,7
   1056c:	00840413          	addi	s0,s0,8
   10570:	3ce6ce63          	blt	a3,a4,1094c <_vfprintf_r+0x554>
   10574:	01012783          	lw	a5,16(sp)
   10578:	0004c703          	lbu	a4,0(s1)
   1057c:	012787b3          	add	a5,a5,s2
   10580:	00f12823          	sw	a5,16(sp)
   10584:	1c070463          	beqz	a4,1074c <_vfprintf_r+0x354>
   10588:	0014c883          	lbu	a7,1(s1)
   1058c:	0c0103a3          	sb	zero,199(sp)
   10590:	00148493          	addi	s1,s1,1
   10594:	fff00993          	li	s3,-1
   10598:	00000d13          	li	s10,0
   1059c:	00000c13          	li	s8,0
   105a0:	05a00913          	li	s2,90
   105a4:	00148493          	addi	s1,s1,1
   105a8:	fe088793          	addi	a5,a7,-32
   105ac:	04f96663          	bltu	s2,a5,105f8 <_vfprintf_r+0x200>
   105b0:	01c12703          	lw	a4,28(sp)
   105b4:	00279793          	slli	a5,a5,0x2
   105b8:	00e787b3          	add	a5,a5,a4
   105bc:	0007a783          	lw	a5,0(a5)
   105c0:	00078067          	jr	a5
   105c4:	00000d13          	li	s10,0
   105c8:	fd088793          	addi	a5,a7,-48
   105cc:	00900693          	li	a3,9
   105d0:	0004c883          	lbu	a7,0(s1)
   105d4:	002d1713          	slli	a4,s10,0x2
   105d8:	01a70d33          	add	s10,a4,s10
   105dc:	001d1d13          	slli	s10,s10,0x1
   105e0:	01a78d33          	add	s10,a5,s10
   105e4:	fd088793          	addi	a5,a7,-48
   105e8:	00148493          	addi	s1,s1,1
   105ec:	fef6f2e3          	bgeu	a3,a5,105d0 <_vfprintf_r+0x1d8>
   105f0:	fe088793          	addi	a5,a7,-32
   105f4:	faf97ee3          	bgeu	s2,a5,105b0 <_vfprintf_r+0x1b8>
   105f8:	14088a63          	beqz	a7,1074c <_vfprintf_r+0x354>
   105fc:	15110623          	sb	a7,332(sp)
   10600:	0c0103a3          	sb	zero,199(sp)
   10604:	00100a93          	li	s5,1
   10608:	00100913          	li	s2,1
   1060c:	14c10c93          	addi	s9,sp,332
   10610:	00012a23          	sw	zero,20(sp)
   10614:	00000993          	li	s3,0
   10618:	02012623          	sw	zero,44(sp)
   1061c:	02012423          	sw	zero,40(sp)
   10620:	02012023          	sw	zero,32(sp)
   10624:	002c7293          	andi	t0,s8,2
   10628:	00028463          	beqz	t0,10630 <_vfprintf_r+0x238>
   1062c:	002a8a93          	addi	s5,s5,2
   10630:	084c7d93          	andi	s11,s8,132
   10634:	000d9663          	bnez	s11,10640 <_vfprintf_r+0x248>
   10638:	415d06b3          	sub	a3,s10,s5
   1063c:	44d04ce3          	bgtz	a3,11294 <_vfprintf_r+0xe9c>
   10640:	0c714683          	lbu	a3,199(sp)
   10644:	02068c63          	beqz	a3,1067c <_vfprintf_r+0x284>
   10648:	0ec12603          	lw	a2,236(sp)
   1064c:	0e812683          	lw	a3,232(sp)
   10650:	0c710593          	addi	a1,sp,199
   10654:	00160613          	addi	a2,a2,1
   10658:	00b42023          	sw	a1,0(s0)
   1065c:	00168693          	addi	a3,a3,1
   10660:	00100593          	li	a1,1
   10664:	00b42223          	sw	a1,4(s0)
   10668:	0ec12623          	sw	a2,236(sp)
   1066c:	0ed12423          	sw	a3,232(sp)
   10670:	00700613          	li	a2,7
   10674:	00840413          	addi	s0,s0,8
   10678:	3cd64863          	blt	a2,a3,10a48 <_vfprintf_r+0x650>
   1067c:	02028c63          	beqz	t0,106b4 <_vfprintf_r+0x2bc>
   10680:	0ec12603          	lw	a2,236(sp)
   10684:	0e812683          	lw	a3,232(sp)
   10688:	0c810793          	addi	a5,sp,200
   1068c:	00260613          	addi	a2,a2,2
   10690:	00168693          	addi	a3,a3,1
   10694:	00200593          	li	a1,2
   10698:	00f42023          	sw	a5,0(s0)
   1069c:	00b42223          	sw	a1,4(s0)
   106a0:	0ec12623          	sw	a2,236(sp)
   106a4:	0ed12423          	sw	a3,232(sp)
   106a8:	00700613          	li	a2,7
   106ac:	00840413          	addi	s0,s0,8
   106b0:	4ed648e3          	blt	a2,a3,113a0 <_vfprintf_r+0xfa8>
   106b4:	08000693          	li	a3,128
   106b8:	1cdd88e3          	beq	s11,a3,11088 <_vfprintf_r+0xc90>
   106bc:	412989b3          	sub	s3,s3,s2
   106c0:	2b304ee3          	bgtz	s3,1117c <_vfprintf_r+0xd84>
   106c4:	100c7693          	andi	a3,s8,256
   106c8:	020696e3          	bnez	a3,10ef4 <_vfprintf_r+0xafc>
   106cc:	0ec12683          	lw	a3,236(sp)
   106d0:	0e812783          	lw	a5,232(sp)
   106d4:	01942023          	sw	s9,0(s0)
   106d8:	00d906b3          	add	a3,s2,a3
   106dc:	00178793          	addi	a5,a5,1
   106e0:	01242223          	sw	s2,4(s0)
   106e4:	0ed12623          	sw	a3,236(sp)
   106e8:	0ef12423          	sw	a5,232(sp)
   106ec:	00700613          	li	a2,7
   106f0:	48f64863          	blt	a2,a5,10b80 <_vfprintf_r+0x788>
   106f4:	00840413          	addi	s0,s0,8
   106f8:	004c7713          	andi	a4,s8,4
   106fc:	00070663          	beqz	a4,10708 <_vfprintf_r+0x310>
   10700:	415d0933          	sub	s2,s10,s5
   10704:	4d2040e3          	bgtz	s2,113c4 <_vfprintf_r+0xfcc>
   10708:	000d0313          	mv	t1,s10
   1070c:	015d5463          	bge	s10,s5,10714 <_vfprintf_r+0x31c>
   10710:	000a8313          	mv	t1,s5
   10714:	01012783          	lw	a5,16(sp)
   10718:	006787b3          	add	a5,a5,t1
   1071c:	00f12823          	sw	a5,16(sp)
   10720:	340692e3          	bnez	a3,11264 <_vfprintf_r+0xe6c>
   10724:	01412783          	lw	a5,20(sp)
   10728:	0e012423          	sw	zero,232(sp)
   1072c:	00078863          	beqz	a5,1073c <_vfprintf_r+0x344>
   10730:	01412583          	lw	a1,20(sp)
   10734:	000a0513          	mv	a0,s4
   10738:	144030ef          	jal	ra,1387c <_free_r>
   1073c:	000b0413          	mv	s0,s6
   10740:	00048c93          	mv	s9,s1
   10744:	000cc703          	lbu	a4,0(s9)
   10748:	de0710e3          	bnez	a4,10528 <_vfprintf_r+0x130>
   1074c:	0ec12783          	lw	a5,236(sp)
   10750:	00078463          	beqz	a5,10758 <_vfprintf_r+0x360>
   10754:	24d0106f          	j	121a0 <_vfprintf_r+0x1da8>
   10758:	00812783          	lw	a5,8(sp)
   1075c:	00c7d783          	lhu	a5,12(a5)
   10760:	0407f793          	andi	a5,a5,64
   10764:	00078463          	beqz	a5,1076c <_vfprintf_r+0x374>
   10768:	17c0206f          	j	128e4 <_vfprintf_r+0x24ec>
   1076c:	1ec12083          	lw	ra,492(sp)
   10770:	1e812403          	lw	s0,488(sp)
   10774:	01012503          	lw	a0,16(sp)
   10778:	1e412483          	lw	s1,484(sp)
   1077c:	1e012903          	lw	s2,480(sp)
   10780:	1dc12983          	lw	s3,476(sp)
   10784:	1d812a03          	lw	s4,472(sp)
   10788:	1d412a83          	lw	s5,468(sp)
   1078c:	1d012b03          	lw	s6,464(sp)
   10790:	1cc12b83          	lw	s7,460(sp)
   10794:	1c812c03          	lw	s8,456(sp)
   10798:	1c412c83          	lw	s9,452(sp)
   1079c:	1c012d03          	lw	s10,448(sp)
   107a0:	1bc12d83          	lw	s11,444(sp)
   107a4:	1f010113          	addi	sp,sp,496
   107a8:	00008067          	ret
   107ac:	00812583          	lw	a1,8(sp)
   107b0:	03012503          	lw	a0,48(sp)
   107b4:	60c020ef          	jal	ra,12dc0 <__swsetup_r>
   107b8:	00050463          	beqz	a0,107c0 <_vfprintf_r+0x3c8>
   107bc:	1280206f          	j	128e4 <_vfprintf_r+0x24ec>
   107c0:	00812783          	lw	a5,8(sp)
   107c4:	00a00713          	li	a4,10
   107c8:	00c79783          	lh	a5,12(a5)
   107cc:	01a7f793          	andi	a5,a5,26
   107d0:	d0e790e3          	bne	a5,a4,104d0 <_vfprintf_r+0xd8>
   107d4:	00812783          	lw	a5,8(sp)
   107d8:	00e79783          	lh	a5,14(a5)
   107dc:	ce07cae3          	bltz	a5,104d0 <_vfprintf_r+0xd8>
   107e0:	01812683          	lw	a3,24(sp)
   107e4:	00812583          	lw	a1,8(sp)
   107e8:	03012503          	lw	a0,48(sp)
   107ec:	00090613          	mv	a2,s2
   107f0:	504020ef          	jal	ra,12cf4 <__sbprintf>
   107f4:	00a12823          	sw	a0,16(sp)
   107f8:	f75ff06f          	j	1076c <_vfprintf_r+0x374>
   107fc:	000a0513          	mv	a0,s4
   10800:	190060ef          	jal	ra,16990 <_localeconv_r>
   10804:	00452783          	lw	a5,4(a0)
   10808:	00078513          	mv	a0,a5
   1080c:	04f12423          	sw	a5,72(sp)
   10810:	2e0080ef          	jal	ra,18af0 <strlen>
   10814:	00050793          	mv	a5,a0
   10818:	000a0513          	mv	a0,s4
   1081c:	00078a93          	mv	s5,a5
   10820:	04f12623          	sw	a5,76(sp)
   10824:	16c060ef          	jal	ra,16990 <_localeconv_r>
   10828:	00852703          	lw	a4,8(a0)
   1082c:	04e12023          	sw	a4,64(sp)
   10830:	780a9ae3          	bnez	s5,117c4 <_vfprintf_r+0x13cc>
   10834:	0004c883          	lbu	a7,0(s1)
   10838:	d6dff06f          	j	105a4 <_vfprintf_r+0x1ac>
   1083c:	0004c883          	lbu	a7,0(s1)
   10840:	020c6c13          	ori	s8,s8,32
   10844:	d61ff06f          	j	105a4 <_vfprintf_r+0x1ac>
   10848:	010c6c13          	ori	s8,s8,16
   1084c:	020c7793          	andi	a5,s8,32
   10850:	38078063          	beqz	a5,10bd0 <_vfprintf_r+0x7d8>
   10854:	01812783          	lw	a5,24(sp)
   10858:	00778b93          	addi	s7,a5,7
   1085c:	ff8bfb93          	andi	s7,s7,-8
   10860:	004ba783          	lw	a5,4(s7)
   10864:	000bad83          	lw	s11,0(s7)
   10868:	008b8713          	addi	a4,s7,8
   1086c:	00e12c23          	sw	a4,24(sp)
   10870:	00078913          	mv	s2,a5
   10874:	3807c863          	bltz	a5,10c04 <_vfprintf_r+0x80c>
   10878:	fff00793          	li	a5,-1
   1087c:	000c0693          	mv	a3,s8
   10880:	4cf98463          	beq	s3,a5,10d48 <_vfprintf_r+0x950>
   10884:	012de7b3          	or	a5,s11,s2
   10888:	f7fc7693          	andi	a3,s8,-129
   1088c:	4a079e63          	bnez	a5,10d48 <_vfprintf_r+0x950>
   10890:	4c099263          	bnez	s3,10d54 <_vfprintf_r+0x95c>
   10894:	00000913          	li	s2,0
   10898:	00068c13          	mv	s8,a3
   1089c:	1b010c93          	addi	s9,sp,432
   108a0:	0c714683          	lbu	a3,199(sp)
   108a4:	00090a93          	mv	s5,s2
   108a8:	01395463          	bge	s2,s3,108b0 <_vfprintf_r+0x4b8>
   108ac:	00098a93          	mv	s5,s3
   108b0:	00012a23          	sw	zero,20(sp)
   108b4:	02012623          	sw	zero,44(sp)
   108b8:	02012423          	sw	zero,40(sp)
   108bc:	02012023          	sw	zero,32(sp)
   108c0:	d60682e3          	beqz	a3,10624 <_vfprintf_r+0x22c>
   108c4:	001a8a93          	addi	s5,s5,1
   108c8:	d5dff06f          	j	10624 <_vfprintf_r+0x22c>
   108cc:	010c6c13          	ori	s8,s8,16
   108d0:	020c7793          	andi	a5,s8,32
   108d4:	2c078663          	beqz	a5,10ba0 <_vfprintf_r+0x7a8>
   108d8:	01812783          	lw	a5,24(sp)
   108dc:	00778b93          	addi	s7,a5,7
   108e0:	ff8bfb93          	andi	s7,s7,-8
   108e4:	000bad83          	lw	s11,0(s7)
   108e8:	004ba903          	lw	s2,4(s7)
   108ec:	008b8793          	addi	a5,s7,8
   108f0:	00f12c23          	sw	a5,24(sp)
   108f4:	bffc7693          	andi	a3,s8,-1025
   108f8:	00000613          	li	a2,0
   108fc:	00000793          	li	a5,0
   10900:	0cf103a3          	sb	a5,199(sp)
   10904:	fff00793          	li	a5,-1
   10908:	32f98263          	beq	s3,a5,10c2c <_vfprintf_r+0x834>
   1090c:	012de7b3          	or	a5,s11,s2
   10910:	f7f6fc13          	andi	s8,a3,-129
   10914:	16079ce3          	bnez	a5,1128c <_vfprintf_r+0xe94>
   10918:	70099a63          	bnez	s3,1102c <_vfprintf_r+0xc34>
   1091c:	5e061ae3          	bnez	a2,11710 <_vfprintf_r+0x1318>
   10920:	0016f913          	andi	s2,a3,1
   10924:	1b010c93          	addi	s9,sp,432
   10928:	f6090ce3          	beqz	s2,108a0 <_vfprintf_r+0x4a8>
   1092c:	03000793          	li	a5,48
   10930:	1af107a3          	sb	a5,431(sp)
   10934:	1af10c93          	addi	s9,sp,431
   10938:	f69ff06f          	j	108a0 <_vfprintf_r+0x4a8>
   1093c:	41948933          	sub	s2,s1,s9
   10940:	c19494e3          	bne	s1,s9,10548 <_vfprintf_r+0x150>
   10944:	0004c703          	lbu	a4,0(s1)
   10948:	c3dff06f          	j	10584 <_vfprintf_r+0x18c>
   1094c:	00812583          	lw	a1,8(sp)
   10950:	0e410613          	addi	a2,sp,228
   10954:	000a0513          	mv	a0,s4
   10958:	4510a0ef          	jal	ra,1b5a8 <__sprint_r>
   1095c:	de051ee3          	bnez	a0,10758 <_vfprintf_r+0x360>
   10960:	000b0413          	mv	s0,s6
   10964:	c11ff06f          	j	10574 <_vfprintf_r+0x17c>
   10968:	008c7693          	andi	a3,s8,8
   1096c:	600694e3          	bnez	a3,11774 <_vfprintf_r+0x137c>
   10970:	01812783          	lw	a5,24(sp)
   10974:	0b010513          	addi	a0,sp,176
   10978:	01112a23          	sw	a7,20(sp)
   1097c:	00778b93          	addi	s7,a5,7
   10980:	ff8bfb93          	andi	s7,s7,-8
   10984:	000ba583          	lw	a1,0(s7)
   10988:	004ba603          	lw	a2,4(s7)
   1098c:	008b8793          	addi	a5,s7,8
   10990:	00f12c23          	sw	a5,24(sp)
   10994:	048140ef          	jal	ra,249dc <__extenddftf2>
   10998:	0b012803          	lw	a6,176(sp)
   1099c:	0b412583          	lw	a1,180(sp)
   109a0:	0b812603          	lw	a2,184(sp)
   109a4:	0bc12683          	lw	a3,188(sp)
   109a8:	01412883          	lw	a7,20(sp)
   109ac:	0f010513          	addi	a0,sp,240
   109b0:	01112a23          	sw	a7,20(sp)
   109b4:	0ed12e23          	sw	a3,252(sp)
   109b8:	0f012823          	sw	a6,240(sp)
   109bc:	0eb12a23          	sw	a1,244(sp)
   109c0:	0ec12c23          	sw	a2,248(sp)
   109c4:	74d050ef          	jal	ra,16910 <_ldcheck>
   109c8:	0ca12623          	sw	a0,204(sp)
   109cc:	00200693          	li	a3,2
   109d0:	01412883          	lw	a7,20(sp)
   109d4:	00d51463          	bne	a0,a3,109dc <_vfprintf_r+0x5e4>
   109d8:	3180106f          	j	11cf0 <_vfprintf_r+0x18f8>
   109dc:	00100693          	li	a3,1
   109e0:	00d51463          	bne	a0,a3,109e8 <_vfprintf_r+0x5f0>
   109e4:	46c0106f          	j	11e50 <_vfprintf_r+0x1a58>
   109e8:	06100693          	li	a3,97
   109ec:	74d88ae3          	beq	a7,a3,11940 <_vfprintf_r+0x1548>
   109f0:	04100693          	li	a3,65
   109f4:	05800793          	li	a5,88
   109f8:	74d886e3          	beq	a7,a3,11944 <_vfprintf_r+0x154c>
   109fc:	fff00693          	li	a3,-1
   10a00:	00d99463          	bne	s3,a3,10a08 <_vfprintf_r+0x610>
   10a04:	0700206f          	j	12a74 <_vfprintf_r+0x267c>
   10a08:	fdf8f693          	andi	a3,a7,-33
   10a0c:	04700613          	li	a2,71
   10a10:	00c69463          	bne	a3,a2,10a18 <_vfprintf_r+0x620>
   10a14:	0500206f          	j	12a64 <_vfprintf_r+0x266c>
   10a18:	0fc12d83          	lw	s11,252(sp)
   10a1c:	100c6793          	ori	a5,s8,256
   10a20:	04f12e23          	sw	a5,92(sp)
   10a24:	03812423          	sw	s8,40(sp)
   10a28:	0f012f03          	lw	t5,240(sp)
   10a2c:	0f412e83          	lw	t4,244(sp)
   10a30:	0f812e03          	lw	t3,248(sp)
   10a34:	000dd463          	bgez	s11,10a3c <_vfprintf_r+0x644>
   10a38:	77c0106f          	j	121b4 <_vfprintf_r+0x1dbc>
   10a3c:	06012023          	sw	zero,96(sp)
   10a40:	00012a23          	sw	zero,20(sp)
   10a44:	7510006f          	j	11994 <_vfprintf_r+0x159c>
   10a48:	00812583          	lw	a1,8(sp)
   10a4c:	0e410613          	addi	a2,sp,228
   10a50:	000a0513          	mv	a0,s4
   10a54:	05112a23          	sw	a7,84(sp)
   10a58:	04512823          	sw	t0,80(sp)
   10a5c:	34d0a0ef          	jal	ra,1b5a8 <__sprint_r>
   10a60:	00051ce3          	bnez	a0,11278 <_vfprintf_r+0xe80>
   10a64:	05412883          	lw	a7,84(sp)
   10a68:	05012283          	lw	t0,80(sp)
   10a6c:	000b0413          	mv	s0,s6
   10a70:	c0dff06f          	j	1067c <_vfprintf_r+0x284>
   10a74:	02412783          	lw	a5,36(sp)
   10a78:	00100613          	li	a2,1
   10a7c:	00840993          	addi	s3,s0,8
   10a80:	38f650e3          	bge	a2,a5,11600 <_vfprintf_r+0x1208>
   10a84:	0ec12683          	lw	a3,236(sp)
   10a88:	0e812903          	lw	s2,232(sp)
   10a8c:	00100613          	li	a2,1
   10a90:	00168693          	addi	a3,a3,1
   10a94:	00190913          	addi	s2,s2,1
   10a98:	00c42223          	sw	a2,4(s0)
   10a9c:	01942023          	sw	s9,0(s0)
   10aa0:	0ed12623          	sw	a3,236(sp)
   10aa4:	0f212423          	sw	s2,232(sp)
   10aa8:	00700613          	li	a2,7
   10aac:	01265463          	bge	a2,s2,10ab4 <_vfprintf_r+0x6bc>
   10ab0:	0740106f          	j	11b24 <_vfprintf_r+0x172c>
   10ab4:	03412783          	lw	a5,52(sp)
   10ab8:	03812703          	lw	a4,56(sp)
   10abc:	00190913          	addi	s2,s2,1
   10ac0:	00d78db3          	add	s11,a5,a3
   10ac4:	00e9a023          	sw	a4,0(s3)
   10ac8:	00f9a223          	sw	a5,4(s3)
   10acc:	0fb12623          	sw	s11,236(sp)
   10ad0:	0f212423          	sw	s2,232(sp)
   10ad4:	00700693          	li	a3,7
   10ad8:	00898993          	addi	s3,s3,8
   10adc:	0126d463          	bge	a3,s2,10ae4 <_vfprintf_r+0x6ec>
   10ae0:	0680106f          	j	11b48 <_vfprintf_r+0x1750>
   10ae4:	0f012683          	lw	a3,240(sp)
   10ae8:	0a010593          	addi	a1,sp,160
   10aec:	0b010513          	addi	a0,sp,176
   10af0:	0ad12823          	sw	a3,176(sp)
   10af4:	0f412683          	lw	a3,244(sp)
   10af8:	0a012023          	sw	zero,160(sp)
   10afc:	0a012223          	sw	zero,164(sp)
   10b00:	0ad12a23          	sw	a3,180(sp)
   10b04:	0f812683          	lw	a3,248(sp)
   10b08:	0a012423          	sw	zero,168(sp)
   10b0c:	0a012623          	sw	zero,172(sp)
   10b10:	0ad12c23          	sw	a3,184(sp)
   10b14:	0fc12683          	lw	a3,252(sp)
   10b18:	0ad12e23          	sw	a3,188(sp)
   10b1c:	7bd100ef          	jal	ra,21ad8 <__eqtf2>
   10b20:	02412783          	lw	a5,36(sp)
   10b24:	fff78413          	addi	s0,a5,-1
   10b28:	320506e3          	beqz	a0,11654 <_vfprintf_r+0x125c>
   10b2c:	001c8793          	addi	a5,s9,1
   10b30:	00190913          	addi	s2,s2,1
   10b34:	008d8db3          	add	s11,s11,s0
   10b38:	00f9a023          	sw	a5,0(s3)
   10b3c:	0089a223          	sw	s0,4(s3)
   10b40:	0fb12623          	sw	s11,236(sp)
   10b44:	0f212423          	sw	s2,232(sp)
   10b48:	00700793          	li	a5,7
   10b4c:	00898993          	addi	s3,s3,8
   10b50:	2f27c0e3          	blt	a5,s2,11630 <_vfprintf_r+0x1238>
   10b54:	04412703          	lw	a4,68(sp)
   10b58:	0d410613          	addi	a2,sp,212
   10b5c:	00190793          	addi	a5,s2,1
   10b60:	01b706b3          	add	a3,a4,s11
   10b64:	00c9a023          	sw	a2,0(s3)
   10b68:	00e9a223          	sw	a4,4(s3)
   10b6c:	0ed12623          	sw	a3,236(sp)
   10b70:	0ef12423          	sw	a5,232(sp)
   10b74:	00700613          	li	a2,7
   10b78:	00898413          	addi	s0,s3,8
   10b7c:	b6f65ee3          	bge	a2,a5,106f8 <_vfprintf_r+0x300>
   10b80:	00812583          	lw	a1,8(sp)
   10b84:	0e410613          	addi	a2,sp,228
   10b88:	000a0513          	mv	a0,s4
   10b8c:	21d0a0ef          	jal	ra,1b5a8 <__sprint_r>
   10b90:	6e051463          	bnez	a0,11278 <_vfprintf_r+0xe80>
   10b94:	0ec12683          	lw	a3,236(sp)
   10b98:	000b0413          	mv	s0,s6
   10b9c:	b5dff06f          	j	106f8 <_vfprintf_r+0x300>
   10ba0:	01812703          	lw	a4,24(sp)
   10ba4:	010c7793          	andi	a5,s8,16
   10ba8:	00072d83          	lw	s11,0(a4)
   10bac:	00470713          	addi	a4,a4,4
   10bb0:	00e12c23          	sw	a4,24(sp)
   10bb4:	3a0792e3          	bnez	a5,11758 <_vfprintf_r+0x1360>
   10bb8:	040c7793          	andi	a5,s8,64
   10bbc:	38078ae3          	beqz	a5,11750 <_vfprintf_r+0x1358>
   10bc0:	010d9d93          	slli	s11,s11,0x10
   10bc4:	010ddd93          	srli	s11,s11,0x10
   10bc8:	00000913          	li	s2,0
   10bcc:	d29ff06f          	j	108f4 <_vfprintf_r+0x4fc>
   10bd0:	01812703          	lw	a4,24(sp)
   10bd4:	010c7793          	andi	a5,s8,16
   10bd8:	00072d83          	lw	s11,0(a4)
   10bdc:	00470713          	addi	a4,a4,4
   10be0:	00e12c23          	sw	a4,24(sp)
   10be4:	380792e3          	bnez	a5,11768 <_vfprintf_r+0x1370>
   10be8:	040c7793          	andi	a5,s8,64
   10bec:	36078ae3          	beqz	a5,11760 <_vfprintf_r+0x1368>
   10bf0:	010d9d93          	slli	s11,s11,0x10
   10bf4:	410ddd93          	srai	s11,s11,0x10
   10bf8:	41fdd913          	srai	s2,s11,0x1f
   10bfc:	00090793          	mv	a5,s2
   10c00:	c607dce3          	bgez	a5,10878 <_vfprintf_r+0x480>
   10c04:	01b037b3          	snez	a5,s11
   10c08:	41200833          	neg	a6,s2
   10c0c:	40f80933          	sub	s2,a6,a5
   10c10:	02d00793          	li	a5,45
   10c14:	0cf103a3          	sb	a5,199(sp)
   10c18:	fff00793          	li	a5,-1
   10c1c:	41b00db3          	neg	s11,s11
   10c20:	000c0693          	mv	a3,s8
   10c24:	00100613          	li	a2,1
   10c28:	cef992e3          	bne	s3,a5,1090c <_vfprintf_r+0x514>
   10c2c:	00100793          	li	a5,1
   10c30:	10f60c63          	beq	a2,a5,10d48 <_vfprintf_r+0x950>
   10c34:	00200793          	li	a5,2
   10c38:	40f60663          	beq	a2,a5,11044 <_vfprintf_r+0xc4c>
   10c3c:	1b010c93          	addi	s9,sp,432
   10c40:	01d91793          	slli	a5,s2,0x1d
   10c44:	007df713          	andi	a4,s11,7
   10c48:	003ddd93          	srli	s11,s11,0x3
   10c4c:	03070713          	addi	a4,a4,48
   10c50:	01b7edb3          	or	s11,a5,s11
   10c54:	00395913          	srli	s2,s2,0x3
   10c58:	feec8fa3          	sb	a4,-1(s9)
   10c5c:	012de7b3          	or	a5,s11,s2
   10c60:	000c8593          	mv	a1,s9
   10c64:	fffc8c93          	addi	s9,s9,-1
   10c68:	fc079ce3          	bnez	a5,10c40 <_vfprintf_r+0x848>
   10c6c:	0016f613          	andi	a2,a3,1
   10c70:	40060463          	beqz	a2,11078 <_vfprintf_r+0xc80>
   10c74:	03000613          	li	a2,48
   10c78:	40c70063          	beq	a4,a2,11078 <_vfprintf_r+0xc80>
   10c7c:	ffe58593          	addi	a1,a1,-2
   10c80:	1b010793          	addi	a5,sp,432
   10c84:	fecc8fa3          	sb	a2,-1(s9)
   10c88:	40b78933          	sub	s2,a5,a1
   10c8c:	00068c13          	mv	s8,a3
   10c90:	00058c93          	mv	s9,a1
   10c94:	c0dff06f          	j	108a0 <_vfprintf_r+0x4a8>
   10c98:	03012503          	lw	a0,48(sp)
   10c9c:	215020ef          	jal	ra,136b0 <__sinit>
   10ca0:	fd8ff06f          	j	10478 <_vfprintf_r+0x80>
   10ca4:	01812703          	lw	a4,24(sp)
   10ca8:	0c0103a3          	sb	zero,199(sp)
   10cac:	00100a93          	li	s5,1
   10cb0:	00072783          	lw	a5,0(a4)
   10cb4:	00470713          	addi	a4,a4,4
   10cb8:	00e12c23          	sw	a4,24(sp)
   10cbc:	14f10623          	sb	a5,332(sp)
   10cc0:	00100913          	li	s2,1
   10cc4:	14c10c93          	addi	s9,sp,332
   10cc8:	949ff06f          	j	10610 <_vfprintf_r+0x218>
   10ccc:	01812783          	lw	a5,24(sp)
   10cd0:	0c0103a3          	sb	zero,199(sp)
   10cd4:	0007ac83          	lw	s9,0(a5)
   10cd8:	00478b93          	addi	s7,a5,4
   10cdc:	3c0c88e3          	beqz	s9,118ac <_vfprintf_r+0x14b4>
   10ce0:	fff00693          	li	a3,-1
   10ce4:	00d99463          	bne	s3,a3,10cec <_vfprintf_r+0x8f4>
   10ce8:	1200106f          	j	11e08 <_vfprintf_r+0x1a10>
   10cec:	00098613          	mv	a2,s3
   10cf0:	00000593          	li	a1,0
   10cf4:	000c8513          	mv	a0,s9
   10cf8:	01112c23          	sw	a7,24(sp)
   10cfc:	680060ef          	jal	ra,1737c <memchr>
   10d00:	00a12a23          	sw	a0,20(sp)
   10d04:	01812883          	lw	a7,24(sp)
   10d08:	00051463          	bnez	a0,10d10 <_vfprintf_r+0x918>
   10d0c:	2f90106f          	j	12804 <_vfprintf_r+0x240c>
   10d10:	01412783          	lw	a5,20(sp)
   10d14:	0c714683          	lbu	a3,199(sp)
   10d18:	01712c23          	sw	s7,24(sp)
   10d1c:	41978933          	sub	s2,a5,s9
   10d20:	fff94813          	not	a6,s2
   10d24:	41f85813          	srai	a6,a6,0x1f
   10d28:	00012a23          	sw	zero,20(sp)
   10d2c:	02012623          	sw	zero,44(sp)
   10d30:	02012423          	sw	zero,40(sp)
   10d34:	02012023          	sw	zero,32(sp)
   10d38:	01097ab3          	and	s5,s2,a6
   10d3c:	00000993          	li	s3,0
   10d40:	b80692e3          	bnez	a3,108c4 <_vfprintf_r+0x4cc>
   10d44:	8e1ff06f          	j	10624 <_vfprintf_r+0x22c>
   10d48:	62091ae3          	bnez	s2,11b7c <_vfprintf_r+0x1784>
   10d4c:	00900793          	li	a5,9
   10d50:	63b7e6e3          	bltu	a5,s11,11b7c <_vfprintf_r+0x1784>
   10d54:	030d8d93          	addi	s11,s11,48
   10d58:	1bb107a3          	sb	s11,431(sp)
   10d5c:	00068c13          	mv	s8,a3
   10d60:	00100913          	li	s2,1
   10d64:	1af10c93          	addi	s9,sp,431
   10d68:	b39ff06f          	j	108a0 <_vfprintf_r+0x4a8>
   10d6c:	01812783          	lw	a5,24(sp)
   10d70:	0007ad03          	lw	s10,0(a5)
   10d74:	00478793          	addi	a5,a5,4
   10d78:	1a0d5ae3          	bgez	s10,1172c <_vfprintf_r+0x1334>
   10d7c:	41a00d33          	neg	s10,s10
   10d80:	00f12c23          	sw	a5,24(sp)
   10d84:	0004c883          	lbu	a7,0(s1)
   10d88:	004c6c13          	ori	s8,s8,4
   10d8c:	819ff06f          	j	105a4 <_vfprintf_r+0x1ac>
   10d90:	02b00793          	li	a5,43
   10d94:	0004c883          	lbu	a7,0(s1)
   10d98:	0cf103a3          	sb	a5,199(sp)
   10d9c:	809ff06f          	j	105a4 <_vfprintf_r+0x1ac>
   10da0:	0004c883          	lbu	a7,0(s1)
   10da4:	080c6c13          	ori	s8,s8,128
   10da8:	ffcff06f          	j	105a4 <_vfprintf_r+0x1ac>
   10dac:	0004c883          	lbu	a7,0(s1)
   10db0:	02a00793          	li	a5,42
   10db4:	00148713          	addi	a4,s1,1
   10db8:	00f89463          	bne	a7,a5,10dc0 <_vfprintf_r+0x9c8>
   10dbc:	6dd0106f          	j	12c98 <_vfprintf_r+0x28a0>
   10dc0:	fd088793          	addi	a5,a7,-48
   10dc4:	00900613          	li	a2,9
   10dc8:	00070493          	mv	s1,a4
   10dcc:	00000993          	li	s3,0
   10dd0:	00900693          	li	a3,9
   10dd4:	fcf66a63          	bltu	a2,a5,105a8 <_vfprintf_r+0x1b0>
   10dd8:	0004c883          	lbu	a7,0(s1)
   10ddc:	00299713          	slli	a4,s3,0x2
   10de0:	013709b3          	add	s3,a4,s3
   10de4:	00199993          	slli	s3,s3,0x1
   10de8:	00f989b3          	add	s3,s3,a5
   10dec:	fd088793          	addi	a5,a7,-48
   10df0:	00148493          	addi	s1,s1,1
   10df4:	fef6f2e3          	bgeu	a3,a5,10dd8 <_vfprintf_r+0x9e0>
   10df8:	fb0ff06f          	j	105a8 <_vfprintf_r+0x1b0>
   10dfc:	0004c883          	lbu	a7,0(s1)
   10e00:	001c6c13          	ori	s8,s8,1
   10e04:	fa0ff06f          	j	105a4 <_vfprintf_r+0x1ac>
   10e08:	0c714783          	lbu	a5,199(sp)
   10e0c:	0004c883          	lbu	a7,0(s1)
   10e10:	f8079a63          	bnez	a5,105a4 <_vfprintf_r+0x1ac>
   10e14:	02000793          	li	a5,32
   10e18:	0cf103a3          	sb	a5,199(sp)
   10e1c:	f88ff06f          	j	105a4 <_vfprintf_r+0x1ac>
   10e20:	0004c883          	lbu	a7,0(s1)
   10e24:	008c6c13          	ori	s8,s8,8
   10e28:	f7cff06f          	j	105a4 <_vfprintf_r+0x1ac>
   10e2c:	010c6693          	ori	a3,s8,16
   10e30:	0206f793          	andi	a5,a3,32
   10e34:	0a0784e3          	beqz	a5,116dc <_vfprintf_r+0x12e4>
   10e38:	01812783          	lw	a5,24(sp)
   10e3c:	00100613          	li	a2,1
   10e40:	00778b93          	addi	s7,a5,7
   10e44:	ff8bfb93          	andi	s7,s7,-8
   10e48:	008b8793          	addi	a5,s7,8
   10e4c:	000bad83          	lw	s11,0(s7)
   10e50:	004ba903          	lw	s2,4(s7)
   10e54:	00f12c23          	sw	a5,24(sp)
   10e58:	aa5ff06f          	j	108fc <_vfprintf_r+0x504>
   10e5c:	01812703          	lw	a4,24(sp)
   10e60:	ffff87b7          	lui	a5,0xffff8
   10e64:	8307c793          	xori	a5,a5,-2000
   10e68:	0cf11423          	sh	a5,200(sp)
   10e6c:	00470793          	addi	a5,a4,4
   10e70:	00f12c23          	sw	a5,24(sp)
   10e74:	000257b7          	lui	a5,0x25
   10e78:	11078793          	addi	a5,a5,272 # 25110 <__clzsi2+0x100>
   10e7c:	00072d83          	lw	s11,0(a4)
   10e80:	00000913          	li	s2,0
   10e84:	002c6693          	ori	a3,s8,2
   10e88:	02f12e23          	sw	a5,60(sp)
   10e8c:	00200613          	li	a2,2
   10e90:	07800893          	li	a7,120
   10e94:	a69ff06f          	j	108fc <_vfprintf_r+0x504>
   10e98:	0004c883          	lbu	a7,0(s1)
   10e9c:	06c00793          	li	a5,108
   10ea0:	1ef88ee3          	beq	a7,a5,1189c <_vfprintf_r+0x14a4>
   10ea4:	010c6c13          	ori	s8,s8,16
   10ea8:	efcff06f          	j	105a4 <_vfprintf_r+0x1ac>
   10eac:	0004c883          	lbu	a7,0(s1)
   10eb0:	06800793          	li	a5,104
   10eb4:	1af884e3          	beq	a7,a5,1185c <_vfprintf_r+0x1464>
   10eb8:	040c6c13          	ori	s8,s8,64
   10ebc:	ee8ff06f          	j	105a4 <_vfprintf_r+0x1ac>
   10ec0:	020c7793          	andi	a5,s8,32
   10ec4:	0c078ae3          	beqz	a5,11798 <_vfprintf_r+0x13a0>
   10ec8:	01812783          	lw	a5,24(sp)
   10ecc:	01012683          	lw	a3,16(sp)
   10ed0:	0007a783          	lw	a5,0(a5)
   10ed4:	41f6d713          	srai	a4,a3,0x1f
   10ed8:	00d7a023          	sw	a3,0(a5)
   10edc:	00e7a223          	sw	a4,4(a5)
   10ee0:	01812783          	lw	a5,24(sp)
   10ee4:	00048c93          	mv	s9,s1
   10ee8:	00478793          	addi	a5,a5,4
   10eec:	00f12c23          	sw	a5,24(sp)
   10ef0:	855ff06f          	j	10744 <_vfprintf_r+0x34c>
   10ef4:	06500693          	li	a3,101
   10ef8:	b716dee3          	bge	a3,a7,10a74 <_vfprintf_r+0x67c>
   10efc:	0f012683          	lw	a3,240(sp)
   10f00:	0a010593          	addi	a1,sp,160
   10f04:	0b010513          	addi	a0,sp,176
   10f08:	0ad12823          	sw	a3,176(sp)
   10f0c:	0f412683          	lw	a3,244(sp)
   10f10:	0a012023          	sw	zero,160(sp)
   10f14:	0a012223          	sw	zero,164(sp)
   10f18:	0ad12a23          	sw	a3,180(sp)
   10f1c:	0f812683          	lw	a3,248(sp)
   10f20:	0a012423          	sw	zero,168(sp)
   10f24:	0a012623          	sw	zero,172(sp)
   10f28:	0ad12c23          	sw	a3,184(sp)
   10f2c:	0fc12683          	lw	a3,252(sp)
   10f30:	0ad12e23          	sw	a3,188(sp)
   10f34:	3a5100ef          	jal	ra,21ad8 <__eqtf2>
   10f38:	52051e63          	bnez	a0,11474 <_vfprintf_r+0x107c>
   10f3c:	0ec12683          	lw	a3,236(sp)
   10f40:	0e812783          	lw	a5,232(sp)
   10f44:	00025637          	lui	a2,0x25
   10f48:	14060613          	addi	a2,a2,320 # 25140 <__clzsi2+0x130>
   10f4c:	00c42023          	sw	a2,0(s0)
   10f50:	00168693          	addi	a3,a3,1
   10f54:	00100613          	li	a2,1
   10f58:	00178793          	addi	a5,a5,1
   10f5c:	00c42223          	sw	a2,4(s0)
   10f60:	0ed12623          	sw	a3,236(sp)
   10f64:	0ef12423          	sw	a5,232(sp)
   10f68:	00700613          	li	a2,7
   10f6c:	00840413          	addi	s0,s0,8
   10f70:	54f648e3          	blt	a2,a5,11cc0 <_vfprintf_r+0x18c8>
   10f74:	0cc12783          	lw	a5,204(sp)
   10f78:	02412703          	lw	a4,36(sp)
   10f7c:	7ae7d063          	bge	a5,a4,1171c <_vfprintf_r+0x1324>
   10f80:	03812783          	lw	a5,56(sp)
   10f84:	03412703          	lw	a4,52(sp)
   10f88:	00700613          	li	a2,7
   10f8c:	00f42023          	sw	a5,0(s0)
   10f90:	0e812783          	lw	a5,232(sp)
   10f94:	00d706b3          	add	a3,a4,a3
   10f98:	00e42223          	sw	a4,4(s0)
   10f9c:	00178793          	addi	a5,a5,1
   10fa0:	0ed12623          	sw	a3,236(sp)
   10fa4:	0ef12423          	sw	a5,232(sp)
   10fa8:	00840413          	addi	s0,s0,8
   10fac:	0cf648e3          	blt	a2,a5,1187c <_vfprintf_r+0x1484>
   10fb0:	02412783          	lw	a5,36(sp)
   10fb4:	fff78913          	addi	s2,a5,-1
   10fb8:	f5205063          	blez	s2,106f8 <_vfprintf_r+0x300>
   10fbc:	00025e37          	lui	t3,0x25
   10fc0:	01000613          	li	a2,16
   10fc4:	0e812783          	lw	a5,232(sp)
   10fc8:	348e0b93          	addi	s7,t3,840 # 25348 <zeroes.0>
   10fcc:	51265ae3          	bge	a2,s2,11ce0 <_vfprintf_r+0x18e8>
   10fd0:	00812c83          	lw	s9,8(sp)
   10fd4:	01000993          	li	s3,16
   10fd8:	00700d93          	li	s11,7
   10fdc:	00c0006f          	j	10fe8 <_vfprintf_r+0xbf0>
   10fe0:	ff090913          	addi	s2,s2,-16
   10fe4:	4f29dee3          	bge	s3,s2,11ce0 <_vfprintf_r+0x18e8>
   10fe8:	01068693          	addi	a3,a3,16
   10fec:	00178793          	addi	a5,a5,1
   10ff0:	01742023          	sw	s7,0(s0)
   10ff4:	01342223          	sw	s3,4(s0)
   10ff8:	0ed12623          	sw	a3,236(sp)
   10ffc:	0ef12423          	sw	a5,232(sp)
   11000:	00840413          	addi	s0,s0,8
   11004:	fcfddee3          	bge	s11,a5,10fe0 <_vfprintf_r+0xbe8>
   11008:	0e410613          	addi	a2,sp,228
   1100c:	000c8593          	mv	a1,s9
   11010:	000a0513          	mv	a0,s4
   11014:	5940a0ef          	jal	ra,1b5a8 <__sprint_r>
   11018:	26051063          	bnez	a0,11278 <_vfprintf_r+0xe80>
   1101c:	0ec12683          	lw	a3,236(sp)
   11020:	0e812783          	lw	a5,232(sp)
   11024:	000b0413          	mv	s0,s6
   11028:	fb9ff06f          	j	10fe0 <_vfprintf_r+0xbe8>
   1102c:	00100793          	li	a5,1
   11030:	00f61463          	bne	a2,a5,11038 <_vfprintf_r+0xc40>
   11034:	0390106f          	j	1286c <_vfprintf_r+0x2474>
   11038:	00200793          	li	a5,2
   1103c:	000c0693          	mv	a3,s8
   11040:	bef61ee3          	bne	a2,a5,10c3c <_vfprintf_r+0x844>
   11044:	03c12603          	lw	a2,60(sp)
   11048:	1b010c93          	addi	s9,sp,432
   1104c:	00fdf793          	andi	a5,s11,15
   11050:	00f607b3          	add	a5,a2,a5
   11054:	0007c703          	lbu	a4,0(a5)
   11058:	004ddd93          	srli	s11,s11,0x4
   1105c:	01c91793          	slli	a5,s2,0x1c
   11060:	01b7edb3          	or	s11,a5,s11
   11064:	00495913          	srli	s2,s2,0x4
   11068:	feec8fa3          	sb	a4,-1(s9)
   1106c:	012de7b3          	or	a5,s11,s2
   11070:	fffc8c93          	addi	s9,s9,-1
   11074:	fc079ce3          	bnez	a5,1104c <_vfprintf_r+0xc54>
   11078:	1b010793          	addi	a5,sp,432
   1107c:	41978933          	sub	s2,a5,s9
   11080:	00068c13          	mv	s8,a3
   11084:	81dff06f          	j	108a0 <_vfprintf_r+0x4a8>
   11088:	415d0db3          	sub	s11,s10,s5
   1108c:	e3b05863          	blez	s11,106bc <_vfprintf_r+0x2c4>
   11090:	00025e37          	lui	t3,0x25
   11094:	01000513          	li	a0,16
   11098:	0ec12583          	lw	a1,236(sp)
   1109c:	0e812603          	lw	a2,232(sp)
   110a0:	348e0b93          	addi	s7,t3,840 # 25348 <zeroes.0>
   110a4:	09b55863          	bge	a0,s11,11134 <_vfprintf_r+0xd3c>
   110a8:	00040793          	mv	a5,s0
   110ac:	01000f13          	li	t5,16
   110b0:	000b8413          	mv	s0,s7
   110b4:	00700f93          	li	t6,7
   110b8:	000a8b93          	mv	s7,s5
   110bc:	00090a93          	mv	s5,s2
   110c0:	00088913          	mv	s2,a7
   110c4:	00c0006f          	j	110d0 <_vfprintf_r+0xcd8>
   110c8:	ff0d8d93          	addi	s11,s11,-16
   110cc:	05bf5a63          	bge	t5,s11,11120 <_vfprintf_r+0xd28>
   110d0:	01058593          	addi	a1,a1,16
   110d4:	00160613          	addi	a2,a2,1
   110d8:	0087a023          	sw	s0,0(a5)
   110dc:	01e7a223          	sw	t5,4(a5)
   110e0:	0eb12623          	sw	a1,236(sp)
   110e4:	0ec12423          	sw	a2,232(sp)
   110e8:	00878793          	addi	a5,a5,8
   110ec:	fccfdee3          	bge	t6,a2,110c8 <_vfprintf_r+0xcd0>
   110f0:	00812583          	lw	a1,8(sp)
   110f4:	0e410613          	addi	a2,sp,228
   110f8:	000a0513          	mv	a0,s4
   110fc:	4ac0a0ef          	jal	ra,1b5a8 <__sprint_r>
   11100:	16051c63          	bnez	a0,11278 <_vfprintf_r+0xe80>
   11104:	01000f13          	li	t5,16
   11108:	ff0d8d93          	addi	s11,s11,-16
   1110c:	0ec12583          	lw	a1,236(sp)
   11110:	0e812603          	lw	a2,232(sp)
   11114:	000b0793          	mv	a5,s6
   11118:	00700f93          	li	t6,7
   1111c:	fbbf4ae3          	blt	t5,s11,110d0 <_vfprintf_r+0xcd8>
   11120:	00090893          	mv	a7,s2
   11124:	000a8913          	mv	s2,s5
   11128:	000b8a93          	mv	s5,s7
   1112c:	00040b93          	mv	s7,s0
   11130:	00078413          	mv	s0,a5
   11134:	00bd85b3          	add	a1,s11,a1
   11138:	00160613          	addi	a2,a2,1
   1113c:	01742023          	sw	s7,0(s0)
   11140:	01b42223          	sw	s11,4(s0)
   11144:	0eb12623          	sw	a1,236(sp)
   11148:	0ec12423          	sw	a2,232(sp)
   1114c:	00700693          	li	a3,7
   11150:	00840413          	addi	s0,s0,8
   11154:	d6c6d463          	bge	a3,a2,106bc <_vfprintf_r+0x2c4>
   11158:	00812583          	lw	a1,8(sp)
   1115c:	0e410613          	addi	a2,sp,228
   11160:	000a0513          	mv	a0,s4
   11164:	05112823          	sw	a7,80(sp)
   11168:	4400a0ef          	jal	ra,1b5a8 <__sprint_r>
   1116c:	10051663          	bnez	a0,11278 <_vfprintf_r+0xe80>
   11170:	05012883          	lw	a7,80(sp)
   11174:	000b0413          	mv	s0,s6
   11178:	d44ff06f          	j	106bc <_vfprintf_r+0x2c4>
   1117c:	00025e37          	lui	t3,0x25
   11180:	01000693          	li	a3,16
   11184:	0ec12583          	lw	a1,236(sp)
   11188:	0e812603          	lw	a2,232(sp)
   1118c:	348e0b93          	addi	s7,t3,840 # 25348 <zeroes.0>
   11190:	0936d663          	bge	a3,s3,1121c <_vfprintf_r+0xe24>
   11194:	00040793          	mv	a5,s0
   11198:	00c12b83          	lw	s7,12(sp)
   1119c:	00098413          	mv	s0,s3
   111a0:	01000693          	li	a3,16
   111a4:	00090993          	mv	s3,s2
   111a8:	00700d93          	li	s11,7
   111ac:	00088913          	mv	s2,a7
   111b0:	00c0006f          	j	111bc <_vfprintf_r+0xdc4>
   111b4:	ff040413          	addi	s0,s0,-16
   111b8:	0486da63          	bge	a3,s0,1120c <_vfprintf_r+0xe14>
   111bc:	00c12703          	lw	a4,12(sp)
   111c0:	01058593          	addi	a1,a1,16
   111c4:	00160613          	addi	a2,a2,1
   111c8:	00e7a023          	sw	a4,0(a5)
   111cc:	00d7a223          	sw	a3,4(a5)
   111d0:	0eb12623          	sw	a1,236(sp)
   111d4:	0ec12423          	sw	a2,232(sp)
   111d8:	00878793          	addi	a5,a5,8
   111dc:	fccddce3          	bge	s11,a2,111b4 <_vfprintf_r+0xdbc>
   111e0:	00812583          	lw	a1,8(sp)
   111e4:	0e410613          	addi	a2,sp,228
   111e8:	000a0513          	mv	a0,s4
   111ec:	3bc0a0ef          	jal	ra,1b5a8 <__sprint_r>
   111f0:	08051463          	bnez	a0,11278 <_vfprintf_r+0xe80>
   111f4:	01000693          	li	a3,16
   111f8:	ff040413          	addi	s0,s0,-16
   111fc:	0ec12583          	lw	a1,236(sp)
   11200:	0e812603          	lw	a2,232(sp)
   11204:	000b0793          	mv	a5,s6
   11208:	fa86cae3          	blt	a3,s0,111bc <_vfprintf_r+0xdc4>
   1120c:	00090893          	mv	a7,s2
   11210:	00098913          	mv	s2,s3
   11214:	00040993          	mv	s3,s0
   11218:	00078413          	mv	s0,a5
   1121c:	00b985b3          	add	a1,s3,a1
   11220:	00160613          	addi	a2,a2,1
   11224:	01742023          	sw	s7,0(s0)
   11228:	01342223          	sw	s3,4(s0)
   1122c:	0eb12623          	sw	a1,236(sp)
   11230:	0ec12423          	sw	a2,232(sp)
   11234:	00700693          	li	a3,7
   11238:	00840413          	addi	s0,s0,8
   1123c:	c8c6d463          	bge	a3,a2,106c4 <_vfprintf_r+0x2cc>
   11240:	00812583          	lw	a1,8(sp)
   11244:	0e410613          	addi	a2,sp,228
   11248:	000a0513          	mv	a0,s4
   1124c:	05112823          	sw	a7,80(sp)
   11250:	3580a0ef          	jal	ra,1b5a8 <__sprint_r>
   11254:	02051263          	bnez	a0,11278 <_vfprintf_r+0xe80>
   11258:	05012883          	lw	a7,80(sp)
   1125c:	000b0413          	mv	s0,s6
   11260:	c64ff06f          	j	106c4 <_vfprintf_r+0x2cc>
   11264:	00812583          	lw	a1,8(sp)
   11268:	0e410613          	addi	a2,sp,228
   1126c:	000a0513          	mv	a0,s4
   11270:	3380a0ef          	jal	ra,1b5a8 <__sprint_r>
   11274:	ca050863          	beqz	a0,10724 <_vfprintf_r+0x32c>
   11278:	01412583          	lw	a1,20(sp)
   1127c:	cc058e63          	beqz	a1,10758 <_vfprintf_r+0x360>
   11280:	03012503          	lw	a0,48(sp)
   11284:	5f8020ef          	jal	ra,1387c <_free_r>
   11288:	cd0ff06f          	j	10758 <_vfprintf_r+0x360>
   1128c:	000c0693          	mv	a3,s8
   11290:	99dff06f          	j	10c2c <_vfprintf_r+0x834>
   11294:	00025e37          	lui	t3,0x25
   11298:	01000513          	li	a0,16
   1129c:	0ec12583          	lw	a1,236(sp)
   112a0:	0e812603          	lw	a2,232(sp)
   112a4:	358e0b93          	addi	s7,t3,856 # 25358 <blanks.1>
   112a8:	0ad55463          	bge	a0,a3,11350 <_vfprintf_r+0xf58>
   112ac:	04912a23          	sw	s1,84(sp)
   112b0:	00040793          	mv	a5,s0
   112b4:	000b8493          	mv	s1,s7
   112b8:	01000f13          	li	t5,16
   112bc:	000a8b93          	mv	s7,s5
   112c0:	00700393          	li	t2,7
   112c4:	00090a93          	mv	s5,s2
   112c8:	04512823          	sw	t0,80(sp)
   112cc:	00068413          	mv	s0,a3
   112d0:	00088913          	mv	s2,a7
   112d4:	00c0006f          	j	112e0 <_vfprintf_r+0xee8>
   112d8:	ff040413          	addi	s0,s0,-16
   112dc:	048f5a63          	bge	t5,s0,11330 <_vfprintf_r+0xf38>
   112e0:	01058593          	addi	a1,a1,16
   112e4:	00160613          	addi	a2,a2,1
   112e8:	0097a023          	sw	s1,0(a5)
   112ec:	01e7a223          	sw	t5,4(a5)
   112f0:	0eb12623          	sw	a1,236(sp)
   112f4:	0ec12423          	sw	a2,232(sp)
   112f8:	00878793          	addi	a5,a5,8
   112fc:	fcc3dee3          	bge	t2,a2,112d8 <_vfprintf_r+0xee0>
   11300:	00812583          	lw	a1,8(sp)
   11304:	0e410613          	addi	a2,sp,228
   11308:	000a0513          	mv	a0,s4
   1130c:	29c0a0ef          	jal	ra,1b5a8 <__sprint_r>
   11310:	f60514e3          	bnez	a0,11278 <_vfprintf_r+0xe80>
   11314:	01000f13          	li	t5,16
   11318:	ff040413          	addi	s0,s0,-16
   1131c:	0ec12583          	lw	a1,236(sp)
   11320:	0e812603          	lw	a2,232(sp)
   11324:	000b0793          	mv	a5,s6
   11328:	00700393          	li	t2,7
   1132c:	fa8f4ae3          	blt	t5,s0,112e0 <_vfprintf_r+0xee8>
   11330:	00090893          	mv	a7,s2
   11334:	05012283          	lw	t0,80(sp)
   11338:	000a8913          	mv	s2,s5
   1133c:	000b8a93          	mv	s5,s7
   11340:	00048b93          	mv	s7,s1
   11344:	05412483          	lw	s1,84(sp)
   11348:	00040693          	mv	a3,s0
   1134c:	00078413          	mv	s0,a5
   11350:	00b685b3          	add	a1,a3,a1
   11354:	00160613          	addi	a2,a2,1
   11358:	00d42223          	sw	a3,4(s0)
   1135c:	01742023          	sw	s7,0(s0)
   11360:	0eb12623          	sw	a1,236(sp)
   11364:	0ec12423          	sw	a2,232(sp)
   11368:	00700693          	li	a3,7
   1136c:	00840413          	addi	s0,s0,8
   11370:	acc6d863          	bge	a3,a2,10640 <_vfprintf_r+0x248>
   11374:	00812583          	lw	a1,8(sp)
   11378:	0e410613          	addi	a2,sp,228
   1137c:	000a0513          	mv	a0,s4
   11380:	05112a23          	sw	a7,84(sp)
   11384:	04512823          	sw	t0,80(sp)
   11388:	2200a0ef          	jal	ra,1b5a8 <__sprint_r>
   1138c:	ee0516e3          	bnez	a0,11278 <_vfprintf_r+0xe80>
   11390:	05412883          	lw	a7,84(sp)
   11394:	05012283          	lw	t0,80(sp)
   11398:	000b0413          	mv	s0,s6
   1139c:	aa4ff06f          	j	10640 <_vfprintf_r+0x248>
   113a0:	00812583          	lw	a1,8(sp)
   113a4:	0e410613          	addi	a2,sp,228
   113a8:	000a0513          	mv	a0,s4
   113ac:	05112823          	sw	a7,80(sp)
   113b0:	1f80a0ef          	jal	ra,1b5a8 <__sprint_r>
   113b4:	ec0512e3          	bnez	a0,11278 <_vfprintf_r+0xe80>
   113b8:	05012883          	lw	a7,80(sp)
   113bc:	000b0413          	mv	s0,s6
   113c0:	af4ff06f          	j	106b4 <_vfprintf_r+0x2bc>
   113c4:	00025e37          	lui	t3,0x25
   113c8:	01000713          	li	a4,16
   113cc:	0e812783          	lw	a5,232(sp)
   113d0:	358e0b93          	addi	s7,t3,856 # 25358 <blanks.1>
   113d4:	07275263          	bge	a4,s2,11438 <_vfprintf_r+0x1040>
   113d8:	00812c03          	lw	s8,8(sp)
   113dc:	01000993          	li	s3,16
   113e0:	00700d93          	li	s11,7
   113e4:	00c0006f          	j	113f0 <_vfprintf_r+0xff8>
   113e8:	ff090913          	addi	s2,s2,-16
   113ec:	0529d663          	bge	s3,s2,11438 <_vfprintf_r+0x1040>
   113f0:	01068693          	addi	a3,a3,16
   113f4:	00178793          	addi	a5,a5,1
   113f8:	01742023          	sw	s7,0(s0)
   113fc:	01342223          	sw	s3,4(s0)
   11400:	0ed12623          	sw	a3,236(sp)
   11404:	0ef12423          	sw	a5,232(sp)
   11408:	00840413          	addi	s0,s0,8
   1140c:	fcfddee3          	bge	s11,a5,113e8 <_vfprintf_r+0xff0>
   11410:	0e410613          	addi	a2,sp,228
   11414:	000c0593          	mv	a1,s8
   11418:	000a0513          	mv	a0,s4
   1141c:	18c0a0ef          	jal	ra,1b5a8 <__sprint_r>
   11420:	e4051ce3          	bnez	a0,11278 <_vfprintf_r+0xe80>
   11424:	ff090913          	addi	s2,s2,-16
   11428:	0ec12683          	lw	a3,236(sp)
   1142c:	0e812783          	lw	a5,232(sp)
   11430:	000b0413          	mv	s0,s6
   11434:	fb29cee3          	blt	s3,s2,113f0 <_vfprintf_r+0xff8>
   11438:	012686b3          	add	a3,a3,s2
   1143c:	00178793          	addi	a5,a5,1
   11440:	01742023          	sw	s7,0(s0)
   11444:	01242223          	sw	s2,4(s0)
   11448:	0ed12623          	sw	a3,236(sp)
   1144c:	0ef12423          	sw	a5,232(sp)
   11450:	00700713          	li	a4,7
   11454:	aaf75a63          	bge	a4,a5,10708 <_vfprintf_r+0x310>
   11458:	00812583          	lw	a1,8(sp)
   1145c:	0e410613          	addi	a2,sp,228
   11460:	000a0513          	mv	a0,s4
   11464:	1440a0ef          	jal	ra,1b5a8 <__sprint_r>
   11468:	e00518e3          	bnez	a0,11278 <_vfprintf_r+0xe80>
   1146c:	0ec12683          	lw	a3,236(sp)
   11470:	a98ff06f          	j	10708 <_vfprintf_r+0x310>
   11474:	0cc12503          	lw	a0,204(sp)
   11478:	7ca05263          	blez	a0,11c3c <_vfprintf_r+0x1844>
   1147c:	02412783          	lw	a5,36(sp)
   11480:	00fc8733          	add	a4,s9,a5
   11484:	04e12823          	sw	a4,80(sp)
   11488:	02012703          	lw	a4,32(sp)
   1148c:	00070913          	mv	s2,a4
   11490:	34e7cc63          	blt	a5,a4,117e8 <_vfprintf_r+0x13f0>
   11494:	0ec12683          	lw	a3,236(sp)
   11498:	03205663          	blez	s2,114c4 <_vfprintf_r+0x10cc>
   1149c:	0e812603          	lw	a2,232(sp)
   114a0:	012686b3          	add	a3,a3,s2
   114a4:	01942023          	sw	s9,0(s0)
   114a8:	00160613          	addi	a2,a2,1
   114ac:	01242223          	sw	s2,4(s0)
   114b0:	0ed12623          	sw	a3,236(sp)
   114b4:	0ec12423          	sw	a2,232(sp)
   114b8:	00700593          	li	a1,7
   114bc:	00840413          	addi	s0,s0,8
   114c0:	44c5c8e3          	blt	a1,a2,12110 <_vfprintf_r+0x1d18>
   114c4:	fff94613          	not	a2,s2
   114c8:	02012783          	lw	a5,32(sp)
   114cc:	41f65613          	srai	a2,a2,0x1f
   114d0:	00c978b3          	and	a7,s2,a2
   114d4:	41178933          	sub	s2,a5,a7
   114d8:	3f204a63          	bgtz	s2,118cc <_vfprintf_r+0x14d4>
   114dc:	02012783          	lw	a5,32(sp)
   114e0:	400c7613          	andi	a2,s8,1024
   114e4:	00fc8cb3          	add	s9,s9,a5
   114e8:	1c0616e3          	bnez	a2,11eb4 <_vfprintf_r+0x1abc>
   114ec:	0cc12903          	lw	s2,204(sp)
   114f0:	02412783          	lw	a5,36(sp)
   114f4:	00f94663          	blt	s2,a5,11500 <_vfprintf_r+0x1108>
   114f8:	001c7613          	andi	a2,s8,1
   114fc:	42060ee3          	beqz	a2,12138 <_vfprintf_r+0x1d40>
   11500:	03412783          	lw	a5,52(sp)
   11504:	0e812603          	lw	a2,232(sp)
   11508:	03812703          	lw	a4,56(sp)
   1150c:	00d786b3          	add	a3,a5,a3
   11510:	00160613          	addi	a2,a2,1
   11514:	00e42023          	sw	a4,0(s0)
   11518:	00f42223          	sw	a5,4(s0)
   1151c:	0ed12623          	sw	a3,236(sp)
   11520:	0ec12423          	sw	a2,232(sp)
   11524:	00700593          	li	a1,7
   11528:	00840413          	addi	s0,s0,8
   1152c:	00c5d463          	bge	a1,a2,11534 <_vfprintf_r+0x113c>
   11530:	29c0106f          	j	127cc <_vfprintf_r+0x23d4>
   11534:	02412783          	lw	a5,36(sp)
   11538:	41278933          	sub	s2,a5,s2
   1153c:	05012783          	lw	a5,80(sp)
   11540:	419789b3          	sub	s3,a5,s9
   11544:	01395463          	bge	s2,s3,1154c <_vfprintf_r+0x1154>
   11548:	00090993          	mv	s3,s2
   1154c:	03305863          	blez	s3,1157c <_vfprintf_r+0x1184>
   11550:	0e812783          	lw	a5,232(sp)
   11554:	013686b3          	add	a3,a3,s3
   11558:	01942023          	sw	s9,0(s0)
   1155c:	00178793          	addi	a5,a5,1
   11560:	01342223          	sw	s3,4(s0)
   11564:	0ed12623          	sw	a3,236(sp)
   11568:	0ef12423          	sw	a5,232(sp)
   1156c:	00700613          	li	a2,7
   11570:	00840413          	addi	s0,s0,8
   11574:	00f65463          	bge	a2,a5,1157c <_vfprintf_r+0x1184>
   11578:	2c40106f          	j	1283c <_vfprintf_r+0x2444>
   1157c:	fff9c793          	not	a5,s3
   11580:	41f7d793          	srai	a5,a5,0x1f
   11584:	00f9f9b3          	and	s3,s3,a5
   11588:	41390933          	sub	s2,s2,s3
   1158c:	97205663          	blez	s2,106f8 <_vfprintf_r+0x300>
   11590:	00025e37          	lui	t3,0x25
   11594:	01000613          	li	a2,16
   11598:	0e812783          	lw	a5,232(sp)
   1159c:	348e0b93          	addi	s7,t3,840 # 25348 <zeroes.0>
   115a0:	75265063          	bge	a2,s2,11ce0 <_vfprintf_r+0x18e8>
   115a4:	00812c83          	lw	s9,8(sp)
   115a8:	01000993          	li	s3,16
   115ac:	00700d93          	li	s11,7
   115b0:	00c0006f          	j	115bc <_vfprintf_r+0x11c4>
   115b4:	ff090913          	addi	s2,s2,-16
   115b8:	7329d463          	bge	s3,s2,11ce0 <_vfprintf_r+0x18e8>
   115bc:	01068693          	addi	a3,a3,16
   115c0:	00178793          	addi	a5,a5,1
   115c4:	01742023          	sw	s7,0(s0)
   115c8:	01342223          	sw	s3,4(s0)
   115cc:	0ed12623          	sw	a3,236(sp)
   115d0:	0ef12423          	sw	a5,232(sp)
   115d4:	00840413          	addi	s0,s0,8
   115d8:	fcfddee3          	bge	s11,a5,115b4 <_vfprintf_r+0x11bc>
   115dc:	0e410613          	addi	a2,sp,228
   115e0:	000c8593          	mv	a1,s9
   115e4:	000a0513          	mv	a0,s4
   115e8:	7c1090ef          	jal	ra,1b5a8 <__sprint_r>
   115ec:	c80516e3          	bnez	a0,11278 <_vfprintf_r+0xe80>
   115f0:	0ec12683          	lw	a3,236(sp)
   115f4:	0e812783          	lw	a5,232(sp)
   115f8:	000b0413          	mv	s0,s6
   115fc:	fb9ff06f          	j	115b4 <_vfprintf_r+0x11bc>
   11600:	001c7693          	andi	a3,s8,1
   11604:	c8069063          	bnez	a3,10a84 <_vfprintf_r+0x68c>
   11608:	0e812783          	lw	a5,232(sp)
   1160c:	0ec12683          	lw	a3,236(sp)
   11610:	01942023          	sw	s9,0(s0)
   11614:	00178913          	addi	s2,a5,1
   11618:	00168d93          	addi	s11,a3,1
   1161c:	00c42223          	sw	a2,4(s0)
   11620:	0fb12623          	sw	s11,236(sp)
   11624:	0f212423          	sw	s2,232(sp)
   11628:	00700793          	li	a5,7
   1162c:	d327d463          	bge	a5,s2,10b54 <_vfprintf_r+0x75c>
   11630:	00812583          	lw	a1,8(sp)
   11634:	0e410613          	addi	a2,sp,228
   11638:	000a0513          	mv	a0,s4
   1163c:	76d090ef          	jal	ra,1b5a8 <__sprint_r>
   11640:	c2051ce3          	bnez	a0,11278 <_vfprintf_r+0xe80>
   11644:	0ec12d83          	lw	s11,236(sp)
   11648:	0e812903          	lw	s2,232(sp)
   1164c:	000b0993          	mv	s3,s6
   11650:	d04ff06f          	j	10b54 <_vfprintf_r+0x75c>
   11654:	02412703          	lw	a4,36(sp)
   11658:	00100793          	li	a5,1
   1165c:	cee7dc63          	bge	a5,a4,10b54 <_vfprintf_r+0x75c>
   11660:	00025e37          	lui	t3,0x25
   11664:	01100793          	li	a5,17
   11668:	348e0b93          	addi	s7,t3,840 # 25348 <zeroes.0>
   1166c:	78e7d663          	bge	a5,a4,11df8 <_vfprintf_r+0x1a00>
   11670:	000b8713          	mv	a4,s7
   11674:	01000793          	li	a5,16
   11678:	000a8b93          	mv	s7,s5
   1167c:	00700c93          	li	s9,7
   11680:	00048a93          	mv	s5,s1
   11684:	00070493          	mv	s1,a4
   11688:	00c0006f          	j	11694 <_vfprintf_r+0x129c>
   1168c:	ff040413          	addi	s0,s0,-16
   11690:	7487dc63          	bge	a5,s0,11de8 <_vfprintf_r+0x19f0>
   11694:	010d8d93          	addi	s11,s11,16
   11698:	00190913          	addi	s2,s2,1
   1169c:	0099a023          	sw	s1,0(s3)
   116a0:	00f9a223          	sw	a5,4(s3)
   116a4:	0fb12623          	sw	s11,236(sp)
   116a8:	0f212423          	sw	s2,232(sp)
   116ac:	00898993          	addi	s3,s3,8
   116b0:	fd2cdee3          	bge	s9,s2,1168c <_vfprintf_r+0x1294>
   116b4:	00812583          	lw	a1,8(sp)
   116b8:	0e410613          	addi	a2,sp,228
   116bc:	000a0513          	mv	a0,s4
   116c0:	6e9090ef          	jal	ra,1b5a8 <__sprint_r>
   116c4:	ba051ae3          	bnez	a0,11278 <_vfprintf_r+0xe80>
   116c8:	0ec12d83          	lw	s11,236(sp)
   116cc:	0e812903          	lw	s2,232(sp)
   116d0:	000b0993          	mv	s3,s6
   116d4:	01000793          	li	a5,16
   116d8:	fb5ff06f          	j	1168c <_vfprintf_r+0x1294>
   116dc:	01812703          	lw	a4,24(sp)
   116e0:	0106f793          	andi	a5,a3,16
   116e4:	00072d83          	lw	s11,0(a4)
   116e8:	00470713          	addi	a4,a4,4
   116ec:	00e12c23          	sw	a4,24(sp)
   116f0:	04079a63          	bnez	a5,11744 <_vfprintf_r+0x134c>
   116f4:	0406f793          	andi	a5,a3,64
   116f8:	04078063          	beqz	a5,11738 <_vfprintf_r+0x1340>
   116fc:	010d9d93          	slli	s11,s11,0x10
   11700:	010ddd93          	srli	s11,s11,0x10
   11704:	00000913          	li	s2,0
   11708:	00100613          	li	a2,1
   1170c:	9f0ff06f          	j	108fc <_vfprintf_r+0x504>
   11710:	00000913          	li	s2,0
   11714:	1b010c93          	addi	s9,sp,432
   11718:	988ff06f          	j	108a0 <_vfprintf_r+0x4a8>
   1171c:	001c7793          	andi	a5,s8,1
   11720:	00079463          	bnez	a5,11728 <_vfprintf_r+0x1330>
   11724:	fd5fe06f          	j	106f8 <_vfprintf_r+0x300>
   11728:	859ff06f          	j	10f80 <_vfprintf_r+0xb88>
   1172c:	0004c883          	lbu	a7,0(s1)
   11730:	00f12c23          	sw	a5,24(sp)
   11734:	e71fe06f          	j	105a4 <_vfprintf_r+0x1ac>
   11738:	2006f793          	andi	a5,a3,512
   1173c:	00078463          	beqz	a5,11744 <_vfprintf_r+0x134c>
   11740:	0ffdfd93          	zext.b	s11,s11
   11744:	00000913          	li	s2,0
   11748:	00100613          	li	a2,1
   1174c:	9b0ff06f          	j	108fc <_vfprintf_r+0x504>
   11750:	200c7793          	andi	a5,s8,512
   11754:	200798e3          	bnez	a5,12164 <_vfprintf_r+0x1d6c>
   11758:	00000913          	li	s2,0
   1175c:	998ff06f          	j	108f4 <_vfprintf_r+0x4fc>
   11760:	200c7793          	andi	a5,s8,512
   11764:	200796e3          	bnez	a5,12170 <_vfprintf_r+0x1d78>
   11768:	41fdd913          	srai	s2,s11,0x1f
   1176c:	00090793          	mv	a5,s2
   11770:	904ff06f          	j	10874 <_vfprintf_r+0x47c>
   11774:	01812783          	lw	a5,24(sp)
   11778:	0007a683          	lw	a3,0(a5)
   1177c:	00478793          	addi	a5,a5,4
   11780:	00f12c23          	sw	a5,24(sp)
   11784:	0006a803          	lw	a6,0(a3)
   11788:	0046a583          	lw	a1,4(a3)
   1178c:	0086a603          	lw	a2,8(a3)
   11790:	00c6a683          	lw	a3,12(a3)
   11794:	a18ff06f          	j	109ac <_vfprintf_r+0x5b4>
   11798:	010c7793          	andi	a5,s8,16
   1179c:	5c079c63          	bnez	a5,11d74 <_vfprintf_r+0x197c>
   117a0:	040c7793          	andi	a5,s8,64
   117a4:	1a0796e3          	bnez	a5,12150 <_vfprintf_r+0x1d58>
   117a8:	200c7713          	andi	a4,s8,512
   117ac:	5c070463          	beqz	a4,11d74 <_vfprintf_r+0x197c>
   117b0:	01812783          	lw	a5,24(sp)
   117b4:	01012703          	lw	a4,16(sp)
   117b8:	0007a783          	lw	a5,0(a5)
   117bc:	00e78023          	sb	a4,0(a5)
   117c0:	f20ff06f          	j	10ee0 <_vfprintf_r+0xae8>
   117c4:	04012783          	lw	a5,64(sp)
   117c8:	0004c883          	lbu	a7,0(s1)
   117cc:	00079463          	bnez	a5,117d4 <_vfprintf_r+0x13dc>
   117d0:	dd5fe06f          	j	105a4 <_vfprintf_r+0x1ac>
   117d4:	0007c783          	lbu	a5,0(a5)
   117d8:	00079463          	bnez	a5,117e0 <_vfprintf_r+0x13e8>
   117dc:	dc9fe06f          	j	105a4 <_vfprintf_r+0x1ac>
   117e0:	400c6c13          	ori	s8,s8,1024
   117e4:	dc1fe06f          	j	105a4 <_vfprintf_r+0x1ac>
   117e8:	00078913          	mv	s2,a5
   117ec:	0ec12683          	lw	a3,236(sp)
   117f0:	cb2046e3          	bgtz	s2,1149c <_vfprintf_r+0x10a4>
   117f4:	cd1ff06f          	j	114c4 <_vfprintf_r+0x10cc>
   117f8:	000c0693          	mv	a3,s8
   117fc:	e34ff06f          	j	10e30 <_vfprintf_r+0xa38>
   11800:	000257b7          	lui	a5,0x25
   11804:	12478793          	addi	a5,a5,292 # 25124 <__clzsi2+0x114>
   11808:	02f12e23          	sw	a5,60(sp)
   1180c:	020c7793          	andi	a5,s8,32
   11810:	2e078263          	beqz	a5,11af4 <_vfprintf_r+0x16fc>
   11814:	01812783          	lw	a5,24(sp)
   11818:	00778b93          	addi	s7,a5,7
   1181c:	ff8bfb93          	andi	s7,s7,-8
   11820:	000bad83          	lw	s11,0(s7)
   11824:	004ba903          	lw	s2,4(s7)
   11828:	008b8793          	addi	a5,s7,8
   1182c:	00f12c23          	sw	a5,24(sp)
   11830:	001c7793          	andi	a5,s8,1
   11834:	00078e63          	beqz	a5,11850 <_vfprintf_r+0x1458>
   11838:	012de7b3          	or	a5,s11,s2
   1183c:	00078a63          	beqz	a5,11850 <_vfprintf_r+0x1458>
   11840:	03000793          	li	a5,48
   11844:	0cf10423          	sb	a5,200(sp)
   11848:	0d1104a3          	sb	a7,201(sp)
   1184c:	002c6c13          	ori	s8,s8,2
   11850:	bffc7693          	andi	a3,s8,-1025
   11854:	00200613          	li	a2,2
   11858:	8a4ff06f          	j	108fc <_vfprintf_r+0x504>
   1185c:	0014c883          	lbu	a7,1(s1)
   11860:	200c6c13          	ori	s8,s8,512
   11864:	00148493          	addi	s1,s1,1
   11868:	d3dfe06f          	j	105a4 <_vfprintf_r+0x1ac>
   1186c:	000257b7          	lui	a5,0x25
   11870:	11078793          	addi	a5,a5,272 # 25110 <__clzsi2+0x100>
   11874:	02f12e23          	sw	a5,60(sp)
   11878:	f95ff06f          	j	1180c <_vfprintf_r+0x1414>
   1187c:	00812583          	lw	a1,8(sp)
   11880:	0e410613          	addi	a2,sp,228
   11884:	000a0513          	mv	a0,s4
   11888:	521090ef          	jal	ra,1b5a8 <__sprint_r>
   1188c:	9e0516e3          	bnez	a0,11278 <_vfprintf_r+0xe80>
   11890:	0ec12683          	lw	a3,236(sp)
   11894:	000b0413          	mv	s0,s6
   11898:	f18ff06f          	j	10fb0 <_vfprintf_r+0xbb8>
   1189c:	0014c883          	lbu	a7,1(s1)
   118a0:	020c6c13          	ori	s8,s8,32
   118a4:	00148493          	addi	s1,s1,1
   118a8:	cfdfe06f          	j	105a4 <_vfprintf_r+0x1ac>
   118ac:	00600793          	li	a5,6
   118b0:	00098913          	mv	s2,s3
   118b4:	0737eee3          	bltu	a5,s3,12130 <_vfprintf_r+0x1d38>
   118b8:	000257b7          	lui	a5,0x25
   118bc:	00090a93          	mv	s5,s2
   118c0:	01712c23          	sw	s7,24(sp)
   118c4:	13878c93          	addi	s9,a5,312 # 25138 <__clzsi2+0x128>
   118c8:	d49fe06f          	j	10610 <_vfprintf_r+0x218>
   118cc:	00025e37          	lui	t3,0x25
   118d0:	01000593          	li	a1,16
   118d4:	0e812603          	lw	a2,232(sp)
   118d8:	348e0b93          	addi	s7,t3,840 # 25348 <zeroes.0>
   118dc:	5925da63          	bge	a1,s2,11e70 <_vfprintf_r+0x1a78>
   118e0:	00812d83          	lw	s11,8(sp)
   118e4:	01000e93          	li	t4,16
   118e8:	00700993          	li	s3,7
   118ec:	00c0006f          	j	118f8 <_vfprintf_r+0x1500>
   118f0:	ff090913          	addi	s2,s2,-16
   118f4:	572ede63          	bge	t4,s2,11e70 <_vfprintf_r+0x1a78>
   118f8:	01068693          	addi	a3,a3,16
   118fc:	00160613          	addi	a2,a2,1
   11900:	01742023          	sw	s7,0(s0)
   11904:	01d42223          	sw	t4,4(s0)
   11908:	0ed12623          	sw	a3,236(sp)
   1190c:	0ec12423          	sw	a2,232(sp)
   11910:	00840413          	addi	s0,s0,8
   11914:	fcc9dee3          	bge	s3,a2,118f0 <_vfprintf_r+0x14f8>
   11918:	0e410613          	addi	a2,sp,228
   1191c:	000d8593          	mv	a1,s11
   11920:	000a0513          	mv	a0,s4
   11924:	485090ef          	jal	ra,1b5a8 <__sprint_r>
   11928:	940518e3          	bnez	a0,11278 <_vfprintf_r+0xe80>
   1192c:	0ec12683          	lw	a3,236(sp)
   11930:	0e812603          	lw	a2,232(sp)
   11934:	000b0413          	mv	s0,s6
   11938:	01000e93          	li	t4,16
   1193c:	fb5ff06f          	j	118f0 <_vfprintf_r+0x14f8>
   11940:	07800793          	li	a5,120
   11944:	03000693          	li	a3,48
   11948:	0cf104a3          	sb	a5,201(sp)
   1194c:	002c6793          	ori	a5,s8,2
   11950:	0cd10423          	sb	a3,200(sp)
   11954:	02f12423          	sw	a5,40(sp)
   11958:	06300693          	li	a3,99
   1195c:	00012a23          	sw	zero,20(sp)
   11960:	14c10c93          	addi	s9,sp,332
   11964:	0936c8e3          	blt	a3,s3,121f4 <_vfprintf_r+0x1dfc>
   11968:	0fc12d83          	lw	s11,252(sp)
   1196c:	102c6793          	ori	a5,s8,258
   11970:	04f12e23          	sw	a5,92(sp)
   11974:	06012023          	sw	zero,96(sp)
   11978:	0f012f03          	lw	t5,240(sp)
   1197c:	0f412e83          	lw	t4,244(sp)
   11980:	0f812e03          	lw	t3,248(sp)
   11984:	020dcae3          	bltz	s11,121b8 <_vfprintf_r+0x1dc0>
   11988:	06100713          	li	a4,97
   1198c:	00e89463          	bne	a7,a4,11994 <_vfprintf_r+0x159c>
   11990:	0fc0106f          	j	12a8c <_vfprintf_r+0x2694>
   11994:	fbf88713          	addi	a4,a7,-65
   11998:	02500693          	li	a3,37
   1199c:	00e6ee63          	bltu	a3,a4,119b8 <_vfprintf_r+0x15c0>
   119a0:	000256b7          	lui	a3,0x25
   119a4:	00271713          	slli	a4,a4,0x2
   119a8:	2b068693          	addi	a3,a3,688 # 252b0 <__clzsi2+0x2a0>
   119ac:	00d70733          	add	a4,a4,a3
   119b0:	00072703          	lw	a4,0(a4)
   119b4:	00070067          	jr	a4
   119b8:	00098693          	mv	a3,s3
   119bc:	00200613          	li	a2,2
   119c0:	0b010913          	addi	s2,sp,176
   119c4:	0cc10713          	addi	a4,sp,204
   119c8:	0dc10813          	addi	a6,sp,220
   119cc:	0d010793          	addi	a5,sp,208
   119d0:	00090593          	mv	a1,s2
   119d4:	000a0513          	mv	a0,s4
   119d8:	05112a23          	sw	a7,84(sp)
   119dc:	04d12823          	sw	a3,80(sp)
   119e0:	0be12823          	sw	t5,176(sp)
   119e4:	03e12623          	sw	t5,44(sp)
   119e8:	0bd12a23          	sw	t4,180(sp)
   119ec:	03d12223          	sw	t4,36(sp)
   119f0:	0bc12c23          	sw	t3,184(sp)
   119f4:	03c12023          	sw	t3,32(sp)
   119f8:	0bb12e23          	sw	s11,188(sp)
   119fc:	3ed030ef          	jal	ra,155e8 <_ldtoa_r>
   11a00:	05412883          	lw	a7,84(sp)
   11a04:	06700713          	li	a4,103
   11a08:	02012e03          	lw	t3,32(sp)
   11a0c:	02412e83          	lw	t4,36(sp)
   11a10:	02c12f03          	lw	t5,44(sp)
   11a14:	05012683          	lw	a3,80(sp)
   11a18:	00050c93          	mv	s9,a0
   11a1c:	7ee88e63          	beq	a7,a4,12218 <_vfprintf_r+0x1e20>
   11a20:	04700713          	li	a4,71
   11a24:	7ee88a63          	beq	a7,a4,12218 <_vfprintf_r+0x1e20>
   11a28:	fdf8fa93          	andi	s5,a7,-33
   11a2c:	04600593          	li	a1,70
   11a30:	00d50bb3          	add	s7,a0,a3
   11a34:	0a010c13          	addi	s8,sp,160
   11a38:	00ba9c63          	bne	s5,a1,11a50 <_vfprintf_r+0x1658>
   11a3c:	00054503          	lbu	a0,0(a0)
   11a40:	03000593          	li	a1,48
   11a44:	12b504e3          	beq	a0,a1,1236c <_vfprintf_r+0x1f74>
   11a48:	0cc12683          	lw	a3,204(sp)
   11a4c:	00db8bb3          	add	s7,s7,a3
   11a50:	000c0593          	mv	a1,s8
   11a54:	00090513          	mv	a0,s2
   11a58:	03112023          	sw	a7,32(sp)
   11a5c:	0be12823          	sw	t5,176(sp)
   11a60:	0bd12a23          	sw	t4,180(sp)
   11a64:	0bc12c23          	sw	t3,184(sp)
   11a68:	0bb12e23          	sw	s11,188(sp)
   11a6c:	0a012023          	sw	zero,160(sp)
   11a70:	0a012223          	sw	zero,164(sp)
   11a74:	0a012423          	sw	zero,168(sp)
   11a78:	0a012623          	sw	zero,172(sp)
   11a7c:	05c100ef          	jal	ra,21ad8 <__eqtf2>
   11a80:	02012883          	lw	a7,32(sp)
   11a84:	000b8c13          	mv	s8,s7
   11a88:	02050263          	beqz	a0,11aac <_vfprintf_r+0x16b4>
   11a8c:	0dc12c03          	lw	s8,220(sp)
   11a90:	017c7e63          	bgeu	s8,s7,11aac <_vfprintf_r+0x16b4>
   11a94:	03000593          	li	a1,48
   11a98:	001c0793          	addi	a5,s8,1
   11a9c:	0cf12e23          	sw	a5,220(sp)
   11aa0:	00bc0023          	sb	a1,0(s8)
   11aa4:	0dc12c03          	lw	s8,220(sp)
   11aa8:	ff7c68e3          	bltu	s8,s7,11a98 <_vfprintf_r+0x16a0>
   11aac:	419c07b3          	sub	a5,s8,s9
   11ab0:	02f12223          	sw	a5,36(sp)
   11ab4:	0cc12703          	lw	a4,204(sp)
   11ab8:	04700693          	li	a3,71
   11abc:	02e12023          	sw	a4,32(sp)
   11ac0:	76da8a63          	beq	s5,a3,12234 <_vfprintf_r+0x1e3c>
   11ac4:	04600693          	li	a3,70
   11ac8:	66da80e3          	beq	s5,a3,12928 <_vfprintf_r+0x2530>
   11acc:	fff70d93          	addi	s11,a4,-1
   11ad0:	0db12623          	sw	s11,204(sp)
   11ad4:	06100693          	li	a3,97
   11ad8:	00d89463          	bne	a7,a3,11ae0 <_vfprintf_r+0x16e8>
   11adc:	1680106f          	j	12c44 <_vfprintf_r+0x284c>
   11ae0:	04100613          	li	a2,65
   11ae4:	05000693          	li	a3,80
   11ae8:	76c89463          	bne	a7,a2,12250 <_vfprintf_r+0x1e58>
   11aec:	00100613          	li	a2,1
   11af0:	7680006f          	j	12258 <_vfprintf_r+0x1e60>
   11af4:	01812703          	lw	a4,24(sp)
   11af8:	010c7793          	andi	a5,s8,16
   11afc:	00072d83          	lw	s11,0(a4)
   11b00:	00470713          	addi	a4,a4,4
   11b04:	00e12c23          	sw	a4,24(sp)
   11b08:	06079663          	bnez	a5,11b74 <_vfprintf_r+0x177c>
   11b0c:	040c7793          	andi	a5,s8,64
   11b10:	04078e63          	beqz	a5,11b6c <_vfprintf_r+0x1774>
   11b14:	010d9d93          	slli	s11,s11,0x10
   11b18:	010ddd93          	srli	s11,s11,0x10
   11b1c:	00000913          	li	s2,0
   11b20:	d11ff06f          	j	11830 <_vfprintf_r+0x1438>
   11b24:	00812583          	lw	a1,8(sp)
   11b28:	0e410613          	addi	a2,sp,228
   11b2c:	000a0513          	mv	a0,s4
   11b30:	279090ef          	jal	ra,1b5a8 <__sprint_r>
   11b34:	f4051263          	bnez	a0,11278 <_vfprintf_r+0xe80>
   11b38:	0ec12683          	lw	a3,236(sp)
   11b3c:	0e812903          	lw	s2,232(sp)
   11b40:	000b0993          	mv	s3,s6
   11b44:	f71fe06f          	j	10ab4 <_vfprintf_r+0x6bc>
   11b48:	00812583          	lw	a1,8(sp)
   11b4c:	0e410613          	addi	a2,sp,228
   11b50:	000a0513          	mv	a0,s4
   11b54:	255090ef          	jal	ra,1b5a8 <__sprint_r>
   11b58:	f2051063          	bnez	a0,11278 <_vfprintf_r+0xe80>
   11b5c:	0ec12d83          	lw	s11,236(sp)
   11b60:	0e812903          	lw	s2,232(sp)
   11b64:	000b0993          	mv	s3,s6
   11b68:	f7dfe06f          	j	10ae4 <_vfprintf_r+0x6ec>
   11b6c:	200c7793          	andi	a5,s8,512
   11b70:	60079a63          	bnez	a5,12184 <_vfprintf_r+0x1d8c>
   11b74:	00000913          	li	s2,0
   11b78:	cb9ff06f          	j	11830 <_vfprintf_r+0x1438>
   11b7c:	1b010c93          	addi	s9,sp,432
   11b80:	00912a23          	sw	s1,20(sp)
   11b84:	4006fb93          	andi	s7,a3,1024
   11b88:	000c8493          	mv	s1,s9
   11b8c:	00000c13          	li	s8,0
   11b90:	000a0c93          	mv	s9,s4
   11b94:	0ff00a93          	li	s5,255
   11b98:	00040a13          	mv	s4,s0
   11b9c:	03112023          	sw	a7,32(sp)
   11ba0:	04012403          	lw	s0,64(sp)
   11ba4:	02d12423          	sw	a3,40(sp)
   11ba8:	0240006f          	j	11bcc <_vfprintf_r+0x17d4>
   11bac:	00a00613          	li	a2,10
   11bb0:	00000693          	li	a3,0
   11bb4:	000d8513          	mv	a0,s11
   11bb8:	00090593          	mv	a1,s2
   11bbc:	6000e0ef          	jal	ra,201bc <__udivdi3>
   11bc0:	3c090ae3          	beqz	s2,12794 <_vfprintf_r+0x239c>
   11bc4:	00050d93          	mv	s11,a0
   11bc8:	00058913          	mv	s2,a1
   11bcc:	00a00613          	li	a2,10
   11bd0:	00000693          	li	a3,0
   11bd4:	000d8513          	mv	a0,s11
   11bd8:	00090593          	mv	a1,s2
   11bdc:	3a50e0ef          	jal	ra,20780 <__umoddi3>
   11be0:	03050513          	addi	a0,a0,48
   11be4:	fea48fa3          	sb	a0,-1(s1)
   11be8:	001c0c13          	addi	s8,s8,1
   11bec:	fff48493          	addi	s1,s1,-1
   11bf0:	fa0b8ee3          	beqz	s7,11bac <_vfprintf_r+0x17b4>
   11bf4:	00044703          	lbu	a4,0(s0)
   11bf8:	faec1ae3          	bne	s8,a4,11bac <_vfprintf_r+0x17b4>
   11bfc:	fb5c08e3          	beq	s8,s5,11bac <_vfprintf_r+0x17b4>
   11c00:	4a091063          	bnez	s2,120a0 <_vfprintf_r+0x1ca8>
   11c04:	00900713          	li	a4,9
   11c08:	49b76c63          	bltu	a4,s11,120a0 <_vfprintf_r+0x1ca8>
   11c0c:	02812683          	lw	a3,40(sp)
   11c10:	04812023          	sw	s0,64(sp)
   11c14:	1b010793          	addi	a5,sp,432
   11c18:	000a0413          	mv	s0,s4
   11c1c:	000c8a13          	mv	s4,s9
   11c20:	00048c93          	mv	s9,s1
   11c24:	03812223          	sw	s8,36(sp)
   11c28:	02012883          	lw	a7,32(sp)
   11c2c:	01412483          	lw	s1,20(sp)
   11c30:	41978933          	sub	s2,a5,s9
   11c34:	00068c13          	mv	s8,a3
   11c38:	c69fe06f          	j	108a0 <_vfprintf_r+0x4a8>
   11c3c:	0ec12683          	lw	a3,236(sp)
   11c40:	0e812603          	lw	a2,232(sp)
   11c44:	000255b7          	lui	a1,0x25
   11c48:	14058593          	addi	a1,a1,320 # 25140 <__clzsi2+0x130>
   11c4c:	00b42023          	sw	a1,0(s0)
   11c50:	00168693          	addi	a3,a3,1
   11c54:	00100593          	li	a1,1
   11c58:	00160613          	addi	a2,a2,1
   11c5c:	00b42223          	sw	a1,4(s0)
   11c60:	0ed12623          	sw	a3,236(sp)
   11c64:	0ec12423          	sw	a2,232(sp)
   11c68:	00700593          	li	a1,7
   11c6c:	00840413          	addi	s0,s0,8
   11c70:	46c5c863          	blt	a1,a2,120e0 <_vfprintf_r+0x1ce8>
   11c74:	10051a63          	bnez	a0,11d88 <_vfprintf_r+0x1990>
   11c78:	02412783          	lw	a5,36(sp)
   11c7c:	001c7613          	andi	a2,s8,1
   11c80:	00f66633          	or	a2,a2,a5
   11c84:	00061463          	bnez	a2,11c8c <_vfprintf_r+0x1894>
   11c88:	a71fe06f          	j	106f8 <_vfprintf_r+0x300>
   11c8c:	03412783          	lw	a5,52(sp)
   11c90:	0e812603          	lw	a2,232(sp)
   11c94:	03812703          	lw	a4,56(sp)
   11c98:	00d786b3          	add	a3,a5,a3
   11c9c:	00160613          	addi	a2,a2,1
   11ca0:	00e42023          	sw	a4,0(s0)
   11ca4:	00f42223          	sw	a5,4(s0)
   11ca8:	0ed12623          	sw	a3,236(sp)
   11cac:	0ec12423          	sw	a2,232(sp)
   11cb0:	00700593          	li	a1,7
   11cb4:	50c5cc63          	blt	a1,a2,121cc <_vfprintf_r+0x1dd4>
   11cb8:	00840413          	addi	s0,s0,8
   11cbc:	1000006f          	j	11dbc <_vfprintf_r+0x19c4>
   11cc0:	00812583          	lw	a1,8(sp)
   11cc4:	0e410613          	addi	a2,sp,228
   11cc8:	000a0513          	mv	a0,s4
   11ccc:	0dd090ef          	jal	ra,1b5a8 <__sprint_r>
   11cd0:	da051463          	bnez	a0,11278 <_vfprintf_r+0xe80>
   11cd4:	0ec12683          	lw	a3,236(sp)
   11cd8:	000b0413          	mv	s0,s6
   11cdc:	a98ff06f          	j	10f74 <_vfprintf_r+0xb7c>
   11ce0:	012686b3          	add	a3,a3,s2
   11ce4:	00178793          	addi	a5,a5,1
   11ce8:	01742023          	sw	s7,0(s0)
   11cec:	9f5fe06f          	j	106e0 <_vfprintf_r+0x2e8>
   11cf0:	0f012783          	lw	a5,240(sp)
   11cf4:	0a010593          	addi	a1,sp,160
   11cf8:	0b010513          	addi	a0,sp,176
   11cfc:	0af12823          	sw	a5,176(sp)
   11d00:	0f412783          	lw	a5,244(sp)
   11d04:	0a012023          	sw	zero,160(sp)
   11d08:	0a012223          	sw	zero,164(sp)
   11d0c:	0af12a23          	sw	a5,180(sp)
   11d10:	0f812783          	lw	a5,248(sp)
   11d14:	0a012423          	sw	zero,168(sp)
   11d18:	0a012623          	sw	zero,172(sp)
   11d1c:	0af12c23          	sw	a5,184(sp)
   11d20:	0fc12783          	lw	a5,252(sp)
   11d24:	0af12e23          	sw	a5,188(sp)
   11d28:	7e90f0ef          	jal	ra,21d10 <__letf2>
   11d2c:	01412883          	lw	a7,20(sp)
   11d30:	2c0542e3          	bltz	a0,127f4 <_vfprintf_r+0x23fc>
   11d34:	0c714683          	lbu	a3,199(sp)
   11d38:	04700793          	li	a5,71
   11d3c:	3d17d463          	bge	a5,a7,12104 <_vfprintf_r+0x1d0c>
   11d40:	000257b7          	lui	a5,0x25
   11d44:	10478c93          	addi	s9,a5,260 # 25104 <__clzsi2+0xf4>
   11d48:	00012a23          	sw	zero,20(sp)
   11d4c:	02012623          	sw	zero,44(sp)
   11d50:	02012423          	sw	zero,40(sp)
   11d54:	02012023          	sw	zero,32(sp)
   11d58:	f7fc7c13          	andi	s8,s8,-129
   11d5c:	00300a93          	li	s5,3
   11d60:	00300913          	li	s2,3
   11d64:	00000993          	li	s3,0
   11d68:	00068463          	beqz	a3,11d70 <_vfprintf_r+0x1978>
   11d6c:	b59fe06f          	j	108c4 <_vfprintf_r+0x4cc>
   11d70:	8b5fe06f          	j	10624 <_vfprintf_r+0x22c>
   11d74:	01812783          	lw	a5,24(sp)
   11d78:	01012703          	lw	a4,16(sp)
   11d7c:	0007a783          	lw	a5,0(a5)
   11d80:	00e7a023          	sw	a4,0(a5)
   11d84:	95cff06f          	j	10ee0 <_vfprintf_r+0xae8>
   11d88:	03412783          	lw	a5,52(sp)
   11d8c:	0e812603          	lw	a2,232(sp)
   11d90:	03812703          	lw	a4,56(sp)
   11d94:	00d786b3          	add	a3,a5,a3
   11d98:	00160613          	addi	a2,a2,1
   11d9c:	00e42023          	sw	a4,0(s0)
   11da0:	00f42223          	sw	a5,4(s0)
   11da4:	0ed12623          	sw	a3,236(sp)
   11da8:	0ec12423          	sw	a2,232(sp)
   11dac:	00700593          	li	a1,7
   11db0:	00840413          	addi	s0,s0,8
   11db4:	40c5cc63          	blt	a1,a2,121cc <_vfprintf_r+0x1dd4>
   11db8:	2a054ee3          	bltz	a0,12874 <_vfprintf_r+0x247c>
   11dbc:	02412783          	lw	a5,36(sp)
   11dc0:	00160613          	addi	a2,a2,1
   11dc4:	01942023          	sw	s9,0(s0)
   11dc8:	00d786b3          	add	a3,a5,a3
   11dcc:	00f42223          	sw	a5,4(s0)
   11dd0:	0ed12623          	sw	a3,236(sp)
   11dd4:	0ec12423          	sw	a2,232(sp)
   11dd8:	00700793          	li	a5,7
   11ddc:	00c7c463          	blt	a5,a2,11de4 <_vfprintf_r+0x19ec>
   11de0:	915fe06f          	j	106f4 <_vfprintf_r+0x2fc>
   11de4:	d9dfe06f          	j	10b80 <_vfprintf_r+0x788>
   11de8:	00048793          	mv	a5,s1
   11dec:	000a8493          	mv	s1,s5
   11df0:	000b8a93          	mv	s5,s7
   11df4:	00078b93          	mv	s7,a5
   11df8:	008d8db3          	add	s11,s11,s0
   11dfc:	00190913          	addi	s2,s2,1
   11e00:	0179a023          	sw	s7,0(s3)
   11e04:	d39fe06f          	j	10b3c <_vfprintf_r+0x744>
   11e08:	000c8513          	mv	a0,s9
   11e0c:	05112823          	sw	a7,80(sp)
   11e10:	4e1060ef          	jal	ra,18af0 <strlen>
   11e14:	0c714683          	lbu	a3,199(sp)
   11e18:	fff54813          	not	a6,a0
   11e1c:	41f85813          	srai	a6,a6,0x1f
   11e20:	01712c23          	sw	s7,24(sp)
   11e24:	00012a23          	sw	zero,20(sp)
   11e28:	02012623          	sw	zero,44(sp)
   11e2c:	02012423          	sw	zero,40(sp)
   11e30:	02012023          	sw	zero,32(sp)
   11e34:	05012883          	lw	a7,80(sp)
   11e38:	00050913          	mv	s2,a0
   11e3c:	01057ab3          	and	s5,a0,a6
   11e40:	00000993          	li	s3,0
   11e44:	00068463          	beqz	a3,11e4c <_vfprintf_r+0x1a54>
   11e48:	a7dfe06f          	j	108c4 <_vfprintf_r+0x4cc>
   11e4c:	fd8fe06f          	j	10624 <_vfprintf_r+0x22c>
   11e50:	0fc12783          	lw	a5,252(sp)
   11e54:	3207ce63          	bltz	a5,12190 <_vfprintf_r+0x1d98>
   11e58:	0c714683          	lbu	a3,199(sp)
   11e5c:	04700793          	li	a5,71
   11e60:	1d17d8e3          	bge	a5,a7,12830 <_vfprintf_r+0x2438>
   11e64:	000257b7          	lui	a5,0x25
   11e68:	10c78c93          	addi	s9,a5,268 # 2510c <__clzsi2+0xfc>
   11e6c:	eddff06f          	j	11d48 <_vfprintf_r+0x1950>
   11e70:	00d906b3          	add	a3,s2,a3
   11e74:	00160613          	addi	a2,a2,1
   11e78:	01742023          	sw	s7,0(s0)
   11e7c:	01242223          	sw	s2,4(s0)
   11e80:	0ed12623          	sw	a3,236(sp)
   11e84:	0ec12423          	sw	a2,232(sp)
   11e88:	00700593          	li	a1,7
   11e8c:	00840413          	addi	s0,s0,8
   11e90:	e4c5d663          	bge	a1,a2,114dc <_vfprintf_r+0x10e4>
   11e94:	00812583          	lw	a1,8(sp)
   11e98:	0e410613          	addi	a2,sp,228
   11e9c:	000a0513          	mv	a0,s4
   11ea0:	708090ef          	jal	ra,1b5a8 <__sprint_r>
   11ea4:	bc051a63          	bnez	a0,11278 <_vfprintf_r+0xe80>
   11ea8:	0ec12683          	lw	a3,236(sp)
   11eac:	000b0413          	mv	s0,s6
   11eb0:	e2cff06f          	j	114dc <_vfprintf_r+0x10e4>
   11eb4:	02812d83          	lw	s11,40(sp)
   11eb8:	00025eb7          	lui	t4,0x25
   11ebc:	04912a23          	sw	s1,84(sp)
   11ec0:	05812c23          	sw	s8,88(sp)
   11ec4:	05a12e23          	sw	s10,92(sp)
   11ec8:	03512423          	sw	s5,40(sp)
   11ecc:	00040613          	mv	a2,s0
   11ed0:	04012c03          	lw	s8,64(sp)
   11ed4:	04c12d03          	lw	s10,76(sp)
   11ed8:	02c12403          	lw	s0,44(sp)
   11edc:	00812483          	lw	s1,8(sp)
   11ee0:	00700993          	li	s3,7
   11ee4:	01000b93          	li	s7,16
   11ee8:	348e8913          	addi	s2,t4,840 # 25348 <zeroes.0>
   11eec:	080d8863          	beqz	s11,11f7c <_vfprintf_r+0x1b84>
   11ef0:	16040063          	beqz	s0,12050 <_vfprintf_r+0x1c58>
   11ef4:	fff40413          	addi	s0,s0,-1
   11ef8:	04812783          	lw	a5,72(sp)
   11efc:	01a686b3          	add	a3,a3,s10
   11f00:	01a62223          	sw	s10,4(a2)
   11f04:	00f62023          	sw	a5,0(a2)
   11f08:	0e812783          	lw	a5,232(sp)
   11f0c:	0ed12623          	sw	a3,236(sp)
   11f10:	00860613          	addi	a2,a2,8
   11f14:	00178793          	addi	a5,a5,1
   11f18:	0ef12423          	sw	a5,232(sp)
   11f1c:	14f9c063          	blt	s3,a5,1205c <_vfprintf_r+0x1c64>
   11f20:	05012783          	lw	a5,80(sp)
   11f24:	000c4703          	lbu	a4,0(s8)
   11f28:	41978ab3          	sub	s5,a5,s9
   11f2c:	01575463          	bge	a4,s5,11f34 <_vfprintf_r+0x1b3c>
   11f30:	00070a93          	mv	s5,a4
   11f34:	03505663          	blez	s5,11f60 <_vfprintf_r+0x1b68>
   11f38:	0e812703          	lw	a4,232(sp)
   11f3c:	015686b3          	add	a3,a3,s5
   11f40:	01962023          	sw	s9,0(a2)
   11f44:	00170713          	addi	a4,a4,1
   11f48:	01562223          	sw	s5,4(a2)
   11f4c:	0ed12623          	sw	a3,236(sp)
   11f50:	0ee12423          	sw	a4,232(sp)
   11f54:	12e9c463          	blt	s3,a4,1207c <_vfprintf_r+0x1c84>
   11f58:	000c4703          	lbu	a4,0(s8)
   11f5c:	00860613          	addi	a2,a2,8
   11f60:	fffac593          	not	a1,s5
   11f64:	41f5d593          	srai	a1,a1,0x1f
   11f68:	00baf7b3          	and	a5,s5,a1
   11f6c:	40f70ab3          	sub	s5,a4,a5
   11f70:	03504c63          	bgtz	s5,11fa8 <_vfprintf_r+0x1bb0>
   11f74:	00ec8cb3          	add	s9,s9,a4
   11f78:	f60d9ce3          	bnez	s11,11ef0 <_vfprintf_r+0x1af8>
   11f7c:	f6041ce3          	bnez	s0,11ef4 <_vfprintf_r+0x1afc>
   11f80:	05012783          	lw	a5,80(sp)
   11f84:	05812023          	sw	s8,64(sp)
   11f88:	05412483          	lw	s1,84(sp)
   11f8c:	05812c03          	lw	s8,88(sp)
   11f90:	05c12d03          	lw	s10,92(sp)
   11f94:	02812a83          	lw	s5,40(sp)
   11f98:	00060413          	mv	s0,a2
   11f9c:	d597f863          	bgeu	a5,s9,114ec <_vfprintf_r+0x10f4>
   11fa0:	00078c93          	mv	s9,a5
   11fa4:	d48ff06f          	j	114ec <_vfprintf_r+0x10f4>
   11fa8:	000255b7          	lui	a1,0x25
   11fac:	0e812703          	lw	a4,232(sp)
   11fb0:	34858593          	addi	a1,a1,840 # 25348 <zeroes.0>
   11fb4:	075bd863          	bge	s7,s5,12024 <_vfprintf_r+0x1c2c>
   11fb8:	02812023          	sw	s0,32(sp)
   11fbc:	000a8413          	mv	s0,s5
   11fc0:	00090a93          	mv	s5,s2
   11fc4:	00c0006f          	j	11fd0 <_vfprintf_r+0x1bd8>
   11fc8:	ff040413          	addi	s0,s0,-16
   11fcc:	048bd663          	bge	s7,s0,12018 <_vfprintf_r+0x1c20>
   11fd0:	01068693          	addi	a3,a3,16
   11fd4:	00170713          	addi	a4,a4,1
   11fd8:	01262023          	sw	s2,0(a2)
   11fdc:	01762223          	sw	s7,4(a2)
   11fe0:	0ed12623          	sw	a3,236(sp)
   11fe4:	0ee12423          	sw	a4,232(sp)
   11fe8:	00860613          	addi	a2,a2,8
   11fec:	fce9dee3          	bge	s3,a4,11fc8 <_vfprintf_r+0x1bd0>
   11ff0:	0e410613          	addi	a2,sp,228
   11ff4:	00048593          	mv	a1,s1
   11ff8:	000a0513          	mv	a0,s4
   11ffc:	5ac090ef          	jal	ra,1b5a8 <__sprint_r>
   12000:	a6051c63          	bnez	a0,11278 <_vfprintf_r+0xe80>
   12004:	ff040413          	addi	s0,s0,-16
   12008:	0ec12683          	lw	a3,236(sp)
   1200c:	0e812703          	lw	a4,232(sp)
   12010:	000b0613          	mv	a2,s6
   12014:	fa8bcee3          	blt	s7,s0,11fd0 <_vfprintf_r+0x1bd8>
   12018:	000a8593          	mv	a1,s5
   1201c:	00040a93          	mv	s5,s0
   12020:	02012403          	lw	s0,32(sp)
   12024:	00da86b3          	add	a3,s5,a3
   12028:	00170713          	addi	a4,a4,1
   1202c:	00b62023          	sw	a1,0(a2)
   12030:	01562223          	sw	s5,4(a2)
   12034:	0ed12623          	sw	a3,236(sp)
   12038:	0ee12423          	sw	a4,232(sp)
   1203c:	76e9c263          	blt	s3,a4,127a0 <_vfprintf_r+0x23a8>
   12040:	000c4703          	lbu	a4,0(s8)
   12044:	00860613          	addi	a2,a2,8
   12048:	00ec8cb3          	add	s9,s9,a4
   1204c:	f2dff06f          	j	11f78 <_vfprintf_r+0x1b80>
   12050:	fffc0c13          	addi	s8,s8,-1
   12054:	fffd8d93          	addi	s11,s11,-1
   12058:	ea1ff06f          	j	11ef8 <_vfprintf_r+0x1b00>
   1205c:	0e410613          	addi	a2,sp,228
   12060:	00048593          	mv	a1,s1
   12064:	000a0513          	mv	a0,s4
   12068:	540090ef          	jal	ra,1b5a8 <__sprint_r>
   1206c:	a0051663          	bnez	a0,11278 <_vfprintf_r+0xe80>
   12070:	0ec12683          	lw	a3,236(sp)
   12074:	000b0613          	mv	a2,s6
   12078:	ea9ff06f          	j	11f20 <_vfprintf_r+0x1b28>
   1207c:	0e410613          	addi	a2,sp,228
   12080:	00048593          	mv	a1,s1
   12084:	000a0513          	mv	a0,s4
   12088:	520090ef          	jal	ra,1b5a8 <__sprint_r>
   1208c:	9e051663          	bnez	a0,11278 <_vfprintf_r+0xe80>
   12090:	000c4703          	lbu	a4,0(s8)
   12094:	0ec12683          	lw	a3,236(sp)
   12098:	000b0613          	mv	a2,s6
   1209c:	ec5ff06f          	j	11f60 <_vfprintf_r+0x1b68>
   120a0:	04c12783          	lw	a5,76(sp)
   120a4:	04812583          	lw	a1,72(sp)
   120a8:	00000c13          	li	s8,0
   120ac:	40f484b3          	sub	s1,s1,a5
   120b0:	00078613          	mv	a2,a5
   120b4:	00048513          	mv	a0,s1
   120b8:	2c5060ef          	jal	ra,18b7c <strncpy>
   120bc:	00144703          	lbu	a4,1(s0)
   120c0:	00a00613          	li	a2,10
   120c4:	00000693          	li	a3,0
   120c8:	00e03733          	snez	a4,a4
   120cc:	000d8513          	mv	a0,s11
   120d0:	00090593          	mv	a1,s2
   120d4:	00e40433          	add	s0,s0,a4
   120d8:	0e40e0ef          	jal	ra,201bc <__udivdi3>
   120dc:	ae9ff06f          	j	11bc4 <_vfprintf_r+0x17cc>
   120e0:	00812583          	lw	a1,8(sp)
   120e4:	0e410613          	addi	a2,sp,228
   120e8:	000a0513          	mv	a0,s4
   120ec:	4bc090ef          	jal	ra,1b5a8 <__sprint_r>
   120f0:	98051463          	bnez	a0,11278 <_vfprintf_r+0xe80>
   120f4:	0cc12503          	lw	a0,204(sp)
   120f8:	0ec12683          	lw	a3,236(sp)
   120fc:	000b0413          	mv	s0,s6
   12100:	b75ff06f          	j	11c74 <_vfprintf_r+0x187c>
   12104:	000257b7          	lui	a5,0x25
   12108:	10078c93          	addi	s9,a5,256 # 25100 <__clzsi2+0xf0>
   1210c:	c3dff06f          	j	11d48 <_vfprintf_r+0x1950>
   12110:	00812583          	lw	a1,8(sp)
   12114:	0e410613          	addi	a2,sp,228
   12118:	000a0513          	mv	a0,s4
   1211c:	48c090ef          	jal	ra,1b5a8 <__sprint_r>
   12120:	94051c63          	bnez	a0,11278 <_vfprintf_r+0xe80>
   12124:	0ec12683          	lw	a3,236(sp)
   12128:	000b0413          	mv	s0,s6
   1212c:	b98ff06f          	j	114c4 <_vfprintf_r+0x10cc>
   12130:	00600913          	li	s2,6
   12134:	f84ff06f          	j	118b8 <_vfprintf_r+0x14c0>
   12138:	41278933          	sub	s2,a5,s2
   1213c:	05012783          	lw	a5,80(sp)
   12140:	419789b3          	sub	s3,a5,s9
   12144:	c3395c63          	bge	s2,s3,1157c <_vfprintf_r+0x1184>
   12148:	00090993          	mv	s3,s2
   1214c:	c30ff06f          	j	1157c <_vfprintf_r+0x1184>
   12150:	01812783          	lw	a5,24(sp)
   12154:	01012703          	lw	a4,16(sp)
   12158:	0007a783          	lw	a5,0(a5)
   1215c:	00e79023          	sh	a4,0(a5)
   12160:	d81fe06f          	j	10ee0 <_vfprintf_r+0xae8>
   12164:	0ffdfd93          	zext.b	s11,s11
   12168:	00000913          	li	s2,0
   1216c:	f88fe06f          	j	108f4 <_vfprintf_r+0x4fc>
   12170:	018d9d93          	slli	s11,s11,0x18
   12174:	418ddd93          	srai	s11,s11,0x18
   12178:	41fdd913          	srai	s2,s11,0x1f
   1217c:	00090793          	mv	a5,s2
   12180:	ef4fe06f          	j	10874 <_vfprintf_r+0x47c>
   12184:	0ffdfd93          	zext.b	s11,s11
   12188:	00000913          	li	s2,0
   1218c:	ea4ff06f          	j	11830 <_vfprintf_r+0x1438>
   12190:	02d00793          	li	a5,45
   12194:	0cf103a3          	sb	a5,199(sp)
   12198:	02d00693          	li	a3,45
   1219c:	cc1ff06f          	j	11e5c <_vfprintf_r+0x1a64>
   121a0:	00812583          	lw	a1,8(sp)
   121a4:	03012503          	lw	a0,48(sp)
   121a8:	0e410613          	addi	a2,sp,228
   121ac:	3fc090ef          	jal	ra,1b5a8 <__sprint_r>
   121b0:	da8fe06f          	j	10758 <_vfprintf_r+0x360>
   121b4:	00012a23          	sw	zero,20(sp)
   121b8:	80000737          	lui	a4,0x80000
   121bc:	02d00793          	li	a5,45
   121c0:	01b74db3          	xor	s11,a4,s11
   121c4:	06f12023          	sw	a5,96(sp)
   121c8:	fc0ff06f          	j	11988 <_vfprintf_r+0x1590>
   121cc:	00812583          	lw	a1,8(sp)
   121d0:	0e410613          	addi	a2,sp,228
   121d4:	000a0513          	mv	a0,s4
   121d8:	3d0090ef          	jal	ra,1b5a8 <__sprint_r>
   121dc:	88051e63          	bnez	a0,11278 <_vfprintf_r+0xe80>
   121e0:	0cc12503          	lw	a0,204(sp)
   121e4:	0ec12683          	lw	a3,236(sp)
   121e8:	0e812603          	lw	a2,232(sp)
   121ec:	000b0413          	mv	s0,s6
   121f0:	bc9ff06f          	j	11db8 <_vfprintf_r+0x19c0>
   121f4:	00198593          	addi	a1,s3,1
   121f8:	000a0513          	mv	a0,s4
   121fc:	01112a23          	sw	a7,20(sp)
   12200:	209040ef          	jal	ra,16c08 <_malloc_r>
   12204:	01412883          	lw	a7,20(sp)
   12208:	00050c93          	mv	s9,a0
   1220c:	2a0508e3          	beqz	a0,12cbc <_vfprintf_r+0x28c4>
   12210:	00a12a23          	sw	a0,20(sp)
   12214:	f54ff06f          	j	11968 <_vfprintf_r+0x1570>
   12218:	02812783          	lw	a5,40(sp)
   1221c:	0017f713          	andi	a4,a5,1
   12220:	000710e3          	bnez	a4,12a20 <_vfprintf_r+0x2628>
   12224:	0dc12c03          	lw	s8,220(sp)
   12228:	0cc12703          	lw	a4,204(sp)
   1222c:	419c07b3          	sub	a5,s8,s9
   12230:	02f12223          	sw	a5,36(sp)
   12234:	ffd00693          	li	a3,-3
   12238:	02e12023          	sw	a4,32(sp)
   1223c:	00d74463          	blt	a4,a3,12244 <_vfprintf_r+0x1e4c>
   12240:	50e9d263          	bge	s3,a4,12744 <_vfprintf_r+0x234c>
   12244:	fff70d93          	addi	s11,a4,-1 # 7fffffff <__BSS_END__+0x7ffd9517>
   12248:	ffe88893          	addi	a7,a7,-2
   1224c:	0db12623          	sw	s11,204(sp)
   12250:	0ff8f693          	zext.b	a3,a7
   12254:	00000613          	li	a2,0
   12258:	0cd10a23          	sb	a3,212(sp)
   1225c:	02b00693          	li	a3,43
   12260:	000dd863          	bgez	s11,12270 <_vfprintf_r+0x1e78>
   12264:	00100d93          	li	s11,1
   12268:	40ed8db3          	sub	s11,s11,a4
   1226c:	02d00693          	li	a3,45
   12270:	0cd10aa3          	sb	a3,213(sp)
   12274:	00900713          	li	a4,9
   12278:	6db75a63          	bge	a4,s11,1294c <_vfprintf_r+0x2554>
   1227c:	0e310913          	addi	s2,sp,227
   12280:	00090b93          	mv	s7,s2
   12284:	06300993          	li	s3,99
   12288:	00088c13          	mv	s8,a7
   1228c:	02812023          	sw	s0,32(sp)
   12290:	00a00593          	li	a1,10
   12294:	000d8513          	mv	a0,s11
   12298:	549120ef          	jal	ra,24fe0 <__modsi3>
   1229c:	03050793          	addi	a5,a0,48
   122a0:	fefb8fa3          	sb	a5,-1(s7)
   122a4:	000d8513          	mv	a0,s11
   122a8:	00a00593          	li	a1,10
   122ac:	000d8413          	mv	s0,s11
   122b0:	4ad120ef          	jal	ra,24f5c <__divsi3>
   122b4:	000b8a93          	mv	s5,s7
   122b8:	00050d93          	mv	s11,a0
   122bc:	fffb8b93          	addi	s7,s7,-1
   122c0:	fc89c8e3          	blt	s3,s0,12290 <_vfprintf_r+0x1e98>
   122c4:	03050d93          	addi	s11,a0,48
   122c8:	ffea8713          	addi	a4,s5,-2
   122cc:	ffbb8fa3          	sb	s11,-1(s7)
   122d0:	02012403          	lw	s0,32(sp)
   122d4:	000c0893          	mv	a7,s8
   122d8:	1b277ae3          	bgeu	a4,s2,12c8c <_vfprintf_r+0x2894>
   122dc:	0d610613          	addi	a2,sp,214
   122e0:	00074783          	lbu	a5,0(a4)
   122e4:	00170713          	addi	a4,a4,1
   122e8:	00160613          	addi	a2,a2,1
   122ec:	fef60fa3          	sb	a5,-1(a2)
   122f0:	ff2718e3          	bne	a4,s2,122e0 <_vfprintf_r+0x1ee8>
   122f4:	0e510713          	addi	a4,sp,229
   122f8:	0d610793          	addi	a5,sp,214
   122fc:	41570733          	sub	a4,a4,s5
   12300:	00e78733          	add	a4,a5,a4
   12304:	0d410693          	addi	a3,sp,212
   12308:	40d707b3          	sub	a5,a4,a3
   1230c:	04f12223          	sw	a5,68(sp)
   12310:	04412683          	lw	a3,68(sp)
   12314:	02412783          	lw	a5,36(sp)
   12318:	00100713          	li	a4,1
   1231c:	00f68933          	add	s2,a3,a5
   12320:	74f75e63          	bge	a4,a5,12a7c <_vfprintf_r+0x2684>
   12324:	03412783          	lw	a5,52(sp)
   12328:	00f90933          	add	s2,s2,a5
   1232c:	02812783          	lw	a5,40(sp)
   12330:	fff94813          	not	a6,s2
   12334:	41f85813          	srai	a6,a6,0x1f
   12338:	bff7f713          	andi	a4,a5,-1025
   1233c:	10076c13          	ori	s8,a4,256
   12340:	01097ab3          	and	s5,s2,a6
   12344:	02012623          	sw	zero,44(sp)
   12348:	02012423          	sw	zero,40(sp)
   1234c:	02012023          	sw	zero,32(sp)
   12350:	06012783          	lw	a5,96(sp)
   12354:	3c078e63          	beqz	a5,12730 <_vfprintf_r+0x2338>
   12358:	02d00693          	li	a3,45
   1235c:	0cd103a3          	sb	a3,199(sp)
   12360:	00000993          	li	s3,0
   12364:	001a8a93          	addi	s5,s5,1
   12368:	abcfe06f          	j	10624 <_vfprintf_r+0x22c>
   1236c:	000c0593          	mv	a1,s8
   12370:	00090513          	mv	a0,s2
   12374:	05112823          	sw	a7,80(sp)
   12378:	0be12823          	sw	t5,176(sp)
   1237c:	03e12623          	sw	t5,44(sp)
   12380:	0bd12a23          	sw	t4,180(sp)
   12384:	03d12223          	sw	t4,36(sp)
   12388:	0bc12c23          	sw	t3,184(sp)
   1238c:	03c12023          	sw	t3,32(sp)
   12390:	04d12a23          	sw	a3,84(sp)
   12394:	0bb12e23          	sw	s11,188(sp)
   12398:	0a012023          	sw	zero,160(sp)
   1239c:	0a012223          	sw	zero,164(sp)
   123a0:	0a012423          	sw	zero,168(sp)
   123a4:	0a012623          	sw	zero,172(sp)
   123a8:	7300f0ef          	jal	ra,21ad8 <__eqtf2>
   123ac:	02012e03          	lw	t3,32(sp)
   123b0:	02412e83          	lw	t4,36(sp)
   123b4:	02c12f03          	lw	t5,44(sp)
   123b8:	05012883          	lw	a7,80(sp)
   123bc:	e8050663          	beqz	a0,11a48 <_vfprintf_r+0x1650>
   123c0:	05412683          	lw	a3,84(sp)
   123c4:	00100593          	li	a1,1
   123c8:	40d586b3          	sub	a3,a1,a3
   123cc:	0cd12623          	sw	a3,204(sp)
   123d0:	e7cff06f          	j	11a4c <_vfprintf_r+0x1654>
   123d4:	00198693          	addi	a3,s3,1
   123d8:	00200613          	li	a2,2
   123dc:	de4ff06f          	j	119c0 <_vfprintf_r+0x15c8>
   123e0:	00098693          	mv	a3,s3
   123e4:	00300613          	li	a2,3
   123e8:	dd8ff06f          	j	119c0 <_vfprintf_r+0x15c8>
   123ec:	0b010913          	addi	s2,sp,176
   123f0:	00090513          	mv	a0,s2
   123f4:	07112223          	sw	a7,100(sp)
   123f8:	0be12823          	sw	t5,176(sp)
   123fc:	0bd12a23          	sw	t4,180(sp)
   12400:	0bc12c23          	sw	t3,184(sp)
   12404:	0bb12e23          	sw	s11,188(sp)
   12408:	7dc120ef          	jal	ra,24be4 <__trunctfdf2>
   1240c:	0cc10613          	addi	a2,sp,204
   12410:	2dc060ef          	jal	ra,186ec <frexp>
   12414:	00058613          	mv	a2,a1
   12418:	00050593          	mv	a1,a0
   1241c:	00090513          	mv	a0,s2
   12420:	5bc120ef          	jal	ra,249dc <__extenddftf2>
   12424:	0b012703          	lw	a4,176(sp)
   12428:	09010793          	addi	a5,sp,144
   1242c:	0a010c13          	addi	s8,sp,160
   12430:	08e12823          	sw	a4,144(sp)
   12434:	0b412703          	lw	a4,180(sp)
   12438:	08010613          	addi	a2,sp,128
   1243c:	00078593          	mv	a1,a5
   12440:	08e12a23          	sw	a4,148(sp)
   12444:	0b812703          	lw	a4,184(sp)
   12448:	000c0513          	mv	a0,s8
   1244c:	04f12a23          	sw	a5,84(sp)
   12450:	08e12c23          	sw	a4,152(sp)
   12454:	0bc12703          	lw	a4,188(sp)
   12458:	04c12823          	sw	a2,80(sp)
   1245c:	08012023          	sw	zero,128(sp)
   12460:	08e12e23          	sw	a4,156(sp)
   12464:	3ffc0737          	lui	a4,0x3ffc0
   12468:	08e12623          	sw	a4,140(sp)
   1246c:	08012223          	sw	zero,132(sp)
   12470:	08012423          	sw	zero,136(sp)
   12474:	2010f0ef          	jal	ra,21e74 <__multf3>
   12478:	0a012683          	lw	a3,160(sp)
   1247c:	0a412803          	lw	a6,164(sp)
   12480:	0a812e03          	lw	t3,168(sp)
   12484:	0ac12e83          	lw	t4,172(sp)
   12488:	000c0593          	mv	a1,s8
   1248c:	00090513          	mv	a0,s2
   12490:	0ad12823          	sw	a3,176(sp)
   12494:	04d12c23          	sw	a3,88(sp)
   12498:	0b012a23          	sw	a6,180(sp)
   1249c:	03012623          	sw	a6,44(sp)
   124a0:	0bc12c23          	sw	t3,184(sp)
   124a4:	03c12223          	sw	t3,36(sp)
   124a8:	0bd12e23          	sw	t4,188(sp)
   124ac:	03d12023          	sw	t4,32(sp)
   124b0:	0a012023          	sw	zero,160(sp)
   124b4:	0a012223          	sw	zero,164(sp)
   124b8:	0a012423          	sw	zero,168(sp)
   124bc:	0a012623          	sw	zero,172(sp)
   124c0:	6180f0ef          	jal	ra,21ad8 <__eqtf2>
   124c4:	02012e83          	lw	t4,32(sp)
   124c8:	02412e03          	lw	t3,36(sp)
   124cc:	02c12803          	lw	a6,44(sp)
   124d0:	05812683          	lw	a3,88(sp)
   124d4:	06412883          	lw	a7,100(sp)
   124d8:	00051a63          	bnez	a0,124ec <_vfprintf_r+0x20f4>
   124dc:	00100713          	li	a4,1
   124e0:	0ce12623          	sw	a4,204(sp)
   124e4:	06100713          	li	a4,97
   124e8:	68e88a63          	beq	a7,a4,12b7c <_vfprintf_r+0x2784>
   124ec:	00025737          	lui	a4,0x25
   124f0:	12470393          	addi	t2,a4,292 # 25124 <__clzsi2+0x114>
   124f4:	fff98b93          	addi	s7,s3,-1
   124f8:	07312823          	sw	s3,112(sp)
   124fc:	06812a23          	sw	s0,116(sp)
   12500:	000c8993          	mv	s3,s9
   12504:	07412c23          	sw	s4,120(sp)
   12508:	07912e23          	sw	s9,124(sp)
   1250c:	06912223          	sw	s1,100(sp)
   12510:	07112423          	sw	a7,104(sp)
   12514:	07a12623          	sw	s10,108(sp)
   12518:	02712623          	sw	t2,44(sp)
   1251c:	00068a13          	mv	s4,a3
   12520:	00080a93          	mv	s5,a6
   12524:	000e0c93          	mv	s9,t3
   12528:	000e8413          	mv	s0,t4
   1252c:	04c0006f          	j	12578 <_vfprintf_r+0x2180>
   12530:	000c0593          	mv	a1,s8
   12534:	00090513          	mv	a0,s2
   12538:	02f12223          	sw	a5,36(sp)
   1253c:	02c12023          	sw	a2,32(sp)
   12540:	0ac12c23          	sw	a2,184(sp)
   12544:	0af12e23          	sw	a5,188(sp)
   12548:	0a912823          	sw	s1,176(sp)
   1254c:	0ba12a23          	sw	s10,180(sp)
   12550:	0a012023          	sw	zero,160(sp)
   12554:	0a012223          	sw	zero,164(sp)
   12558:	0a012423          	sw	zero,168(sp)
   1255c:	0a012623          	sw	zero,172(sp)
   12560:	5780f0ef          	jal	ra,21ad8 <__eqtf2>
   12564:	fffb8593          	addi	a1,s7,-1
   12568:	000c8613          	mv	a2,s9
   1256c:	00040793          	mv	a5,s0
   12570:	4c050063          	beqz	a0,12a30 <_vfprintf_r+0x2638>
   12574:	00058b93          	mv	s7,a1
   12578:	05412d03          	lw	s10,84(sp)
   1257c:	400307b7          	lui	a5,0x40030
   12580:	000c0593          	mv	a1,s8
   12584:	000d0613          	mv	a2,s10
   12588:	00090513          	mv	a0,s2
   1258c:	08f12e23          	sw	a5,156(sp)
   12590:	0b412023          	sw	s4,160(sp)
   12594:	0b512223          	sw	s5,164(sp)
   12598:	0b912423          	sw	s9,168(sp)
   1259c:	0a812623          	sw	s0,172(sp)
   125a0:	08012823          	sw	zero,144(sp)
   125a4:	08012a23          	sw	zero,148(sp)
   125a8:	08012c23          	sw	zero,152(sp)
   125ac:	0c90f0ef          	jal	ra,21e74 <__multf3>
   125b0:	00090513          	mv	a0,s2
   125b4:	1e0120ef          	jal	ra,24794 <__fixtfsi>
   125b8:	00050593          	mv	a1,a0
   125bc:	00050d93          	mv	s11,a0
   125c0:	00090513          	mv	a0,s2
   125c4:	0b012a83          	lw	s5,176(sp)
   125c8:	0b412a03          	lw	s4,180(sp)
   125cc:	0b812483          	lw	s1,184(sp)
   125d0:	0bc12403          	lw	s0,188(sp)
   125d4:	2b4120ef          	jal	ra,24888 <__floatsitf>
   125d8:	0b012783          	lw	a5,176(sp)
   125dc:	05012603          	lw	a2,80(sp)
   125e0:	000d0593          	mv	a1,s10
   125e4:	08f12023          	sw	a5,128(sp)
   125e8:	0b412783          	lw	a5,180(sp)
   125ec:	000c0513          	mv	a0,s8
   125f0:	09512823          	sw	s5,144(sp)
   125f4:	08f12223          	sw	a5,132(sp)
   125f8:	0b812783          	lw	a5,184(sp)
   125fc:	09412a23          	sw	s4,148(sp)
   12600:	08912c23          	sw	s1,152(sp)
   12604:	08f12423          	sw	a5,136(sp)
   12608:	0bc12783          	lw	a5,188(sp)
   1260c:	08812e23          	sw	s0,156(sp)
   12610:	08f12623          	sw	a5,140(sp)
   12614:	48d100ef          	jal	ra,232a0 <__subtf3>
   12618:	02c12783          	lw	a5,44(sp)
   1261c:	0a012483          	lw	s1,160(sp)
   12620:	0a412d03          	lw	s10,164(sp)
   12624:	01b787b3          	add	a5,a5,s11
   12628:	0007c683          	lbu	a3,0(a5) # 40030000 <__BSS_END__+0x40009518>
   1262c:	0a812603          	lw	a2,168(sp)
   12630:	0ac12783          	lw	a5,172(sp)
   12634:	05312c23          	sw	s3,88(sp)
   12638:	00d98023          	sb	a3,0(s3)
   1263c:	fff00713          	li	a4,-1
   12640:	00198993          	addi	s3,s3,1
   12644:	00048a13          	mv	s4,s1
   12648:	000d0a93          	mv	s5,s10
   1264c:	00060c93          	mv	s9,a2
   12650:	00078413          	mv	s0,a5
   12654:	eceb9ee3          	bne	s7,a4,12530 <_vfprintf_r+0x2138>
   12658:	00098a93          	mv	s5,s3
   1265c:	00048f93          	mv	t6,s1
   12660:	000d0f13          	mv	t5,s10
   12664:	06812883          	lw	a7,104(sp)
   12668:	07412403          	lw	s0,116(sp)
   1266c:	07012983          	lw	s3,112(sp)
   12670:	02c12383          	lw	t2,44(sp)
   12674:	07812a03          	lw	s4,120(sp)
   12678:	07c12c83          	lw	s9,124(sp)
   1267c:	06412483          	lw	s1,100(sp)
   12680:	06c12d03          	lw	s10,108(sp)
   12684:	fff00693          	li	a3,-1
   12688:	3ffe0837          	lui	a6,0x3ffe0
   1268c:	000c0593          	mv	a1,s8
   12690:	00090513          	mv	a0,s2
   12694:	02712223          	sw	t2,36(sp)
   12698:	03112023          	sw	a7,32(sp)
   1269c:	06d12423          	sw	a3,104(sp)
   126a0:	0bf12823          	sw	t6,176(sp)
   126a4:	07f12223          	sw	t6,100(sp)
   126a8:	0be12a23          	sw	t5,180(sp)
   126ac:	05e12a23          	sw	t5,84(sp)
   126b0:	0ac12c23          	sw	a2,184(sp)
   126b4:	04c12823          	sw	a2,80(sp)
   126b8:	0af12e23          	sw	a5,188(sp)
   126bc:	02f12623          	sw	a5,44(sp)
   126c0:	0a012023          	sw	zero,160(sp)
   126c4:	0a012223          	sw	zero,164(sp)
   126c8:	0a012423          	sw	zero,168(sp)
   126cc:	0b012623          	sw	a6,172(sp)
   126d0:	4dc0f0ef          	jal	ra,21bac <__getf2>
   126d4:	02012883          	lw	a7,32(sp)
   126d8:	02412383          	lw	t2,36(sp)
   126dc:	2ea04463          	bgtz	a0,129c4 <_vfprintf_r+0x25cc>
   126e0:	000c0593          	mv	a1,s8
   126e4:	00090513          	mv	a0,s2
   126e8:	3f00f0ef          	jal	ra,21ad8 <__eqtf2>
   126ec:	02012883          	lw	a7,32(sp)
   126f0:	02412383          	lw	t2,36(sp)
   126f4:	06812683          	lw	a3,104(sp)
   126f8:	00051663          	bnez	a0,12704 <_vfprintf_r+0x230c>
   126fc:	001dfd93          	andi	s11,s11,1
   12700:	2c0d9263          	bnez	s11,129c4 <_vfprintf_r+0x25cc>
   12704:	00168c13          	addi	s8,a3,1
   12708:	018a8c33          	add	s8,s5,s8
   1270c:	03000613          	li	a2,48
   12710:	2e06ce63          	bltz	a3,12a0c <_vfprintf_r+0x2614>
   12714:	001a8a93          	addi	s5,s5,1
   12718:	feca8fa3          	sb	a2,-1(s5)
   1271c:	ff5c1ce3          	bne	s8,s5,12714 <_vfprintf_r+0x231c>
   12720:	419c07b3          	sub	a5,s8,s9
   12724:	02f12223          	sw	a5,36(sp)
   12728:	fdf8fa93          	andi	s5,a7,-33
   1272c:	b88ff06f          	j	11ab4 <_vfprintf_r+0x16bc>
   12730:	0c714683          	lbu	a3,199(sp)
   12734:	00000993          	li	s3,0
   12738:	00068463          	beqz	a3,12740 <_vfprintf_r+0x2348>
   1273c:	988fe06f          	j	108c4 <_vfprintf_r+0x4cc>
   12740:	ee5fd06f          	j	10624 <_vfprintf_r+0x22c>
   12744:	02412783          	lw	a5,36(sp)
   12748:	1af74463          	blt	a4,a5,128f0 <_vfprintf_r+0x24f8>
   1274c:	02812783          	lw	a5,40(sp)
   12750:	00070913          	mv	s2,a4
   12754:	0017f693          	andi	a3,a5,1
   12758:	00068663          	beqz	a3,12764 <_vfprintf_r+0x236c>
   1275c:	03412783          	lw	a5,52(sp)
   12760:	00f70933          	add	s2,a4,a5
   12764:	02812783          	lw	a5,40(sp)
   12768:	4007f693          	andi	a3,a5,1024
   1276c:	00068463          	beqz	a3,12774 <_vfprintf_r+0x237c>
   12770:	40e04c63          	bgtz	a4,12b88 <_vfprintf_r+0x2790>
   12774:	fff94813          	not	a6,s2
   12778:	05c12c03          	lw	s8,92(sp)
   1277c:	41f85813          	srai	a6,a6,0x1f
   12780:	01097ab3          	and	s5,s2,a6
   12784:	06700893          	li	a7,103
   12788:	02012623          	sw	zero,44(sp)
   1278c:	02012423          	sw	zero,40(sp)
   12790:	bc1ff06f          	j	12350 <_vfprintf_r+0x1f58>
   12794:	00900713          	li	a4,9
   12798:	c3b76663          	bltu	a4,s11,11bc4 <_vfprintf_r+0x17cc>
   1279c:	c70ff06f          	j	11c0c <_vfprintf_r+0x1814>
   127a0:	0e410613          	addi	a2,sp,228
   127a4:	00048593          	mv	a1,s1
   127a8:	000a0513          	mv	a0,s4
   127ac:	5fd080ef          	jal	ra,1b5a8 <__sprint_r>
   127b0:	00050463          	beqz	a0,127b8 <_vfprintf_r+0x23c0>
   127b4:	ac5fe06f          	j	11278 <_vfprintf_r+0xe80>
   127b8:	000c4703          	lbu	a4,0(s8)
   127bc:	0ec12683          	lw	a3,236(sp)
   127c0:	000b0613          	mv	a2,s6
   127c4:	00ec8cb3          	add	s9,s9,a4
   127c8:	fb0ff06f          	j	11f78 <_vfprintf_r+0x1b80>
   127cc:	00812583          	lw	a1,8(sp)
   127d0:	0e410613          	addi	a2,sp,228
   127d4:	000a0513          	mv	a0,s4
   127d8:	5d1080ef          	jal	ra,1b5a8 <__sprint_r>
   127dc:	00050463          	beqz	a0,127e4 <_vfprintf_r+0x23ec>
   127e0:	a99fe06f          	j	11278 <_vfprintf_r+0xe80>
   127e4:	0cc12903          	lw	s2,204(sp)
   127e8:	0ec12683          	lw	a3,236(sp)
   127ec:	000b0413          	mv	s0,s6
   127f0:	d45fe06f          	j	11534 <_vfprintf_r+0x113c>
   127f4:	02d00793          	li	a5,45
   127f8:	0cf103a3          	sb	a5,199(sp)
   127fc:	02d00693          	li	a3,45
   12800:	d38ff06f          	j	11d38 <_vfprintf_r+0x1940>
   12804:	0c714683          	lbu	a3,199(sp)
   12808:	01712c23          	sw	s7,24(sp)
   1280c:	02012623          	sw	zero,44(sp)
   12810:	02012423          	sw	zero,40(sp)
   12814:	02012023          	sw	zero,32(sp)
   12818:	00098a93          	mv	s5,s3
   1281c:	00098913          	mv	s2,s3
   12820:	00000993          	li	s3,0
   12824:	00068463          	beqz	a3,1282c <_vfprintf_r+0x2434>
   12828:	89cfe06f          	j	108c4 <_vfprintf_r+0x4cc>
   1282c:	df9fd06f          	j	10624 <_vfprintf_r+0x22c>
   12830:	000257b7          	lui	a5,0x25
   12834:	10878c93          	addi	s9,a5,264 # 25108 <__clzsi2+0xf8>
   12838:	d10ff06f          	j	11d48 <_vfprintf_r+0x1950>
   1283c:	00812583          	lw	a1,8(sp)
   12840:	0e410613          	addi	a2,sp,228
   12844:	000a0513          	mv	a0,s4
   12848:	561080ef          	jal	ra,1b5a8 <__sprint_r>
   1284c:	00050463          	beqz	a0,12854 <_vfprintf_r+0x245c>
   12850:	a29fe06f          	j	11278 <_vfprintf_r+0xe80>
   12854:	0cc12903          	lw	s2,204(sp)
   12858:	02412783          	lw	a5,36(sp)
   1285c:	0ec12683          	lw	a3,236(sp)
   12860:	000b0413          	mv	s0,s6
   12864:	41278933          	sub	s2,a5,s2
   12868:	d15fe06f          	j	1157c <_vfprintf_r+0x1184>
   1286c:	000c0693          	mv	a3,s8
   12870:	ce4fe06f          	j	10d54 <_vfprintf_r+0x95c>
   12874:	00025e37          	lui	t3,0x25
   12878:	ff000593          	li	a1,-16
   1287c:	40a00933          	neg	s2,a0
   12880:	348e0b93          	addi	s7,t3,840 # 25348 <zeroes.0>
   12884:	01000993          	li	s3,16
   12888:	00700d93          	li	s11,7
   1288c:	00b54863          	blt	a0,a1,1289c <_vfprintf_r+0x24a4>
   12890:	0ec0006f          	j	1297c <_vfprintf_r+0x2584>
   12894:	ff090913          	addi	s2,s2,-16
   12898:	0f29d263          	bge	s3,s2,1297c <_vfprintf_r+0x2584>
   1289c:	01068693          	addi	a3,a3,16
   128a0:	00160613          	addi	a2,a2,1
   128a4:	01742023          	sw	s7,0(s0)
   128a8:	01342223          	sw	s3,4(s0)
   128ac:	0ed12623          	sw	a3,236(sp)
   128b0:	0ec12423          	sw	a2,232(sp)
   128b4:	00840413          	addi	s0,s0,8
   128b8:	fccddee3          	bge	s11,a2,12894 <_vfprintf_r+0x249c>
   128bc:	00812583          	lw	a1,8(sp)
   128c0:	0e410613          	addi	a2,sp,228
   128c4:	000a0513          	mv	a0,s4
   128c8:	4e1080ef          	jal	ra,1b5a8 <__sprint_r>
   128cc:	00050463          	beqz	a0,128d4 <_vfprintf_r+0x24dc>
   128d0:	9a9fe06f          	j	11278 <_vfprintf_r+0xe80>
   128d4:	0ec12683          	lw	a3,236(sp)
   128d8:	0e812603          	lw	a2,232(sp)
   128dc:	000b0413          	mv	s0,s6
   128e0:	fb5ff06f          	j	12894 <_vfprintf_r+0x249c>
   128e4:	fff00793          	li	a5,-1
   128e8:	00f12823          	sw	a5,16(sp)
   128ec:	e81fd06f          	j	1076c <_vfprintf_r+0x374>
   128f0:	02412783          	lw	a5,36(sp)
   128f4:	03412703          	lw	a4,52(sp)
   128f8:	06700893          	li	a7,103
   128fc:	00e78933          	add	s2,a5,a4
   12900:	02012783          	lw	a5,32(sp)
   12904:	30f05863          	blez	a5,12c14 <_vfprintf_r+0x281c>
   12908:	02812783          	lw	a5,40(sp)
   1290c:	4007f713          	andi	a4,a5,1024
   12910:	26071e63          	bnez	a4,12b8c <_vfprintf_r+0x2794>
   12914:	fff94813          	not	a6,s2
   12918:	41f85813          	srai	a6,a6,0x1f
   1291c:	05c12c03          	lw	s8,92(sp)
   12920:	01097ab3          	and	s5,s2,a6
   12924:	e65ff06f          	j	12788 <_vfprintf_r+0x2390>
   12928:	02812783          	lw	a5,40(sp)
   1292c:	0017f713          	andi	a4,a5,1
   12930:	02012783          	lw	a5,32(sp)
   12934:	01376733          	or	a4,a4,s3
   12938:	30f05c63          	blez	a5,12c50 <_vfprintf_r+0x2858>
   1293c:	2e071a63          	bnez	a4,12c30 <_vfprintf_r+0x2838>
   12940:	02012903          	lw	s2,32(sp)
   12944:	06600893          	li	a7,102
   12948:	fc1ff06f          	j	12908 <_vfprintf_r+0x2510>
   1294c:	0d610713          	addi	a4,sp,214
   12950:	00061863          	bnez	a2,12960 <_vfprintf_r+0x2568>
   12954:	03000713          	li	a4,48
   12958:	0ce10b23          	sb	a4,214(sp)
   1295c:	0d710713          	addi	a4,sp,215
   12960:	1b010793          	addi	a5,sp,432
   12964:	40f706b3          	sub	a3,a4,a5
   12968:	030d8d93          	addi	s11,s11,48
   1296c:	0dd68793          	addi	a5,a3,221
   12970:	01b70023          	sb	s11,0(a4)
   12974:	04f12223          	sw	a5,68(sp)
   12978:	999ff06f          	j	12310 <_vfprintf_r+0x1f18>
   1297c:	012686b3          	add	a3,a3,s2
   12980:	00160613          	addi	a2,a2,1
   12984:	01742023          	sw	s7,0(s0)
   12988:	01242223          	sw	s2,4(s0)
   1298c:	0ed12623          	sw	a3,236(sp)
   12990:	0ec12423          	sw	a2,232(sp)
   12994:	00700593          	li	a1,7
   12998:	b2c5d063          	bge	a1,a2,11cb8 <_vfprintf_r+0x18c0>
   1299c:	00812583          	lw	a1,8(sp)
   129a0:	0e410613          	addi	a2,sp,228
   129a4:	000a0513          	mv	a0,s4
   129a8:	401080ef          	jal	ra,1b5a8 <__sprint_r>
   129ac:	00050463          	beqz	a0,129b4 <_vfprintf_r+0x25bc>
   129b0:	8c9fe06f          	j	11278 <_vfprintf_r+0xe80>
   129b4:	0ec12683          	lw	a3,236(sp)
   129b8:	0e812603          	lw	a2,232(sp)
   129bc:	000b0413          	mv	s0,s6
   129c0:	bfcff06f          	j	11dbc <_vfprintf_r+0x19c4>
   129c4:	05812783          	lw	a5,88(sp)
   129c8:	00f3c583          	lbu	a1,15(t2)
   129cc:	000a8693          	mv	a3,s5
   129d0:	0cf12e23          	sw	a5,220(sp)
   129d4:	fffac603          	lbu	a2,-1(s5)
   129d8:	02b61063          	bne	a2,a1,129f8 <_vfprintf_r+0x2600>
   129dc:	03000513          	li	a0,48
   129e0:	fea68fa3          	sb	a0,-1(a3)
   129e4:	0dc12683          	lw	a3,220(sp)
   129e8:	fff68793          	addi	a5,a3,-1
   129ec:	0cf12e23          	sw	a5,220(sp)
   129f0:	fff6c603          	lbu	a2,-1(a3)
   129f4:	fec586e3          	beq	a1,a2,129e0 <_vfprintf_r+0x25e8>
   129f8:	00160593          	addi	a1,a2,1
   129fc:	03900513          	li	a0,57
   12a00:	0ff5f593          	zext.b	a1,a1
   12a04:	00a60863          	beq	a2,a0,12a14 <_vfprintf_r+0x261c>
   12a08:	feb68fa3          	sb	a1,-1(a3)
   12a0c:	000a8c13          	mv	s8,s5
   12a10:	d11ff06f          	j	12720 <_vfprintf_r+0x2328>
   12a14:	00a3c583          	lbu	a1,10(t2)
   12a18:	feb68fa3          	sb	a1,-1(a3)
   12a1c:	ff1ff06f          	j	12a0c <_vfprintf_r+0x2614>
   12a20:	00dc8bb3          	add	s7,s9,a3
   12a24:	04700a93          	li	s5,71
   12a28:	0a010c13          	addi	s8,sp,160
   12a2c:	824ff06f          	j	11a50 <_vfprintf_r+0x1658>
   12a30:	00098a93          	mv	s5,s3
   12a34:	00048f93          	mv	t6,s1
   12a38:	000d0f13          	mv	t5,s10
   12a3c:	06812883          	lw	a7,104(sp)
   12a40:	07412403          	lw	s0,116(sp)
   12a44:	07012983          	lw	s3,112(sp)
   12a48:	02c12383          	lw	t2,44(sp)
   12a4c:	07812a03          	lw	s4,120(sp)
   12a50:	07c12c83          	lw	s9,124(sp)
   12a54:	06412483          	lw	s1,100(sp)
   12a58:	06c12d03          	lw	s10,108(sp)
   12a5c:	000b8693          	mv	a3,s7
   12a60:	c29ff06f          	j	12688 <_vfprintf_r+0x2290>
   12a64:	00098463          	beqz	s3,12a6c <_vfprintf_r+0x2674>
   12a68:	fb1fd06f          	j	10a18 <_vfprintf_r+0x620>
   12a6c:	00100993          	li	s3,1
   12a70:	fa9fd06f          	j	10a18 <_vfprintf_r+0x620>
   12a74:	00600993          	li	s3,6
   12a78:	fa1fd06f          	j	10a18 <_vfprintf_r+0x620>
   12a7c:	02812783          	lw	a5,40(sp)
   12a80:	0017f713          	andi	a4,a5,1
   12a84:	8a0704e3          	beqz	a4,1232c <_vfprintf_r+0x1f34>
   12a88:	89dff06f          	j	12324 <_vfprintf_r+0x1f2c>
   12a8c:	0b010913          	addi	s2,sp,176
   12a90:	00090513          	mv	a0,s2
   12a94:	07112223          	sw	a7,100(sp)
   12a98:	0be12823          	sw	t5,176(sp)
   12a9c:	0bd12a23          	sw	t4,180(sp)
   12aa0:	0bc12c23          	sw	t3,184(sp)
   12aa4:	0bb12e23          	sw	s11,188(sp)
   12aa8:	13c120ef          	jal	ra,24be4 <__trunctfdf2>
   12aac:	0cc10613          	addi	a2,sp,204
   12ab0:	43d050ef          	jal	ra,186ec <frexp>
   12ab4:	00058613          	mv	a2,a1
   12ab8:	00050593          	mv	a1,a0
   12abc:	00090513          	mv	a0,s2
   12ac0:	71d110ef          	jal	ra,249dc <__extenddftf2>
   12ac4:	0b012703          	lw	a4,176(sp)
   12ac8:	09010793          	addi	a5,sp,144
   12acc:	0a010c13          	addi	s8,sp,160
   12ad0:	08e12823          	sw	a4,144(sp)
   12ad4:	0b412703          	lw	a4,180(sp)
   12ad8:	08010613          	addi	a2,sp,128
   12adc:	00078593          	mv	a1,a5
   12ae0:	08e12a23          	sw	a4,148(sp)
   12ae4:	0b812703          	lw	a4,184(sp)
   12ae8:	000c0513          	mv	a0,s8
   12aec:	04f12a23          	sw	a5,84(sp)
   12af0:	08e12c23          	sw	a4,152(sp)
   12af4:	0bc12703          	lw	a4,188(sp)
   12af8:	04c12823          	sw	a2,80(sp)
   12afc:	08012023          	sw	zero,128(sp)
   12b00:	08e12e23          	sw	a4,156(sp)
   12b04:	3ffc0737          	lui	a4,0x3ffc0
   12b08:	08e12623          	sw	a4,140(sp)
   12b0c:	08012223          	sw	zero,132(sp)
   12b10:	08012423          	sw	zero,136(sp)
   12b14:	3600f0ef          	jal	ra,21e74 <__multf3>
   12b18:	0a012683          	lw	a3,160(sp)
   12b1c:	0a412803          	lw	a6,164(sp)
   12b20:	0a812e03          	lw	t3,168(sp)
   12b24:	0ac12e83          	lw	t4,172(sp)
   12b28:	000c0593          	mv	a1,s8
   12b2c:	00090513          	mv	a0,s2
   12b30:	0ad12823          	sw	a3,176(sp)
   12b34:	04d12c23          	sw	a3,88(sp)
   12b38:	0b012a23          	sw	a6,180(sp)
   12b3c:	03012623          	sw	a6,44(sp)
   12b40:	0bc12c23          	sw	t3,184(sp)
   12b44:	03c12223          	sw	t3,36(sp)
   12b48:	0bd12e23          	sw	t4,188(sp)
   12b4c:	03d12023          	sw	t4,32(sp)
   12b50:	0a012023          	sw	zero,160(sp)
   12b54:	0a012223          	sw	zero,164(sp)
   12b58:	0a012423          	sw	zero,168(sp)
   12b5c:	0a012623          	sw	zero,172(sp)
   12b60:	7790e0ef          	jal	ra,21ad8 <__eqtf2>
   12b64:	02012e83          	lw	t4,32(sp)
   12b68:	02412e03          	lw	t3,36(sp)
   12b6c:	02c12803          	lw	a6,44(sp)
   12b70:	05812683          	lw	a3,88(sp)
   12b74:	06412883          	lw	a7,100(sp)
   12b78:	960502e3          	beqz	a0,124dc <_vfprintf_r+0x20e4>
   12b7c:	00025737          	lui	a4,0x25
   12b80:	11070393          	addi	t2,a4,272 # 25110 <__clzsi2+0x100>
   12b84:	971ff06f          	j	124f4 <_vfprintf_r+0x20fc>
   12b88:	06700893          	li	a7,103
   12b8c:	04012603          	lw	a2,64(sp)
   12b90:	0ff00693          	li	a3,255
   12b94:	00064703          	lbu	a4,0(a2)
   12b98:	12d70c63          	beq	a4,a3,12cd0 <_vfprintf_r+0x28d8>
   12b9c:	02012783          	lw	a5,32(sp)
   12ba0:	00000513          	li	a0,0
   12ba4:	00000593          	li	a1,0
   12ba8:	00f75e63          	bge	a4,a5,12bc4 <_vfprintf_r+0x27cc>
   12bac:	40e787b3          	sub	a5,a5,a4
   12bb0:	00164703          	lbu	a4,1(a2)
   12bb4:	04070a63          	beqz	a4,12c08 <_vfprintf_r+0x2810>
   12bb8:	00158593          	addi	a1,a1,1
   12bbc:	00160613          	addi	a2,a2,1
   12bc0:	fed714e3          	bne	a4,a3,12ba8 <_vfprintf_r+0x27b0>
   12bc4:	04c12023          	sw	a2,64(sp)
   12bc8:	02f12023          	sw	a5,32(sp)
   12bcc:	02b12423          	sw	a1,40(sp)
   12bd0:	02a12623          	sw	a0,44(sp)
   12bd4:	02c12783          	lw	a5,44(sp)
   12bd8:	02812703          	lw	a4,40(sp)
   12bdc:	04c12583          	lw	a1,76(sp)
   12be0:	05112823          	sw	a7,80(sp)
   12be4:	00e78533          	add	a0,a5,a4
   12be8:	350120ef          	jal	ra,24f38 <__mulsi3>
   12bec:	01250933          	add	s2,a0,s2
   12bf0:	fff94813          	not	a6,s2
   12bf4:	41f85813          	srai	a6,a6,0x1f
   12bf8:	05c12c03          	lw	s8,92(sp)
   12bfc:	05012883          	lw	a7,80(sp)
   12c00:	01097ab3          	and	s5,s2,a6
   12c04:	f4cff06f          	j	12350 <_vfprintf_r+0x1f58>
   12c08:	00064703          	lbu	a4,0(a2)
   12c0c:	00150513          	addi	a0,a0,1
   12c10:	fb1ff06f          	j	12bc0 <_vfprintf_r+0x27c8>
   12c14:	40f90eb3          	sub	t4,s2,a5
   12c18:	001e8913          	addi	s2,t4,1
   12c1c:	fff94813          	not	a6,s2
   12c20:	41f85813          	srai	a6,a6,0x1f
   12c24:	05c12c03          	lw	s8,92(sp)
   12c28:	01097ab3          	and	s5,s2,a6
   12c2c:	b5dff06f          	j	12788 <_vfprintf_r+0x2390>
   12c30:	03412703          	lw	a4,52(sp)
   12c34:	06600893          	li	a7,102
   12c38:	00e78eb3          	add	t4,a5,a4
   12c3c:	013e8933          	add	s2,t4,s3
   12c40:	cc9ff06f          	j	12908 <_vfprintf_r+0x2510>
   12c44:	07000693          	li	a3,112
   12c48:	00100613          	li	a2,1
   12c4c:	e0cff06f          	j	12258 <_vfprintf_r+0x1e60>
   12c50:	00071c63          	bnez	a4,12c68 <_vfprintf_r+0x2870>
   12c54:	05c12c03          	lw	s8,92(sp)
   12c58:	00100a93          	li	s5,1
   12c5c:	06600893          	li	a7,102
   12c60:	00100913          	li	s2,1
   12c64:	b25ff06f          	j	12788 <_vfprintf_r+0x2390>
   12c68:	03412783          	lw	a5,52(sp)
   12c6c:	05c12c03          	lw	s8,92(sp)
   12c70:	06600893          	li	a7,102
   12c74:	00178e93          	addi	t4,a5,1
   12c78:	013e8933          	add	s2,t4,s3
   12c7c:	fff94813          	not	a6,s2
   12c80:	41f85813          	srai	a6,a6,0x1f
   12c84:	01097ab3          	and	s5,s2,a6
   12c88:	b01ff06f          	j	12788 <_vfprintf_r+0x2390>
   12c8c:	00200793          	li	a5,2
   12c90:	04f12223          	sw	a5,68(sp)
   12c94:	e7cff06f          	j	12310 <_vfprintf_r+0x1f18>
   12c98:	01812783          	lw	a5,24(sp)
   12c9c:	0007a983          	lw	s3,0(a5)
   12ca0:	00478793          	addi	a5,a5,4
   12ca4:	0009d463          	bgez	s3,12cac <_vfprintf_r+0x28b4>
   12ca8:	fff00993          	li	s3,-1
   12cac:	0014c883          	lbu	a7,1(s1)
   12cb0:	00f12c23          	sw	a5,24(sp)
   12cb4:	00070493          	mv	s1,a4
   12cb8:	8edfd06f          	j	105a4 <_vfprintf_r+0x1ac>
   12cbc:	00812703          	lw	a4,8(sp)
   12cc0:	00c75783          	lhu	a5,12(a4)
   12cc4:	0407e793          	ori	a5,a5,64
   12cc8:	00f71623          	sh	a5,12(a4)
   12ccc:	a8dfd06f          	j	10758 <_vfprintf_r+0x360>
   12cd0:	02012623          	sw	zero,44(sp)
   12cd4:	02012423          	sw	zero,40(sp)
   12cd8:	efdff06f          	j	12bd4 <_vfprintf_r+0x27dc>

00012cdc <vfprintf>:
   12cdc:	00050793          	mv	a5,a0
   12ce0:	1c01a503          	lw	a0,448(gp) # 26a80 <_impure_ptr>
   12ce4:	00060693          	mv	a3,a2
   12ce8:	00058613          	mv	a2,a1
   12cec:	00078593          	mv	a1,a5
   12cf0:	f08fd06f          	j	103f8 <_vfprintf_r>

00012cf4 <__sbprintf>:
   12cf4:	00c59783          	lh	a5,12(a1)
   12cf8:	00e5d703          	lhu	a4,14(a1)
   12cfc:	0645a303          	lw	t1,100(a1)
   12d00:	ffd7f793          	andi	a5,a5,-3
   12d04:	01079793          	slli	a5,a5,0x10
   12d08:	01c5a883          	lw	a7,28(a1)
   12d0c:	0245a803          	lw	a6,36(a1)
   12d10:	01071713          	slli	a4,a4,0x10
   12d14:	0107d793          	srli	a5,a5,0x10
   12d18:	b8010113          	addi	sp,sp,-1152
   12d1c:	00e7e7b3          	or	a5,a5,a4
   12d20:	46812c23          	sw	s0,1144(sp)
   12d24:	40000713          	li	a4,1024
   12d28:	00f12a23          	sw	a5,20(sp)
   12d2c:	00058413          	mv	s0,a1
   12d30:	07010793          	addi	a5,sp,112
   12d34:	00810593          	addi	a1,sp,8
   12d38:	46912a23          	sw	s1,1140(sp)
   12d3c:	47212823          	sw	s2,1136(sp)
   12d40:	46112e23          	sw	ra,1148(sp)
   12d44:	00050913          	mv	s2,a0
   12d48:	06612623          	sw	t1,108(sp)
   12d4c:	03112223          	sw	a7,36(sp)
   12d50:	03012623          	sw	a6,44(sp)
   12d54:	00f12423          	sw	a5,8(sp)
   12d58:	00f12c23          	sw	a5,24(sp)
   12d5c:	00e12823          	sw	a4,16(sp)
   12d60:	00e12e23          	sw	a4,28(sp)
   12d64:	02012023          	sw	zero,32(sp)
   12d68:	e90fd0ef          	jal	ra,103f8 <_vfprintf_r>
   12d6c:	00050493          	mv	s1,a0
   12d70:	02055c63          	bgez	a0,12da8 <__sbprintf+0xb4>
   12d74:	01415783          	lhu	a5,20(sp)
   12d78:	0407f793          	andi	a5,a5,64
   12d7c:	00078863          	beqz	a5,12d8c <__sbprintf+0x98>
   12d80:	00c45783          	lhu	a5,12(s0)
   12d84:	0407e793          	ori	a5,a5,64
   12d88:	00f41623          	sh	a5,12(s0)
   12d8c:	47c12083          	lw	ra,1148(sp)
   12d90:	47812403          	lw	s0,1144(sp)
   12d94:	47012903          	lw	s2,1136(sp)
   12d98:	00048513          	mv	a0,s1
   12d9c:	47412483          	lw	s1,1140(sp)
   12da0:	48010113          	addi	sp,sp,1152
   12da4:	00008067          	ret
   12da8:	00810593          	addi	a1,sp,8
   12dac:	00090513          	mv	a0,s2
   12db0:	4d0000ef          	jal	ra,13280 <_fflush_r>
   12db4:	fc0500e3          	beqz	a0,12d74 <__sbprintf+0x80>
   12db8:	fff00493          	li	s1,-1
   12dbc:	fb9ff06f          	j	12d74 <__sbprintf+0x80>

00012dc0 <__swsetup_r>:
   12dc0:	1c01a783          	lw	a5,448(gp) # 26a80 <_impure_ptr>
   12dc4:	ff010113          	addi	sp,sp,-16
   12dc8:	00812423          	sw	s0,8(sp)
   12dcc:	00912223          	sw	s1,4(sp)
   12dd0:	00112623          	sw	ra,12(sp)
   12dd4:	00050493          	mv	s1,a0
   12dd8:	00058413          	mv	s0,a1
   12ddc:	00078663          	beqz	a5,12de8 <__swsetup_r+0x28>
   12de0:	0387a703          	lw	a4,56(a5)
   12de4:	08070063          	beqz	a4,12e64 <__swsetup_r+0xa4>
   12de8:	00c41783          	lh	a5,12(s0)
   12dec:	0087f713          	andi	a4,a5,8
   12df0:	08070463          	beqz	a4,12e78 <__swsetup_r+0xb8>
   12df4:	01042703          	lw	a4,16(s0)
   12df8:	0a070063          	beqz	a4,12e98 <__swsetup_r+0xd8>
   12dfc:	0017f693          	andi	a3,a5,1
   12e00:	02068863          	beqz	a3,12e30 <__swsetup_r+0x70>
   12e04:	01442683          	lw	a3,20(s0)
   12e08:	00042423          	sw	zero,8(s0)
   12e0c:	00000513          	li	a0,0
   12e10:	40d006b3          	neg	a3,a3
   12e14:	00d42c23          	sw	a3,24(s0)
   12e18:	02070a63          	beqz	a4,12e4c <__swsetup_r+0x8c>
   12e1c:	00c12083          	lw	ra,12(sp)
   12e20:	00812403          	lw	s0,8(sp)
   12e24:	00412483          	lw	s1,4(sp)
   12e28:	01010113          	addi	sp,sp,16
   12e2c:	00008067          	ret
   12e30:	0027f693          	andi	a3,a5,2
   12e34:	00000613          	li	a2,0
   12e38:	00069463          	bnez	a3,12e40 <__swsetup_r+0x80>
   12e3c:	01442603          	lw	a2,20(s0)
   12e40:	00c42423          	sw	a2,8(s0)
   12e44:	00000513          	li	a0,0
   12e48:	fc071ae3          	bnez	a4,12e1c <__swsetup_r+0x5c>
   12e4c:	0807f713          	andi	a4,a5,128
   12e50:	fc0706e3          	beqz	a4,12e1c <__swsetup_r+0x5c>
   12e54:	0407e793          	ori	a5,a5,64
   12e58:	00f41623          	sh	a5,12(s0)
   12e5c:	fff00513          	li	a0,-1
   12e60:	fbdff06f          	j	12e1c <__swsetup_r+0x5c>
   12e64:	00078513          	mv	a0,a5
   12e68:	049000ef          	jal	ra,136b0 <__sinit>
   12e6c:	00c41783          	lh	a5,12(s0)
   12e70:	0087f713          	andi	a4,a5,8
   12e74:	f80710e3          	bnez	a4,12df4 <__swsetup_r+0x34>
   12e78:	0107f713          	andi	a4,a5,16
   12e7c:	06070a63          	beqz	a4,12ef0 <__swsetup_r+0x130>
   12e80:	0047f713          	andi	a4,a5,4
   12e84:	02071c63          	bnez	a4,12ebc <__swsetup_r+0xfc>
   12e88:	01042703          	lw	a4,16(s0)
   12e8c:	0087e793          	ori	a5,a5,8
   12e90:	00f41623          	sh	a5,12(s0)
   12e94:	f60714e3          	bnez	a4,12dfc <__swsetup_r+0x3c>
   12e98:	2807f693          	andi	a3,a5,640
   12e9c:	20000613          	li	a2,512
   12ea0:	f4c68ee3          	beq	a3,a2,12dfc <__swsetup_r+0x3c>
   12ea4:	00040593          	mv	a1,s0
   12ea8:	00048513          	mv	a0,s1
   12eac:	2f5030ef          	jal	ra,169a0 <__smakebuf_r>
   12eb0:	00c41783          	lh	a5,12(s0)
   12eb4:	01042703          	lw	a4,16(s0)
   12eb8:	f45ff06f          	j	12dfc <__swsetup_r+0x3c>
   12ebc:	03042583          	lw	a1,48(s0)
   12ec0:	00058e63          	beqz	a1,12edc <__swsetup_r+0x11c>
   12ec4:	04040713          	addi	a4,s0,64
   12ec8:	00e58863          	beq	a1,a4,12ed8 <__swsetup_r+0x118>
   12ecc:	00048513          	mv	a0,s1
   12ed0:	1ad000ef          	jal	ra,1387c <_free_r>
   12ed4:	00c41783          	lh	a5,12(s0)
   12ed8:	02042823          	sw	zero,48(s0)
   12edc:	01042703          	lw	a4,16(s0)
   12ee0:	fdb7f793          	andi	a5,a5,-37
   12ee4:	00042223          	sw	zero,4(s0)
   12ee8:	00e42023          	sw	a4,0(s0)
   12eec:	fa1ff06f          	j	12e8c <__swsetup_r+0xcc>
   12ef0:	00900713          	li	a4,9
   12ef4:	00e4a023          	sw	a4,0(s1)
   12ef8:	0407e793          	ori	a5,a5,64
   12efc:	f5dff06f          	j	12e58 <__swsetup_r+0x98>

00012f00 <__call_exitprocs>:
   12f00:	fd010113          	addi	sp,sp,-48
   12f04:	01412c23          	sw	s4,24(sp)
   12f08:	1b81aa03          	lw	s4,440(gp) # 26a78 <_global_impure_ptr>
   12f0c:	03212023          	sw	s2,32(sp)
   12f10:	02112623          	sw	ra,44(sp)
   12f14:	148a2903          	lw	s2,328(s4)
   12f18:	02812423          	sw	s0,40(sp)
   12f1c:	02912223          	sw	s1,36(sp)
   12f20:	01312e23          	sw	s3,28(sp)
   12f24:	01512a23          	sw	s5,20(sp)
   12f28:	01612823          	sw	s6,16(sp)
   12f2c:	01712623          	sw	s7,12(sp)
   12f30:	01812423          	sw	s8,8(sp)
   12f34:	04090063          	beqz	s2,12f74 <__call_exitprocs+0x74>
   12f38:	00050b13          	mv	s6,a0
   12f3c:	00058b93          	mv	s7,a1
   12f40:	00100a93          	li	s5,1
   12f44:	fff00993          	li	s3,-1
   12f48:	00492483          	lw	s1,4(s2)
   12f4c:	fff48413          	addi	s0,s1,-1
   12f50:	02044263          	bltz	s0,12f74 <__call_exitprocs+0x74>
   12f54:	00249493          	slli	s1,s1,0x2
   12f58:	009904b3          	add	s1,s2,s1
   12f5c:	040b8463          	beqz	s7,12fa4 <__call_exitprocs+0xa4>
   12f60:	1044a783          	lw	a5,260(s1)
   12f64:	05778063          	beq	a5,s7,12fa4 <__call_exitprocs+0xa4>
   12f68:	fff40413          	addi	s0,s0,-1
   12f6c:	ffc48493          	addi	s1,s1,-4
   12f70:	ff3416e3          	bne	s0,s3,12f5c <__call_exitprocs+0x5c>
   12f74:	02c12083          	lw	ra,44(sp)
   12f78:	02812403          	lw	s0,40(sp)
   12f7c:	02412483          	lw	s1,36(sp)
   12f80:	02012903          	lw	s2,32(sp)
   12f84:	01c12983          	lw	s3,28(sp)
   12f88:	01812a03          	lw	s4,24(sp)
   12f8c:	01412a83          	lw	s5,20(sp)
   12f90:	01012b03          	lw	s6,16(sp)
   12f94:	00c12b83          	lw	s7,12(sp)
   12f98:	00812c03          	lw	s8,8(sp)
   12f9c:	03010113          	addi	sp,sp,48
   12fa0:	00008067          	ret
   12fa4:	00492783          	lw	a5,4(s2)
   12fa8:	0044a683          	lw	a3,4(s1)
   12fac:	fff78793          	addi	a5,a5,-1
   12fb0:	04878e63          	beq	a5,s0,1300c <__call_exitprocs+0x10c>
   12fb4:	0004a223          	sw	zero,4(s1)
   12fb8:	fa0688e3          	beqz	a3,12f68 <__call_exitprocs+0x68>
   12fbc:	18892783          	lw	a5,392(s2)
   12fc0:	008a9733          	sll	a4,s5,s0
   12fc4:	00492c03          	lw	s8,4(s2)
   12fc8:	00f777b3          	and	a5,a4,a5
   12fcc:	02079263          	bnez	a5,12ff0 <__call_exitprocs+0xf0>
   12fd0:	000680e7          	jalr	a3
   12fd4:	00492703          	lw	a4,4(s2)
   12fd8:	148a2783          	lw	a5,328(s4)
   12fdc:	01871463          	bne	a4,s8,12fe4 <__call_exitprocs+0xe4>
   12fe0:	f92784e3          	beq	a5,s2,12f68 <__call_exitprocs+0x68>
   12fe4:	f80788e3          	beqz	a5,12f74 <__call_exitprocs+0x74>
   12fe8:	00078913          	mv	s2,a5
   12fec:	f5dff06f          	j	12f48 <__call_exitprocs+0x48>
   12ff0:	18c92783          	lw	a5,396(s2)
   12ff4:	0844a583          	lw	a1,132(s1)
   12ff8:	00f77733          	and	a4,a4,a5
   12ffc:	00071c63          	bnez	a4,13014 <__call_exitprocs+0x114>
   13000:	000b0513          	mv	a0,s6
   13004:	000680e7          	jalr	a3
   13008:	fcdff06f          	j	12fd4 <__call_exitprocs+0xd4>
   1300c:	00892223          	sw	s0,4(s2)
   13010:	fa9ff06f          	j	12fb8 <__call_exitprocs+0xb8>
   13014:	00058513          	mv	a0,a1
   13018:	000680e7          	jalr	a3
   1301c:	fb9ff06f          	j	12fd4 <__call_exitprocs+0xd4>

00013020 <atexit>:
   13020:	00050593          	mv	a1,a0
   13024:	00000693          	li	a3,0
   13028:	00000613          	li	a2,0
   1302c:	00000513          	li	a0,0
   13030:	2090906f          	j	1ca38 <__register_exitproc>

00013034 <__sflush_r>:
   13034:	00c59783          	lh	a5,12(a1)
   13038:	fe010113          	addi	sp,sp,-32
   1303c:	00812c23          	sw	s0,24(sp)
   13040:	01312623          	sw	s3,12(sp)
   13044:	00112e23          	sw	ra,28(sp)
   13048:	00912a23          	sw	s1,20(sp)
   1304c:	01212823          	sw	s2,16(sp)
   13050:	0087f713          	andi	a4,a5,8
   13054:	00058413          	mv	s0,a1
   13058:	00050993          	mv	s3,a0
   1305c:	12071263          	bnez	a4,13180 <__sflush_r+0x14c>
   13060:	00001737          	lui	a4,0x1
   13064:	80070713          	addi	a4,a4,-2048 # 800 <exit-0xf894>
   13068:	0045a683          	lw	a3,4(a1)
   1306c:	00e7e733          	or	a4,a5,a4
   13070:	00e59623          	sh	a4,12(a1)
   13074:	18d05863          	blez	a3,13204 <__sflush_r+0x1d0>
   13078:	02842803          	lw	a6,40(s0)
   1307c:	0e080263          	beqz	a6,13160 <__sflush_r+0x12c>
   13080:	00c7d793          	srli	a5,a5,0xc
   13084:	0009a483          	lw	s1,0(s3)
   13088:	0017f793          	andi	a5,a5,1
   1308c:	0009a023          	sw	zero,0(s3)
   13090:	01c42583          	lw	a1,28(s0)
   13094:	18079063          	bnez	a5,13214 <__sflush_r+0x1e0>
   13098:	00000613          	li	a2,0
   1309c:	00100693          	li	a3,1
   130a0:	00098513          	mv	a0,s3
   130a4:	000800e7          	jalr	a6 # 3ffe0000 <__BSS_END__+0x3ffb9518>
   130a8:	fff00793          	li	a5,-1
   130ac:	00050613          	mv	a2,a0
   130b0:	1af50063          	beq	a0,a5,13250 <__sflush_r+0x21c>
   130b4:	00c41703          	lh	a4,12(s0)
   130b8:	02842803          	lw	a6,40(s0)
   130bc:	01c42583          	lw	a1,28(s0)
   130c0:	00477713          	andi	a4,a4,4
   130c4:	00070e63          	beqz	a4,130e0 <__sflush_r+0xac>
   130c8:	00442703          	lw	a4,4(s0)
   130cc:	03042783          	lw	a5,48(s0)
   130d0:	40e60633          	sub	a2,a2,a4
   130d4:	00078663          	beqz	a5,130e0 <__sflush_r+0xac>
   130d8:	03c42783          	lw	a5,60(s0)
   130dc:	40f60633          	sub	a2,a2,a5
   130e0:	00000693          	li	a3,0
   130e4:	00098513          	mv	a0,s3
   130e8:	000800e7          	jalr	a6
   130ec:	fff00793          	li	a5,-1
   130f0:	12f51663          	bne	a0,a5,1321c <__sflush_r+0x1e8>
   130f4:	0009a683          	lw	a3,0(s3)
   130f8:	01d00793          	li	a5,29
   130fc:	0cd7ee63          	bltu	a5,a3,131d8 <__sflush_r+0x1a4>
   13100:	dfc00737          	lui	a4,0xdfc00
   13104:	ffe70713          	addi	a4,a4,-2 # dfbffffe <__BSS_END__+0xdfbd9516>
   13108:	40d75733          	sra	a4,a4,a3
   1310c:	00177713          	andi	a4,a4,1
   13110:	00c41783          	lh	a5,12(s0)
   13114:	0c071463          	bnez	a4,131dc <__sflush_r+0x1a8>
   13118:	01042603          	lw	a2,16(s0)
   1311c:	fffff737          	lui	a4,0xfffff
   13120:	7ff70713          	addi	a4,a4,2047 # fffff7ff <__BSS_END__+0xfffd8d17>
   13124:	00e7f733          	and	a4,a5,a4
   13128:	00c7d793          	srli	a5,a5,0xc
   1312c:	00e41623          	sh	a4,12(s0)
   13130:	00042223          	sw	zero,4(s0)
   13134:	00c42023          	sw	a2,0(s0)
   13138:	0017f793          	andi	a5,a5,1
   1313c:	12079c63          	bnez	a5,13274 <__sflush_r+0x240>
   13140:	03042583          	lw	a1,48(s0)
   13144:	0099a023          	sw	s1,0(s3)
   13148:	00058c63          	beqz	a1,13160 <__sflush_r+0x12c>
   1314c:	04040793          	addi	a5,s0,64
   13150:	00f58663          	beq	a1,a5,1315c <__sflush_r+0x128>
   13154:	00098513          	mv	a0,s3
   13158:	724000ef          	jal	ra,1387c <_free_r>
   1315c:	02042823          	sw	zero,48(s0)
   13160:	00000513          	li	a0,0
   13164:	01c12083          	lw	ra,28(sp)
   13168:	01812403          	lw	s0,24(sp)
   1316c:	01412483          	lw	s1,20(sp)
   13170:	01012903          	lw	s2,16(sp)
   13174:	00c12983          	lw	s3,12(sp)
   13178:	02010113          	addi	sp,sp,32
   1317c:	00008067          	ret
   13180:	0105a903          	lw	s2,16(a1)
   13184:	fc090ee3          	beqz	s2,13160 <__sflush_r+0x12c>
   13188:	0005a483          	lw	s1,0(a1)
   1318c:	0037f793          	andi	a5,a5,3
   13190:	0125a023          	sw	s2,0(a1)
   13194:	412484b3          	sub	s1,s1,s2
   13198:	00000713          	li	a4,0
   1319c:	00079463          	bnez	a5,131a4 <__sflush_r+0x170>
   131a0:	0145a703          	lw	a4,20(a1)
   131a4:	00e42423          	sw	a4,8(s0)
   131a8:	00904863          	bgtz	s1,131b8 <__sflush_r+0x184>
   131ac:	fb5ff06f          	j	13160 <__sflush_r+0x12c>
   131b0:	00a90933          	add	s2,s2,a0
   131b4:	fa9056e3          	blez	s1,13160 <__sflush_r+0x12c>
   131b8:	02442783          	lw	a5,36(s0)
   131bc:	01c42583          	lw	a1,28(s0)
   131c0:	00048693          	mv	a3,s1
   131c4:	00090613          	mv	a2,s2
   131c8:	00098513          	mv	a0,s3
   131cc:	000780e7          	jalr	a5
   131d0:	40a484b3          	sub	s1,s1,a0
   131d4:	fca04ee3          	bgtz	a0,131b0 <__sflush_r+0x17c>
   131d8:	00c41783          	lh	a5,12(s0)
   131dc:	0407e793          	ori	a5,a5,64
   131e0:	01c12083          	lw	ra,28(sp)
   131e4:	00f41623          	sh	a5,12(s0)
   131e8:	01812403          	lw	s0,24(sp)
   131ec:	01412483          	lw	s1,20(sp)
   131f0:	01012903          	lw	s2,16(sp)
   131f4:	00c12983          	lw	s3,12(sp)
   131f8:	fff00513          	li	a0,-1
   131fc:	02010113          	addi	sp,sp,32
   13200:	00008067          	ret
   13204:	03c5a683          	lw	a3,60(a1)
   13208:	e6d048e3          	bgtz	a3,13078 <__sflush_r+0x44>
   1320c:	00000513          	li	a0,0
   13210:	f55ff06f          	j	13164 <__sflush_r+0x130>
   13214:	05042603          	lw	a2,80(s0)
   13218:	ea9ff06f          	j	130c0 <__sflush_r+0x8c>
   1321c:	00c41783          	lh	a5,12(s0)
   13220:	01042683          	lw	a3,16(s0)
   13224:	fffff737          	lui	a4,0xfffff
   13228:	7ff70713          	addi	a4,a4,2047 # fffff7ff <__BSS_END__+0xfffd8d17>
   1322c:	00e7f733          	and	a4,a5,a4
   13230:	00c7d793          	srli	a5,a5,0xc
   13234:	00e41623          	sh	a4,12(s0)
   13238:	00042223          	sw	zero,4(s0)
   1323c:	00d42023          	sw	a3,0(s0)
   13240:	0017f793          	andi	a5,a5,1
   13244:	ee078ee3          	beqz	a5,13140 <__sflush_r+0x10c>
   13248:	04a42823          	sw	a0,80(s0)
   1324c:	ef5ff06f          	j	13140 <__sflush_r+0x10c>
   13250:	0009a783          	lw	a5,0(s3)
   13254:	e60780e3          	beqz	a5,130b4 <__sflush_r+0x80>
   13258:	01d00713          	li	a4,29
   1325c:	00e78663          	beq	a5,a4,13268 <__sflush_r+0x234>
   13260:	01600713          	li	a4,22
   13264:	f6e79ae3          	bne	a5,a4,131d8 <__sflush_r+0x1a4>
   13268:	0099a023          	sw	s1,0(s3)
   1326c:	00000513          	li	a0,0
   13270:	ef5ff06f          	j	13164 <__sflush_r+0x130>
   13274:	ec0696e3          	bnez	a3,13140 <__sflush_r+0x10c>
   13278:	04a42823          	sw	a0,80(s0)
   1327c:	ec5ff06f          	j	13140 <__sflush_r+0x10c>

00013280 <_fflush_r>:
   13280:	fe010113          	addi	sp,sp,-32
   13284:	00812c23          	sw	s0,24(sp)
   13288:	00112e23          	sw	ra,28(sp)
   1328c:	00050413          	mv	s0,a0
   13290:	00050663          	beqz	a0,1329c <_fflush_r+0x1c>
   13294:	03852783          	lw	a5,56(a0)
   13298:	02078063          	beqz	a5,132b8 <_fflush_r+0x38>
   1329c:	00c59783          	lh	a5,12(a1)
   132a0:	02079663          	bnez	a5,132cc <_fflush_r+0x4c>
   132a4:	01c12083          	lw	ra,28(sp)
   132a8:	01812403          	lw	s0,24(sp)
   132ac:	00000513          	li	a0,0
   132b0:	02010113          	addi	sp,sp,32
   132b4:	00008067          	ret
   132b8:	00b12623          	sw	a1,12(sp)
   132bc:	3f4000ef          	jal	ra,136b0 <__sinit>
   132c0:	00c12583          	lw	a1,12(sp)
   132c4:	00c59783          	lh	a5,12(a1)
   132c8:	fc078ee3          	beqz	a5,132a4 <_fflush_r+0x24>
   132cc:	00040513          	mv	a0,s0
   132d0:	01812403          	lw	s0,24(sp)
   132d4:	01c12083          	lw	ra,28(sp)
   132d8:	02010113          	addi	sp,sp,32
   132dc:	d59ff06f          	j	13034 <__sflush_r>

000132e0 <fflush>:
   132e0:	06050663          	beqz	a0,1334c <fflush+0x6c>
   132e4:	fe010113          	addi	sp,sp,-32
   132e8:	00812c23          	sw	s0,24(sp)
   132ec:	00050413          	mv	s0,a0
   132f0:	1c01a503          	lw	a0,448(gp) # 26a80 <_impure_ptr>
   132f4:	00112e23          	sw	ra,28(sp)
   132f8:	00050663          	beqz	a0,13304 <fflush+0x24>
   132fc:	03852783          	lw	a5,56(a0)
   13300:	02078a63          	beqz	a5,13334 <fflush+0x54>
   13304:	00c41783          	lh	a5,12(s0)
   13308:	00079c63          	bnez	a5,13320 <fflush+0x40>
   1330c:	01c12083          	lw	ra,28(sp)
   13310:	01812403          	lw	s0,24(sp)
   13314:	00000513          	li	a0,0
   13318:	02010113          	addi	sp,sp,32
   1331c:	00008067          	ret
   13320:	00040593          	mv	a1,s0
   13324:	01812403          	lw	s0,24(sp)
   13328:	01c12083          	lw	ra,28(sp)
   1332c:	02010113          	addi	sp,sp,32
   13330:	d05ff06f          	j	13034 <__sflush_r>
   13334:	00a12623          	sw	a0,12(sp)
   13338:	378000ef          	jal	ra,136b0 <__sinit>
   1333c:	00c41783          	lh	a5,12(s0)
   13340:	00c12503          	lw	a0,12(sp)
   13344:	fc0784e3          	beqz	a5,1330c <fflush+0x2c>
   13348:	fd9ff06f          	j	13320 <fflush+0x40>
   1334c:	1b81a503          	lw	a0,440(gp) # 26a78 <_global_impure_ptr>
   13350:	000135b7          	lui	a1,0x13
   13354:	28058593          	addi	a1,a1,640 # 13280 <_fflush_r>
   13358:	0c10006f          	j	13c18 <_fwalk_reent>

0001335c <__fp_lock>:
   1335c:	00000513          	li	a0,0
   13360:	00008067          	ret

00013364 <_cleanup_r>:
   13364:	0001d5b7          	lui	a1,0x1d
   13368:	d5858593          	addi	a1,a1,-680 # 1cd58 <_fclose_r>
   1336c:	0ad0006f          	j	13c18 <_fwalk_reent>

00013370 <__fp_unlock>:
   13370:	00000513          	li	a0,0
   13374:	00008067          	ret

00013378 <__sinit.part.0>:
   13378:	fe010113          	addi	sp,sp,-32
   1337c:	000137b7          	lui	a5,0x13
   13380:	00112e23          	sw	ra,28(sp)
   13384:	00812c23          	sw	s0,24(sp)
   13388:	00912a23          	sw	s1,20(sp)
   1338c:	01212823          	sw	s2,16(sp)
   13390:	01312623          	sw	s3,12(sp)
   13394:	01412423          	sw	s4,8(sp)
   13398:	01512223          	sw	s5,4(sp)
   1339c:	01612023          	sw	s6,0(sp)
   133a0:	00452403          	lw	s0,4(a0)
   133a4:	36478793          	addi	a5,a5,868 # 13364 <_cleanup_r>
   133a8:	02f52e23          	sw	a5,60(a0)
   133ac:	2ec50713          	addi	a4,a0,748
   133b0:	00300793          	li	a5,3
   133b4:	2ee52423          	sw	a4,744(a0)
   133b8:	2ef52223          	sw	a5,740(a0)
   133bc:	2e052023          	sw	zero,736(a0)
   133c0:	00400793          	li	a5,4
   133c4:	00050913          	mv	s2,a0
   133c8:	00f42623          	sw	a5,12(s0)
   133cc:	00800613          	li	a2,8
   133d0:	00000593          	li	a1,0
   133d4:	00042023          	sw	zero,0(s0)
   133d8:	00042223          	sw	zero,4(s0)
   133dc:	00042423          	sw	zero,8(s0)
   133e0:	06042223          	sw	zero,100(s0)
   133e4:	00042823          	sw	zero,16(s0)
   133e8:	00042a23          	sw	zero,20(s0)
   133ec:	00042c23          	sw	zero,24(s0)
   133f0:	05c40513          	addi	a0,s0,92
   133f4:	e9dfc0ef          	jal	ra,10290 <memset>
   133f8:	00019b37          	lui	s6,0x19
   133fc:	00892483          	lw	s1,8(s2)
   13400:	00019ab7          	lui	s5,0x19
   13404:	00019a37          	lui	s4,0x19
   13408:	000199b7          	lui	s3,0x19
   1340c:	8d4b0b13          	addi	s6,s6,-1836 # 188d4 <__sread>
   13410:	938a8a93          	addi	s5,s5,-1736 # 18938 <__swrite>
   13414:	9c0a0a13          	addi	s4,s4,-1600 # 189c0 <__sseek>
   13418:	a3898993          	addi	s3,s3,-1480 # 18a38 <__sclose>
   1341c:	000107b7          	lui	a5,0x10
   13420:	03642023          	sw	s6,32(s0)
   13424:	03542223          	sw	s5,36(s0)
   13428:	03442423          	sw	s4,40(s0)
   1342c:	03342623          	sw	s3,44(s0)
   13430:	00842e23          	sw	s0,28(s0)
   13434:	00978793          	addi	a5,a5,9 # 10009 <exit-0x8b>
   13438:	00f4a623          	sw	a5,12(s1)
   1343c:	00800613          	li	a2,8
   13440:	00000593          	li	a1,0
   13444:	0004a023          	sw	zero,0(s1)
   13448:	0004a223          	sw	zero,4(s1)
   1344c:	0004a423          	sw	zero,8(s1)
   13450:	0604a223          	sw	zero,100(s1)
   13454:	0004a823          	sw	zero,16(s1)
   13458:	0004aa23          	sw	zero,20(s1)
   1345c:	0004ac23          	sw	zero,24(s1)
   13460:	05c48513          	addi	a0,s1,92
   13464:	e2dfc0ef          	jal	ra,10290 <memset>
   13468:	00c92403          	lw	s0,12(s2)
   1346c:	000207b7          	lui	a5,0x20
   13470:	0364a023          	sw	s6,32(s1)
   13474:	0354a223          	sw	s5,36(s1)
   13478:	0344a423          	sw	s4,40(s1)
   1347c:	0334a623          	sw	s3,44(s1)
   13480:	0094ae23          	sw	s1,28(s1)
   13484:	01278793          	addi	a5,a5,18 # 20012 <_lseek+0x42>
   13488:	00f42623          	sw	a5,12(s0)
   1348c:	00042023          	sw	zero,0(s0)
   13490:	00042223          	sw	zero,4(s0)
   13494:	00042423          	sw	zero,8(s0)
   13498:	06042223          	sw	zero,100(s0)
   1349c:	00042823          	sw	zero,16(s0)
   134a0:	00042a23          	sw	zero,20(s0)
   134a4:	00042c23          	sw	zero,24(s0)
   134a8:	05c40513          	addi	a0,s0,92
   134ac:	00800613          	li	a2,8
   134b0:	00000593          	li	a1,0
   134b4:	dddfc0ef          	jal	ra,10290 <memset>
   134b8:	01c12083          	lw	ra,28(sp)
   134bc:	03642023          	sw	s6,32(s0)
   134c0:	03542223          	sw	s5,36(s0)
   134c4:	03442423          	sw	s4,40(s0)
   134c8:	03342623          	sw	s3,44(s0)
   134cc:	00842e23          	sw	s0,28(s0)
   134d0:	01812403          	lw	s0,24(sp)
   134d4:	00100793          	li	a5,1
   134d8:	02f92c23          	sw	a5,56(s2)
   134dc:	01412483          	lw	s1,20(sp)
   134e0:	01012903          	lw	s2,16(sp)
   134e4:	00c12983          	lw	s3,12(sp)
   134e8:	00812a03          	lw	s4,8(sp)
   134ec:	00412a83          	lw	s5,4(sp)
   134f0:	00012b03          	lw	s6,0(sp)
   134f4:	02010113          	addi	sp,sp,32
   134f8:	00008067          	ret

000134fc <__sfmoreglue>:
   134fc:	ff010113          	addi	sp,sp,-16
   13500:	fff58793          	addi	a5,a1,-1
   13504:	00812423          	sw	s0,8(sp)
   13508:	00179413          	slli	s0,a5,0x1
   1350c:	00f40433          	add	s0,s0,a5
   13510:	00241413          	slli	s0,s0,0x2
   13514:	00f40433          	add	s0,s0,a5
   13518:	00341413          	slli	s0,s0,0x3
   1351c:	01212023          	sw	s2,0(sp)
   13520:	00058913          	mv	s2,a1
   13524:	07440593          	addi	a1,s0,116
   13528:	00912223          	sw	s1,4(sp)
   1352c:	00112623          	sw	ra,12(sp)
   13530:	6d8030ef          	jal	ra,16c08 <_malloc_r>
   13534:	00050493          	mv	s1,a0
   13538:	02050063          	beqz	a0,13558 <__sfmoreglue+0x5c>
   1353c:	00c50513          	addi	a0,a0,12
   13540:	0004a023          	sw	zero,0(s1)
   13544:	0124a223          	sw	s2,4(s1)
   13548:	00a4a423          	sw	a0,8(s1)
   1354c:	06840613          	addi	a2,s0,104
   13550:	00000593          	li	a1,0
   13554:	d3dfc0ef          	jal	ra,10290 <memset>
   13558:	00c12083          	lw	ra,12(sp)
   1355c:	00812403          	lw	s0,8(sp)
   13560:	00012903          	lw	s2,0(sp)
   13564:	00048513          	mv	a0,s1
   13568:	00412483          	lw	s1,4(sp)
   1356c:	01010113          	addi	sp,sp,16
   13570:	00008067          	ret

00013574 <__sfp>:
   13574:	fe010113          	addi	sp,sp,-32
   13578:	01212823          	sw	s2,16(sp)
   1357c:	1b81a903          	lw	s2,440(gp) # 26a78 <_global_impure_ptr>
   13580:	01312623          	sw	s3,12(sp)
   13584:	00112e23          	sw	ra,28(sp)
   13588:	03892783          	lw	a5,56(s2)
   1358c:	00812c23          	sw	s0,24(sp)
   13590:	00912a23          	sw	s1,20(sp)
   13594:	00050993          	mv	s3,a0
   13598:	0a078663          	beqz	a5,13644 <__sfp+0xd0>
   1359c:	2e090913          	addi	s2,s2,736
   135a0:	fff00493          	li	s1,-1
   135a4:	00492783          	lw	a5,4(s2)
   135a8:	00892403          	lw	s0,8(s2)
   135ac:	fff78793          	addi	a5,a5,-1
   135b0:	0007d863          	bgez	a5,135c0 <__sfp+0x4c>
   135b4:	0800006f          	j	13634 <__sfp+0xc0>
   135b8:	06840413          	addi	s0,s0,104
   135bc:	06978c63          	beq	a5,s1,13634 <__sfp+0xc0>
   135c0:	00c41703          	lh	a4,12(s0)
   135c4:	fff78793          	addi	a5,a5,-1
   135c8:	fe0718e3          	bnez	a4,135b8 <__sfp+0x44>
   135cc:	ffff07b7          	lui	a5,0xffff0
   135d0:	00178793          	addi	a5,a5,1 # ffff0001 <__BSS_END__+0xfffc9519>
   135d4:	00f42623          	sw	a5,12(s0)
   135d8:	06042223          	sw	zero,100(s0)
   135dc:	00042023          	sw	zero,0(s0)
   135e0:	00042423          	sw	zero,8(s0)
   135e4:	00042223          	sw	zero,4(s0)
   135e8:	00042823          	sw	zero,16(s0)
   135ec:	00042a23          	sw	zero,20(s0)
   135f0:	00042c23          	sw	zero,24(s0)
   135f4:	00800613          	li	a2,8
   135f8:	00000593          	li	a1,0
   135fc:	05c40513          	addi	a0,s0,92
   13600:	c91fc0ef          	jal	ra,10290 <memset>
   13604:	02042823          	sw	zero,48(s0)
   13608:	02042a23          	sw	zero,52(s0)
   1360c:	04042223          	sw	zero,68(s0)
   13610:	04042423          	sw	zero,72(s0)
   13614:	01c12083          	lw	ra,28(sp)
   13618:	00040513          	mv	a0,s0
   1361c:	01812403          	lw	s0,24(sp)
   13620:	01412483          	lw	s1,20(sp)
   13624:	01012903          	lw	s2,16(sp)
   13628:	00c12983          	lw	s3,12(sp)
   1362c:	02010113          	addi	sp,sp,32
   13630:	00008067          	ret
   13634:	00092403          	lw	s0,0(s2)
   13638:	00040c63          	beqz	s0,13650 <__sfp+0xdc>
   1363c:	00040913          	mv	s2,s0
   13640:	f65ff06f          	j	135a4 <__sfp+0x30>
   13644:	00090513          	mv	a0,s2
   13648:	d31ff0ef          	jal	ra,13378 <__sinit.part.0>
   1364c:	f51ff06f          	j	1359c <__sfp+0x28>
   13650:	1ac00593          	li	a1,428
   13654:	00098513          	mv	a0,s3
   13658:	5b0030ef          	jal	ra,16c08 <_malloc_r>
   1365c:	00050413          	mv	s0,a0
   13660:	02050863          	beqz	a0,13690 <__sfp+0x11c>
   13664:	00c50513          	addi	a0,a0,12
   13668:	00400793          	li	a5,4
   1366c:	00042023          	sw	zero,0(s0)
   13670:	00f42223          	sw	a5,4(s0)
   13674:	00a42423          	sw	a0,8(s0)
   13678:	1a000613          	li	a2,416
   1367c:	00000593          	li	a1,0
   13680:	c11fc0ef          	jal	ra,10290 <memset>
   13684:	00892023          	sw	s0,0(s2)
   13688:	00040913          	mv	s2,s0
   1368c:	f19ff06f          	j	135a4 <__sfp+0x30>
   13690:	00092023          	sw	zero,0(s2)
   13694:	00c00793          	li	a5,12
   13698:	00f9a023          	sw	a5,0(s3)
   1369c:	f79ff06f          	j	13614 <__sfp+0xa0>

000136a0 <_cleanup>:
   136a0:	1b81a503          	lw	a0,440(gp) # 26a78 <_global_impure_ptr>
   136a4:	0001d5b7          	lui	a1,0x1d
   136a8:	d5858593          	addi	a1,a1,-680 # 1cd58 <_fclose_r>
   136ac:	56c0006f          	j	13c18 <_fwalk_reent>

000136b0 <__sinit>:
   136b0:	03852783          	lw	a5,56(a0)
   136b4:	00078463          	beqz	a5,136bc <__sinit+0xc>
   136b8:	00008067          	ret
   136bc:	cbdff06f          	j	13378 <__sinit.part.0>

000136c0 <__sfp_lock_acquire>:
   136c0:	00008067          	ret

000136c4 <__sfp_lock_release>:
   136c4:	00008067          	ret

000136c8 <__sinit_lock_acquire>:
   136c8:	00008067          	ret

000136cc <__sinit_lock_release>:
   136cc:	00008067          	ret

000136d0 <__fp_lock_all>:
   136d0:	1c01a503          	lw	a0,448(gp) # 26a80 <_impure_ptr>
   136d4:	000135b7          	lui	a1,0x13
   136d8:	35c58593          	addi	a1,a1,860 # 1335c <__fp_lock>
   136dc:	4980006f          	j	13b74 <_fwalk>

000136e0 <__fp_unlock_all>:
   136e0:	1c01a503          	lw	a0,448(gp) # 26a80 <_impure_ptr>
   136e4:	000135b7          	lui	a1,0x13
   136e8:	37058593          	addi	a1,a1,880 # 13370 <__fp_unlock>
   136ec:	4880006f          	j	13b74 <_fwalk>

000136f0 <__libc_fini_array>:
   136f0:	ff010113          	addi	sp,sp,-16
   136f4:	00812423          	sw	s0,8(sp)
   136f8:	000267b7          	lui	a5,0x26
   136fc:	00026437          	lui	s0,0x26
   13700:	0bc78793          	addi	a5,a5,188 # 260bc <__do_global_dtors_aux_fini_array_entry>
   13704:	0c040413          	addi	s0,s0,192 # 260c0 <impure_data>
   13708:	40f40433          	sub	s0,s0,a5
   1370c:	00912223          	sw	s1,4(sp)
   13710:	00112623          	sw	ra,12(sp)
   13714:	40245493          	srai	s1,s0,0x2
   13718:	02048063          	beqz	s1,13738 <__libc_fini_array+0x48>
   1371c:	ffc40413          	addi	s0,s0,-4
   13720:	00f40433          	add	s0,s0,a5
   13724:	00042783          	lw	a5,0(s0)
   13728:	fff48493          	addi	s1,s1,-1
   1372c:	ffc40413          	addi	s0,s0,-4
   13730:	000780e7          	jalr	a5
   13734:	fe0498e3          	bnez	s1,13724 <__libc_fini_array+0x34>
   13738:	00c12083          	lw	ra,12(sp)
   1373c:	00812403          	lw	s0,8(sp)
   13740:	00412483          	lw	s1,4(sp)
   13744:	01010113          	addi	sp,sp,16
   13748:	00008067          	ret

0001374c <_malloc_trim_r>:
   1374c:	fe010113          	addi	sp,sp,-32
   13750:	01312623          	sw	s3,12(sp)
   13754:	00812c23          	sw	s0,24(sp)
   13758:	00912a23          	sw	s1,20(sp)
   1375c:	01212823          	sw	s2,16(sp)
   13760:	01412423          	sw	s4,8(sp)
   13764:	00112e23          	sw	ra,28(sp)
   13768:	00058a13          	mv	s4,a1
   1376c:	00050913          	mv	s2,a0
   13770:	c2818993          	addi	s3,gp,-984 # 264e8 <__malloc_av_>
   13774:	4cd030ef          	jal	ra,17440 <__malloc_lock>
   13778:	0089a703          	lw	a4,8(s3)
   1377c:	000017b7          	lui	a5,0x1
   13780:	fef78413          	addi	s0,a5,-17 # fef <exit-0xf0a5>
   13784:	00472483          	lw	s1,4(a4)
   13788:	ffc4f493          	andi	s1,s1,-4
   1378c:	00848433          	add	s0,s1,s0
   13790:	41440433          	sub	s0,s0,s4
   13794:	00c45413          	srli	s0,s0,0xc
   13798:	fff40413          	addi	s0,s0,-1
   1379c:	00c41413          	slli	s0,s0,0xc
   137a0:	00f44e63          	blt	s0,a5,137bc <_malloc_trim_r+0x70>
   137a4:	00000593          	li	a1,0
   137a8:	00090513          	mv	a0,s2
   137ac:	7e9040ef          	jal	ra,18794 <_sbrk_r>
   137b0:	0089a783          	lw	a5,8(s3)
   137b4:	009787b3          	add	a5,a5,s1
   137b8:	02f50863          	beq	a0,a5,137e8 <_malloc_trim_r+0x9c>
   137bc:	00090513          	mv	a0,s2
   137c0:	485030ef          	jal	ra,17444 <__malloc_unlock>
   137c4:	01c12083          	lw	ra,28(sp)
   137c8:	01812403          	lw	s0,24(sp)
   137cc:	01412483          	lw	s1,20(sp)
   137d0:	01012903          	lw	s2,16(sp)
   137d4:	00c12983          	lw	s3,12(sp)
   137d8:	00812a03          	lw	s4,8(sp)
   137dc:	00000513          	li	a0,0
   137e0:	02010113          	addi	sp,sp,32
   137e4:	00008067          	ret
   137e8:	408005b3          	neg	a1,s0
   137ec:	00090513          	mv	a0,s2
   137f0:	7a5040ef          	jal	ra,18794 <_sbrk_r>
   137f4:	fff00793          	li	a5,-1
   137f8:	04f50863          	beq	a0,a5,13848 <_malloc_trim_r+0xfc>
   137fc:	20018793          	addi	a5,gp,512 # 26ac0 <__malloc_current_mallinfo>
   13800:	0007a703          	lw	a4,0(a5)
   13804:	0089a683          	lw	a3,8(s3)
   13808:	408484b3          	sub	s1,s1,s0
   1380c:	0014e493          	ori	s1,s1,1
   13810:	40870733          	sub	a4,a4,s0
   13814:	00090513          	mv	a0,s2
   13818:	0096a223          	sw	s1,4(a3)
   1381c:	00e7a023          	sw	a4,0(a5)
   13820:	425030ef          	jal	ra,17444 <__malloc_unlock>
   13824:	01c12083          	lw	ra,28(sp)
   13828:	01812403          	lw	s0,24(sp)
   1382c:	01412483          	lw	s1,20(sp)
   13830:	01012903          	lw	s2,16(sp)
   13834:	00c12983          	lw	s3,12(sp)
   13838:	00812a03          	lw	s4,8(sp)
   1383c:	00100513          	li	a0,1
   13840:	02010113          	addi	sp,sp,32
   13844:	00008067          	ret
   13848:	00000593          	li	a1,0
   1384c:	00090513          	mv	a0,s2
   13850:	745040ef          	jal	ra,18794 <_sbrk_r>
   13854:	0089a703          	lw	a4,8(s3)
   13858:	00f00693          	li	a3,15
   1385c:	40e507b3          	sub	a5,a0,a4
   13860:	f4f6dee3          	bge	a3,a5,137bc <_malloc_trim_r+0x70>
   13864:	1c41a683          	lw	a3,452(gp) # 26a84 <__malloc_sbrk_base>
   13868:	0017e793          	ori	a5,a5,1
   1386c:	00f72223          	sw	a5,4(a4)
   13870:	40d50533          	sub	a0,a0,a3
   13874:	20a1a023          	sw	a0,512(gp) # 26ac0 <__malloc_current_mallinfo>
   13878:	f45ff06f          	j	137bc <_malloc_trim_r+0x70>

0001387c <_free_r>:
   1387c:	16058e63          	beqz	a1,139f8 <_free_r+0x17c>
   13880:	ff010113          	addi	sp,sp,-16
   13884:	00812423          	sw	s0,8(sp)
   13888:	00912223          	sw	s1,4(sp)
   1388c:	00058413          	mv	s0,a1
   13890:	00050493          	mv	s1,a0
   13894:	00112623          	sw	ra,12(sp)
   13898:	3a9030ef          	jal	ra,17440 <__malloc_lock>
   1389c:	ffc42503          	lw	a0,-4(s0)
   138a0:	ff840713          	addi	a4,s0,-8
   138a4:	ffe57793          	andi	a5,a0,-2
   138a8:	00f70633          	add	a2,a4,a5
   138ac:	c2818593          	addi	a1,gp,-984 # 264e8 <__malloc_av_>
   138b0:	00462683          	lw	a3,4(a2)
   138b4:	0085a803          	lw	a6,8(a1)
   138b8:	ffc6f693          	andi	a3,a3,-4
   138bc:	18c80e63          	beq	a6,a2,13a58 <_free_r+0x1dc>
   138c0:	00d62223          	sw	a3,4(a2)
   138c4:	00157513          	andi	a0,a0,1
   138c8:	00d60833          	add	a6,a2,a3
   138cc:	08051e63          	bnez	a0,13968 <_free_r+0xec>
   138d0:	ff842303          	lw	t1,-8(s0)
   138d4:	00482803          	lw	a6,4(a6)
   138d8:	40670733          	sub	a4,a4,t1
   138dc:	00872883          	lw	a7,8(a4)
   138e0:	c3018513          	addi	a0,gp,-976 # 264f0 <__malloc_av_+0x8>
   138e4:	006787b3          	add	a5,a5,t1
   138e8:	00187813          	andi	a6,a6,1
   138ec:	14a88063          	beq	a7,a0,13a2c <_free_r+0x1b0>
   138f0:	00c72303          	lw	t1,12(a4)
   138f4:	0068a623          	sw	t1,12(a7)
   138f8:	01132423          	sw	a7,8(t1)
   138fc:	1a080463          	beqz	a6,13aa4 <_free_r+0x228>
   13900:	0017e693          	ori	a3,a5,1
   13904:	00d72223          	sw	a3,4(a4)
   13908:	00f62023          	sw	a5,0(a2)
   1390c:	1ff00693          	li	a3,511
   13910:	06f6ec63          	bltu	a3,a5,13988 <_free_r+0x10c>
   13914:	ff87f693          	andi	a3,a5,-8
   13918:	00868693          	addi	a3,a3,8
   1391c:	0045a503          	lw	a0,4(a1)
   13920:	00d586b3          	add	a3,a1,a3
   13924:	0006a603          	lw	a2,0(a3)
   13928:	0057d813          	srli	a6,a5,0x5
   1392c:	00100793          	li	a5,1
   13930:	010797b3          	sll	a5,a5,a6
   13934:	00a7e7b3          	or	a5,a5,a0
   13938:	ff868513          	addi	a0,a3,-8
   1393c:	00a72623          	sw	a0,12(a4)
   13940:	00c72423          	sw	a2,8(a4)
   13944:	00f5a223          	sw	a5,4(a1)
   13948:	00e6a023          	sw	a4,0(a3)
   1394c:	00e62623          	sw	a4,12(a2)
   13950:	00812403          	lw	s0,8(sp)
   13954:	00c12083          	lw	ra,12(sp)
   13958:	00048513          	mv	a0,s1
   1395c:	00412483          	lw	s1,4(sp)
   13960:	01010113          	addi	sp,sp,16
   13964:	2e10306f          	j	17444 <__malloc_unlock>
   13968:	00482503          	lw	a0,4(a6)
   1396c:	00157513          	andi	a0,a0,1
   13970:	08050663          	beqz	a0,139fc <_free_r+0x180>
   13974:	0017e693          	ori	a3,a5,1
   13978:	fed42e23          	sw	a3,-4(s0)
   1397c:	00f62023          	sw	a5,0(a2)
   13980:	1ff00693          	li	a3,511
   13984:	f8f6f8e3          	bgeu	a3,a5,13914 <_free_r+0x98>
   13988:	0097d693          	srli	a3,a5,0x9
   1398c:	00400613          	li	a2,4
   13990:	10d66e63          	bltu	a2,a3,13aac <_free_r+0x230>
   13994:	0067d693          	srli	a3,a5,0x6
   13998:	03968513          	addi	a0,a3,57
   1399c:	03868613          	addi	a2,a3,56
   139a0:	00351513          	slli	a0,a0,0x3
   139a4:	00a58533          	add	a0,a1,a0
   139a8:	00052683          	lw	a3,0(a0)
   139ac:	ff850513          	addi	a0,a0,-8
   139b0:	00d51863          	bne	a0,a3,139c0 <_free_r+0x144>
   139b4:	1500006f          	j	13b04 <_free_r+0x288>
   139b8:	0086a683          	lw	a3,8(a3)
   139bc:	00d50863          	beq	a0,a3,139cc <_free_r+0x150>
   139c0:	0046a603          	lw	a2,4(a3)
   139c4:	ffc67613          	andi	a2,a2,-4
   139c8:	fec7e8e3          	bltu	a5,a2,139b8 <_free_r+0x13c>
   139cc:	00c6a503          	lw	a0,12(a3)
   139d0:	00a72623          	sw	a0,12(a4)
   139d4:	00d72423          	sw	a3,8(a4)
   139d8:	00812403          	lw	s0,8(sp)
   139dc:	00e52423          	sw	a4,8(a0)
   139e0:	00c12083          	lw	ra,12(sp)
   139e4:	00048513          	mv	a0,s1
   139e8:	00412483          	lw	s1,4(sp)
   139ec:	00e6a623          	sw	a4,12(a3)
   139f0:	01010113          	addi	sp,sp,16
   139f4:	2510306f          	j	17444 <__malloc_unlock>
   139f8:	00008067          	ret
   139fc:	00d787b3          	add	a5,a5,a3
   13a00:	c3018513          	addi	a0,gp,-976 # 264f0 <__malloc_av_+0x8>
   13a04:	00862683          	lw	a3,8(a2)
   13a08:	0ca68c63          	beq	a3,a0,13ae0 <_free_r+0x264>
   13a0c:	00c62803          	lw	a6,12(a2)
   13a10:	0017e513          	ori	a0,a5,1
   13a14:	00f70633          	add	a2,a4,a5
   13a18:	0106a623          	sw	a6,12(a3)
   13a1c:	00d82423          	sw	a3,8(a6)
   13a20:	00a72223          	sw	a0,4(a4)
   13a24:	00f62023          	sw	a5,0(a2)
   13a28:	ee5ff06f          	j	1390c <_free_r+0x90>
   13a2c:	12081c63          	bnez	a6,13b64 <_free_r+0x2e8>
   13a30:	00862583          	lw	a1,8(a2)
   13a34:	00c62603          	lw	a2,12(a2)
   13a38:	00f686b3          	add	a3,a3,a5
   13a3c:	0016e793          	ori	a5,a3,1
   13a40:	00c5a623          	sw	a2,12(a1)
   13a44:	00b62423          	sw	a1,8(a2)
   13a48:	00f72223          	sw	a5,4(a4)
   13a4c:	00d70733          	add	a4,a4,a3
   13a50:	00d72023          	sw	a3,0(a4)
   13a54:	efdff06f          	j	13950 <_free_r+0xd4>
   13a58:	00157513          	andi	a0,a0,1
   13a5c:	00d786b3          	add	a3,a5,a3
   13a60:	02051063          	bnez	a0,13a80 <_free_r+0x204>
   13a64:	ff842503          	lw	a0,-8(s0)
   13a68:	40a70733          	sub	a4,a4,a0
   13a6c:	00c72783          	lw	a5,12(a4)
   13a70:	00872603          	lw	a2,8(a4)
   13a74:	00a686b3          	add	a3,a3,a0
   13a78:	00f62623          	sw	a5,12(a2)
   13a7c:	00c7a423          	sw	a2,8(a5)
   13a80:	0016e613          	ori	a2,a3,1
   13a84:	1c81a783          	lw	a5,456(gp) # 26a88 <__malloc_trim_threshold>
   13a88:	00c72223          	sw	a2,4(a4)
   13a8c:	00e5a423          	sw	a4,8(a1)
   13a90:	ecf6e0e3          	bltu	a3,a5,13950 <_free_r+0xd4>
   13a94:	1d41a583          	lw	a1,468(gp) # 26a94 <__malloc_top_pad>
   13a98:	00048513          	mv	a0,s1
   13a9c:	cb1ff0ef          	jal	ra,1374c <_malloc_trim_r>
   13aa0:	eb1ff06f          	j	13950 <_free_r+0xd4>
   13aa4:	00d787b3          	add	a5,a5,a3
   13aa8:	f5dff06f          	j	13a04 <_free_r+0x188>
   13aac:	01400613          	li	a2,20
   13ab0:	02d67063          	bgeu	a2,a3,13ad0 <_free_r+0x254>
   13ab4:	05400613          	li	a2,84
   13ab8:	06d66463          	bltu	a2,a3,13b20 <_free_r+0x2a4>
   13abc:	00c7d693          	srli	a3,a5,0xc
   13ac0:	06f68513          	addi	a0,a3,111
   13ac4:	06e68613          	addi	a2,a3,110
   13ac8:	00351513          	slli	a0,a0,0x3
   13acc:	ed9ff06f          	j	139a4 <_free_r+0x128>
   13ad0:	05c68513          	addi	a0,a3,92
   13ad4:	05b68613          	addi	a2,a3,91
   13ad8:	00351513          	slli	a0,a0,0x3
   13adc:	ec9ff06f          	j	139a4 <_free_r+0x128>
   13ae0:	00e5aa23          	sw	a4,20(a1)
   13ae4:	00e5a823          	sw	a4,16(a1)
   13ae8:	0017e693          	ori	a3,a5,1
   13aec:	00a72623          	sw	a0,12(a4)
   13af0:	00a72423          	sw	a0,8(a4)
   13af4:	00d72223          	sw	a3,4(a4)
   13af8:	00f70733          	add	a4,a4,a5
   13afc:	00f72023          	sw	a5,0(a4)
   13b00:	e51ff06f          	j	13950 <_free_r+0xd4>
   13b04:	0045a803          	lw	a6,4(a1)
   13b08:	40265613          	srai	a2,a2,0x2
   13b0c:	00100793          	li	a5,1
   13b10:	00c797b3          	sll	a5,a5,a2
   13b14:	0107e7b3          	or	a5,a5,a6
   13b18:	00f5a223          	sw	a5,4(a1)
   13b1c:	eb5ff06f          	j	139d0 <_free_r+0x154>
   13b20:	15400613          	li	a2,340
   13b24:	00d66c63          	bltu	a2,a3,13b3c <_free_r+0x2c0>
   13b28:	00f7d693          	srli	a3,a5,0xf
   13b2c:	07868513          	addi	a0,a3,120
   13b30:	07768613          	addi	a2,a3,119
   13b34:	00351513          	slli	a0,a0,0x3
   13b38:	e6dff06f          	j	139a4 <_free_r+0x128>
   13b3c:	55400613          	li	a2,1364
   13b40:	00d66c63          	bltu	a2,a3,13b58 <_free_r+0x2dc>
   13b44:	0127d693          	srli	a3,a5,0x12
   13b48:	07d68513          	addi	a0,a3,125
   13b4c:	07c68613          	addi	a2,a3,124
   13b50:	00351513          	slli	a0,a0,0x3
   13b54:	e51ff06f          	j	139a4 <_free_r+0x128>
   13b58:	3f800513          	li	a0,1016
   13b5c:	07e00613          	li	a2,126
   13b60:	e45ff06f          	j	139a4 <_free_r+0x128>
   13b64:	0017e693          	ori	a3,a5,1
   13b68:	00d72223          	sw	a3,4(a4)
   13b6c:	00f62023          	sw	a5,0(a2)
   13b70:	de1ff06f          	j	13950 <_free_r+0xd4>

00013b74 <_fwalk>:
   13b74:	fe010113          	addi	sp,sp,-32
   13b78:	01212823          	sw	s2,16(sp)
   13b7c:	01312623          	sw	s3,12(sp)
   13b80:	01412423          	sw	s4,8(sp)
   13b84:	01512223          	sw	s5,4(sp)
   13b88:	01612023          	sw	s6,0(sp)
   13b8c:	00112e23          	sw	ra,28(sp)
   13b90:	00812c23          	sw	s0,24(sp)
   13b94:	00912a23          	sw	s1,20(sp)
   13b98:	00058b13          	mv	s6,a1
   13b9c:	2e050a93          	addi	s5,a0,736
   13ba0:	00000a13          	li	s4,0
   13ba4:	00100993          	li	s3,1
   13ba8:	fff00913          	li	s2,-1
   13bac:	004aa483          	lw	s1,4(s5)
   13bb0:	008aa403          	lw	s0,8(s5)
   13bb4:	fff48493          	addi	s1,s1,-1
   13bb8:	0204c663          	bltz	s1,13be4 <_fwalk+0x70>
   13bbc:	00c45783          	lhu	a5,12(s0)
   13bc0:	fff48493          	addi	s1,s1,-1
   13bc4:	00f9fc63          	bgeu	s3,a5,13bdc <_fwalk+0x68>
   13bc8:	00e41783          	lh	a5,14(s0)
   13bcc:	00040513          	mv	a0,s0
   13bd0:	01278663          	beq	a5,s2,13bdc <_fwalk+0x68>
   13bd4:	000b00e7          	jalr	s6
   13bd8:	00aa6a33          	or	s4,s4,a0
   13bdc:	06840413          	addi	s0,s0,104
   13be0:	fd249ee3          	bne	s1,s2,13bbc <_fwalk+0x48>
   13be4:	000aaa83          	lw	s5,0(s5)
   13be8:	fc0a92e3          	bnez	s5,13bac <_fwalk+0x38>
   13bec:	01c12083          	lw	ra,28(sp)
   13bf0:	01812403          	lw	s0,24(sp)
   13bf4:	01412483          	lw	s1,20(sp)
   13bf8:	01012903          	lw	s2,16(sp)
   13bfc:	00c12983          	lw	s3,12(sp)
   13c00:	00412a83          	lw	s5,4(sp)
   13c04:	00012b03          	lw	s6,0(sp)
   13c08:	000a0513          	mv	a0,s4
   13c0c:	00812a03          	lw	s4,8(sp)
   13c10:	02010113          	addi	sp,sp,32
   13c14:	00008067          	ret

00013c18 <_fwalk_reent>:
   13c18:	fd010113          	addi	sp,sp,-48
   13c1c:	03212023          	sw	s2,32(sp)
   13c20:	01312e23          	sw	s3,28(sp)
   13c24:	01412c23          	sw	s4,24(sp)
   13c28:	01512a23          	sw	s5,20(sp)
   13c2c:	01612823          	sw	s6,16(sp)
   13c30:	01712623          	sw	s7,12(sp)
   13c34:	02112623          	sw	ra,44(sp)
   13c38:	02812423          	sw	s0,40(sp)
   13c3c:	02912223          	sw	s1,36(sp)
   13c40:	00050a93          	mv	s5,a0
   13c44:	00058b93          	mv	s7,a1
   13c48:	2e050b13          	addi	s6,a0,736
   13c4c:	00000a13          	li	s4,0
   13c50:	00100993          	li	s3,1
   13c54:	fff00913          	li	s2,-1
   13c58:	004b2483          	lw	s1,4(s6)
   13c5c:	008b2403          	lw	s0,8(s6)
   13c60:	fff48493          	addi	s1,s1,-1
   13c64:	0204c863          	bltz	s1,13c94 <_fwalk_reent+0x7c>
   13c68:	00c45783          	lhu	a5,12(s0)
   13c6c:	fff48493          	addi	s1,s1,-1
   13c70:	00f9fe63          	bgeu	s3,a5,13c8c <_fwalk_reent+0x74>
   13c74:	00e41783          	lh	a5,14(s0)
   13c78:	00040593          	mv	a1,s0
   13c7c:	000a8513          	mv	a0,s5
   13c80:	01278663          	beq	a5,s2,13c8c <_fwalk_reent+0x74>
   13c84:	000b80e7          	jalr	s7
   13c88:	00aa6a33          	or	s4,s4,a0
   13c8c:	06840413          	addi	s0,s0,104
   13c90:	fd249ce3          	bne	s1,s2,13c68 <_fwalk_reent+0x50>
   13c94:	000b2b03          	lw	s6,0(s6)
   13c98:	fc0b10e3          	bnez	s6,13c58 <_fwalk_reent+0x40>
   13c9c:	02c12083          	lw	ra,44(sp)
   13ca0:	02812403          	lw	s0,40(sp)
   13ca4:	02412483          	lw	s1,36(sp)
   13ca8:	02012903          	lw	s2,32(sp)
   13cac:	01c12983          	lw	s3,28(sp)
   13cb0:	01412a83          	lw	s5,20(sp)
   13cb4:	01012b03          	lw	s6,16(sp)
   13cb8:	00c12b83          	lw	s7,12(sp)
   13cbc:	000a0513          	mv	a0,s4
   13cc0:	01812a03          	lw	s4,24(sp)
   13cc4:	03010113          	addi	sp,sp,48
   13cc8:	00008067          	ret

00013ccc <eshdn1>:
   13ccc:	00450693          	addi	a3,a0,4
   13cd0:	00000713          	li	a4,0
   13cd4:	01a50513          	addi	a0,a0,26
   13cd8:	ffff8837          	lui	a6,0xffff8
   13cdc:	0006d783          	lhu	a5,0(a3)
   13ce0:	0017f613          	andi	a2,a5,1
   13ce4:	00060463          	beqz	a2,13cec <eshdn1+0x20>
   13ce8:	00176713          	ori	a4,a4,1
   13cec:	00277613          	andi	a2,a4,2
   13cf0:	0017d793          	srli	a5,a5,0x1
   13cf4:	00171713          	slli	a4,a4,0x1
   13cf8:	0107e5b3          	or	a1,a5,a6
   13cfc:	00060663          	beqz	a2,13d08 <eshdn1+0x3c>
   13d00:	01059793          	slli	a5,a1,0x10
   13d04:	0107d793          	srli	a5,a5,0x10
   13d08:	00f69023          	sh	a5,0(a3)
   13d0c:	01071713          	slli	a4,a4,0x10
   13d10:	00268693          	addi	a3,a3,2
   13d14:	01075713          	srli	a4,a4,0x10
   13d18:	fcd512e3          	bne	a0,a3,13cdc <eshdn1+0x10>
   13d1c:	00008067          	ret

00013d20 <eshup1>:
   13d20:	01850693          	addi	a3,a0,24
   13d24:	00000713          	li	a4,0
   13d28:	00250513          	addi	a0,a0,2
   13d2c:	0006d783          	lhu	a5,0(a3)
   13d30:	01079613          	slli	a2,a5,0x10
   13d34:	41065613          	srai	a2,a2,0x10
   13d38:	00179793          	slli	a5,a5,0x1
   13d3c:	00065463          	bgez	a2,13d44 <eshup1+0x24>
   13d40:	00176713          	ori	a4,a4,1
   13d44:	00277613          	andi	a2,a4,2
   13d48:	01079793          	slli	a5,a5,0x10
   13d4c:	00171713          	slli	a4,a4,0x1
   13d50:	0107d793          	srli	a5,a5,0x10
   13d54:	00060463          	beqz	a2,13d5c <eshup1+0x3c>
   13d58:	0017e793          	ori	a5,a5,1
   13d5c:	00f69023          	sh	a5,0(a3)
   13d60:	01071713          	slli	a4,a4,0x10
   13d64:	ffe68693          	addi	a3,a3,-2
   13d68:	01075713          	srli	a4,a4,0x10
   13d6c:	fcd510e3          	bne	a0,a3,13d2c <eshup1+0xc>
   13d70:	00008067          	ret

00013d74 <m16m>:
   13d74:	fc010113          	addi	sp,sp,-64
   13d78:	03412423          	sw	s4,40(sp)
   13d7c:	00010a37          	lui	s4,0x10
   13d80:	02812c23          	sw	s0,56(sp)
   13d84:	02912a23          	sw	s1,52(sp)
   13d88:	03212823          	sw	s2,48(sp)
   13d8c:	03312623          	sw	s3,44(sp)
   13d90:	03512223          	sw	s5,36(sp)
   13d94:	02112e23          	sw	ra,60(sp)
   13d98:	00050993          	mv	s3,a0
   13d9c:	00060493          	mv	s1,a2
   13da0:	00011d23          	sh	zero,26(sp)
   13da4:	00011e23          	sh	zero,28(sp)
   13da8:	01858913          	addi	s2,a1,24
   13dac:	01c10413          	addi	s0,sp,28
   13db0:	00810a93          	addi	s5,sp,8
   13db4:	fffa0a13          	addi	s4,s4,-1 # ffff <exit-0x95>
   13db8:	00095503          	lhu	a0,0(s2)
   13dbc:	00098593          	mv	a1,s3
   13dc0:	ffe40413          	addi	s0,s0,-2
   13dc4:	ffe90913          	addi	s2,s2,-2
   13dc8:	02050a63          	beqz	a0,13dfc <m16m+0x88>
   13dcc:	16c110ef          	jal	ra,24f38 <__mulsi3>
   13dd0:	00245703          	lhu	a4,2(s0)
   13dd4:	00045683          	lhu	a3,0(s0)
   13dd8:	014577b3          	and	a5,a0,s4
   13ddc:	00e787b3          	add	a5,a5,a4
   13de0:	01055513          	srli	a0,a0,0x10
   13de4:	0107d713          	srli	a4,a5,0x10
   13de8:	00d50533          	add	a0,a0,a3
   13dec:	00e50533          	add	a0,a0,a4
   13df0:	00a41023          	sh	a0,0(s0)
   13df4:	00f41123          	sh	a5,2(s0)
   13df8:	01055513          	srli	a0,a0,0x10
   13dfc:	fea41f23          	sh	a0,-2(s0)
   13e00:	fb541ce3          	bne	s0,s5,13db8 <m16m+0x44>
   13e04:	00448613          	addi	a2,s1,4
   13e08:	01e10713          	addi	a4,sp,30
   13e0c:	00045783          	lhu	a5,0(s0)
   13e10:	00240413          	addi	s0,s0,2
   13e14:	00260613          	addi	a2,a2,2
   13e18:	fef61f23          	sh	a5,-2(a2)
   13e1c:	fee418e3          	bne	s0,a4,13e0c <m16m+0x98>
   13e20:	03c12083          	lw	ra,60(sp)
   13e24:	03812403          	lw	s0,56(sp)
   13e28:	03412483          	lw	s1,52(sp)
   13e2c:	03012903          	lw	s2,48(sp)
   13e30:	02c12983          	lw	s3,44(sp)
   13e34:	02812a03          	lw	s4,40(sp)
   13e38:	02412a83          	lw	s5,36(sp)
   13e3c:	04010113          	addi	sp,sp,64
   13e40:	00008067          	ret

00013e44 <emovo.constprop.0>:
   13e44:	00055703          	lhu	a4,0(a0)
   13e48:	00255783          	lhu	a5,2(a0)
   13e4c:	00070663          	beqz	a4,13e58 <emovo.constprop.0+0x14>
   13e50:	00008737          	lui	a4,0x8
   13e54:	00e7e7b3          	or	a5,a5,a4
   13e58:	00f59923          	sh	a5,18(a1)
   13e5c:	00255703          	lhu	a4,2(a0)
   13e60:	000087b7          	lui	a5,0x8
   13e64:	fff78793          	addi	a5,a5,-1 # 7fff <exit-0x8095>
   13e68:	02f70463          	beq	a4,a5,13e90 <emovo.constprop.0+0x4c>
   13e6c:	00650793          	addi	a5,a0,6
   13e70:	01058593          	addi	a1,a1,16
   13e74:	01850513          	addi	a0,a0,24
   13e78:	0007d703          	lhu	a4,0(a5)
   13e7c:	00278793          	addi	a5,a5,2
   13e80:	ffe58593          	addi	a1,a1,-2
   13e84:	00e59123          	sh	a4,2(a1)
   13e88:	fea798e3          	bne	a5,a0,13e78 <emovo.constprop.0+0x34>
   13e8c:	00008067          	ret
   13e90:	00650793          	addi	a5,a0,6
   13e94:	01a50513          	addi	a0,a0,26
   13e98:	0007d703          	lhu	a4,0(a5)
   13e9c:	00278793          	addi	a5,a5,2
   13ea0:	02071a63          	bnez	a4,13ed4 <emovo.constprop.0+0x90>
   13ea4:	fef51ae3          	bne	a0,a5,13e98 <emovo.constprop.0+0x54>
   13ea8:	01258713          	addi	a4,a1,18
   13eac:	00058793          	mv	a5,a1
   13eb0:	00278793          	addi	a5,a5,2
   13eb4:	fe079f23          	sh	zero,-2(a5)
   13eb8:	fee79ce3          	bne	a5,a4,13eb0 <emovo.constprop.0+0x6c>
   13ebc:	0125d783          	lhu	a5,18(a1)
   13ec0:	00008737          	lui	a4,0x8
   13ec4:	fff70713          	addi	a4,a4,-1 # 7fff <exit-0x8095>
   13ec8:	00e7e7b3          	or	a5,a5,a4
   13ecc:	00f59923          	sh	a5,18(a1)
   13ed0:	00008067          	ret
   13ed4:	01058713          	addi	a4,a1,16
   13ed8:	00058793          	mv	a5,a1
   13edc:	00278793          	addi	a5,a5,2
   13ee0:	fe079f23          	sh	zero,-2(a5)
   13ee4:	fee79ce3          	bne	a5,a4,13edc <emovo.constprop.0+0x98>
   13ee8:	ffffc7b7          	lui	a5,0xffffc
   13eec:	00f59823          	sh	a5,16(a1)
   13ef0:	ffff87b7          	lui	a5,0xffff8
   13ef4:	fff7c793          	not	a5,a5
   13ef8:	00f59923          	sh	a5,18(a1)
   13efc:	00008067          	ret

00013f00 <enormlz>:
   13f00:	00455783          	lhu	a5,4(a0)
   13f04:	ff010113          	addi	sp,sp,-16
   13f08:	00912223          	sw	s1,4(sp)
   13f0c:	00112623          	sw	ra,12(sp)
   13f10:	00812423          	sw	s0,8(sp)
   13f14:	01212023          	sw	s2,0(sp)
   13f18:	00050493          	mv	s1,a0
   13f1c:	0c079a63          	bnez	a5,13ff0 <enormlz+0xf0>
   13f20:	00655783          	lhu	a5,6(a0)
   13f24:	00000413          	li	s0,0
   13f28:	01079713          	slli	a4,a5,0x10
   13f2c:	41075713          	srai	a4,a4,0x10
   13f30:	0a074263          	bltz	a4,13fd4 <enormlz+0xd4>
   13f34:	01850693          	addi	a3,a0,24
   13f38:	0a000613          	li	a2,160
   13f3c:	02079663          	bnez	a5,13f68 <enormlz+0x68>
   13f40:	00448793          	addi	a5,s1,4
   13f44:	0027d703          	lhu	a4,2(a5) # ffff8002 <__BSS_END__+0xfffd151a>
   13f48:	00278793          	addi	a5,a5,2
   13f4c:	fee79f23          	sh	a4,-2(a5)
   13f50:	fed79ae3          	bne	a5,a3,13f44 <enormlz+0x44>
   13f54:	00049c23          	sh	zero,24(s1)
   13f58:	01040413          	addi	s0,s0,16
   13f5c:	06c40c63          	beq	s0,a2,13fd4 <enormlz+0xd4>
   13f60:	0064d783          	lhu	a5,6(s1)
   13f64:	fc078ee3          	beqz	a5,13f40 <enormlz+0x40>
   13f68:	0ff00713          	li	a4,255
   13f6c:	04f76063          	bltu	a4,a5,13fac <enormlz+0xac>
   13f70:	01848813          	addi	a6,s1,24
   13f74:	00248593          	addi	a1,s1,2
   13f78:	0ff00513          	li	a0,255
   13f7c:	00000793          	li	a5,0
   13f80:	00080713          	mv	a4,a6
   13f84:	00075683          	lhu	a3,0(a4)
   13f88:	ffe70713          	addi	a4,a4,-2
   13f8c:	00869613          	slli	a2,a3,0x8
   13f90:	00c7e7b3          	or	a5,a5,a2
   13f94:	00f71123          	sh	a5,2(a4)
   13f98:	0086d793          	srli	a5,a3,0x8
   13f9c:	feb714e3          	bne	a4,a1,13f84 <enormlz+0x84>
   13fa0:	0064d783          	lhu	a5,6(s1)
   13fa4:	00840413          	addi	s0,s0,8
   13fa8:	fcf57ae3          	bgeu	a0,a5,13f7c <enormlz+0x7c>
   13fac:	0a000913          	li	s2,160
   13fb0:	0140006f          	j	13fc4 <enormlz+0xc4>
   13fb4:	00140413          	addi	s0,s0,1
   13fb8:	d69ff0ef          	jal	ra,13d20 <eshup1>
   13fbc:	00894c63          	blt	s2,s0,13fd4 <enormlz+0xd4>
   13fc0:	0064d783          	lhu	a5,6(s1)
   13fc4:	01079793          	slli	a5,a5,0x10
   13fc8:	4107d793          	srai	a5,a5,0x10
   13fcc:	00048513          	mv	a0,s1
   13fd0:	fe07d2e3          	bgez	a5,13fb4 <enormlz+0xb4>
   13fd4:	00c12083          	lw	ra,12(sp)
   13fd8:	00040513          	mv	a0,s0
   13fdc:	00812403          	lw	s0,8(sp)
   13fe0:	00412483          	lw	s1,4(sp)
   13fe4:	00012903          	lw	s2,0(sp)
   13fe8:	01010113          	addi	sp,sp,16
   13fec:	00008067          	ret
   13ff0:	0ff00713          	li	a4,255
   13ff4:	00000413          	li	s0,0
   13ff8:	04f76063          	bltu	a4,a5,14038 <enormlz+0x138>
   13ffc:	f6f00913          	li	s2,-145
   14000:	0140006f          	j	14014 <enormlz+0x114>
   14004:	fff40413          	addi	s0,s0,-1
   14008:	cc5ff0ef          	jal	ra,13ccc <eshdn1>
   1400c:	fd2404e3          	beq	s0,s2,13fd4 <enormlz+0xd4>
   14010:	0044d783          	lhu	a5,4(s1)
   14014:	00048513          	mv	a0,s1
   14018:	fe0796e3          	bnez	a5,14004 <enormlz+0x104>
   1401c:	00c12083          	lw	ra,12(sp)
   14020:	00040513          	mv	a0,s0
   14024:	00812403          	lw	s0,8(sp)
   14028:	00412483          	lw	s1,4(sp)
   1402c:	00012903          	lw	s2,0(sp)
   14030:	01010113          	addi	sp,sp,16
   14034:	00008067          	ret
   14038:	00450713          	addi	a4,a0,4
   1403c:	01a50593          	addi	a1,a0,26
   14040:	00000793          	li	a5,0
   14044:	00075683          	lhu	a3,0(a4)
   14048:	00270713          	addi	a4,a4,2
   1404c:	0086d613          	srli	a2,a3,0x8
   14050:	00c7e7b3          	or	a5,a5,a2
   14054:	00869693          	slli	a3,a3,0x8
   14058:	fef71f23          	sh	a5,-2(a4)
   1405c:	01069793          	slli	a5,a3,0x10
   14060:	0107d793          	srli	a5,a5,0x10
   14064:	feb710e3          	bne	a4,a1,14044 <enormlz+0x144>
   14068:	0044d783          	lhu	a5,4(s1)
   1406c:	ff800413          	li	s0,-8
   14070:	f8dff06f          	j	13ffc <enormlz+0xfc>

00014074 <eshift.part.0>:
   14074:	fe010113          	addi	sp,sp,-32
   14078:	00812c23          	sw	s0,24(sp)
   1407c:	00912a23          	sw	s1,20(sp)
   14080:	00112e23          	sw	ra,28(sp)
   14084:	01212823          	sw	s2,16(sp)
   14088:	01312623          	sw	s3,12(sp)
   1408c:	00058493          	mv	s1,a1
   14090:	00050413          	mv	s0,a0
   14094:	0a05c463          	bltz	a1,1413c <eshift.part.0+0xc8>
   14098:	00f00793          	li	a5,15
   1409c:	00058613          	mv	a2,a1
   140a0:	00450513          	addi	a0,a0,4
   140a4:	01840693          	addi	a3,s0,24
   140a8:	00f00593          	li	a1,15
   140ac:	0297d463          	bge	a5,s1,140d4 <eshift.part.0+0x60>
   140b0:	00050793          	mv	a5,a0
   140b4:	0027d703          	lhu	a4,2(a5)
   140b8:	00278793          	addi	a5,a5,2
   140bc:	fee79f23          	sh	a4,-2(a5)
   140c0:	fed79ae3          	bne	a5,a3,140b4 <eshift.part.0+0x40>
   140c4:	00041c23          	sh	zero,24(s0)
   140c8:	ff060613          	addi	a2,a2,-16
   140cc:	fec5c2e3          	blt	a1,a2,140b0 <eshift.part.0+0x3c>
   140d0:	00f4f493          	andi	s1,s1,15
   140d4:	00700793          	li	a5,7
   140d8:	0297d863          	bge	a5,s1,14108 <eshift.part.0+0x94>
   140dc:	01840713          	addi	a4,s0,24
   140e0:	00240593          	addi	a1,s0,2
   140e4:	00000793          	li	a5,0
   140e8:	00075683          	lhu	a3,0(a4)
   140ec:	ffe70713          	addi	a4,a4,-2
   140f0:	00869613          	slli	a2,a3,0x8
   140f4:	00c7e7b3          	or	a5,a5,a2
   140f8:	00f71123          	sh	a5,2(a4)
   140fc:	0086d793          	srli	a5,a3,0x8
   14100:	feb714e3          	bne	a4,a1,140e8 <eshift.part.0+0x74>
   14104:	ff848493          	addi	s1,s1,-8
   14108:	00048a63          	beqz	s1,1411c <eshift.part.0+0xa8>
   1410c:	fff48493          	addi	s1,s1,-1
   14110:	00040513          	mv	a0,s0
   14114:	c0dff0ef          	jal	ra,13d20 <eshup1>
   14118:	fe049ae3          	bnez	s1,1410c <eshift.part.0+0x98>
   1411c:	01c12083          	lw	ra,28(sp)
   14120:	01812403          	lw	s0,24(sp)
   14124:	01412483          	lw	s1,20(sp)
   14128:	01012903          	lw	s2,16(sp)
   1412c:	00c12983          	lw	s3,12(sp)
   14130:	00000513          	li	a0,0
   14134:	02010113          	addi	sp,sp,32
   14138:	00008067          	ret
   1413c:	ff100793          	li	a5,-15
   14140:	40b00933          	neg	s2,a1
   14144:	00000993          	li	s3,0
   14148:	01850593          	addi	a1,a0,24
   1414c:	00450693          	addi	a3,a0,4
   14150:	00f00613          	li	a2,15
   14154:	0cf4d863          	bge	s1,a5,14224 <eshift.part.0+0x1b0>
   14158:	01845703          	lhu	a4,24(s0)
   1415c:	00058793          	mv	a5,a1
   14160:	00e9e9b3          	or	s3,s3,a4
   14164:	ffe7d703          	lhu	a4,-2(a5)
   14168:	ffe78793          	addi	a5,a5,-2
   1416c:	00e79123          	sh	a4,2(a5)
   14170:	fed79ae3          	bne	a5,a3,14164 <eshift.part.0+0xf0>
   14174:	00041223          	sh	zero,4(s0)
   14178:	ff090913          	addi	s2,s2,-16
   1417c:	fd264ee3          	blt	a2,s2,14158 <eshift.part.0+0xe4>
   14180:	ff000913          	li	s2,-16
   14184:	ff100713          	li	a4,-15
   14188:	40990933          	sub	s2,s2,s1
   1418c:	00000793          	li	a5,0
   14190:	08e4c463          	blt	s1,a4,14218 <eshift.part.0+0x1a4>
   14194:	00f90933          	add	s2,s2,a5
   14198:	00700793          	li	a5,7
   1419c:	0327de63          	bge	a5,s2,141d8 <eshift.part.0+0x164>
   141a0:	01844783          	lbu	a5,24(s0)
   141a4:	01a40593          	addi	a1,s0,26
   141a8:	00f9e9b3          	or	s3,s3,a5
   141ac:	00000793          	li	a5,0
   141b0:	0006d703          	lhu	a4,0(a3)
   141b4:	00268693          	addi	a3,a3,2
   141b8:	00875613          	srli	a2,a4,0x8
   141bc:	00c7e7b3          	or	a5,a5,a2
   141c0:	00871713          	slli	a4,a4,0x8
   141c4:	fef69f23          	sh	a5,-2(a3)
   141c8:	01071793          	slli	a5,a4,0x10
   141cc:	0107d793          	srli	a5,a5,0x10
   141d0:	feb690e3          	bne	a3,a1,141b0 <eshift.part.0+0x13c>
   141d4:	ff890913          	addi	s2,s2,-8
   141d8:	02090063          	beqz	s2,141f8 <eshift.part.0+0x184>
   141dc:	01845783          	lhu	a5,24(s0)
   141e0:	fff90913          	addi	s2,s2,-1
   141e4:	00040513          	mv	a0,s0
   141e8:	0017f793          	andi	a5,a5,1
   141ec:	00f9e9b3          	or	s3,s3,a5
   141f0:	addff0ef          	jal	ra,13ccc <eshdn1>
   141f4:	fe0914e3          	bnez	s2,141dc <eshift.part.0+0x168>
   141f8:	01c12083          	lw	ra,28(sp)
   141fc:	01812403          	lw	s0,24(sp)
   14200:	01412483          	lw	s1,20(sp)
   14204:	01012903          	lw	s2,16(sp)
   14208:	01303533          	snez	a0,s3
   1420c:	00c12983          	lw	s3,12(sp)
   14210:	02010113          	addi	sp,sp,32
   14214:	00008067          	ret
   14218:	ff097793          	andi	a5,s2,-16
   1421c:	40f007b3          	neg	a5,a5
   14220:	f75ff06f          	j	14194 <eshift.part.0+0x120>
   14224:	ff900793          	li	a5,-7
   14228:	f6f4cce3          	blt	s1,a5,141a0 <eshift.part.0+0x12c>
   1422c:	fb1ff06f          	j	141dc <eshift.part.0+0x168>

00014230 <emovi>:
   14230:	01255783          	lhu	a5,18(a0)
   14234:	000086b7          	lui	a3,0x8
   14238:	fff68693          	addi	a3,a3,-1 # 7fff <exit-0x8095>
   1423c:	00f7d793          	srli	a5,a5,0xf
   14240:	40f007b3          	neg	a5,a5
   14244:	00f59023          	sh	a5,0(a1)
   14248:	01255703          	lhu	a4,18(a0)
   1424c:	01050793          	addi	a5,a0,16
   14250:	00d77733          	and	a4,a4,a3
   14254:	00e59123          	sh	a4,2(a1)
   14258:	02d70663          	beq	a4,a3,14284 <emovi+0x54>
   1425c:	00658713          	addi	a4,a1,6
   14260:	00059223          	sh	zero,4(a1)
   14264:	ffe50513          	addi	a0,a0,-2
   14268:	0007d683          	lhu	a3,0(a5)
   1426c:	ffe78793          	addi	a5,a5,-2
   14270:	00270713          	addi	a4,a4,2
   14274:	fed71f23          	sh	a3,-2(a4)
   14278:	fea798e3          	bne	a5,a0,14268 <emovi+0x38>
   1427c:	00059c23          	sh	zero,24(a1)
   14280:	00008067          	ret
   14284:	01255683          	lhu	a3,18(a0)
   14288:	00e6f6b3          	and	a3,a3,a4
   1428c:	00e69e63          	bne	a3,a4,142a8 <emovi+0x78>
   14290:	01250613          	addi	a2,a0,18
   14294:	00050713          	mv	a4,a0
   14298:	00075683          	lhu	a3,0(a4)
   1429c:	00270713          	addi	a4,a4,2
   142a0:	02069063          	bnez	a3,142c0 <emovi+0x90>
   142a4:	fec71ae3          	bne	a4,a2,14298 <emovi+0x68>
   142a8:	00458793          	addi	a5,a1,4
   142ac:	01a58593          	addi	a1,a1,26
   142b0:	00278793          	addi	a5,a5,2
   142b4:	fe079f23          	sh	zero,-2(a5)
   142b8:	feb79ce3          	bne	a5,a1,142b0 <emovi+0x80>
   142bc:	00008067          	ret
   142c0:	00658713          	addi	a4,a1,6
   142c4:	00059223          	sh	zero,4(a1)
   142c8:	ffc50513          	addi	a0,a0,-4
   142cc:	0007d683          	lhu	a3,0(a5)
   142d0:	ffe78793          	addi	a5,a5,-2
   142d4:	00270713          	addi	a4,a4,2
   142d8:	fed71f23          	sh	a3,-2(a4)
   142dc:	fef518e3          	bne	a0,a5,142cc <emovi+0x9c>
   142e0:	00008067          	ret

000142e4 <ecmp>:
   142e4:	01255783          	lhu	a5,18(a0)
   142e8:	fb010113          	addi	sp,sp,-80
   142ec:	04812423          	sw	s0,72(sp)
   142f0:	fff7c793          	not	a5,a5
   142f4:	04112623          	sw	ra,76(sp)
   142f8:	01179713          	slli	a4,a5,0x11
   142fc:	00058413          	mv	s0,a1
   14300:	00071e63          	bnez	a4,1431c <ecmp+0x38>
   14304:	01250693          	addi	a3,a0,18
   14308:	00050793          	mv	a5,a0
   1430c:	0007d703          	lhu	a4,0(a5)
   14310:	00278793          	addi	a5,a5,2
   14314:	08071c63          	bnez	a4,143ac <ecmp+0xc8>
   14318:	fed79ae3          	bne	a5,a3,1430c <ecmp+0x28>
   1431c:	01245783          	lhu	a5,18(s0)
   14320:	fff7c793          	not	a5,a5
   14324:	01179713          	slli	a4,a5,0x11
   14328:	06070063          	beqz	a4,14388 <ecmp+0xa4>
   1432c:	00810593          	addi	a1,sp,8
   14330:	f01ff0ef          	jal	ra,14230 <emovi>
   14334:	02410593          	addi	a1,sp,36
   14338:	00040513          	mv	a0,s0
   1433c:	ef5ff0ef          	jal	ra,14230 <emovi>
   14340:	00815583          	lhu	a1,8(sp)
   14344:	02415503          	lhu	a0,36(sp)
   14348:	06b50c63          	beq	a0,a1,143c0 <ecmp+0xdc>
   1434c:	00a10793          	addi	a5,sp,10
   14350:	02610713          	addi	a4,sp,38
   14354:	02010613          	addi	a2,sp,32
   14358:	0007d683          	lhu	a3,0(a5)
   1435c:	00278793          	addi	a5,a5,2
   14360:	0a069863          	bnez	a3,14410 <ecmp+0x12c>
   14364:	00075683          	lhu	a3,0(a4)
   14368:	00270713          	addi	a4,a4,2
   1436c:	0a069263          	bnez	a3,14410 <ecmp+0x12c>
   14370:	fef614e3          	bne	a2,a5,14358 <ecmp+0x74>
   14374:	00000513          	li	a0,0
   14378:	04c12083          	lw	ra,76(sp)
   1437c:	04812403          	lw	s0,72(sp)
   14380:	05010113          	addi	sp,sp,80
   14384:	00008067          	ret
   14388:	00040793          	mv	a5,s0
   1438c:	0007d703          	lhu	a4,0(a5)
   14390:	01240693          	addi	a3,s0,18
   14394:	00278793          	addi	a5,a5,2
   14398:	00071a63          	bnez	a4,143ac <ecmp+0xc8>
   1439c:	f8d788e3          	beq	a5,a3,1432c <ecmp+0x48>
   143a0:	0007d703          	lhu	a4,0(a5)
   143a4:	00278793          	addi	a5,a5,2
   143a8:	fe070ae3          	beqz	a4,1439c <ecmp+0xb8>
   143ac:	04c12083          	lw	ra,76(sp)
   143b0:	04812403          	lw	s0,72(sp)
   143b4:	ffe00513          	li	a0,-2
   143b8:	05010113          	addi	sp,sp,80
   143bc:	00008067          	ret
   143c0:	00815603          	lhu	a2,8(sp)
   143c4:	02415683          	lhu	a3,36(sp)
   143c8:	00a03533          	snez	a0,a0
   143cc:	02410713          	addi	a4,sp,36
   143d0:	00810793          	addi	a5,sp,8
   143d4:	40a00533          	neg	a0,a0
   143d8:	00156513          	ori	a0,a0,1
   143dc:	02010593          	addi	a1,sp,32
   143e0:	00278793          	addi	a5,a5,2
   143e4:	00270713          	addi	a4,a4,2
   143e8:	00d61e63          	bne	a2,a3,14404 <ecmp+0x120>
   143ec:	f8b784e3          	beq	a5,a1,14374 <ecmp+0x90>
   143f0:	0007d603          	lhu	a2,0(a5)
   143f4:	00075683          	lhu	a3,0(a4)
   143f8:	00278793          	addi	a5,a5,2
   143fc:	00270713          	addi	a4,a4,2
   14400:	fed606e3          	beq	a2,a3,143ec <ecmp+0x108>
   14404:	f6c6eae3          	bltu	a3,a2,14378 <ecmp+0x94>
   14408:	40a00533          	neg	a0,a0
   1440c:	f6dff06f          	j	14378 <ecmp+0x94>
   14410:	00059c63          	bnez	a1,14428 <ecmp+0x144>
   14414:	04c12083          	lw	ra,76(sp)
   14418:	04812403          	lw	s0,72(sp)
   1441c:	00100513          	li	a0,1
   14420:	05010113          	addi	sp,sp,80
   14424:	00008067          	ret
   14428:	fff00513          	li	a0,-1
   1442c:	f4dff06f          	j	14378 <ecmp+0x94>

00014430 <emdnorm>:
   14430:	fe010113          	addi	sp,sp,-32
   14434:	00812c23          	sw	s0,24(sp)
   14438:	00912a23          	sw	s1,20(sp)
   1443c:	01212823          	sw	s2,16(sp)
   14440:	01312623          	sw	s3,12(sp)
   14444:	01412423          	sw	s4,8(sp)
   14448:	01512223          	sw	s5,4(sp)
   1444c:	00068913          	mv	s2,a3
   14450:	00078413          	mv	s0,a5
   14454:	00112e23          	sw	ra,28(sp)
   14458:	00050493          	mv	s1,a0
   1445c:	00058993          	mv	s3,a1
   14460:	00060a13          	mv	s4,a2
   14464:	00070a93          	mv	s5,a4
   14468:	a99ff0ef          	jal	ra,13f00 <enormlz>
   1446c:	09000793          	li	a5,144
   14470:	40a90933          	sub	s2,s2,a0
   14474:	16a7da63          	bge	a5,a0,145e8 <emdnorm+0x1b8>
   14478:	000087b7          	lui	a5,0x8
   1447c:	ffe78793          	addi	a5,a5,-2 # 7ffe <exit-0x8096>
   14480:	2b27da63          	bge	a5,s2,14734 <emdnorm+0x304>
   14484:	200a8c63          	beqz	s5,1469c <emdnorm+0x26c>
   14488:	00442a83          	lw	s5,4(s0)
   1448c:	00042783          	lw	a5,0(s0)
   14490:	26fa8a63          	beq	s5,a5,14704 <emdnorm+0x2d4>
   14494:	01a40713          	addi	a4,s0,26
   14498:	03440793          	addi	a5,s0,52
   1449c:	00270713          	addi	a4,a4,2
   144a0:	fe071f23          	sh	zero,-2(a4)
   144a4:	fee79ce3          	bne	a5,a4,1449c <emdnorm+0x6c>
   144a8:	03800793          	li	a5,56
   144ac:	36fa8863          	beq	s5,a5,1481c <emdnorm+0x3ec>
   144b0:	1957dc63          	bge	a5,s5,14648 <emdnorm+0x218>
   144b4:	04000793          	li	a5,64
   144b8:	28fa8a63          	beq	s5,a5,1474c <emdnorm+0x31c>
   144bc:	07100793          	li	a5,113
   144c0:	38fa9c63          	bne	s5,a5,14858 <emdnorm+0x428>
   144c4:	400087b7          	lui	a5,0x40008
   144c8:	00a00693          	li	a3,10
   144cc:	ffff8737          	lui	a4,0xffff8
   144d0:	fff78793          	addi	a5,a5,-1 # 40007fff <__BSS_END__+0x3ffe1517>
   144d4:	00d42423          	sw	a3,8(s0)
   144d8:	00f42a23          	sw	a5,20(s0)
   144dc:	00e41c23          	sh	a4,24(s0)
   144e0:	00d42623          	sw	a3,12(s0)
   144e4:	02e41723          	sh	a4,46(s0)
   144e8:	01542023          	sw	s5,0(s0)
   144ec:	21205263          	blez	s2,146f0 <emdnorm+0x2c0>
   144f0:	0144d683          	lhu	a3,20(s1)
   144f4:	01448613          	addi	a2,s1,20
   144f8:	00b00793          	li	a5,11
   144fc:	01169693          	slli	a3,a3,0x11
   14500:	0116d693          	srli	a3,a3,0x11
   14504:	00179793          	slli	a5,a5,0x1
   14508:	00f487b3          	add	a5,s1,a5
   1450c:	01a48593          	addi	a1,s1,26
   14510:	0007d703          	lhu	a4,0(a5)
   14514:	00070463          	beqz	a4,1451c <emdnorm+0xec>
   14518:	0016e693          	ori	a3,a3,1
   1451c:	00079023          	sh	zero,0(a5)
   14520:	00278793          	addi	a5,a5,2
   14524:	feb796e3          	bne	a5,a1,14510 <emdnorm+0xe0>
   14528:	00065703          	lhu	a4,0(a2)
   1452c:	01445583          	lhu	a1,20(s0)
   14530:	fff5c593          	not	a1,a1
   14534:	00b77733          	and	a4,a4,a1
   14538:	00e61023          	sh	a4,0(a2)
   1453c:	01645783          	lhu	a5,22(s0)
   14540:	00d7f733          	and	a4,a5,a3
   14544:	06070063          	beqz	a4,145a4 <emdnorm+0x174>
   14548:	02d79263          	bne	a5,a3,1456c <emdnorm+0x13c>
   1454c:	2c099463          	bnez	s3,14814 <emdnorm+0x3e4>
   14550:	00c42783          	lw	a5,12(s0)
   14554:	01845703          	lhu	a4,24(s0)
   14558:	00179793          	slli	a5,a5,0x1
   1455c:	00f487b3          	add	a5,s1,a5
   14560:	0007d783          	lhu	a5,0(a5)
   14564:	00e7f7b3          	and	a5,a5,a4
   14568:	02078e63          	beqz	a5,145a4 <emdnorm+0x174>
   1456c:	03240793          	addi	a5,s0,50
   14570:	01848613          	addi	a2,s1,24
   14574:	00248593          	addi	a1,s1,2
   14578:	00000513          	li	a0,0
   1457c:	0007d703          	lhu	a4,0(a5)
   14580:	00065683          	lhu	a3,0(a2)
   14584:	ffe60613          	addi	a2,a2,-2
   14588:	ffe78793          	addi	a5,a5,-2
   1458c:	00d70733          	add	a4,a4,a3
   14590:	00a70733          	add	a4,a4,a0
   14594:	01075513          	srli	a0,a4,0x10
   14598:	00e61123          	sh	a4,2(a2)
   1459c:	00157513          	andi	a0,a0,1
   145a0:	fcc59ee3          	bne	a1,a2,1457c <emdnorm+0x14c>
   145a4:	23205863          	blez	s2,147d4 <emdnorm+0x3a4>
   145a8:	0044d783          	lhu	a5,4(s1)
   145ac:	20079463          	bnez	a5,147b4 <emdnorm+0x384>
   145b0:	000087b7          	lui	a5,0x8
   145b4:	00049c23          	sh	zero,24(s1)
   145b8:	ffe78793          	addi	a5,a5,-2 # 7ffe <exit-0x8096>
   145bc:	0f27c263          	blt	a5,s2,146a0 <emdnorm+0x270>
   145c0:	01249123          	sh	s2,2(s1)
   145c4:	01c12083          	lw	ra,28(sp)
   145c8:	01812403          	lw	s0,24(sp)
   145cc:	01412483          	lw	s1,20(sp)
   145d0:	01012903          	lw	s2,16(sp)
   145d4:	00c12983          	lw	s3,12(sp)
   145d8:	00812a03          	lw	s4,8(sp)
   145dc:	00412a83          	lw	s5,4(sp)
   145e0:	02010113          	addi	sp,sp,32
   145e4:	00008067          	ret
   145e8:	04094063          	bltz	s2,14628 <emdnorm+0x1f8>
   145ec:	fc0a82e3          	beqz	s5,145b0 <emdnorm+0x180>
   145f0:	00442a83          	lw	s5,4(s0)
   145f4:	00042783          	lw	a5,0(s0)
   145f8:	e8fa9ee3          	bne	s5,a5,14494 <emdnorm+0x64>
   145fc:	2d204063          	bgtz	s2,148bc <emdnorm+0x48c>
   14600:	09000713          	li	a4,144
   14604:	2ce79063          	bne	a5,a4,148c4 <emdnorm+0x494>
   14608:	00842603          	lw	a2,8(s0)
   1460c:	01445583          	lhu	a1,20(s0)
   14610:	09000a93          	li	s5,144
   14614:	00161613          	slli	a2,a2,0x1
   14618:	00c48633          	add	a2,s1,a2
   1461c:	00065703          	lhu	a4,0(a2)
   14620:	00b776b3          	and	a3,a4,a1
   14624:	f0dff06f          	j	14530 <emdnorm+0x100>
   14628:	f7000793          	li	a5,-144
   1462c:	16f95063          	bge	s2,a5,1478c <emdnorm+0x35c>
   14630:	00248793          	addi	a5,s1,2
   14634:	01a48493          	addi	s1,s1,26
   14638:	00278793          	addi	a5,a5,2
   1463c:	fe079f23          	sh	zero,-2(a5)
   14640:	fef49ce3          	bne	s1,a5,14638 <emdnorm+0x208>
   14644:	f81ff06f          	j	145c4 <emdnorm+0x194>
   14648:	01800793          	li	a5,24
   1464c:	06fa8c63          	beq	s5,a5,146c4 <emdnorm+0x294>
   14650:	03500793          	li	a5,53
   14654:	20fa9263          	bne	s5,a5,14858 <emdnorm+0x428>
   14658:	000017b7          	lui	a5,0x1
   1465c:	04000737          	lui	a4,0x4000
   14660:	00600693          	li	a3,6
   14664:	80078793          	addi	a5,a5,-2048 # 800 <exit-0xf894>
   14668:	7ff70713          	addi	a4,a4,2047 # 40007ff <__BSS_END__+0x3fd9d17>
   1466c:	00d42423          	sw	a3,8(s0)
   14670:	00e42a23          	sw	a4,20(s0)
   14674:	00f41c23          	sh	a5,24(s0)
   14678:	00d42623          	sw	a3,12(s0)
   1467c:	02f41323          	sh	a5,38(s0)
   14680:	01542023          	sw	s5,0(s0)
   14684:	07205663          	blez	s2,146f0 <emdnorm+0x2c0>
   14688:	00c4d683          	lhu	a3,12(s1)
   1468c:	00c48613          	addi	a2,s1,12
   14690:	00700793          	li	a5,7
   14694:	7ff6f693          	andi	a3,a3,2047
   14698:	e6dff06f          	j	14504 <emdnorm+0xd4>
   1469c:	00049c23          	sh	zero,24(s1)
   146a0:	ffff87b7          	lui	a5,0xffff8
   146a4:	fff7c793          	not	a5,a5
   146a8:	00f49123          	sh	a5,2(s1)
   146ac:	00448793          	addi	a5,s1,4
   146b0:	01848493          	addi	s1,s1,24
   146b4:	00079023          	sh	zero,0(a5) # ffff8000 <__BSS_END__+0xfffd1518>
   146b8:	00278793          	addi	a5,a5,2
   146bc:	fef49ce3          	bne	s1,a5,146b4 <emdnorm+0x284>
   146c0:	f05ff06f          	j	145c4 <emdnorm+0x194>
   146c4:	008007b7          	lui	a5,0x800
   146c8:	00400693          	li	a3,4
   146cc:	10000713          	li	a4,256
   146d0:	0ff78793          	addi	a5,a5,255 # 8000ff <__BSS_END__+0x7d9617>
   146d4:	00d42423          	sw	a3,8(s0)
   146d8:	00f42a23          	sw	a5,20(s0)
   146dc:	00e41c23          	sh	a4,24(s0)
   146e0:	00d42623          	sw	a3,12(s0)
   146e4:	02e41123          	sh	a4,34(s0)
   146e8:	01542023          	sw	s5,0(s0)
   146ec:	1b204a63          	bgtz	s2,148a0 <emdnorm+0x470>
   146f0:	0184d783          	lhu	a5,24(s1)
   146f4:	00048513          	mv	a0,s1
   146f8:	0017f793          	andi	a5,a5,1
   146fc:	00f9e9b3          	or	s3,s3,a5
   14700:	dccff0ef          	jal	ra,13ccc <eshdn1>
   14704:	00842783          	lw	a5,8(s0)
   14708:	01445583          	lhu	a1,20(s0)
   1470c:	08f00513          	li	a0,143
   14710:	00179613          	slli	a2,a5,0x1
   14714:	00c48633          	add	a2,s1,a2
   14718:	00065703          	lhu	a4,0(a2)
   1471c:	00b776b3          	and	a3,a4,a1
   14720:	e15548e3          	blt	a0,s5,14530 <emdnorm+0x100>
   14724:	00178793          	addi	a5,a5,1
   14728:	00c00513          	li	a0,12
   1472c:	dcf55ce3          	bge	a0,a5,14504 <emdnorm+0xd4>
   14730:	e01ff06f          	j	14530 <emdnorm+0x100>
   14734:	00248793          	addi	a5,s1,2
   14738:	01a48493          	addi	s1,s1,26
   1473c:	00278793          	addi	a5,a5,2
   14740:	fe079f23          	sh	zero,-2(a5)
   14744:	fe979ce3          	bne	a5,s1,1473c <emdnorm+0x30c>
   14748:	e7dff06f          	j	145c4 <emdnorm+0x194>
   1474c:	00700793          	li	a5,7
   14750:	00f42423          	sw	a5,8(s0)
   14754:	800107b7          	lui	a5,0x80010
   14758:	fff78793          	addi	a5,a5,-1 # 8000ffff <__BSS_END__+0x7ffe9517>
   1475c:	00100713          	li	a4,1
   14760:	00f42a23          	sw	a5,20(s0)
   14764:	00600793          	li	a5,6
   14768:	00e41c23          	sh	a4,24(s0)
   1476c:	00f42623          	sw	a5,12(s0)
   14770:	02e41323          	sh	a4,38(s0)
   14774:	01542023          	sw	s5,0(s0)
   14778:	f7205ce3          	blez	s2,146f0 <emdnorm+0x2c0>
   1477c:	00e4d683          	lhu	a3,14(s1)
   14780:	00e48613          	addi	a2,s1,14
   14784:	00800793          	li	a5,8
   14788:	d7dff06f          	j	14504 <emdnorm+0xd4>
   1478c:	00090593          	mv	a1,s2
   14790:	00048513          	mv	a0,s1
   14794:	8e1ff0ef          	jal	ra,14074 <eshift.part.0>
   14798:	0e050a63          	beqz	a0,1488c <emdnorm+0x45c>
   1479c:	100a8a63          	beqz	s5,148b0 <emdnorm+0x480>
   147a0:	00442a83          	lw	s5,4(s0)
   147a4:	00042783          	lw	a5,0(s0)
   147a8:	00100993          	li	s3,1
   147ac:	cefa94e3          	bne	s5,a5,14494 <emdnorm+0x64>
   147b0:	e51ff06f          	j	14600 <emdnorm+0x1d0>
   147b4:	00048513          	mv	a0,s1
   147b8:	d14ff0ef          	jal	ra,13ccc <eshdn1>
   147bc:	000087b7          	lui	a5,0x8
   147c0:	00190913          	addi	s2,s2,1
   147c4:	00049c23          	sh	zero,24(s1)
   147c8:	ffe78793          	addi	a5,a5,-2 # 7ffe <exit-0x8096>
   147cc:	ed27cae3          	blt	a5,s2,146a0 <emdnorm+0x270>
   147d0:	df1ff06f          	j	145c0 <emdnorm+0x190>
   147d4:	09000793          	li	a5,144
   147d8:	02fa8263          	beq	s5,a5,147fc <emdnorm+0x3cc>
   147dc:	00048513          	mv	a0,s1
   147e0:	d40ff0ef          	jal	ra,13d20 <eshup1>
   147e4:	0044d783          	lhu	a5,4(s1)
   147e8:	00079e63          	bnez	a5,14804 <emdnorm+0x3d4>
   147ec:	00049c23          	sh	zero,24(s1)
   147f0:	dc0958e3          	bgez	s2,145c0 <emdnorm+0x190>
   147f4:	00049123          	sh	zero,2(s1)
   147f8:	dcdff06f          	j	145c4 <emdnorm+0x194>
   147fc:	0044d783          	lhu	a5,4(s1)
   14800:	fe0786e3          	beqz	a5,147ec <emdnorm+0x3bc>
   14804:	00048513          	mv	a0,s1
   14808:	cc4ff0ef          	jal	ra,13ccc <eshdn1>
   1480c:	00190913          	addi	s2,s2,1
   14810:	fddff06f          	j	147ec <emdnorm+0x3bc>
   14814:	d40a0ce3          	beqz	s4,1456c <emdnorm+0x13c>
   14818:	d8dff06f          	j	145a4 <emdnorm+0x174>
   1481c:	008007b7          	lui	a5,0x800
   14820:	00600693          	li	a3,6
   14824:	10000713          	li	a4,256
   14828:	0ff78793          	addi	a5,a5,255 # 8000ff <__BSS_END__+0x7d9617>
   1482c:	00d42423          	sw	a3,8(s0)
   14830:	00f42a23          	sw	a5,20(s0)
   14834:	00e41c23          	sh	a4,24(s0)
   14838:	00d42623          	sw	a3,12(s0)
   1483c:	02e41323          	sh	a4,38(s0)
   14840:	01542023          	sw	s5,0(s0)
   14844:	eb2056e3          	blez	s2,146f0 <emdnorm+0x2c0>
   14848:	00c4c683          	lbu	a3,12(s1)
   1484c:	00c48613          	addi	a2,s1,12
   14850:	00700793          	li	a5,7
   14854:	cb1ff06f          	j	14504 <emdnorm+0xd4>
   14858:	00c00793          	li	a5,12
   1485c:	00f42423          	sw	a5,8(s0)
   14860:	800107b7          	lui	a5,0x80010
   14864:	fff78793          	addi	a5,a5,-1 # 8000ffff <__BSS_END__+0x7ffe9517>
   14868:	00100713          	li	a4,1
   1486c:	00f42a23          	sw	a5,20(s0)
   14870:	00b00793          	li	a5,11
   14874:	00f42623          	sw	a5,12(s0)
   14878:	00e41c23          	sh	a4,24(s0)
   1487c:	02e41823          	sh	a4,48(s0)
   14880:	01542023          	sw	s5,0(s0)
   14884:	000a8793          	mv	a5,s5
   14888:	d75ff06f          	j	145fc <emdnorm+0x1cc>
   1488c:	020a8263          	beqz	s5,148b0 <emdnorm+0x480>
   14890:	00442a83          	lw	s5,4(s0)
   14894:	00042783          	lw	a5,0(s0)
   14898:	befa9ee3          	bne	s5,a5,14494 <emdnorm+0x64>
   1489c:	d65ff06f          	j	14600 <emdnorm+0x1d0>
   148a0:	0084c683          	lbu	a3,8(s1)
   148a4:	00848613          	addi	a2,s1,8
   148a8:	00500793          	li	a5,5
   148ac:	c59ff06f          	j	14504 <emdnorm+0xd4>
   148b0:	00049c23          	sh	zero,24(s1)
   148b4:	00049123          	sh	zero,2(s1)
   148b8:	d0dff06f          	j	145c4 <emdnorm+0x194>
   148bc:	00078a93          	mv	s5,a5
   148c0:	e45ff06f          	j	14704 <emdnorm+0x2d4>
   148c4:	00078a93          	mv	s5,a5
   148c8:	e29ff06f          	j	146f0 <emdnorm+0x2c0>

000148cc <eiremain>:
   148cc:	fd010113          	addi	sp,sp,-48
   148d0:	03212023          	sw	s2,32(sp)
   148d4:	01312e23          	sw	s3,28(sp)
   148d8:	00058913          	mv	s2,a1
   148dc:	00255983          	lhu	s3,2(a0)
   148e0:	02112623          	sw	ra,44(sp)
   148e4:	02812423          	sw	s0,40(sp)
   148e8:	02912223          	sw	s1,36(sp)
   148ec:	01412c23          	sw	s4,24(sp)
   148f0:	00060493          	mv	s1,a2
   148f4:	01712623          	sw	s7,12(sp)
   148f8:	01512a23          	sw	s5,20(sp)
   148fc:	01612823          	sw	s6,16(sp)
   14900:	01812423          	sw	s8,8(sp)
   14904:	01912223          	sw	s9,4(sp)
   14908:	01a12023          	sw	s10,0(sp)
   1490c:	00050b93          	mv	s7,a0
   14910:	df0ff0ef          	jal	ra,13f00 <enormlz>
   14914:	00295403          	lhu	s0,2(s2)
   14918:	00050793          	mv	a5,a0
   1491c:	00090513          	mv	a0,s2
   14920:	40f989b3          	sub	s3,s3,a5
   14924:	03448a13          	addi	s4,s1,52
   14928:	dd8ff0ef          	jal	ra,13f00 <enormlz>
   1492c:	40a40433          	sub	s0,s0,a0
   14930:	04e48713          	addi	a4,s1,78
   14934:	000a0793          	mv	a5,s4
   14938:	00278793          	addi	a5,a5,2
   1493c:	fe079f23          	sh	zero,-2(a5)
   14940:	fee79ce3          	bne	a5,a4,14938 <eiremain+0x6c>
   14944:	09344863          	blt	s0,s3,149d4 <eiremain+0x108>
   14948:	004b8b13          	addi	s6,s7,4
   1494c:	00490a93          	addi	s5,s2,4
   14950:	01ab8c13          	addi	s8,s7,26
   14954:	00290d13          	addi	s10,s2,2
   14958:	000a8713          	mv	a4,s5
   1495c:	000b0793          	mv	a5,s6
   14960:	0007d603          	lhu	a2,0(a5)
   14964:	00075683          	lhu	a3,0(a4)
   14968:	00278793          	addi	a5,a5,2
   1496c:	00270713          	addi	a4,a4,2
   14970:	0ad61a63          	bne	a2,a3,14a24 <eiremain+0x158>
   14974:	fefc16e3          	bne	s8,a5,14960 <eiremain+0x94>
   14978:	018b8613          	addi	a2,s7,24
   1497c:	01890713          	addi	a4,s2,24
   14980:	00000693          	li	a3,0
   14984:	00075783          	lhu	a5,0(a4)
   14988:	00065583          	lhu	a1,0(a2)
   1498c:	ffe70713          	addi	a4,a4,-2
   14990:	ffe60613          	addi	a2,a2,-2
   14994:	40b787b3          	sub	a5,a5,a1
   14998:	40d787b3          	sub	a5,a5,a3
   1499c:	0107d693          	srli	a3,a5,0x10
   149a0:	00f71123          	sh	a5,2(a4)
   149a4:	0016f693          	andi	a3,a3,1
   149a8:	fda71ee3          	bne	a4,s10,14984 <eiremain+0xb8>
   149ac:	00100c93          	li	s9,1
   149b0:	000a0513          	mv	a0,s4
   149b4:	b6cff0ef          	jal	ra,13d20 <eshup1>
   149b8:	04c4d783          	lhu	a5,76(s1)
   149bc:	fff40413          	addi	s0,s0,-1
   149c0:	00090513          	mv	a0,s2
   149c4:	00fce7b3          	or	a5,s9,a5
   149c8:	04f49623          	sh	a5,76(s1)
   149cc:	b54ff0ef          	jal	ra,13d20 <eshup1>
   149d0:	f93454e3          	bge	s0,s3,14958 <eiremain+0x8c>
   149d4:	00040693          	mv	a3,s0
   149d8:	02812403          	lw	s0,40(sp)
   149dc:	02c12083          	lw	ra,44(sp)
   149e0:	01c12983          	lw	s3,28(sp)
   149e4:	01812a03          	lw	s4,24(sp)
   149e8:	01412a83          	lw	s5,20(sp)
   149ec:	01012b03          	lw	s6,16(sp)
   149f0:	00c12b83          	lw	s7,12(sp)
   149f4:	00812c03          	lw	s8,8(sp)
   149f8:	00412c83          	lw	s9,4(sp)
   149fc:	00012d03          	lw	s10,0(sp)
   14a00:	00048793          	mv	a5,s1
   14a04:	00090513          	mv	a0,s2
   14a08:	02412483          	lw	s1,36(sp)
   14a0c:	02012903          	lw	s2,32(sp)
   14a10:	00000713          	li	a4,0
   14a14:	00000613          	li	a2,0
   14a18:	00000593          	li	a1,0
   14a1c:	03010113          	addi	sp,sp,48
   14a20:	a11ff06f          	j	14430 <emdnorm>
   14a24:	00000c93          	li	s9,0
   14a28:	f8c6e4e3          	bltu	a3,a2,149b0 <eiremain+0xe4>
   14a2c:	f4dff06f          	j	14978 <eiremain+0xac>

00014a30 <e113toe.isra.0>:
   14a30:	fd010113          	addi	sp,sp,-48
   14a34:	02812423          	sw	s0,40(sp)
   14a38:	02112623          	sw	ra,44(sp)
   14a3c:	00058413          	mv	s0,a1
   14a40:	00410793          	addi	a5,sp,4
   14a44:	01e10713          	addi	a4,sp,30
   14a48:	00278793          	addi	a5,a5,2
   14a4c:	fe079f23          	sh	zero,-2(a5)
   14a50:	fee79ce3          	bne	a5,a4,14a48 <e113toe.isra.0+0x18>
   14a54:	00e55603          	lhu	a2,14(a0)
   14a58:	000087b7          	lui	a5,0x8
   14a5c:	fff78793          	addi	a5,a5,-1 # 7fff <exit-0x8095>
   14a60:	00f65713          	srli	a4,a2,0xf
   14a64:	40e00733          	neg	a4,a4
   14a68:	00e11223          	sh	a4,4(sp)
   14a6c:	00f67633          	and	a2,a2,a5
   14a70:	06f60063          	beq	a2,a5,14ad0 <e113toe.isra.0+0xa0>
   14a74:	00e50793          	addi	a5,a0,14
   14a78:	00c11323          	sh	a2,6(sp)
   14a7c:	00a10713          	addi	a4,sp,10
   14a80:	ffe7d683          	lhu	a3,-2(a5)
   14a84:	ffe78793          	addi	a5,a5,-2
   14a88:	00270713          	addi	a4,a4,2
   14a8c:	fed71f23          	sh	a3,-2(a4)
   14a90:	fef518e3          	bne	a0,a5,14a80 <e113toe.isra.0+0x50>
   14a94:	02061263          	bnez	a2,14ab8 <e113toe.isra.0+0x88>
   14a98:	00011423          	sh	zero,8(sp)
   14a9c:	00040593          	mv	a1,s0
   14aa0:	00410513          	addi	a0,sp,4
   14aa4:	ba0ff0ef          	jal	ra,13e44 <emovo.constprop.0>
   14aa8:	02c12083          	lw	ra,44(sp)
   14aac:	02812403          	lw	s0,40(sp)
   14ab0:	03010113          	addi	sp,sp,48
   14ab4:	00008067          	ret
   14ab8:	00100793          	li	a5,1
   14abc:	fff00593          	li	a1,-1
   14ac0:	00410513          	addi	a0,sp,4
   14ac4:	00f11423          	sh	a5,8(sp)
   14ac8:	dacff0ef          	jal	ra,14074 <eshift.part.0>
   14acc:	fd1ff06f          	j	14a9c <e113toe.isra.0+0x6c>
   14ad0:	00050793          	mv	a5,a0
   14ad4:	00e50693          	addi	a3,a0,14
   14ad8:	0007d703          	lhu	a4,0(a5)
   14adc:	00278793          	addi	a5,a5,2
   14ae0:	06071c63          	bnez	a4,14b58 <e113toe.isra.0+0x128>
   14ae4:	fed79ae3          	bne	a5,a3,14ad8 <e113toe.isra.0+0xa8>
   14ae8:	01440713          	addi	a4,s0,20
   14aec:	00040793          	mv	a5,s0
   14af0:	00278793          	addi	a5,a5,2
   14af4:	fe079f23          	sh	zero,-2(a5)
   14af8:	fee79ce3          	bne	a5,a4,14af0 <e113toe.isra.0+0xc0>
   14afc:	01240713          	addi	a4,s0,18
   14b00:	00040793          	mv	a5,s0
   14b04:	00278793          	addi	a5,a5,2
   14b08:	fe079f23          	sh	zero,-2(a5)
   14b0c:	fee79ce3          	bne	a5,a4,14b04 <e113toe.isra.0+0xd4>
   14b10:	01245783          	lhu	a5,18(s0)
   14b14:	000086b7          	lui	a3,0x8
   14b18:	fff68693          	addi	a3,a3,-1 # 7fff <exit-0x8095>
   14b1c:	00d7e7b3          	or	a5,a5,a3
   14b20:	01079793          	slli	a5,a5,0x10
   14b24:	0107d793          	srli	a5,a5,0x10
   14b28:	00f41923          	sh	a5,18(s0)
   14b2c:	00e51683          	lh	a3,14(a0)
   14b30:	f606dce3          	bgez	a3,14aa8 <e113toe.isra.0+0x78>
   14b34:	00040693          	mv	a3,s0
   14b38:	0006d603          	lhu	a2,0(a3)
   14b3c:	00268693          	addi	a3,a3,2
   14b40:	f60614e3          	bnez	a2,14aa8 <e113toe.isra.0+0x78>
   14b44:	fee69ae3          	bne	a3,a4,14b38 <e113toe.isra.0+0x108>
   14b48:	ffff8737          	lui	a4,0xffff8
   14b4c:	00e7c7b3          	xor	a5,a5,a4
   14b50:	00f41923          	sh	a5,18(s0)
   14b54:	f55ff06f          	j	14aa8 <e113toe.isra.0+0x78>
   14b58:	01040713          	addi	a4,s0,16
   14b5c:	00040793          	mv	a5,s0
   14b60:	00278793          	addi	a5,a5,2
   14b64:	fe079f23          	sh	zero,-2(a5)
   14b68:	fee79ce3          	bne	a5,a4,14b60 <e113toe.isra.0+0x130>
   14b6c:	ffffc7b7          	lui	a5,0xffffc
   14b70:	00f41823          	sh	a5,16(s0)
   14b74:	ffff87b7          	lui	a5,0xffff8
   14b78:	fff7c793          	not	a5,a5
   14b7c:	00f41923          	sh	a5,18(s0)
   14b80:	f29ff06f          	j	14aa8 <e113toe.isra.0+0x78>

00014b84 <ediv>:
   14b84:	01255783          	lhu	a5,18(a0)
   14b88:	f5010113          	addi	sp,sp,-176
   14b8c:	0a812423          	sw	s0,168(sp)
   14b90:	fff7c793          	not	a5,a5
   14b94:	0a912223          	sw	s1,164(sp)
   14b98:	0b212023          	sw	s2,160(sp)
   14b9c:	09312e23          	sw	s3,156(sp)
   14ba0:	0a112623          	sw	ra,172(sp)
   14ba4:	09412c23          	sw	s4,152(sp)
   14ba8:	09512a23          	sw	s5,148(sp)
   14bac:	09612823          	sw	s6,144(sp)
   14bb0:	09712623          	sw	s7,140(sp)
   14bb4:	09812423          	sw	s8,136(sp)
   14bb8:	09912223          	sw	s9,132(sp)
   14bbc:	09a12023          	sw	s10,128(sp)
   14bc0:	07b12e23          	sw	s11,124(sp)
   14bc4:	01179713          	slli	a4,a5,0x11
   14bc8:	00050493          	mv	s1,a0
   14bcc:	00058993          	mv	s3,a1
   14bd0:	00060413          	mv	s0,a2
   14bd4:	00068913          	mv	s2,a3
   14bd8:	00071e63          	bnez	a4,14bf4 <ediv+0x70>
   14bdc:	01250693          	addi	a3,a0,18
   14be0:	00050793          	mv	a5,a0
   14be4:	0007d703          	lhu	a4,0(a5) # ffff8000 <__BSS_END__+0xfffd1518>
   14be8:	00278793          	addi	a5,a5,2
   14bec:	0e071e63          	bnez	a4,14ce8 <ediv+0x164>
   14bf0:	fed79ae3          	bne	a5,a3,14be4 <ediv+0x60>
   14bf4:	0129d783          	lhu	a5,18(s3)
   14bf8:	fff7c793          	not	a5,a5
   14bfc:	01179713          	slli	a4,a5,0x11
   14c00:	00071e63          	bnez	a4,14c1c <ediv+0x98>
   14c04:	01298693          	addi	a3,s3,18
   14c08:	00098793          	mv	a5,s3
   14c0c:	0007d703          	lhu	a4,0(a5)
   14c10:	00278793          	addi	a5,a5,2
   14c14:	0e071863          	bnez	a4,14d04 <ediv+0x180>
   14c18:	fed79ae3          	bne	a5,a3,14c0c <ediv+0x88>
   14c1c:	00025a37          	lui	s4,0x25
   14c20:	628a0593          	addi	a1,s4,1576 # 25628 <ezero>
   14c24:	00048513          	mv	a0,s1
   14c28:	ebcff0ef          	jal	ra,142e4 <ecmp>
   14c2c:	18050a63          	beqz	a0,14dc0 <ediv+0x23c>
   14c30:	0124d603          	lhu	a2,18(s1)
   14c34:	000087b7          	lui	a5,0x8
   14c38:	fff78793          	addi	a5,a5,-1 # 7fff <exit-0x8095>
   14c3c:	00f67533          	and	a0,a2,a5
   14c40:	0ef51063          	bne	a0,a5,14d20 <ediv+0x19c>
   14c44:	01248693          	addi	a3,s1,18
   14c48:	00048793          	mv	a5,s1
   14c4c:	0007d703          	lhu	a4,0(a5)
   14c50:	00278793          	addi	a5,a5,2
   14c54:	0c071663          	bnez	a4,14d20 <ediv+0x19c>
   14c58:	fed79ae3          	bne	a5,a3,14c4c <ediv+0xc8>
   14c5c:	0129d703          	lhu	a4,18(s3)
   14c60:	fff74793          	not	a5,a4
   14c64:	01179693          	slli	a3,a5,0x11
   14c68:	14069263          	bnez	a3,14dac <ediv+0x228>
   14c6c:	01298693          	addi	a3,s3,18
   14c70:	00098793          	mv	a5,s3
   14c74:	0007d583          	lhu	a1,0(a5)
   14c78:	00278793          	addi	a5,a5,2
   14c7c:	48059a63          	bnez	a1,15110 <ediv+0x58c>
   14c80:	fed79ae3          	bne	a5,a3,14c74 <ediv+0xf0>
   14c84:	01040713          	addi	a4,s0,16
   14c88:	00040793          	mv	a5,s0
   14c8c:	00278793          	addi	a5,a5,2
   14c90:	fe079f23          	sh	zero,-2(a5)
   14c94:	fee79ce3          	bne	a5,a4,14c8c <ediv+0x108>
   14c98:	ffffc7b7          	lui	a5,0xffffc
   14c9c:	00f41823          	sh	a5,16(s0)
   14ca0:	ffff87b7          	lui	a5,0xffff8
   14ca4:	fff7c793          	not	a5,a5
   14ca8:	00f41923          	sh	a5,18(s0)
   14cac:	0ac12083          	lw	ra,172(sp)
   14cb0:	0a812403          	lw	s0,168(sp)
   14cb4:	0a412483          	lw	s1,164(sp)
   14cb8:	0a012903          	lw	s2,160(sp)
   14cbc:	09c12983          	lw	s3,156(sp)
   14cc0:	09812a03          	lw	s4,152(sp)
   14cc4:	09412a83          	lw	s5,148(sp)
   14cc8:	09012b03          	lw	s6,144(sp)
   14ccc:	08c12b83          	lw	s7,140(sp)
   14cd0:	08812c03          	lw	s8,136(sp)
   14cd4:	08412c83          	lw	s9,132(sp)
   14cd8:	08012d03          	lw	s10,128(sp)
   14cdc:	07c12d83          	lw	s11,124(sp)
   14ce0:	0b010113          	addi	sp,sp,176
   14ce4:	00008067          	ret
   14ce8:	01448713          	addi	a4,s1,20
   14cec:	0004d783          	lhu	a5,0(s1)
   14cf0:	00248493          	addi	s1,s1,2
   14cf4:	00240413          	addi	s0,s0,2
   14cf8:	fef41f23          	sh	a5,-2(s0)
   14cfc:	fee498e3          	bne	s1,a4,14cec <ediv+0x168>
   14d00:	fadff06f          	j	14cac <ediv+0x128>
   14d04:	01440713          	addi	a4,s0,20
   14d08:	0009d783          	lhu	a5,0(s3)
   14d0c:	00240413          	addi	s0,s0,2
   14d10:	00298993          	addi	s3,s3,2
   14d14:	fef41f23          	sh	a5,-2(s0)
   14d18:	fee418e3          	bne	s0,a4,14d08 <ediv+0x184>
   14d1c:	f91ff06f          	j	14cac <ediv+0x128>
   14d20:	0129d703          	lhu	a4,18(s3)
   14d24:	fff74793          	not	a5,a4
   14d28:	01179693          	slli	a3,a5,0x11
   14d2c:	0a069463          	bnez	a3,14dd4 <ediv+0x250>
   14d30:	00000813          	li	a6,0
   14d34:	01298693          	addi	a3,s3,18
   14d38:	00098793          	mv	a5,s3
   14d3c:	0007d583          	lhu	a1,0(a5) # ffff8000 <__BSS_END__+0xfffd1518>
   14d40:	00278793          	addi	a5,a5,2
   14d44:	06059263          	bnez	a1,14da8 <ediv+0x224>
   14d48:	fed79ae3          	bne	a5,a3,14d3c <ediv+0x1b8>
   14d4c:	000087b7          	lui	a5,0x8
   14d50:	fff78793          	addi	a5,a5,-1 # 7fff <exit-0x8095>
   14d54:	0cf50863          	beq	a0,a5,14e24 <ediv+0x2a0>
   14d58:	00f65613          	srli	a2,a2,0xf
   14d5c:	0009d783          	lhu	a5,0(s3)
   14d60:	00298993          	addi	s3,s3,2
   14d64:	38079e63          	bnez	a5,15100 <ediv+0x57c>
   14d68:	fed99ae3          	bne	s3,a3,14d5c <ediv+0x1d8>
   14d6c:	00f75793          	srli	a5,a4,0xf
   14d70:	00c7c7b3          	xor	a5,a5,a2
   14d74:	00f79793          	slli	a5,a5,0xf
   14d78:	00f41923          	sh	a5,18(s0)
   14d7c:	01240713          	addi	a4,s0,18
   14d80:	00040793          	mv	a5,s0
   14d84:	00278793          	addi	a5,a5,2
   14d88:	fe079f23          	sh	zero,-2(a5)
   14d8c:	fee79ce3          	bne	a5,a4,14d84 <ediv+0x200>
   14d90:	01245783          	lhu	a5,18(s0)
   14d94:	00008737          	lui	a4,0x8
   14d98:	fff70713          	addi	a4,a4,-1 # 7fff <exit-0x8095>
   14d9c:	00e7e7b3          	or	a5,a5,a4
   14da0:	00f41923          	sh	a5,18(s0)
   14da4:	f09ff06f          	j	14cac <ediv+0x128>
   14da8:	02080663          	beqz	a6,14dd4 <ediv+0x250>
   14dac:	01440793          	addi	a5,s0,20
   14db0:	00240413          	addi	s0,s0,2
   14db4:	fe041f23          	sh	zero,-2(s0)
   14db8:	fef41ce3          	bne	s0,a5,14db0 <ediv+0x22c>
   14dbc:	ef1ff06f          	j	14cac <ediv+0x128>
   14dc0:	628a0593          	addi	a1,s4,1576
   14dc4:	00098513          	mv	a0,s3
   14dc8:	d1cff0ef          	jal	ra,142e4 <ecmp>
   14dcc:	e60512e3          	bnez	a0,14c30 <ediv+0xac>
   14dd0:	eb5ff06f          	j	14c84 <ediv+0x100>
   14dd4:	01c10593          	addi	a1,sp,28
   14dd8:	00048513          	mv	a0,s1
   14ddc:	c54ff0ef          	jal	ra,14230 <emovi>
   14de0:	03810593          	addi	a1,sp,56
   14de4:	00098513          	mv	a0,s3
   14de8:	c48ff0ef          	jal	ra,14230 <emovi>
   14dec:	03a15b03          	lhu	s6,58(sp)
   14df0:	01e15c03          	lhu	s8,30(sp)
   14df4:	040b1463          	bnez	s6,14e3c <ediv+0x2b8>
   14df8:	03a10793          	addi	a5,sp,58
   14dfc:	05010c93          	addi	s9,sp,80
   14e00:	0007d703          	lhu	a4,0(a5)
   14e04:	00278793          	addi	a5,a5,2
   14e08:	2c071863          	bnez	a4,150d8 <ediv+0x554>
   14e0c:	fefc9ae3          	bne	s9,a5,14e00 <ediv+0x27c>
   14e10:	01440793          	addi	a5,s0,20
   14e14:	00240413          	addi	s0,s0,2
   14e18:	fe041f23          	sh	zero,-2(s0)
   14e1c:	fef41ce3          	bne	s0,a5,14e14 <ediv+0x290>
   14e20:	e8dff06f          	j	14cac <ediv+0x128>
   14e24:	01248593          	addi	a1,s1,18
   14e28:	0004d783          	lhu	a5,0(s1)
   14e2c:	00248493          	addi	s1,s1,2
   14e30:	2c079c63          	bnez	a5,15108 <ediv+0x584>
   14e34:	feb49ae3          	bne	s1,a1,14e28 <ediv+0x2a4>
   14e38:	f21ff06f          	j	14d58 <ediv+0x1d4>
   14e3c:	01612223          	sw	s6,4(sp)
   14e40:	040c1663          	bnez	s8,14e8c <ediv+0x308>
   14e44:	01e10793          	addi	a5,sp,30
   14e48:	03410693          	addi	a3,sp,52
   14e4c:	0007d703          	lhu	a4,0(a5)
   14e50:	00278793          	addi	a5,a5,2
   14e54:	28071c63          	bnez	a4,150ec <ediv+0x568>
   14e58:	fed79ae3          	bne	a5,a3,14e4c <ediv+0x2c8>
   14e5c:	01c15683          	lhu	a3,28(sp)
   14e60:	03815603          	lhu	a2,56(sp)
   14e64:	01240713          	addi	a4,s0,18
   14e68:	00040793          	mv	a5,s0
   14e6c:	40c686b3          	sub	a3,a3,a2
   14e70:	00d036b3          	snez	a3,a3
   14e74:	00f69693          	slli	a3,a3,0xf
   14e78:	00d41923          	sh	a3,18(s0)
   14e7c:	00278793          	addi	a5,a5,2
   14e80:	fe079f23          	sh	zero,-2(a5)
   14e84:	fee79ce3          	bne	a5,a4,14e7c <ediv+0x2f8>
   14e88:	f09ff06f          	j	14d90 <ediv+0x20c>
   14e8c:	01812423          	sw	s8,8(sp)
   14e90:	03490793          	addi	a5,s2,52
   14e94:	00f12623          	sw	a5,12(sp)
   14e98:	03812783          	lw	a5,56(sp)
   14e9c:	03890493          	addi	s1,s2,56
   14ea0:	04e90993          	addi	s3,s2,78
   14ea4:	02f92a23          	sw	a5,52(s2)
   14ea8:	00048793          	mv	a5,s1
   14eac:	00278793          	addi	a5,a5,2
   14eb0:	fe079f23          	sh	zero,-2(a5)
   14eb4:	ff379ce3          	bne	a5,s3,14eac <ediv+0x328>
   14eb8:	03810513          	addi	a0,sp,56
   14ebc:	e11fe0ef          	jal	ra,13ccc <eshdn1>
   14ec0:	02215b83          	lhu	s7,34(sp)
   14ec4:	00010a37          	lui	s4,0x10
   14ec8:	03a10d13          	addi	s10,sp,58
   14ecc:	010b9a93          	slli	s5,s7,0x10
   14ed0:	417a8ab3          	sub	s5,s5,s7
   14ed4:	05010c93          	addi	s9,sp,80
   14ed8:	fffa0a13          	addi	s4,s4,-1 # ffff <exit-0x95>
   14edc:	06e10d93          	addi	s11,sp,110
   14ee0:	05610c13          	addi	s8,sp,86
   14ee4:	03c15503          	lhu	a0,60(sp)
   14ee8:	03e15783          	lhu	a5,62(sp)
   14eec:	000a0b13          	mv	s6,s4
   14ef0:	01051513          	slli	a0,a0,0x10
   14ef4:	00f50533          	add	a0,a0,a5
   14ef8:	00aaea63          	bltu	s5,a0,14f0c <ediv+0x388>
   14efc:	000b8593          	mv	a1,s7
   14f00:	064100ef          	jal	ra,24f64 <__hidden___udivsi3>
   14f04:	01051b13          	slli	s6,a0,0x10
   14f08:	010b5b13          	srli	s6,s6,0x10
   14f0c:	05410613          	addi	a2,sp,84
   14f10:	01c10593          	addi	a1,sp,28
   14f14:	000b0513          	mv	a0,s6
   14f18:	e5dfe0ef          	jal	ra,13d74 <m16m>
   14f1c:	03c10713          	addi	a4,sp,60
   14f20:	05810793          	addi	a5,sp,88
   14f24:	0007d603          	lhu	a2,0(a5)
   14f28:	00075683          	lhu	a3,0(a4)
   14f2c:	00278793          	addi	a5,a5,2
   14f30:	00270713          	addi	a4,a4,2
   14f34:	0ed61863          	bne	a2,a3,15024 <ediv+0x4a0>
   14f38:	ffb796e3          	bne	a5,s11,14f24 <ediv+0x3a0>
   14f3c:	00000693          	li	a3,0
   14f40:	06c10613          	addi	a2,sp,108
   14f44:	000c8793          	mv	a5,s9
   14f48:	0007d703          	lhu	a4,0(a5)
   14f4c:	00065583          	lhu	a1,0(a2)
   14f50:	ffe78793          	addi	a5,a5,-2
   14f54:	ffe60613          	addi	a2,a2,-2
   14f58:	40b70733          	sub	a4,a4,a1
   14f5c:	40d70733          	sub	a4,a4,a3
   14f60:	01075693          	srli	a3,a4,0x10
   14f64:	00e79123          	sh	a4,2(a5)
   14f68:	0016f693          	andi	a3,a3,1
   14f6c:	fda79ee3          	bne	a5,s10,14f48 <ediv+0x3c4>
   14f70:	01649023          	sh	s6,0(s1)
   14f74:	03c10793          	addi	a5,sp,60
   14f78:	0027d703          	lhu	a4,2(a5)
   14f7c:	00278793          	addi	a5,a5,2
   14f80:	fee79f23          	sh	a4,-2(a5)
   14f84:	ff979ae3          	bne	a5,s9,14f78 <ediv+0x3f4>
   14f88:	04011823          	sh	zero,80(sp)
   14f8c:	00248493          	addi	s1,s1,2
   14f90:	f4999ae3          	bne	s3,s1,14ee4 <ediv+0x360>
   14f94:	00000713          	li	a4,0
   14f98:	03c10793          	addi	a5,sp,60
   14f9c:	05210693          	addi	a3,sp,82
   14fa0:	0007d603          	lhu	a2,0(a5)
   14fa4:	00278793          	addi	a5,a5,2
   14fa8:	00c76733          	or	a4,a4,a2
   14fac:	fed79ae3          	bne	a5,a3,14fa0 <ediv+0x41c>
   14fb0:	00c12483          	lw	s1,12(sp)
   14fb4:	00e035b3          	snez	a1,a4
   14fb8:	03810793          	addi	a5,sp,56
   14fbc:	0004d703          	lhu	a4,0(s1)
   14fc0:	00278793          	addi	a5,a5,2
   14fc4:	00248493          	addi	s1,s1,2
   14fc8:	fee79f23          	sh	a4,-2(a5)
   14fcc:	fef698e3          	bne	a3,a5,14fbc <ediv+0x438>
   14fd0:	00412783          	lw	a5,4(sp)
   14fd4:	00812703          	lw	a4,8(sp)
   14fd8:	000046b7          	lui	a3,0x4
   14fdc:	fff68693          	addi	a3,a3,-1 # 3fff <exit-0xc095>
   14fe0:	40e78b33          	sub	s6,a5,a4
   14fe4:	03810513          	addi	a0,sp,56
   14fe8:	00090793          	mv	a5,s2
   14fec:	04000713          	li	a4,64
   14ff0:	00db06b3          	add	a3,s6,a3
   14ff4:	00000613          	li	a2,0
   14ff8:	c38ff0ef          	jal	ra,14430 <emdnorm>
   14ffc:	03815703          	lhu	a4,56(sp)
   15000:	01c15783          	lhu	a5,28(sp)
   15004:	00040593          	mv	a1,s0
   15008:	03810513          	addi	a0,sp,56
   1500c:	40e787b3          	sub	a5,a5,a4
   15010:	00f037b3          	snez	a5,a5
   15014:	40f007b3          	neg	a5,a5
   15018:	02f11c23          	sh	a5,56(sp)
   1501c:	e29fe0ef          	jal	ra,13e44 <emovo.constprop.0>
   15020:	c8dff06f          	j	14cac <ediv+0x128>
   15024:	f0c6fce3          	bgeu	a3,a2,14f3c <ediv+0x3b8>
   15028:	fffb0793          	addi	a5,s6,-1
   1502c:	01079513          	slli	a0,a5,0x10
   15030:	01055513          	srli	a0,a0,0x10
   15034:	00000693          	li	a3,0
   15038:	03410613          	addi	a2,sp,52
   1503c:	06c10713          	addi	a4,sp,108
   15040:	00075783          	lhu	a5,0(a4)
   15044:	00065583          	lhu	a1,0(a2)
   15048:	ffe70713          	addi	a4,a4,-2
   1504c:	ffe60613          	addi	a2,a2,-2
   15050:	40b787b3          	sub	a5,a5,a1
   15054:	40d787b3          	sub	a5,a5,a3
   15058:	0107d693          	srli	a3,a5,0x10
   1505c:	00f71123          	sh	a5,2(a4)
   15060:	0016f693          	andi	a3,a3,1
   15064:	fd871ee3          	bne	a4,s8,15040 <ediv+0x4bc>
   15068:	03c10713          	addi	a4,sp,60
   1506c:	05810793          	addi	a5,sp,88
   15070:	0007d603          	lhu	a2,0(a5)
   15074:	00075683          	lhu	a3,0(a4)
   15078:	00278793          	addi	a5,a5,2
   1507c:	00270713          	addi	a4,a4,2
   15080:	00d61863          	bne	a2,a3,15090 <ediv+0x50c>
   15084:	ffb796e3          	bne	a5,s11,15070 <ediv+0x4ec>
   15088:	00050b13          	mv	s6,a0
   1508c:	eb1ff06f          	j	14f3c <ediv+0x3b8>
   15090:	fec6fce3          	bgeu	a3,a2,15088 <ediv+0x504>
   15094:	ffeb0313          	addi	t1,s6,-2
   15098:	01031b13          	slli	s6,t1,0x10
   1509c:	010b5b13          	srli	s6,s6,0x10
   150a0:	00000693          	li	a3,0
   150a4:	03410613          	addi	a2,sp,52
   150a8:	06c10713          	addi	a4,sp,108
   150ac:	00075783          	lhu	a5,0(a4)
   150b0:	00065583          	lhu	a1,0(a2)
   150b4:	ffe70713          	addi	a4,a4,-2
   150b8:	ffe60613          	addi	a2,a2,-2
   150bc:	40b787b3          	sub	a5,a5,a1
   150c0:	40d787b3          	sub	a5,a5,a3
   150c4:	0107d693          	srli	a3,a5,0x10
   150c8:	00f71123          	sh	a5,2(a4)
   150cc:	0016f693          	andi	a3,a3,1
   150d0:	fd871ee3          	bne	a4,s8,150ac <ediv+0x528>
   150d4:	e69ff06f          	j	14f3c <ediv+0x3b8>
   150d8:	03810513          	addi	a0,sp,56
   150dc:	e25fe0ef          	jal	ra,13f00 <enormlz>
   150e0:	40a007b3          	neg	a5,a0
   150e4:	00f12223          	sw	a5,4(sp)
   150e8:	d59ff06f          	j	14e40 <ediv+0x2bc>
   150ec:	01c10513          	addi	a0,sp,28
   150f0:	e11fe0ef          	jal	ra,13f00 <enormlz>
   150f4:	40a007b3          	neg	a5,a0
   150f8:	00f12423          	sw	a5,8(sp)
   150fc:	d95ff06f          	j	14e90 <ediv+0x30c>
   15100:	00000793          	li	a5,0
   15104:	c6dff06f          	j	14d70 <ediv+0x1ec>
   15108:	00000613          	li	a2,0
   1510c:	c51ff06f          	j	14d5c <ediv+0x1d8>
   15110:	00100813          	li	a6,1
   15114:	c25ff06f          	j	14d38 <ediv+0x1b4>

00015118 <emul>:
   15118:	01255803          	lhu	a6,18(a0)
   1511c:	00008737          	lui	a4,0x8
   15120:	f7010113          	addi	sp,sp,-144
   15124:	fff70713          	addi	a4,a4,-1 # 7fff <exit-0x8095>
   15128:	08812423          	sw	s0,136(sp)
   1512c:	08912223          	sw	s1,132(sp)
   15130:	09212023          	sw	s2,128(sp)
   15134:	07512a23          	sw	s5,116(sp)
   15138:	00050493          	mv	s1,a0
   1513c:	08112623          	sw	ra,140(sp)
   15140:	07312e23          	sw	s3,124(sp)
   15144:	07412c23          	sw	s4,120(sp)
   15148:	07612823          	sw	s6,112(sp)
   1514c:	07712623          	sw	s7,108(sp)
   15150:	07812423          	sw	s8,104(sp)
   15154:	07912223          	sw	s9,100(sp)
   15158:	07a12023          	sw	s10,96(sp)
   1515c:	00e87533          	and	a0,a6,a4
   15160:	00058913          	mv	s2,a1
   15164:	00060413          	mv	s0,a2
   15168:	00068a93          	mv	s5,a3
   1516c:	16e51e63          	bne	a0,a4,152e8 <emul+0x1d0>
   15170:	01248993          	addi	s3,s1,18
   15174:	00048713          	mv	a4,s1
   15178:	00075603          	lhu	a2,0(a4)
   1517c:	00270713          	addi	a4,a4,2
   15180:	1e061c63          	bnez	a2,15378 <emul+0x260>
   15184:	ff371ae3          	bne	a4,s3,15178 <emul+0x60>
   15188:	01295603          	lhu	a2,18(s2)
   1518c:	fff64793          	not	a5,a2
   15190:	01179713          	slli	a4,a5,0x11
   15194:	16070063          	beqz	a4,152f4 <emul+0x1dc>
   15198:	00048793          	mv	a5,s1
   1519c:	0007d703          	lhu	a4,0(a5)
   151a0:	00278793          	addi	a5,a5,2
   151a4:	28071063          	bnez	a4,15424 <emul+0x30c>
   151a8:	ff379ae3          	bne	a5,s3,1519c <emul+0x84>
   151ac:	000255b7          	lui	a1,0x25
   151b0:	62858593          	addi	a1,a1,1576 # 25628 <ezero>
   151b4:	00090513          	mv	a0,s2
   151b8:	92cff0ef          	jal	ra,142e4 <ecmp>
   151bc:	28050063          	beqz	a0,1543c <emul+0x324>
   151c0:	01295603          	lhu	a2,18(s2)
   151c4:	00008737          	lui	a4,0x8
   151c8:	fff70713          	addi	a4,a4,-1 # 7fff <exit-0x8095>
   151cc:	00e676b3          	and	a3,a2,a4
   151d0:	01290793          	addi	a5,s2,18
   151d4:	40e69263          	bne	a3,a4,155d8 <emul+0x4c0>
   151d8:	00090713          	mv	a4,s2
   151dc:	00075683          	lhu	a3,0(a4)
   151e0:	00270713          	addi	a4,a4,2
   151e4:	1e069c63          	bnez	a3,153dc <emul+0x2c4>
   151e8:	fef71ae3          	bne	a4,a5,151dc <emul+0xc4>
   151ec:	000255b7          	lui	a1,0x25
   151f0:	62858593          	addi	a1,a1,1576 # 25628 <ezero>
   151f4:	00048513          	mv	a0,s1
   151f8:	8ecff0ef          	jal	ra,142e4 <ecmp>
   151fc:	24050063          	beqz	a0,1543c <emul+0x324>
   15200:	0124d803          	lhu	a6,18(s1)
   15204:	01295603          	lhu	a2,18(s2)
   15208:	000087b7          	lui	a5,0x8
   1520c:	fff78793          	addi	a5,a5,-1 # 7fff <exit-0x8095>
   15210:	00f87733          	and	a4,a6,a5
   15214:	00f676b3          	and	a3,a2,a5
   15218:	1cf70c63          	beq	a4,a5,153f0 <emul+0x2d8>
   1521c:	00068593          	mv	a1,a3
   15220:	00070693          	mv	a3,a4
   15224:	000087b7          	lui	a5,0x8
   15228:	fff78793          	addi	a5,a5,-1 # 7fff <exit-0x8095>
   1522c:	0ef59c63          	bne	a1,a5,15324 <emul+0x20c>
   15230:	01290793          	addi	a5,s2,18
   15234:	00090713          	mv	a4,s2
   15238:	00075583          	lhu	a1,0(a4)
   1523c:	00270713          	addi	a4,a4,2
   15240:	0e059263          	bnez	a1,15324 <emul+0x20c>
   15244:	fee79ae3          	bne	a5,a4,15238 <emul+0x120>
   15248:	00008737          	lui	a4,0x8
   1524c:	fff70713          	addi	a4,a4,-1 # 7fff <exit-0x8095>
   15250:	01248993          	addi	s3,s1,18
   15254:	20e69a63          	bne	a3,a4,15468 <emul+0x350>
   15258:	0004d783          	lhu	a5,0(s1)
   1525c:	00248493          	addi	s1,s1,2
   15260:	20079c63          	bnez	a5,15478 <emul+0x360>
   15264:	fe999ae3          	bne	s3,s1,15258 <emul+0x140>
   15268:	00f85813          	srli	a6,a6,0xf
   1526c:	000087b7          	lui	a5,0x8
   15270:	fff78793          	addi	a5,a5,-1 # 7fff <exit-0x8095>
   15274:	18f68c63          	beq	a3,a5,1540c <emul+0x2f4>
   15278:	00f65793          	srli	a5,a2,0xf
   1527c:	0107c7b3          	xor	a5,a5,a6
   15280:	00f79793          	slli	a5,a5,0xf
   15284:	00f41923          	sh	a5,18(s0)
   15288:	01240713          	addi	a4,s0,18
   1528c:	00040793          	mv	a5,s0
   15290:	00278793          	addi	a5,a5,2
   15294:	fe079f23          	sh	zero,-2(a5)
   15298:	fee79ce3          	bne	a5,a4,15290 <emul+0x178>
   1529c:	01245783          	lhu	a5,18(s0)
   152a0:	00008737          	lui	a4,0x8
   152a4:	fff70713          	addi	a4,a4,-1 # 7fff <exit-0x8095>
   152a8:	00e7e7b3          	or	a5,a5,a4
   152ac:	00f41923          	sh	a5,18(s0)
   152b0:	08c12083          	lw	ra,140(sp)
   152b4:	08812403          	lw	s0,136(sp)
   152b8:	08412483          	lw	s1,132(sp)
   152bc:	08012903          	lw	s2,128(sp)
   152c0:	07c12983          	lw	s3,124(sp)
   152c4:	07812a03          	lw	s4,120(sp)
   152c8:	07412a83          	lw	s5,116(sp)
   152cc:	07012b03          	lw	s6,112(sp)
   152d0:	06c12b83          	lw	s7,108(sp)
   152d4:	06812c03          	lw	s8,104(sp)
   152d8:	06412c83          	lw	s9,100(sp)
   152dc:	06012d03          	lw	s10,96(sp)
   152e0:	09010113          	addi	sp,sp,144
   152e4:	00008067          	ret
   152e8:	0125d603          	lhu	a2,18(a1)
   152ec:	00e677b3          	and	a5,a2,a4
   152f0:	02e79a63          	bne	a5,a4,15324 <emul+0x20c>
   152f4:	01290793          	addi	a5,s2,18
   152f8:	00090713          	mv	a4,s2
   152fc:	00075683          	lhu	a3,0(a4)
   15300:	00270713          	addi	a4,a4,2
   15304:	08069863          	bnez	a3,15394 <emul+0x27c>
   15308:	fef71ae3          	bne	a4,a5,152fc <emul+0x1e4>
   1530c:	00008737          	lui	a4,0x8
   15310:	fff70713          	addi	a4,a4,-1 # 7fff <exit-0x8095>
   15314:	01248993          	addi	s3,s1,18
   15318:	e8e500e3          	beq	a0,a4,15198 <emul+0x80>
   1531c:	00e676b3          	and	a3,a2,a4
   15320:	eae68ce3          	beq	a3,a4,151d8 <emul+0xc0>
   15324:	00048513          	mv	a0,s1
   15328:	00c10593          	addi	a1,sp,12
   1532c:	f05fe0ef          	jal	ra,14230 <emovi>
   15330:	00090513          	mv	a0,s2
   15334:	02810593          	addi	a1,sp,40
   15338:	ef9fe0ef          	jal	ra,14230 <emovi>
   1533c:	00e15903          	lhu	s2,14(sp)
   15340:	02a15483          	lhu	s1,42(sp)
   15344:	06090663          	beqz	s2,153b0 <emul+0x298>
   15348:	14049463          	bnez	s1,15490 <emul+0x378>
   1534c:	02a10793          	addi	a5,sp,42
   15350:	04010693          	addi	a3,sp,64
   15354:	0007d703          	lhu	a4,0(a5)
   15358:	00278793          	addi	a5,a5,2
   1535c:	26071463          	bnez	a4,155c4 <emul+0x4ac>
   15360:	fed79ae3          	bne	a5,a3,15354 <emul+0x23c>
   15364:	01440793          	addi	a5,s0,20
   15368:	00240413          	addi	s0,s0,2
   1536c:	fe041f23          	sh	zero,-2(s0)
   15370:	fe879ce3          	bne	a5,s0,15368 <emul+0x250>
   15374:	f3dff06f          	j	152b0 <emul+0x198>
   15378:	01440713          	addi	a4,s0,20
   1537c:	0004d783          	lhu	a5,0(s1)
   15380:	00240413          	addi	s0,s0,2
   15384:	00248493          	addi	s1,s1,2
   15388:	fef41f23          	sh	a5,-2(s0)
   1538c:	fee418e3          	bne	s0,a4,1537c <emul+0x264>
   15390:	f21ff06f          	j	152b0 <emul+0x198>
   15394:	01490713          	addi	a4,s2,20
   15398:	00095783          	lhu	a5,0(s2)
   1539c:	00290913          	addi	s2,s2,2
   153a0:	00240413          	addi	s0,s0,2
   153a4:	fef41f23          	sh	a5,-2(s0)
   153a8:	ff2718e3          	bne	a4,s2,15398 <emul+0x280>
   153ac:	f05ff06f          	j	152b0 <emul+0x198>
   153b0:	00e10793          	addi	a5,sp,14
   153b4:	02410693          	addi	a3,sp,36
   153b8:	0007d703          	lhu	a4,0(a5)
   153bc:	00278793          	addi	a5,a5,2
   153c0:	1e071a63          	bnez	a4,155b4 <emul+0x49c>
   153c4:	fef69ae3          	bne	a3,a5,153b8 <emul+0x2a0>
   153c8:	01440793          	addi	a5,s0,20
   153cc:	00240413          	addi	s0,s0,2
   153d0:	fe041f23          	sh	zero,-2(s0)
   153d4:	fef41ce3          	bne	s0,a5,153cc <emul+0x2b4>
   153d8:	ed9ff06f          	j	152b0 <emul+0x198>
   153dc:	0124d803          	lhu	a6,18(s1)
   153e0:	00008737          	lui	a4,0x8
   153e4:	fff70713          	addi	a4,a4,-1 # 7fff <exit-0x8095>
   153e8:	00e876b3          	and	a3,a6,a4
   153ec:	e4e694e3          	bne	a3,a4,15234 <emul+0x11c>
   153f0:	01248993          	addi	s3,s1,18
   153f4:	00048793          	mv	a5,s1
   153f8:	0007d703          	lhu	a4,0(a5)
   153fc:	00278793          	addi	a5,a5,2
   15400:	08071063          	bnez	a4,15480 <emul+0x368>
   15404:	fef99ae3          	bne	s3,a5,153f8 <emul+0x2e0>
   15408:	e51ff06f          	j	15258 <emul+0x140>
   1540c:	01290793          	addi	a5,s2,18
   15410:	00095703          	lhu	a4,0(s2)
   15414:	00290913          	addi	s2,s2,2
   15418:	04071c63          	bnez	a4,15470 <emul+0x358>
   1541c:	ff279ae3          	bne	a5,s2,15410 <emul+0x2f8>
   15420:	e59ff06f          	j	15278 <emul+0x160>
   15424:	00008737          	lui	a4,0x8
   15428:	fff70713          	addi	a4,a4,-1 # 7fff <exit-0x8095>
   1542c:	00e676b3          	and	a3,a2,a4
   15430:	01290793          	addi	a5,s2,18
   15434:	dae682e3          	beq	a3,a4,151d8 <emul+0xc0>
   15438:	fbdff06f          	j	153f4 <emul+0x2dc>
   1543c:	01040713          	addi	a4,s0,16
   15440:	00040793          	mv	a5,s0
   15444:	00278793          	addi	a5,a5,2
   15448:	fe079f23          	sh	zero,-2(a5)
   1544c:	fee79ce3          	bne	a5,a4,15444 <emul+0x32c>
   15450:	ffffc7b7          	lui	a5,0xffffc
   15454:	00f41823          	sh	a5,16(s0)
   15458:	ffff87b7          	lui	a5,0xffff8
   1545c:	fff7c793          	not	a5,a5
   15460:	00f41923          	sh	a5,18(s0)
   15464:	e4dff06f          	j	152b0 <emul+0x198>
   15468:	00f85813          	srli	a6,a6,0xf
   1546c:	fa5ff06f          	j	15410 <emul+0x2f8>
   15470:	00000793          	li	a5,0
   15474:	e09ff06f          	j	1527c <emul+0x164>
   15478:	00000813          	li	a6,0
   1547c:	df1ff06f          	j	1526c <emul+0x154>
   15480:	00068593          	mv	a1,a3
   15484:	000086b7          	lui	a3,0x8
   15488:	fff68693          	addi	a3,a3,-1 # 7fff <exit-0x8095>
   1548c:	d99ff06f          	j	15224 <emul+0x10c>
   15490:	00048993          	mv	s3,s1
   15494:	02815783          	lhu	a5,40(sp)
   15498:	01049493          	slli	s1,s1,0x10
   1549c:	038a8a13          	addi	s4,s5,56
   154a0:	0097e7b3          	or	a5,a5,s1
   154a4:	02faaa23          	sw	a5,52(s5)
   154a8:	034a8493          	addi	s1,s5,52
   154ac:	000a0793          	mv	a5,s4
   154b0:	04ea8713          	addi	a4,s5,78
   154b4:	00079023          	sh	zero,0(a5) # ffff8000 <__BSS_END__+0xfffd1518>
   154b8:	00278793          	addi	a5,a5,2
   154bc:	fee79ce3          	bne	a5,a4,154b4 <emul+0x39c>
   154c0:	04ca8c93          	addi	s9,s5,76
   154c4:	00000c13          	li	s8,0
   154c8:	02410b13          	addi	s6,sp,36
   154cc:	01010d13          	addi	s10,sp,16
   154d0:	04610b93          	addi	s7,sp,70
   154d4:	000b5503          	lhu	a0,0(s6)
   154d8:	ffeb0b13          	addi	s6,s6,-2
   154dc:	08051a63          	bnez	a0,15570 <emul+0x458>
   154e0:	04cad783          	lhu	a5,76(s5)
   154e4:	000c8713          	mv	a4,s9
   154e8:	00fc6c33          	or	s8,s8,a5
   154ec:	ffe75603          	lhu	a2,-2(a4)
   154f0:	ffe70713          	addi	a4,a4,-2
   154f4:	00c71123          	sh	a2,2(a4)
   154f8:	feea1ae3          	bne	s4,a4,154ec <emul+0x3d4>
   154fc:	020a9c23          	sh	zero,56(s5)
   15500:	fdab1ae3          	bne	s6,s10,154d4 <emul+0x3bc>
   15504:	02810793          	addi	a5,sp,40
   15508:	04210693          	addi	a3,sp,66
   1550c:	0004d703          	lhu	a4,0(s1)
   15510:	00278793          	addi	a5,a5,2
   15514:	00248493          	addi	s1,s1,2
   15518:	fee79f23          	sh	a4,-2(a5)
   1551c:	fef698e3          	bne	a3,a5,1550c <emul+0x3f4>
   15520:	ffffc6b7          	lui	a3,0xffffc
   15524:	01390933          	add	s2,s2,s3
   15528:	00268693          	addi	a3,a3,2 # ffffc002 <__BSS_END__+0xfffd551a>
   1552c:	000c0593          	mv	a1,s8
   15530:	02810513          	addi	a0,sp,40
   15534:	000a8793          	mv	a5,s5
   15538:	04000713          	li	a4,64
   1553c:	00d906b3          	add	a3,s2,a3
   15540:	00000613          	li	a2,0
   15544:	eedfe0ef          	jal	ra,14430 <emdnorm>
   15548:	02815703          	lhu	a4,40(sp)
   1554c:	00c15783          	lhu	a5,12(sp)
   15550:	00040593          	mv	a1,s0
   15554:	02810513          	addi	a0,sp,40
   15558:	40e787b3          	sub	a5,a5,a4
   1555c:	00f037b3          	snez	a5,a5
   15560:	40f007b3          	neg	a5,a5
   15564:	02f11423          	sh	a5,40(sp)
   15568:	8ddfe0ef          	jal	ra,13e44 <emovo.constprop.0>
   1556c:	d45ff06f          	j	152b0 <emul+0x198>
   15570:	04410613          	addi	a2,sp,68
   15574:	02810593          	addi	a1,sp,40
   15578:	ffcfe0ef          	jal	ra,13d74 <m16m>
   1557c:	000c8513          	mv	a0,s9
   15580:	00000593          	li	a1,0
   15584:	05c10613          	addi	a2,sp,92
   15588:	00055783          	lhu	a5,0(a0)
   1558c:	00065703          	lhu	a4,0(a2)
   15590:	ffe50513          	addi	a0,a0,-2
   15594:	ffe60613          	addi	a2,a2,-2
   15598:	00f70733          	add	a4,a4,a5
   1559c:	00b70733          	add	a4,a4,a1
   155a0:	01075593          	srli	a1,a4,0x10
   155a4:	00e51123          	sh	a4,2(a0)
   155a8:	0015f593          	andi	a1,a1,1
   155ac:	fd761ee3          	bne	a2,s7,15588 <emul+0x470>
   155b0:	f31ff06f          	j	154e0 <emul+0x3c8>
   155b4:	00c10513          	addi	a0,sp,12
   155b8:	949fe0ef          	jal	ra,13f00 <enormlz>
   155bc:	40a00933          	neg	s2,a0
   155c0:	d89ff06f          	j	15348 <emul+0x230>
   155c4:	02810513          	addi	a0,sp,40
   155c8:	939fe0ef          	jal	ra,13f00 <enormlz>
   155cc:	40a009b3          	neg	s3,a0
   155d0:	02a15483          	lhu	s1,42(sp)
   155d4:	ec1ff06f          	j	15494 <emul+0x37c>
   155d8:	0124d803          	lhu	a6,18(s1)
   155dc:	00e877b3          	and	a5,a6,a4
   155e0:	e0e78ae3          	beq	a5,a4,153f4 <emul+0x2dc>
   155e4:	d41ff06f          	j	15324 <emul+0x20c>

000155e8 <_ldtoa_r>:
   155e8:	00c5a883          	lw	a7,12(a1)
   155ec:	e0010113          	addi	sp,sp,-512
   155f0:	0005ae83          	lw	t4,0(a1)
   155f4:	0045ae03          	lw	t3,4(a1)
   155f8:	0085a303          	lw	t1,8(a1)
   155fc:	05112623          	sw	a7,76(sp)
   15600:	04052583          	lw	a1,64(a0)
   15604:	fff00893          	li	a7,-1
   15608:	17112823          	sw	a7,368(sp)
   1560c:	09000893          	li	a7,144
   15610:	1e812c23          	sw	s0,504(sp)
   15614:	1f412423          	sw	s4,488(sp)
   15618:	1e112e23          	sw	ra,508(sp)
   1561c:	1e912a23          	sw	s1,500(sp)
   15620:	1f212823          	sw	s2,496(sp)
   15624:	1f312623          	sw	s3,492(sp)
   15628:	1f512223          	sw	s5,484(sp)
   1562c:	1f612023          	sw	s6,480(sp)
   15630:	1d712e23          	sw	s7,476(sp)
   15634:	1d812c23          	sw	s8,472(sp)
   15638:	1d912a23          	sw	s9,468(sp)
   1563c:	1da12823          	sw	s10,464(sp)
   15640:	1db12623          	sw	s11,460(sp)
   15644:	00a12023          	sw	a0,0(sp)
   15648:	05d12023          	sw	t4,64(sp)
   1564c:	05c12223          	sw	t3,68(sp)
   15650:	04612423          	sw	t1,72(sp)
   15654:	17112a23          	sw	a7,372(sp)
   15658:	00d12423          	sw	a3,8(sp)
   1565c:	00e12623          	sw	a4,12(sp)
   15660:	01012823          	sw	a6,16(sp)
   15664:	00060a13          	mv	s4,a2
   15668:	00078413          	mv	s0,a5
   1566c:	02058263          	beqz	a1,15690 <_ldtoa_r+0xa8>
   15670:	04452703          	lw	a4,68(a0)
   15674:	00100793          	li	a5,1
   15678:	00050493          	mv	s1,a0
   1567c:	00e797b3          	sll	a5,a5,a4
   15680:	00e5a223          	sw	a4,4(a1)
   15684:	00f5a423          	sw	a5,8(a1)
   15688:	669010ef          	jal	ra,174f0 <_Bfree>
   1568c:	0404a023          	sw	zero,64(s1)
   15690:	07010593          	addi	a1,sp,112
   15694:	04010513          	addi	a0,sp,64
   15698:	b98ff0ef          	jal	ra,14a30 <e113toe.isra.0>
   1569c:	08215603          	lhu	a2,130(sp)
   156a0:	00008737          	lui	a4,0x8
   156a4:	fff70713          	addi	a4,a4,-1 # 7fff <exit-0x8095>
   156a8:	00e677b3          	and	a5,a2,a4
   156ac:	00f12a23          	sw	a5,20(sp)
   156b0:	46e78c63          	beq	a5,a4,15b28 <_ldtoa_r+0x540>
   156b4:	00f65613          	srli	a2,a2,0xf
   156b8:	00c42023          	sw	a2,0(s0)
   156bc:	00300793          	li	a5,3
   156c0:	14fa06e3          	beq	s4,a5,1600c <_ldtoa_r+0xa24>
   156c4:	01400793          	li	a5,20
   156c8:	00f12223          	sw	a5,4(sp)
   156cc:	140a1ce3          	bnez	s4,16024 <_ldtoa_r+0xa3c>
   156d0:	07010793          	addi	a5,sp,112
   156d4:	08410613          	addi	a2,sp,132
   156d8:	08c10713          	addi	a4,sp,140
   156dc:	0007a683          	lw	a3,0(a5)
   156e0:	00478793          	addi	a5,a5,4
   156e4:	00470713          	addi	a4,a4,4
   156e8:	fed72e23          	sw	a3,-4(a4)
   156ec:	fef618e3          	bne	a2,a5,156dc <_ldtoa_r+0xf4>
   156f0:	09e15d03          	lhu	s10,158(sp)
   156f4:	00000913          	li	s2,0
   156f8:	010d1793          	slli	a5,s10,0x10
   156fc:	4107d793          	srai	a5,a5,0x10
   15700:	0007dc63          	bgez	a5,15718 <_ldtoa_r+0x130>
   15704:	011d1d13          	slli	s10,s10,0x11
   15708:	011d5d13          	srli	s10,s10,0x11
   1570c:	000107b7          	lui	a5,0x10
   15710:	09a11f23          	sh	s10,158(sp)
   15714:	fff78913          	addi	s2,a5,-1 # ffff <exit-0x95>
   15718:	00025bb7          	lui	s7,0x25
   1571c:	614b8713          	addi	a4,s7,1556 # 25614 <eone>
   15720:	0a810993          	addi	s3,sp,168
   15724:	01470a93          	addi	s5,a4,20
   15728:	00098613          	mv	a2,s3
   1572c:	614b8693          	addi	a3,s7,1556
   15730:	0006a783          	lw	a5,0(a3)
   15734:	00468693          	addi	a3,a3,4
   15738:	00460613          	addi	a2,a2,4
   1573c:	fef62e23          	sw	a5,-4(a2)
   15740:	ff5698e3          	bne	a3,s5,15730 <_ldtoa_r+0x148>
   15744:	6a0d1e63          	bnez	s10,15e00 <_ldtoa_r+0x818>
   15748:	08c10793          	addi	a5,sp,140
   1574c:	09e10593          	addi	a1,sp,158
   15750:	00078693          	mv	a3,a5
   15754:	0006d783          	lhu	a5,0(a3)
   15758:	6a079e63          	bnez	a5,15e14 <_ldtoa_r+0x82c>
   1575c:	00268693          	addi	a3,a3,2
   15760:	fed59ae3          	bne	a1,a3,15754 <_ldtoa_r+0x16c>
   15764:	00000413          	li	s0,0
   15768:	13410d93          	addi	s11,sp,308
   1576c:	17010b13          	addi	s6,sp,368
   15770:	0e010c13          	addi	s8,sp,224
   15774:	0f810493          	addi	s1,sp,248
   15778:	000c0593          	mv	a1,s8
   1577c:	0a810513          	addi	a0,sp,168
   15780:	ab1fe0ef          	jal	ra,14230 <emovi>
   15784:	000c0a93          	mv	s5,s8
   15788:	000c0713          	mv	a4,s8
   1578c:	00072783          	lw	a5,0(a4)
   15790:	00470713          	addi	a4,a4,4
   15794:	00498993          	addi	s3,s3,4
   15798:	fef9ae23          	sw	a5,-4(s3)
   1579c:	fee498e3          	bne	s1,a4,1578c <_ldtoa_r+0x1a4>
   157a0:	000c0593          	mv	a1,s8
   157a4:	08c10513          	addi	a0,sp,140
   157a8:	0c011023          	sh	zero,192(sp)
   157ac:	a85fe0ef          	jal	ra,14230 <emovi>
   157b0:	0a410d13          	addi	s10,sp,164
   157b4:	08c10793          	addi	a5,sp,140
   157b8:	000aa703          	lw	a4,0(s5)
   157bc:	00478793          	addi	a5,a5,4
   157c0:	004a8a93          	addi	s5,s5,4
   157c4:	fee7ae23          	sw	a4,-4(a5)
   157c8:	ffa798e3          	bne	a5,s10,157b8 <_ldtoa_r+0x1d0>
   157cc:	0a810513          	addi	a0,sp,168
   157d0:	000b0613          	mv	a2,s6
   157d4:	08c10593          	addi	a1,sp,140
   157d8:	0a011223          	sh	zero,164(sp)
   157dc:	8f0ff0ef          	jal	ra,148cc <eiremain>
   157e0:	1bc15503          	lhu	a0,444(sp)
   157e4:	00025ab7          	lui	s5,0x25
   157e8:	16051863          	bnez	a0,15958 <_ldtoa_r+0x370>
   157ec:	08e10c93          	addi	s9,sp,142
   157f0:	0c610b93          	addi	s7,sp,198
   157f4:	628a8593          	addi	a1,s5,1576 # 25628 <ezero>
   157f8:	08c10513          	addi	a0,sp,140
   157fc:	ae9fe0ef          	jal	ra,142e4 <ecmp>
   15800:	14050c63          	beqz	a0,15958 <_ldtoa_r+0x370>
   15804:	00000713          	li	a4,0
   15808:	0a410693          	addi	a3,sp,164
   1580c:	0006d783          	lhu	a5,0(a3)
   15810:	01079613          	slli	a2,a5,0x10
   15814:	41065613          	srai	a2,a2,0x10
   15818:	00065463          	bgez	a2,15820 <_ldtoa_r+0x238>
   1581c:	00176713          	ori	a4,a4,1
   15820:	00179793          	slli	a5,a5,0x1
   15824:	01079793          	slli	a5,a5,0x10
   15828:	00277613          	andi	a2,a4,2
   1582c:	0107d793          	srli	a5,a5,0x10
   15830:	00060463          	beqz	a2,15838 <_ldtoa_r+0x250>
   15834:	0017e793          	ori	a5,a5,1
   15838:	00171713          	slli	a4,a4,0x1
   1583c:	00f69023          	sh	a5,0(a3)
   15840:	01071713          	slli	a4,a4,0x10
   15844:	ffe68693          	addi	a3,a3,-2
   15848:	01075713          	srli	a4,a4,0x10
   1584c:	fd9690e3          	bne	a3,s9,1580c <_ldtoa_r+0x224>
   15850:	0c410713          	addi	a4,sp,196
   15854:	08c10793          	addi	a5,sp,140
   15858:	0007a683          	lw	a3,0(a5)
   1585c:	00478793          	addi	a5,a5,4
   15860:	00470713          	addi	a4,a4,4
   15864:	fed72e23          	sw	a3,-4(a4)
   15868:	ffa798e3          	bne	a5,s10,15858 <_ldtoa_r+0x270>
   1586c:	0c011e23          	sh	zero,220(sp)
   15870:	00000713          	li	a4,0
   15874:	0dc10693          	addi	a3,sp,220
   15878:	0006d783          	lhu	a5,0(a3)
   1587c:	01079613          	slli	a2,a5,0x10
   15880:	41065613          	srai	a2,a2,0x10
   15884:	00065463          	bgez	a2,1588c <_ldtoa_r+0x2a4>
   15888:	00176713          	ori	a4,a4,1
   1588c:	00179793          	slli	a5,a5,0x1
   15890:	01079793          	slli	a5,a5,0x10
   15894:	00277613          	andi	a2,a4,2
   15898:	0107d793          	srli	a5,a5,0x10
   1589c:	00060463          	beqz	a2,158a4 <_ldtoa_r+0x2bc>
   158a0:	0017e793          	ori	a5,a5,1
   158a4:	00171713          	slli	a4,a4,0x1
   158a8:	00f69023          	sh	a5,0(a3)
   158ac:	01071713          	slli	a4,a4,0x10
   158b0:	ffe68693          	addi	a3,a3,-2
   158b4:	01075713          	srli	a4,a4,0x10
   158b8:	fd7690e3          	bne	a3,s7,15878 <_ldtoa_r+0x290>
   158bc:	00000713          	li	a4,0
   158c0:	0dc10693          	addi	a3,sp,220
   158c4:	0006d783          	lhu	a5,0(a3)
   158c8:	01079613          	slli	a2,a5,0x10
   158cc:	41065613          	srai	a2,a2,0x10
   158d0:	00065463          	bgez	a2,158d8 <_ldtoa_r+0x2f0>
   158d4:	00176713          	ori	a4,a4,1
   158d8:	00179793          	slli	a5,a5,0x1
   158dc:	01079793          	slli	a5,a5,0x10
   158e0:	00277613          	andi	a2,a4,2
   158e4:	0107d793          	srli	a5,a5,0x10
   158e8:	00060463          	beqz	a2,158f0 <_ldtoa_r+0x308>
   158ec:	0017e793          	ori	a5,a5,1
   158f0:	00171713          	slli	a4,a4,0x1
   158f4:	00f69023          	sh	a5,0(a3)
   158f8:	01071713          	slli	a4,a4,0x10
   158fc:	ffe68693          	addi	a3,a3,-2
   15900:	01075713          	srli	a4,a4,0x10
   15904:	fd7690e3          	bne	a3,s7,158c4 <_ldtoa_r+0x2dc>
   15908:	00000613          	li	a2,0
   1590c:	0a410693          	addi	a3,sp,164
   15910:	0dc10713          	addi	a4,sp,220
   15914:	0006d583          	lhu	a1,0(a3)
   15918:	00075783          	lhu	a5,0(a4)
   1591c:	ffe68693          	addi	a3,a3,-2
   15920:	ffe70713          	addi	a4,a4,-2
   15924:	00b787b3          	add	a5,a5,a1
   15928:	00c787b3          	add	a5,a5,a2
   1592c:	0107d613          	srli	a2,a5,0x10
   15930:	00f69123          	sh	a5,2(a3)
   15934:	00167613          	andi	a2,a2,1
   15938:	fd771ee3          	bne	a4,s7,15914 <_ldtoa_r+0x32c>
   1593c:	0a810513          	addi	a0,sp,168
   15940:	000b0613          	mv	a2,s6
   15944:	08c10593          	addi	a1,sp,140
   15948:	f85fe0ef          	jal	ra,148cc <eiremain>
   1594c:	1bc15503          	lhu	a0,444(sp)
   15950:	fff40413          	addi	s0,s0,-1
   15954:	ea0500e3          	beqz	a0,157f4 <_ldtoa_r+0x20c>
   15958:	00193793          	seqz	a5,s2
   1595c:	40f007b3          	neg	a5,a5
   15960:	ff37f793          	andi	a5,a5,-13
   15964:	02d78793          	addi	a5,a5,45
   15968:	12f10a23          	sb	a5,308(sp)
   1596c:	00300713          	li	a4,3
   15970:	00412783          	lw	a5,4(sp)
   15974:	00ea1463          	bne	s4,a4,1597c <_ldtoa_r+0x394>
   15978:	008787b3          	add	a5,a5,s0
   1597c:	02a00713          	li	a4,42
   15980:	00078493          	mv	s1,a5
   15984:	00f75463          	bge	a4,a5,1598c <_ldtoa_r+0x3a4>
   15988:	02a00493          	li	s1,42
   1598c:	00a00713          	li	a4,10
   15990:	64e50863          	beq	a0,a4,15fe0 <_ldtoa_r+0x9f8>
   15994:	03050513          	addi	a0,a0,48
   15998:	02e00713          	li	a4,46
   1599c:	12a10aa3          	sb	a0,309(sp)
   159a0:	12e10b23          	sb	a4,310(sp)
   159a4:	2407c463          	bltz	a5,15bec <_ldtoa_r+0x604>
   159a8:	13710993          	addi	s3,sp,311
   159ac:	00000c13          	li	s8,0
   159b0:	0c410c93          	addi	s9,sp,196
   159b4:	0dc10d13          	addi	s10,sp,220
   159b8:	08e10b93          	addi	s7,sp,142
   159bc:	0c610a93          	addi	s5,sp,198
   159c0:	00000713          	li	a4,0
   159c4:	0a410693          	addi	a3,sp,164
   159c8:	0006d783          	lhu	a5,0(a3)
   159cc:	01079613          	slli	a2,a5,0x10
   159d0:	41065613          	srai	a2,a2,0x10
   159d4:	00065463          	bgez	a2,159dc <_ldtoa_r+0x3f4>
   159d8:	00176713          	ori	a4,a4,1
   159dc:	00179793          	slli	a5,a5,0x1
   159e0:	01079793          	slli	a5,a5,0x10
   159e4:	00277613          	andi	a2,a4,2
   159e8:	0107d793          	srli	a5,a5,0x10
   159ec:	00060463          	beqz	a2,159f4 <_ldtoa_r+0x40c>
   159f0:	0017e793          	ori	a5,a5,1
   159f4:	00171713          	slli	a4,a4,0x1
   159f8:	00f69023          	sh	a5,0(a3)
   159fc:	01071713          	slli	a4,a4,0x10
   15a00:	ffe68693          	addi	a3,a3,-2
   15a04:	01075713          	srli	a4,a4,0x10
   15a08:	fd7690e3          	bne	a3,s7,159c8 <_ldtoa_r+0x3e0>
   15a0c:	000c8793          	mv	a5,s9
   15a10:	08c10713          	addi	a4,sp,140
   15a14:	00072683          	lw	a3,0(a4)
   15a18:	00478793          	addi	a5,a5,4
   15a1c:	00470713          	addi	a4,a4,4
   15a20:	fed7ae23          	sw	a3,-4(a5)
   15a24:	fefd18e3          	bne	s10,a5,15a14 <_ldtoa_r+0x42c>
   15a28:	0c011e23          	sh	zero,220(sp)
   15a2c:	00000713          	li	a4,0
   15a30:	000d0693          	mv	a3,s10
   15a34:	0006d783          	lhu	a5,0(a3)
   15a38:	01079613          	slli	a2,a5,0x10
   15a3c:	41065613          	srai	a2,a2,0x10
   15a40:	00065463          	bgez	a2,15a48 <_ldtoa_r+0x460>
   15a44:	00176713          	ori	a4,a4,1
   15a48:	00179793          	slli	a5,a5,0x1
   15a4c:	01079793          	slli	a5,a5,0x10
   15a50:	00277613          	andi	a2,a4,2
   15a54:	0107d793          	srli	a5,a5,0x10
   15a58:	00060463          	beqz	a2,15a60 <_ldtoa_r+0x478>
   15a5c:	0017e793          	ori	a5,a5,1
   15a60:	00171713          	slli	a4,a4,0x1
   15a64:	00f69023          	sh	a5,0(a3)
   15a68:	01071713          	slli	a4,a4,0x10
   15a6c:	ffe68693          	addi	a3,a3,-2
   15a70:	01075713          	srli	a4,a4,0x10
   15a74:	fd5690e3          	bne	a3,s5,15a34 <_ldtoa_r+0x44c>
   15a78:	00000713          	li	a4,0
   15a7c:	000d0693          	mv	a3,s10
   15a80:	0006d783          	lhu	a5,0(a3)
   15a84:	01079613          	slli	a2,a5,0x10
   15a88:	41065613          	srai	a2,a2,0x10
   15a8c:	00065463          	bgez	a2,15a94 <_ldtoa_r+0x4ac>
   15a90:	00176713          	ori	a4,a4,1
   15a94:	00179793          	slli	a5,a5,0x1
   15a98:	01079793          	slli	a5,a5,0x10
   15a9c:	00277613          	andi	a2,a4,2
   15aa0:	0107d793          	srli	a5,a5,0x10
   15aa4:	00060463          	beqz	a2,15aac <_ldtoa_r+0x4c4>
   15aa8:	0017e793          	ori	a5,a5,1
   15aac:	00171713          	slli	a4,a4,0x1
   15ab0:	00f69023          	sh	a5,0(a3)
   15ab4:	01071713          	slli	a4,a4,0x10
   15ab8:	ffe68693          	addi	a3,a3,-2
   15abc:	01075713          	srli	a4,a4,0x10
   15ac0:	fd5690e3          	bne	a3,s5,15a80 <_ldtoa_r+0x498>
   15ac4:	00000613          	li	a2,0
   15ac8:	0a410693          	addi	a3,sp,164
   15acc:	000d0713          	mv	a4,s10
   15ad0:	0006d583          	lhu	a1,0(a3)
   15ad4:	00075783          	lhu	a5,0(a4)
   15ad8:	ffe68693          	addi	a3,a3,-2
   15adc:	ffe70713          	addi	a4,a4,-2
   15ae0:	00b787b3          	add	a5,a5,a1
   15ae4:	00c787b3          	add	a5,a5,a2
   15ae8:	0107d613          	srli	a2,a5,0x10
   15aec:	00f69123          	sh	a5,2(a3)
   15af0:	00167613          	andi	a2,a2,1
   15af4:	fd571ee3          	bne	a4,s5,15ad0 <_ldtoa_r+0x4e8>
   15af8:	08c10593          	addi	a1,sp,140
   15afc:	000b0613          	mv	a2,s6
   15b00:	0a810513          	addi	a0,sp,168
   15b04:	dc9fe0ef          	jal	ra,148cc <eiremain>
   15b08:	1bc15583          	lhu	a1,444(sp)
   15b0c:	00198793          	addi	a5,s3,1
   15b10:	001c0c13          	addi	s8,s8,1
   15b14:	03058713          	addi	a4,a1,48
   15b18:	fee78fa3          	sb	a4,-1(a5)
   15b1c:	0d84ce63          	blt	s1,s8,15bf8 <_ldtoa_r+0x610>
   15b20:	00078993          	mv	s3,a5
   15b24:	e9dff06f          	j	159c0 <_ldtoa_r+0x3d8>
   15b28:	07010713          	addi	a4,sp,112
   15b2c:	08210793          	addi	a5,sp,130
   15b30:	00075683          	lhu	a3,0(a4)
   15b34:	00270713          	addi	a4,a4,2
   15b38:	000692e3          	bnez	a3,1633c <_ldtoa_r+0xd54>
   15b3c:	fef71ae3          	bne	a4,a5,15b30 <_ldtoa_r+0x548>
   15b40:	00f65613          	srli	a2,a2,0xf
   15b44:	00c42023          	sw	a2,0(s0)
   15b48:	00300793          	li	a5,3
   15b4c:	7cfa0863          	beq	s4,a5,1631c <_ldtoa_r+0xd34>
   15b50:	01400793          	li	a5,20
   15b54:	00f12223          	sw	a5,4(sp)
   15b58:	000a0e63          	beqz	s4,15b74 <_ldtoa_r+0x58c>
   15b5c:	00812783          	lw	a5,8(sp)
   15b60:	fff78793          	addi	a5,a5,-1
   15b64:	00078713          	mv	a4,a5
   15b68:	00f12223          	sw	a5,4(sp)
   15b6c:	02a00793          	li	a5,42
   15b70:	7ae7ce63          	blt	a5,a4,1632c <_ldtoa_r+0xd44>
   15b74:	07015703          	lhu	a4,112(sp)
   15b78:	07010793          	addi	a5,sp,112
   15b7c:	08210693          	addi	a3,sp,130
   15b80:	00278793          	addi	a5,a5,2
   15b84:	00071a63          	bnez	a4,15b98 <_ldtoa_r+0x5b0>
   15b88:	b4d784e3          	beq	a5,a3,156d0 <_ldtoa_r+0xe8>
   15b8c:	0007d703          	lhu	a4,0(a5)
   15b90:	00278793          	addi	a5,a5,2
   15b94:	fe070ae3          	beqz	a4,15b88 <_ldtoa_r+0x5a0>
   15b98:	13410d93          	addi	s11,sp,308
   15b9c:	000255b7          	lui	a1,0x25
   15ba0:	3e058593          	addi	a1,a1,992 # 253e0 <blanks.1+0x88>
   15ba4:	000d8513          	mv	a0,s11
   15ba8:	4b5020ef          	jal	ra,1885c <sprintf>
   15bac:	00002437          	lui	s0,0x2
   15bb0:	70f40413          	addi	s0,s0,1807 # 270f <exit-0xd985>
   15bb4:	09000793          	li	a5,144
   15bb8:	16f12a23          	sw	a5,372(sp)
   15bbc:	18812023          	sw	s0,384(sp)
   15bc0:	07010793          	addi	a5,sp,112
   15bc4:	08210693          	addi	a3,sp,130
   15bc8:	0007d703          	lhu	a4,0(a5)
   15bcc:	00278793          	addi	a5,a5,2
   15bd0:	160710e3          	bnez	a4,16530 <_ldtoa_r+0xf48>
   15bd4:	fed79ae3          	bne	a5,a3,15bc8 <_ldtoa_r+0x5e0>
   15bd8:	00c12703          	lw	a4,12(sp)
   15bdc:	000027b7          	lui	a5,0x2
   15be0:	70f78793          	addi	a5,a5,1807 # 270f <exit-0xd985>
   15be4:	00f72023          	sw	a5,0(a4)
   15be8:	0e00006f          	j	15cc8 <_ldtoa_r+0x6e0>
   15bec:	1bc15583          	lhu	a1,444(sp)
   15bf0:	13610993          	addi	s3,sp,310
   15bf4:	13710793          	addi	a5,sp,311
   15bf8:	00400713          	li	a4,4
   15bfc:	04b75863          	bge	a4,a1,15c4c <_ldtoa_r+0x664>
   15c00:	00500713          	li	a4,5
   15c04:	16e58ae3          	beq	a1,a4,16578 <_ldtoa_r+0xf90>
   15c08:	ffe7c703          	lbu	a4,-2(a5)
   15c0c:	ffe78593          	addi	a1,a5,-2
   15c10:	07f77713          	andi	a4,a4,127
   15c14:	0204c663          	bltz	s1,15c40 <_ldtoa_r+0x658>
   15c18:	02e00793          	li	a5,46
   15c1c:	03800613          	li	a2,56
   15c20:	03000513          	li	a0,48
   15c24:	0ef708e3          	beq	a4,a5,16514 <_ldtoa_r+0xf2c>
   15c28:	0ee670e3          	bgeu	a2,a4,16508 <_ldtoa_r+0xf20>
   15c2c:	fff5c703          	lbu	a4,-1(a1)
   15c30:	00a58023          	sb	a0,0(a1)
   15c34:	fff58593          	addi	a1,a1,-1
   15c38:	07f77713          	andi	a4,a4,127
   15c3c:	fe9ff06f          	j	15c24 <_ldtoa_r+0x63c>
   15c40:	03100713          	li	a4,49
   15c44:	fee78f23          	sb	a4,-2(a5)
   15c48:	00140413          	addi	s0,s0,1
   15c4c:	000255b7          	lui	a1,0x25
   15c50:	00040613          	mv	a2,s0
   15c54:	38458593          	addi	a1,a1,900 # 25384 <blanks.1+0x2c>
   15c58:	00098513          	mv	a0,s3
   15c5c:	401020ef          	jal	ra,1885c <sprintf>
   15c60:	09000793          	li	a5,144
   15c64:	01412703          	lw	a4,20(sp)
   15c68:	16f12a23          	sw	a5,372(sp)
   15c6c:	000087b7          	lui	a5,0x8
   15c70:	18812023          	sw	s0,384(sp)
   15c74:	fff78793          	addi	a5,a5,-1 # 7fff <exit-0x8095>
   15c78:	f4f704e3          	beq	a4,a5,15bc0 <_ldtoa_r+0x5d8>
   15c7c:	00c12683          	lw	a3,12(sp)
   15c80:	13414703          	lbu	a4,308(sp)
   15c84:	00140793          	addi	a5,s0,1
   15c88:	00f6a023          	sw	a5,0(a3)
   15c8c:	6a070463          	beqz	a4,16334 <_ldtoa_r+0xd4c>
   15c90:	000d8793          	mv	a5,s11
   15c94:	02e00693          	li	a3,46
   15c98:	30d70e63          	beq	a4,a3,15fb4 <_ldtoa_r+0x9cc>
   15c9c:	0017c703          	lbu	a4,1(a5)
   15ca0:	00178793          	addi	a5,a5,1
   15ca4:	fe071ae3          	bnez	a4,15c98 <_ldtoa_r+0x6b0>
   15ca8:	04500693          	li	a3,69
   15cac:	00fde663          	bltu	s11,a5,15cb8 <_ldtoa_r+0x6d0>
   15cb0:	0140006f          	j	15cc4 <_ldtoa_r+0x6dc>
   15cb4:	69b78063          	beq	a5,s11,16334 <_ldtoa_r+0xd4c>
   15cb8:	fff7c703          	lbu	a4,-1(a5)
   15cbc:	fff78793          	addi	a5,a5,-1
   15cc0:	fed71ae3          	bne	a4,a3,15cb4 <_ldtoa_r+0x6cc>
   15cc4:	00078023          	sb	zero,0(a5)
   15cc8:	000d8793          	mv	a5,s11
   15ccc:	02000693          	li	a3,32
   15cd0:	02d00613          	li	a2,45
   15cd4:	0007c703          	lbu	a4,0(a5)
   15cd8:	00d70463          	beq	a4,a3,15ce0 <_ldtoa_r+0x6f8>
   15cdc:	00c71663          	bne	a4,a2,15ce8 <_ldtoa_r+0x700>
   15ce0:	00178793          	addi	a5,a5,1
   15ce4:	ff1ff06f          	j	15cd4 <_ldtoa_r+0x6ec>
   15ce8:	000d8693          	mv	a3,s11
   15cec:	0007c703          	lbu	a4,0(a5)
   15cf0:	00068993          	mv	s3,a3
   15cf4:	00178793          	addi	a5,a5,1
   15cf8:	00e68023          	sb	a4,0(a3)
   15cfc:	00168693          	addi	a3,a3,1
   15d00:	fe0716e3          	bnez	a4,15cec <_ldtoa_r+0x704>
   15d04:	00200793          	li	a5,2
   15d08:	fff9c683          	lbu	a3,-1(s3)
   15d0c:	28fa0863          	beq	s4,a5,15f9c <_ldtoa_r+0x9b4>
   15d10:	00412783          	lw	a5,4(sp)
   15d14:	00040713          	mv	a4,s0
   15d18:	00f45463          	bge	s0,a5,15d20 <_ldtoa_r+0x738>
   15d1c:	00078713          	mv	a4,a5
   15d20:	03000793          	li	a5,48
   15d24:	02f69663          	bne	a3,a5,15d50 <_ldtoa_r+0x768>
   15d28:	41b987b3          	sub	a5,s3,s11
   15d2c:	02f75263          	bge	a4,a5,15d50 <_ldtoa_r+0x768>
   15d30:	03000693          	li	a3,48
   15d34:	00c0006f          	j	15d40 <_ldtoa_r+0x758>
   15d38:	41b987b3          	sub	a5,s3,s11
   15d3c:	00f75a63          	bge	a4,a5,15d50 <_ldtoa_r+0x768>
   15d40:	ffe9c783          	lbu	a5,-2(s3)
   15d44:	fe098fa3          	sb	zero,-1(s3)
   15d48:	fff98993          	addi	s3,s3,-1
   15d4c:	fed786e3          	beq	a5,a3,15d38 <_ldtoa_r+0x750>
   15d50:	00300793          	li	a5,3
   15d54:	20fa0063          	beq	s4,a5,15f54 <_ldtoa_r+0x96c>
   15d58:	00812783          	lw	a5,8(sp)
   15d5c:	01700693          	li	a3,23
   15d60:	00100713          	li	a4,1
   15d64:	00978493          	addi	s1,a5,9
   15d68:	00400793          	li	a5,4
   15d6c:	2296f063          	bgeu	a3,s1,15f8c <_ldtoa_r+0x9a4>
   15d70:	00179793          	slli	a5,a5,0x1
   15d74:	01478693          	addi	a3,a5,20
   15d78:	00070593          	mv	a1,a4
   15d7c:	00170713          	addi	a4,a4,1
   15d80:	fed4f8e3          	bgeu	s1,a3,15d70 <_ldtoa_r+0x788>
   15d84:	00012783          	lw	a5,0(sp)
   15d88:	04b7a223          	sw	a1,68(a5)
   15d8c:	00012503          	lw	a0,0(sp)
   15d90:	6b8010ef          	jal	ra,17448 <_Balloc>
   15d94:	00050413          	mv	s0,a0
   15d98:	20050ae3          	beqz	a0,167ac <_ldtoa_r+0x11c4>
   15d9c:	00012783          	lw	a5,0(sp)
   15da0:	000d8593          	mv	a1,s11
   15da4:	04a7a023          	sw	a0,64(a5)
   15da8:	499020ef          	jal	ra,18a40 <strcpy>
   15dac:	01012703          	lw	a4,16(sp)
   15db0:	00070863          	beqz	a4,15dc0 <_ldtoa_r+0x7d8>
   15db4:	41b987b3          	sub	a5,s3,s11
   15db8:	00f407b3          	add	a5,s0,a5
   15dbc:	00f72023          	sw	a5,0(a4)
   15dc0:	1fc12083          	lw	ra,508(sp)
   15dc4:	00040513          	mv	a0,s0
   15dc8:	1f812403          	lw	s0,504(sp)
   15dcc:	1f412483          	lw	s1,500(sp)
   15dd0:	1f012903          	lw	s2,496(sp)
   15dd4:	1ec12983          	lw	s3,492(sp)
   15dd8:	1e812a03          	lw	s4,488(sp)
   15ddc:	1e412a83          	lw	s5,484(sp)
   15de0:	1e012b03          	lw	s6,480(sp)
   15de4:	1dc12b83          	lw	s7,476(sp)
   15de8:	1d812c03          	lw	s8,472(sp)
   15dec:	1d412c83          	lw	s9,468(sp)
   15df0:	1d012d03          	lw	s10,464(sp)
   15df4:	1cc12d83          	lw	s11,460(sp)
   15df8:	20010113          	addi	sp,sp,512
   15dfc:	00008067          	ret
   15e00:	000086b7          	lui	a3,0x8
   15e04:	fff68693          	addi	a3,a3,-1 # 7fff <exit-0x8095>
   15e08:	6cdd0a63          	beq	s10,a3,164dc <_ldtoa_r+0xef4>
   15e0c:	09c11683          	lh	a3,156(sp)
   15e10:	7406d863          	bgez	a3,16560 <_ldtoa_r+0xf78>
   15e14:	08c10593          	addi	a1,sp,140
   15e18:	614b8513          	addi	a0,s7,1556
   15e1c:	00e12c23          	sw	a4,24(sp)
   15e20:	cc4fe0ef          	jal	ra,142e4 <ecmp>
   15e24:	940500e3          	beqz	a0,15764 <_ldtoa_r+0x17c>
   15e28:	01812703          	lw	a4,24(sp)
   15e2c:	20054c63          	bltz	a0,16044 <_ldtoa_r+0xa5c>
   15e30:	7c0d1063          	bnez	s10,165f0 <_ldtoa_r+0x1008>
   15e34:	09c11683          	lh	a3,156(sp)
   15e38:	00000413          	li	s0,0
   15e3c:	17010b13          	addi	s6,sp,368
   15e40:	1006cce3          	bltz	a3,16758 <_ldtoa_r+0x1170>
   15e44:	00025d37          	lui	s10,0x25
   15e48:	00070493          	mv	s1,a4
   15e4c:	08c10613          	addi	a2,sp,140
   15e50:	000b0693          	mv	a3,s6
   15e54:	00060593          	mv	a1,a2
   15e58:	600d0513          	addi	a0,s10,1536 # 25600 <etens+0xf0>
   15e5c:	abcff0ef          	jal	ra,15118 <emul>
   15e60:	09c11783          	lh	a5,156(sp)
   15e64:	fff40413          	addi	s0,s0,-1
   15e68:	fe07d2e3          	bgez	a5,15e4c <_ldtoa_r+0x864>
   15e6c:	00048713          	mv	a4,s1
   15e70:	0e010c13          	addi	s8,sp,224
   15e74:	0f810493          	addi	s1,sp,248
   15e78:	08c10793          	addi	a5,sp,140
   15e7c:	000c0613          	mv	a2,s8
   15e80:	0a010513          	addi	a0,sp,160
   15e84:	00078693          	mv	a3,a5
   15e88:	0006a783          	lw	a5,0(a3)
   15e8c:	00468693          	addi	a3,a3,4
   15e90:	00460613          	addi	a2,a2,4
   15e94:	fef62e23          	sw	a5,-4(a2)
   15e98:	fea698e3          	bne	a3,a0,15e88 <_ldtoa_r+0x8a0>
   15e9c:	0a810693          	addi	a3,sp,168
   15ea0:	00072783          	lw	a5,0(a4)
   15ea4:	00470713          	addi	a4,a4,4
   15ea8:	00468693          	addi	a3,a3,4
   15eac:	fef6ae23          	sw	a5,-4(a3)
   15eb0:	ff5718e3          	bne	a4,s5,15ea0 <_ldtoa_r+0x8b8>
   15eb4:	00025d37          	lui	s10,0x25
   15eb8:	00025cb7          	lui	s9,0x25
   15ebc:	00025db7          	lui	s11,0x25
   15ec0:	fffffab7          	lui	s5,0xfffff
   15ec4:	510d0d13          	addi	s10,s10,1296 # 25510 <etens>
   15ec8:	40cc8c93          	addi	s9,s9,1036 # 2540c <emtens>
   15ecc:	4fcd8d93          	addi	s11,s11,1276 # 254fc <emtens+0xf0>
   15ed0:	00c0006f          	j	15edc <_ldtoa_r+0x8f4>
   15ed4:	014c8c93          	addi	s9,s9,20
   15ed8:	014d0d13          	addi	s10,s10,20
   15edc:	000c0593          	mv	a1,s8
   15ee0:	614b8513          	addi	a0,s7,1556
   15ee4:	c00fe0ef          	jal	ra,142e4 <ecmp>
   15ee8:	04a05863          	blez	a0,15f38 <_ldtoa_r+0x950>
   15eec:	000c0593          	mv	a1,s8
   15ef0:	000c8513          	mv	a0,s9
   15ef4:	bf0fe0ef          	jal	ra,142e4 <ecmp>
   15ef8:	02054863          	bltz	a0,15f28 <_ldtoa_r+0x940>
   15efc:	000b0693          	mv	a3,s6
   15f00:	000c0613          	mv	a2,s8
   15f04:	000c0593          	mv	a1,s8
   15f08:	000d0513          	mv	a0,s10
   15f0c:	a0cff0ef          	jal	ra,15118 <emul>
   15f10:	0a810613          	addi	a2,sp,168
   15f14:	000b0693          	mv	a3,s6
   15f18:	00060593          	mv	a1,a2
   15f1c:	000d0513          	mv	a0,s10
   15f20:	9f8ff0ef          	jal	ra,15118 <emul>
   15f24:	01540433          	add	s0,s0,s5
   15f28:	01fad793          	srli	a5,s5,0x1f
   15f2c:	015787b3          	add	a5,a5,s5
   15f30:	4017da93          	srai	s5,a5,0x1
   15f34:	fbbc90e3          	bne	s9,s11,15ed4 <_ldtoa_r+0x8ec>
   15f38:	0a810613          	addi	a2,sp,168
   15f3c:	000b0693          	mv	a3,s6
   15f40:	614b8593          	addi	a1,s7,1556
   15f44:	00060513          	mv	a0,a2
   15f48:	c3dfe0ef          	jal	ra,14b84 <ediv>
   15f4c:	13410d93          	addi	s11,sp,308
   15f50:	829ff06f          	j	15778 <_ldtoa_r+0x190>
   15f54:	00412783          	lw	a5,4(sp)
   15f58:	00f40433          	add	s0,s0,a5
   15f5c:	54044a63          	bltz	s0,164b0 <_ldtoa_r+0xec8>
   15f60:	00c12783          	lw	a5,12(sp)
   15f64:	00812703          	lw	a4,8(sp)
   15f68:	0007a783          	lw	a5,0(a5)
   15f6c:	00f707b3          	add	a5,a4,a5
   15f70:	00f12423          	sw	a5,8(sp)
   15f74:	00812783          	lw	a5,8(sp)
   15f78:	01700693          	li	a3,23
   15f7c:	00100713          	li	a4,1
   15f80:	00378493          	addi	s1,a5,3
   15f84:	00400793          	li	a5,4
   15f88:	de96e4e3          	bltu	a3,s1,15d70 <_ldtoa_r+0x788>
   15f8c:	00012783          	lw	a5,0(sp)
   15f90:	00000593          	li	a1,0
   15f94:	0407a223          	sw	zero,68(a5)
   15f98:	df5ff06f          	j	15d8c <_ldtoa_r+0x7a4>
   15f9c:	03000793          	li	a5,48
   15fa0:	daf69ce3          	bne	a3,a5,15d58 <_ldtoa_r+0x770>
   15fa4:	41b987b3          	sub	a5,s3,s11
   15fa8:	00100713          	li	a4,1
   15fac:	d8f742e3          	blt	a4,a5,15d30 <_ldtoa_r+0x748>
   15fb0:	da9ff06f          	j	15d58 <_ldtoa_r+0x770>
   15fb4:	0007c703          	lbu	a4,0(a5)
   15fb8:	ce0708e3          	beqz	a4,15ca8 <_ldtoa_r+0x6c0>
   15fbc:	0017c703          	lbu	a4,1(a5)
   15fc0:	00178793          	addi	a5,a5,1
   15fc4:	fee78fa3          	sb	a4,-1(a5)
   15fc8:	ce0700e3          	beqz	a4,15ca8 <_ldtoa_r+0x6c0>
   15fcc:	0017c703          	lbu	a4,1(a5)
   15fd0:	00178793          	addi	a5,a5,1
   15fd4:	fee78fa3          	sb	a4,-1(a5)
   15fd8:	fe0712e3          	bnez	a4,15fbc <_ldtoa_r+0x9d4>
   15fdc:	ccdff06f          	j	15ca8 <_ldtoa_r+0x6c0>
   15fe0:	03100713          	li	a4,49
   15fe4:	12e10aa3          	sb	a4,309(sp)
   15fe8:	02e00713          	li	a4,46
   15fec:	12e10b23          	sb	a4,310(sp)
   15ff0:	00140413          	addi	s0,s0,1
   15ff4:	30f05c63          	blez	a5,1630c <_ldtoa_r+0xd24>
   15ff8:	03000793          	li	a5,48
   15ffc:	12f10ba3          	sb	a5,311(sp)
   16000:	fff48493          	addi	s1,s1,-1
   16004:	13810993          	addi	s3,sp,312
   16008:	9a5ff06f          	j	159ac <_ldtoa_r+0x3c4>
   1600c:	00812703          	lw	a4,8(sp)
   16010:	02a00793          	li	a5,42
   16014:	00e12223          	sw	a4,4(sp)
   16018:	eae7dc63          	bge	a5,a4,156d0 <_ldtoa_r+0xe8>
   1601c:	00f12223          	sw	a5,4(sp)
   16020:	eb0ff06f          	j	156d0 <_ldtoa_r+0xe8>
   16024:	00812783          	lw	a5,8(sp)
   16028:	fff78793          	addi	a5,a5,-1
   1602c:	00078713          	mv	a4,a5
   16030:	00f12223          	sw	a5,4(sp)
   16034:	02a00793          	li	a5,42
   16038:	e8e7dc63          	bge	a5,a4,156d0 <_ldtoa_r+0xe8>
   1603c:	00f12223          	sw	a5,4(sp)
   16040:	e90ff06f          	j	156d0 <_ldtoa_r+0xe8>
   16044:	0c410c93          	addi	s9,sp,196
   16048:	000c8493          	mv	s1,s9
   1604c:	0a010813          	addi	a6,sp,160
   16050:	000c8593          	mv	a1,s9
   16054:	08c10613          	addi	a2,sp,140
   16058:	00062783          	lw	a5,0(a2)
   1605c:	00460613          	addi	a2,a2,4
   16060:	00458593          	addi	a1,a1,4
   16064:	fef5ae23          	sw	a5,-4(a1)
   16068:	ff0618e3          	bne	a2,a6,16058 <_ldtoa_r+0xa70>
   1606c:	00004637          	lui	a2,0x4
   16070:	08e60613          	addi	a2,a2,142 # 408e <exit-0xc006>
   16074:	0cc11b23          	sh	a2,214(sp)
   16078:	00025637          	lui	a2,0x25
   1607c:	5b060393          	addi	t2,a2,1456 # 255b0 <etens+0xa0>
   16080:	0a810693          	addi	a3,sp,168
   16084:	00025637          	lui	a2,0x25
   16088:	01268313          	addi	t1,a3,18
   1608c:	61460693          	addi	a3,a2,1556 # 25614 <eone>
   16090:	00008637          	lui	a2,0x8
   16094:	02d12023          	sw	a3,32(sp)
   16098:	fff60693          	addi	a3,a2,-1 # 7fff <exit-0x8095>
   1609c:	ffffc637          	lui	a2,0xffffc
   160a0:	00d12c23          	sw	a3,24(sp)
   160a4:	00260693          	addi	a3,a2,2 # ffffc002 <__BSS_END__+0xfffd551a>
   160a8:	00025637          	lui	a2,0x25
   160ac:	0e010c13          	addi	s8,sp,224
   160b0:	01000793          	li	a5,16
   160b4:	0bc10893          	addi	a7,sp,188
   160b8:	00d12e23          	sw	a3,28(sp)
   160bc:	3e860693          	addi	a3,a2,1000 # 253e8 <bmask>
   160c0:	03a12423          	sw	s10,40(sp)
   160c4:	03212623          	sw	s2,44(sp)
   160c8:	02912823          	sw	s1,48(sp)
   160cc:	03312c23          	sw	s3,56(sp)
   160d0:	000c0913          	mv	s2,s8
   160d4:	00000413          	li	s0,0
   160d8:	000a0c13          	mv	s8,s4
   160dc:	13410d93          	addi	s11,sp,308
   160e0:	17010b13          	addi	s6,sp,368
   160e4:	02d12223          	sw	a3,36(sp)
   160e8:	00078d13          	mv	s10,a5
   160ec:	00038493          	mv	s1,t2
   160f0:	02e12a23          	sw	a4,52(sp)
   160f4:	00030993          	mv	s3,t1
   160f8:	00088a13          	mv	s4,a7
   160fc:	0a810613          	addi	a2,sp,168
   16100:	000b0693          	mv	a3,s6
   16104:	000c8593          	mv	a1,s9
   16108:	00048513          	mv	a0,s1
   1610c:	a79fe0ef          	jal	ra,14b84 <ediv>
   16110:	05c10613          	addi	a2,sp,92
   16114:	00060713          	mv	a4,a2
   16118:	0a810793          	addi	a5,sp,168
   1611c:	07010813          	addi	a6,sp,112
   16120:	0007a683          	lw	a3,0(a5)
   16124:	00478793          	addi	a5,a5,4
   16128:	00470713          	addi	a4,a4,4
   1612c:	fed72e23          	sw	a3,-4(a4)
   16130:	fefa18e3          	bne	s4,a5,16120 <_ldtoa_r+0xb38>
   16134:	01812783          	lw	a5,24(sp)
   16138:	06e15503          	lhu	a0,110(sp)
   1613c:	00f57eb3          	and	t4,a0,a5
   16140:	01c12783          	lw	a5,28(sp)
   16144:	00fe8eb3          	add	t4,t4,a5
   16148:	37d05e63          	blez	t4,164c4 <_ldtoa_r+0xedc>
   1614c:	09000793          	li	a5,144
   16150:	41d785b3          	sub	a1,a5,t4
   16154:	00090713          	mv	a4,s2
   16158:	05c10793          	addi	a5,sp,92
   1615c:	0007a683          	lw	a3,0(a5)
   16160:	00478793          	addi	a5,a5,4
   16164:	00470713          	addi	a4,a4,4
   16168:	fed72e23          	sw	a3,-4(a4)
   1616c:	ff0798e3          	bne	a5,a6,1615c <_ldtoa_r+0xb74>
   16170:	06b05863          	blez	a1,161e0 <_ldtoa_r+0xbf8>
   16174:	00f00793          	li	a5,15
   16178:	00090713          	mv	a4,s2
   1617c:	02b7de63          	bge	a5,a1,161b8 <_ldtoa_r+0xbd0>
   16180:	08000693          	li	a3,128
   16184:	41d686b3          	sub	a3,a3,t4
   16188:	0046d693          	srli	a3,a3,0x4
   1618c:	00168713          	addi	a4,a3,1
   16190:	00171713          	slli	a4,a4,0x1
   16194:	00e90733          	add	a4,s2,a4
   16198:	00090793          	mv	a5,s2
   1619c:	00278793          	addi	a5,a5,2
   161a0:	fe079f23          	sh	zero,-2(a5)
   161a4:	fef71ce3          	bne	a4,a5,1619c <_ldtoa_r+0xbb4>
   161a8:	08000593          	li	a1,128
   161ac:	41d585b3          	sub	a1,a1,t4
   161b0:	00469693          	slli	a3,a3,0x4
   161b4:	40d585b3          	sub	a1,a1,a3
   161b8:	02412683          	lw	a3,36(sp)
   161bc:	00159793          	slli	a5,a1,0x1
   161c0:	00f687b3          	add	a5,a3,a5
   161c4:	0007d783          	lhu	a5,0(a5)
   161c8:	00075683          	lhu	a3,0(a4)
   161cc:	00f6f7b3          	and	a5,a3,a5
   161d0:	00f71023          	sh	a5,0(a4)
   161d4:	01051513          	slli	a0,a0,0x10
   161d8:	41055513          	srai	a0,a0,0x10
   161dc:	16054463          	bltz	a0,16344 <_ldtoa_r+0xd5c>
   161e0:	00090713          	mv	a4,s2
   161e4:	0a810793          	addi	a5,sp,168
   161e8:	0007d603          	lhu	a2,0(a5)
   161ec:	00075683          	lhu	a3,0(a4)
   161f0:	02d61863          	bne	a2,a3,16220 <_ldtoa_r+0xc38>
   161f4:	00278793          	addi	a5,a5,2
   161f8:	00270713          	addi	a4,a4,2
   161fc:	ff3796e3          	bne	a5,s3,161e8 <_ldtoa_r+0xc00>
   16200:	000c8713          	mv	a4,s9
   16204:	0a810793          	addi	a5,sp,168
   16208:	0007a683          	lw	a3,0(a5)
   1620c:	00478793          	addi	a5,a5,4
   16210:	00470713          	addi	a4,a4,4
   16214:	fed72e23          	sw	a3,-4(a4)
   16218:	fefa18e3          	bne	s4,a5,16208 <_ldtoa_r+0xc20>
   1621c:	01a40433          	add	s0,s0,s10
   16220:	02012783          	lw	a5,32(sp)
   16224:	01448493          	addi	s1,s1,20
   16228:	001d5d13          	srli	s10,s10,0x1
   1622c:	ecf498e3          	bne	s1,a5,160fc <_ldtoa_r+0xb14>
   16230:	0d615603          	lhu	a2,214(sp)
   16234:	02812d03          	lw	s10,40(sp)
   16238:	ffffc5b7          	lui	a1,0xffffc
   1623c:	f7258593          	addi	a1,a1,-142 # ffffbf72 <__BSS_END__+0xfffd548a>
   16240:	000c0a13          	mv	s4,s8
   16244:	00b60633          	add	a2,a2,a1
   16248:	00090c13          	mv	s8,s2
   1624c:	03012483          	lw	s1,48(sp)
   16250:	03412703          	lw	a4,52(sp)
   16254:	03812983          	lw	s3,56(sp)
   16258:	02c12903          	lw	s2,44(sp)
   1625c:	00cd0633          	add	a2,s10,a2
   16260:	0cc11b23          	sh	a2,214(sp)
   16264:	014c8513          	addi	a0,s9,20
   16268:	08c10613          	addi	a2,sp,140
   1626c:	0004a783          	lw	a5,0(s1)
   16270:	00448493          	addi	s1,s1,4
   16274:	00460613          	addi	a2,a2,4
   16278:	fef62e23          	sw	a5,-4(a2)
   1627c:	fe9518e3          	bne	a0,s1,1626c <_ldtoa_r+0xc84>
   16280:	0a810693          	addi	a3,sp,168
   16284:	00072783          	lw	a5,0(a4)
   16288:	00470713          	addi	a4,a4,4
   1628c:	00468693          	addi	a3,a3,4
   16290:	fef6ae23          	sw	a5,-4(a3)
   16294:	ff5718e3          	bne	a4,s5,16284 <_ldtoa_r+0xc9c>
   16298:	00025ab7          	lui	s5,0x25
   1629c:	00001bb7          	lui	s7,0x1
   162a0:	510a8a93          	addi	s5,s5,1296 # 25510 <etens>
   162a4:	00025d37          	lui	s10,0x25
   162a8:	0140006f          	j	162bc <_ldtoa_r+0xcd4>
   162ac:	600d0793          	addi	a5,s10,1536 # 25600 <etens+0xf0>
   162b0:	001bdb93          	srli	s7,s7,0x1
   162b4:	24fa8663          	beq	s5,a5,16500 <_ldtoa_r+0xf18>
   162b8:	014a8a93          	addi	s5,s5,20
   162bc:	000c8593          	mv	a1,s9
   162c0:	600d0513          	addi	a0,s10,1536
   162c4:	820fe0ef          	jal	ra,142e4 <ecmp>
   162c8:	22a04c63          	bgtz	a0,16500 <_ldtoa_r+0xf18>
   162cc:	000c8593          	mv	a1,s9
   162d0:	000a8513          	mv	a0,s5
   162d4:	810fe0ef          	jal	ra,142e4 <ecmp>
   162d8:	fca04ae3          	bgtz	a0,162ac <_ldtoa_r+0xcc4>
   162dc:	000b0693          	mv	a3,s6
   162e0:	000c8613          	mv	a2,s9
   162e4:	000c8593          	mv	a1,s9
   162e8:	000a8513          	mv	a0,s5
   162ec:	899fe0ef          	jal	ra,14b84 <ediv>
   162f0:	0a810613          	addi	a2,sp,168
   162f4:	000b0693          	mv	a3,s6
   162f8:	00060593          	mv	a1,a2
   162fc:	000a8513          	mv	a0,s5
   16300:	e19fe0ef          	jal	ra,15118 <emul>
   16304:	01740433          	add	s0,s0,s7
   16308:	fa5ff06f          	j	162ac <_ldtoa_r+0xcc4>
   1630c:	13710993          	addi	s3,sp,311
   16310:	00000493          	li	s1,0
   16314:	92079ce3          	bnez	a5,15c4c <_ldtoa_r+0x664>
   16318:	e94ff06f          	j	159ac <_ldtoa_r+0x3c4>
   1631c:	00812703          	lw	a4,8(sp)
   16320:	02a00793          	li	a5,42
   16324:	00e12223          	sw	a4,4(sp)
   16328:	84e7d6e3          	bge	a5,a4,15b74 <_ldtoa_r+0x58c>
   1632c:	00f12223          	sw	a5,4(sp)
   16330:	845ff06f          	j	15b74 <_ldtoa_r+0x58c>
   16334:	000d8793          	mv	a5,s11
   16338:	98dff06f          	j	15cc4 <_ldtoa_r+0x6dc>
   1633c:	00000613          	li	a2,0
   16340:	805ff06f          	j	15b44 <_ldtoa_r+0x55c>
   16344:	00090793          	mv	a5,s2
   16348:	0140006f          	j	1635c <_ldtoa_r+0xd74>
   1634c:	00260613          	addi	a2,a2,2
   16350:	06e10713          	addi	a4,sp,110
   16354:	00278793          	addi	a5,a5,2
   16358:	e8c704e3          	beq	a4,a2,161e0 <_ldtoa_r+0xbf8>
   1635c:	00065683          	lhu	a3,0(a2)
   16360:	0007d703          	lhu	a4,0(a5)
   16364:	fee684e3          	beq	a3,a4,1634c <_ldtoa_r+0xd64>
   16368:	0f215783          	lhu	a5,242(sp)
   1636c:	fff7c793          	not	a5,a5
   16370:	01179713          	slli	a4,a5,0x11
   16374:	3a070a63          	beqz	a4,16728 <_ldtoa_r+0x1140>
   16378:	0fc10593          	addi	a1,sp,252
   1637c:	614b8513          	addi	a0,s7,1556 # 1614 <exit-0xea80>
   16380:	eb1fd0ef          	jal	ra,14230 <emovi>
   16384:	11810593          	addi	a1,sp,280
   16388:	00090513          	mv	a0,s2
   1638c:	ea5fd0ef          	jal	ra,14230 <emovi>
   16390:	0fc15783          	lhu	a5,252(sp)
   16394:	11a15603          	lhu	a2,282(sp)
   16398:	0fe15e83          	lhu	t4,254(sp)
   1639c:	fff7c793          	not	a5,a5
   163a0:	0ef11e23          	sh	a5,252(sp)
   163a4:	40ce85b3          	sub	a1,t4,a2
   163a8:	00060693          	mv	a3,a2
   163ac:	06b05e63          	blez	a1,16428 <_ldtoa_r+0xe40>
   163b0:	11810513          	addi	a0,sp,280
   163b4:	000d8693          	mv	a3,s11
   163b8:	13010793          	addi	a5,sp,304
   163bc:	000d8593          	mv	a1,s11
   163c0:	00050713          	mv	a4,a0
   163c4:	00072883          	lw	a7,0(a4)
   163c8:	00470713          	addi	a4,a4,4
   163cc:	00458593          	addi	a1,a1,4
   163d0:	ff15ae23          	sw	a7,-4(a1)
   163d4:	fee798e3          	bne	a5,a4,163c4 <_ldtoa_r+0xddc>
   163d8:	0fc10593          	addi	a1,sp,252
   163dc:	14011623          	sh	zero,332(sp)
   163e0:	11410713          	addi	a4,sp,276
   163e4:	00058793          	mv	a5,a1
   163e8:	0007a883          	lw	a7,0(a5)
   163ec:	00478793          	addi	a5,a5,4
   163f0:	00450513          	addi	a0,a0,4
   163f4:	ff152e23          	sw	a7,-4(a0)
   163f8:	fef718e3          	bne	a4,a5,163e8 <_ldtoa_r+0xe00>
   163fc:	12011823          	sh	zero,304(sp)
   16400:	018d8793          	addi	a5,s11,24
   16404:	0006a703          	lw	a4,0(a3)
   16408:	00468693          	addi	a3,a3,4
   1640c:	00458593          	addi	a1,a1,4
   16410:	fee5ae23          	sw	a4,-4(a1)
   16414:	fed798e3          	bne	a5,a3,16404 <_ldtoa_r+0xe1c>
   16418:	11a15683          	lhu	a3,282(sp)
   1641c:	41d605b3          	sub	a1,a2,t4
   16420:	10011a23          	sh	zero,276(sp)
   16424:	00068613          	mv	a2,a3
   16428:	32058e63          	beqz	a1,16764 <_ldtoa_r+0x117c>
   1642c:	02d12e23          	sw	a3,60(sp)
   16430:	f6f00793          	li	a5,-145
   16434:	06f5c663          	blt	a1,a5,164a0 <_ldtoa_r+0xeb8>
   16438:	0fc10513          	addi	a0,sp,252
   1643c:	c39fd0ef          	jal	ra,14074 <eshift.part.0>
   16440:	03c12683          	lw	a3,60(sp)
   16444:	00050593          	mv	a1,a0
   16448:	13010793          	addi	a5,sp,304
   1644c:	11410713          	addi	a4,sp,276
   16450:	0fc15503          	lhu	a0,252(sp)
   16454:	11815603          	lhu	a2,280(sp)
   16458:	3ac50a63          	beq	a0,a2,1680c <_ldtoa_r+0x1224>
   1645c:	00000613          	li	a2,0
   16460:	11a10e93          	addi	t4,sp,282
   16464:	0007d503          	lhu	a0,0(a5)
   16468:	00075883          	lhu	a7,0(a4)
   1646c:	ffe78793          	addi	a5,a5,-2
   16470:	ffe70713          	addi	a4,a4,-2
   16474:	41150533          	sub	a0,a0,a7
   16478:	40c50633          	sub	a2,a0,a2
   1647c:	01065513          	srli	a0,a2,0x10
   16480:	00c79123          	sh	a2,2(a5)
   16484:	00157613          	andi	a2,a0,1
   16488:	fdd79ee3          	bne	a5,t4,16464 <_ldtoa_r+0xe7c>
   1648c:	00100613          	li	a2,1
   16490:	000b0793          	mv	a5,s6
   16494:	04000713          	li	a4,64
   16498:	11810513          	addi	a0,sp,280
   1649c:	f95fd0ef          	jal	ra,14430 <emdnorm>
   164a0:	00090593          	mv	a1,s2
   164a4:	11810513          	addi	a0,sp,280
   164a8:	99dfd0ef          	jal	ra,13e44 <emovo.constprop.0>
   164ac:	d35ff06f          	j	161e0 <_ldtoa_r+0xbf8>
   164b0:	00c12783          	lw	a5,12(sp)
   164b4:	12010a23          	sb	zero,308(sp)
   164b8:	000d8993          	mv	s3,s11
   164bc:	0007a023          	sw	zero,0(a5)
   164c0:	ab5ff06f          	j	15f74 <_ldtoa_r+0x98c>
   164c4:	00090793          	mv	a5,s2
   164c8:	00278793          	addi	a5,a5,2
   164cc:	0f410713          	addi	a4,sp,244
   164d0:	fe079f23          	sh	zero,-2(a5)
   164d4:	fee79ae3          	bne	a5,a4,164c8 <_ldtoa_r+0xee0>
   164d8:	cfdff06f          	j	161d4 <_ldtoa_r+0xbec>
   164dc:	13410d93          	addi	s11,sp,308
   164e0:	0e090863          	beqz	s2,165d0 <_ldtoa_r+0xfe8>
   164e4:	000255b7          	lui	a1,0x25
   164e8:	36858593          	addi	a1,a1,872 # 25368 <blanks.1+0x10>
   164ec:	000d8513          	mv	a0,s11
   164f0:	36c020ef          	jal	ra,1885c <sprintf>
   164f4:	00002437          	lui	s0,0x2
   164f8:	70f40413          	addi	s0,s0,1807 # 270f <exit-0xd985>
   164fc:	f64ff06f          	j	15c60 <_ldtoa_r+0x678>
   16500:	0f810493          	addi	s1,sp,248
   16504:	a74ff06f          	j	15778 <_ldtoa_r+0x190>
   16508:	00170713          	addi	a4,a4,1
   1650c:	00e58023          	sb	a4,0(a1)
   16510:	f3cff06f          	j	15c4c <_ldtoa_r+0x664>
   16514:	fff5c783          	lbu	a5,-1(a1)
   16518:	03800713          	li	a4,56
   1651c:	0cf77463          	bgeu	a4,a5,165e4 <_ldtoa_r+0xffc>
   16520:	03100793          	li	a5,49
   16524:	00140413          	addi	s0,s0,1
   16528:	fef58fa3          	sb	a5,-1(a1)
   1652c:	f20ff06f          	j	15c4c <_ldtoa_r+0x664>
   16530:	07010793          	addi	a5,sp,112
   16534:	08210693          	addi	a3,sp,130
   16538:	0080006f          	j	16540 <_ldtoa_r+0xf58>
   1653c:	f4d78063          	beq	a5,a3,15c7c <_ldtoa_r+0x694>
   16540:	0007d703          	lhu	a4,0(a5)
   16544:	00278793          	addi	a5,a5,2
   16548:	fe070ae3          	beqz	a4,1653c <_ldtoa_r+0xf54>
   1654c:	00c12703          	lw	a4,12(sp)
   16550:	000027b7          	lui	a5,0x2
   16554:	70f78793          	addi	a5,a5,1807 # 270f <exit-0xd985>
   16558:	00f72023          	sw	a5,0(a4)
   1655c:	f6cff06f          	j	15cc8 <_ldtoa_r+0x6e0>
   16560:	13410d93          	addi	s11,sp,308
   16564:	000255b7          	lui	a1,0x25
   16568:	38058593          	addi	a1,a1,896 # 25380 <blanks.1+0x28>
   1656c:	000d8513          	mv	a0,s11
   16570:	2ec020ef          	jal	ra,1885c <sprintf>
   16574:	f81ff06f          	j	164f4 <_ldtoa_r+0xf0c>
   16578:	0a810593          	addi	a1,sp,168
   1657c:	08c10513          	addi	a0,sp,140
   16580:	00f12c23          	sw	a5,24(sp)
   16584:	8c1fd0ef          	jal	ra,13e44 <emovo.constprop.0>
   16588:	000255b7          	lui	a1,0x25
   1658c:	62858593          	addi	a1,a1,1576 # 25628 <ezero>
   16590:	0a810513          	addi	a0,sp,168
   16594:	d51fd0ef          	jal	ra,142e4 <ecmp>
   16598:	01812783          	lw	a5,24(sp)
   1659c:	e6051663          	bnez	a0,15c08 <_ldtoa_r+0x620>
   165a0:	ea04c663          	bltz	s1,15c4c <_ldtoa_r+0x664>
   165a4:	ffe7c703          	lbu	a4,-2(a5)
   165a8:	ffe78593          	addi	a1,a5,-2
   165ac:	fd270613          	addi	a2,a4,-46
   165b0:	00163613          	seqz	a2,a2
   165b4:	fff64613          	not	a2,a2
   165b8:	00c98633          	add	a2,s3,a2
   165bc:	00064603          	lbu	a2,0(a2)
   165c0:	07f77713          	andi	a4,a4,127
   165c4:	00167613          	andi	a2,a2,1
   165c8:	e4061863          	bnez	a2,15c18 <_ldtoa_r+0x630>
   165cc:	e80ff06f          	j	15c4c <_ldtoa_r+0x664>
   165d0:	000255b7          	lui	a1,0x25
   165d4:	37458593          	addi	a1,a1,884 # 25374 <blanks.1+0x1c>
   165d8:	000d8513          	mv	a0,s11
   165dc:	280020ef          	jal	ra,1885c <sprintf>
   165e0:	f15ff06f          	j	164f4 <_ldtoa_r+0xf0c>
   165e4:	00178793          	addi	a5,a5,1
   165e8:	fef58fa3          	sb	a5,-1(a1)
   165ec:	e60ff06f          	j	15c4c <_ldtoa_r+0x664>
   165f0:	0e010c13          	addi	s8,sp,224
   165f4:	000c0593          	mv	a1,s8
   165f8:	08c10513          	addi	a0,sp,140
   165fc:	00004d37          	lui	s10,0x4
   16600:	00e12e23          	sw	a4,28(sp)
   16604:	00000413          	li	s0,0
   16608:	c29fd0ef          	jal	ra,14230 <emovi>
   1660c:	0f810493          	addi	s1,sp,248
   16610:	0e210b13          	addi	s6,sp,226
   16614:	ffed0d13          	addi	s10,s10,-2 # 3ffe <exit-0xc096>
   16618:	0dc10c93          	addi	s9,sp,220
   1661c:	fd500d93          	li	s11,-43
   16620:	01212c23          	sw	s2,24(sp)
   16624:	03312023          	sw	s3,32(sp)
   16628:	0f815783          	lhu	a5,248(sp)
   1662c:	0077f793          	andi	a5,a5,7
   16630:	0c079863          	bnez	a5,16700 <_ldtoa_r+0x1118>
   16634:	0c410993          	addi	s3,sp,196
   16638:	000c0913          	mv	s2,s8
   1663c:	00098713          	mv	a4,s3
   16640:	000c0793          	mv	a5,s8
   16644:	0007a683          	lw	a3,0(a5)
   16648:	00478793          	addi	a5,a5,4
   1664c:	00470713          	addi	a4,a4,4
   16650:	fed72e23          	sw	a3,-4(a4)
   16654:	fe9798e3          	bne	a5,s1,16644 <_ldtoa_r+0x105c>
   16658:	0c410513          	addi	a0,sp,196
   1665c:	0c011e23          	sh	zero,220(sp)
   16660:	e6cfd0ef          	jal	ra,13ccc <eshdn1>
   16664:	0c410513          	addi	a0,sp,196
   16668:	e64fd0ef          	jal	ra,13ccc <eshdn1>
   1666c:	00000613          	li	a2,0
   16670:	0dc10693          	addi	a3,sp,220
   16674:	00048713          	mv	a4,s1
   16678:	0006d503          	lhu	a0,0(a3)
   1667c:	00075783          	lhu	a5,0(a4)
   16680:	ffe68693          	addi	a3,a3,-2
   16684:	ffe70713          	addi	a4,a4,-2
   16688:	00a787b3          	add	a5,a5,a0
   1668c:	00c787b3          	add	a5,a5,a2
   16690:	0107d613          	srli	a2,a5,0x10
   16694:	00f69123          	sh	a5,2(a3)
   16698:	00167613          	andi	a2,a2,1
   1669c:	fd671ee3          	bne	a4,s6,16678 <_ldtoa_r+0x1090>
   166a0:	0c615783          	lhu	a5,198(sp)
   166a4:	0c815703          	lhu	a4,200(sp)
   166a8:	00378793          	addi	a5,a5,3
   166ac:	0cf11323          	sh	a5,198(sp)
   166b0:	02070063          	beqz	a4,166d0 <_ldtoa_r+0x10e8>
   166b4:	0c410513          	addi	a0,sp,196
   166b8:	e14fd0ef          	jal	ra,13ccc <eshdn1>
   166bc:	0c615783          	lhu	a5,198(sp)
   166c0:	0c815703          	lhu	a4,200(sp)
   166c4:	00178793          	addi	a5,a5,1
   166c8:	0cf11323          	sh	a5,198(sp)
   166cc:	fe0714e3          	bnez	a4,166b4 <_ldtoa_r+0x10cc>
   166d0:	0dc15783          	lhu	a5,220(sp)
   166d4:	02079663          	bnez	a5,16700 <_ldtoa_r+0x1118>
   166d8:	0c615783          	lhu	a5,198(sp)
   166dc:	02fd6263          	bltu	s10,a5,16700 <_ldtoa_r+0x1118>
   166e0:	0009a783          	lw	a5,0(s3)
   166e4:	00498993          	addi	s3,s3,4
   166e8:	00490913          	addi	s2,s2,4
   166ec:	fef92e23          	sw	a5,-4(s2)
   166f0:	ff9998e3          	bne	s3,s9,166e0 <_ldtoa_r+0x10f8>
   166f4:	0e011c23          	sh	zero,248(sp)
   166f8:	fff40413          	addi	s0,s0,-1
   166fc:	f3b416e3          	bne	s0,s11,16628 <_ldtoa_r+0x1040>
   16700:	01c12703          	lw	a4,28(sp)
   16704:	08c10593          	addi	a1,sp,140
   16708:	000c0513          	mv	a0,s8
   1670c:	01812903          	lw	s2,24(sp)
   16710:	02012983          	lw	s3,32(sp)
   16714:	00e12c23          	sw	a4,24(sp)
   16718:	f2cfd0ef          	jal	ra,13e44 <emovo.constprop.0>
   1671c:	01812703          	lw	a4,24(sp)
   16720:	17010b13          	addi	s6,sp,368
   16724:	f54ff06f          	j	15e78 <_ldtoa_r+0x890>
   16728:	00090793          	mv	a5,s2
   1672c:	0f210713          	addi	a4,sp,242
   16730:	0007d683          	lhu	a3,0(a5)
   16734:	00278793          	addi	a5,a5,2
   16738:	aa0694e3          	bnez	a3,161e0 <_ldtoa_r+0xbf8>
   1673c:	fee79ae3          	bne	a5,a4,16730 <_ldtoa_r+0x1148>
   16740:	00090793          	mv	a5,s2
   16744:	0007d683          	lhu	a3,0(a5)
   16748:	00278793          	addi	a5,a5,2
   1674c:	c20696e3          	bnez	a3,16378 <_ldtoa_r+0xd90>
   16750:	fee79ae3          	bne	a5,a4,16744 <_ldtoa_r+0x115c>
   16754:	a8dff06f          	j	161e0 <_ldtoa_r+0xbf8>
   16758:	0e010c13          	addi	s8,sp,224
   1675c:	0f810493          	addi	s1,sp,248
   16760:	f18ff06f          	j	15e78 <_ldtoa_r+0x890>
   16764:	11c10713          	addi	a4,sp,284
   16768:	10010793          	addi	a5,sp,256
   1676c:	11610f13          	addi	t5,sp,278
   16770:	0007de83          	lhu	t4,0(a5)
   16774:	00075503          	lhu	a0,0(a4)
   16778:	00278793          	addi	a5,a5,2
   1677c:	00270713          	addi	a4,a4,2
   16780:	04ae9663          	bne	t4,a0,167cc <_ldtoa_r+0x11e4>
   16784:	ffe796e3          	bne	a5,t5,16770 <_ldtoa_r+0x1188>
   16788:	0fc15703          	lhu	a4,252(sp)
   1678c:	11815783          	lhu	a5,280(sp)
   16790:	04f70663          	beq	a4,a5,167dc <_ldtoa_r+0x11f4>
   16794:	00090793          	mv	a5,s2
   16798:	0f410713          	addi	a4,sp,244
   1679c:	00278793          	addi	a5,a5,2
   167a0:	fe079f23          	sh	zero,-2(a5)
   167a4:	fee79ce3          	bne	a5,a4,1679c <_ldtoa_r+0x11b4>
   167a8:	a39ff06f          	j	161e0 <_ldtoa_r+0xbf8>
   167ac:	000256b7          	lui	a3,0x25
   167b0:	000015b7          	lui	a1,0x1
   167b4:	00025537          	lui	a0,0x25
   167b8:	38868693          	addi	a3,a3,904 # 25388 <blanks.1+0x30>
   167bc:	00000613          	li	a2,0
   167c0:	b6e58593          	addi	a1,a1,-1170 # b6e <exit-0xf526>
   167c4:	39c50513          	addi	a0,a0,924 # 2539c <blanks.1+0x44>
   167c8:	308060ef          	jal	ra,1cad0 <__assert_func>
   167cc:	07d56c63          	bltu	a0,t4,16844 <_ldtoa_r+0x125c>
   167d0:	13010793          	addi	a5,sp,304
   167d4:	11410713          	addi	a4,sp,276
   167d8:	c79ff06f          	j	16450 <_ldtoa_r+0xe68>
   167dc:	00068793          	mv	a5,a3
   167e0:	00069663          	bnez	a3,167ec <_ldtoa_r+0x1204>
   167e4:	11e11703          	lh	a4,286(sp)
   167e8:	0c075663          	bgez	a4,168b4 <_ldtoa_r+0x12cc>
   167ec:	11a10713          	addi	a4,sp,282
   167f0:	13010793          	addi	a5,sp,304
   167f4:	00075583          	lhu	a1,0(a4)
   167f8:	10059663          	bnez	a1,16904 <_ldtoa_r+0x131c>
   167fc:	00270713          	addi	a4,a4,2
   16800:	fee79ae3          	bne	a5,a4,167f4 <_ldtoa_r+0x120c>
   16804:	10c11d23          	sh	a2,282(sp)
   16808:	c99ff06f          	j	164a0 <_ldtoa_r+0xeb8>
   1680c:	00000613          	li	a2,0
   16810:	0fe10e93          	addi	t4,sp,254
   16814:	0007d883          	lhu	a7,0(a5)
   16818:	00075503          	lhu	a0,0(a4)
   1681c:	ffe78793          	addi	a5,a5,-2
   16820:	ffe70713          	addi	a4,a4,-2
   16824:	01150533          	add	a0,a0,a7
   16828:	00c50633          	add	a2,a0,a2
   1682c:	01065513          	srli	a0,a2,0x10
   16830:	00c79123          	sh	a2,2(a5)
   16834:	00157613          	andi	a2,a0,1
   16838:	fdd71ee3          	bne	a4,t4,16814 <_ldtoa_r+0x122c>
   1683c:	00000613          	li	a2,0
   16840:	c51ff06f          	j	16490 <_ldtoa_r+0xea8>
   16844:	11810f13          	addi	t5,sp,280
   16848:	000d8513          	mv	a0,s11
   1684c:	13010793          	addi	a5,sp,304
   16850:	000d8613          	mv	a2,s11
   16854:	000f0713          	mv	a4,t5
   16858:	00072883          	lw	a7,0(a4)
   1685c:	00470713          	addi	a4,a4,4
   16860:	00460613          	addi	a2,a2,4
   16864:	ff162e23          	sw	a7,-4(a2)
   16868:	fee798e3          	bne	a5,a4,16858 <_ldtoa_r+0x1270>
   1686c:	0fc10613          	addi	a2,sp,252
   16870:	14011623          	sh	zero,332(sp)
   16874:	11410713          	addi	a4,sp,276
   16878:	00060e93          	mv	t4,a2
   1687c:	000ea883          	lw	a7,0(t4)
   16880:	004e8e93          	addi	t4,t4,4
   16884:	004f0f13          	addi	t5,t5,4
   16888:	ff1f2e23          	sw	a7,-4(t5)
   1688c:	ffd718e3          	bne	a4,t4,1687c <_ldtoa_r+0x1294>
   16890:	12011823          	sh	zero,304(sp)
   16894:	018d8e93          	addi	t4,s11,24
   16898:	00052883          	lw	a7,0(a0)
   1689c:	00450513          	addi	a0,a0,4
   168a0:	00460613          	addi	a2,a2,4
   168a4:	ff162e23          	sw	a7,-4(a2)
   168a8:	feae98e3          	bne	t4,a0,16898 <_ldtoa_r+0x12b0>
   168ac:	10011a23          	sh	zero,276(sp)
   168b0:	ba1ff06f          	j	16450 <_ldtoa_r+0xe68>
   168b4:	13010693          	addi	a3,sp,304
   168b8:	11a10e93          	addi	t4,sp,282
   168bc:	0006d703          	lhu	a4,0(a3)
   168c0:	01071613          	slli	a2,a4,0x10
   168c4:	41065613          	srai	a2,a2,0x10
   168c8:	00065463          	bgez	a2,168d0 <_ldtoa_r+0x12e8>
   168cc:	0017e793          	ori	a5,a5,1
   168d0:	00171713          	slli	a4,a4,0x1
   168d4:	01071713          	slli	a4,a4,0x10
   168d8:	0027f613          	andi	a2,a5,2
   168dc:	01075713          	srli	a4,a4,0x10
   168e0:	00060463          	beqz	a2,168e8 <_ldtoa_r+0x1300>
   168e4:	00176713          	ori	a4,a4,1
   168e8:	00179793          	slli	a5,a5,0x1
   168ec:	00e69023          	sh	a4,0(a3)
   168f0:	01079793          	slli	a5,a5,0x10
   168f4:	ffe68693          	addi	a3,a3,-2
   168f8:	0107d793          	srli	a5,a5,0x10
   168fc:	fdd690e3          	bne	a3,t4,168bc <_ldtoa_r+0x12d4>
   16900:	ba1ff06f          	j	164a0 <_ldtoa_r+0xeb8>
   16904:	00168613          	addi	a2,a3,1
   16908:	10c11d23          	sh	a2,282(sp)
   1690c:	b95ff06f          	j	164a0 <_ldtoa_r+0xeb8>

00016910 <_ldcheck>:
   16910:	00852703          	lw	a4,8(a0)
   16914:	00c52783          	lw	a5,12(a0)
   16918:	00052603          	lw	a2,0(a0)
   1691c:	00452683          	lw	a3,4(a0)
   16920:	fc010113          	addi	sp,sp,-64
   16924:	00010513          	mv	a0,sp
   16928:	01410593          	addi	a1,sp,20
   1692c:	00e12423          	sw	a4,8(sp)
   16930:	00f12623          	sw	a5,12(sp)
   16934:	02112e23          	sw	ra,60(sp)
   16938:	00c12023          	sw	a2,0(sp)
   1693c:	00d12223          	sw	a3,4(sp)
   16940:	8f0fe0ef          	jal	ra,14a30 <e113toe.isra.0>
   16944:	02615783          	lhu	a5,38(sp)
   16948:	00000513          	li	a0,0
   1694c:	fff7c793          	not	a5,a5
   16950:	01179713          	slli	a4,a5,0x11
   16954:	02071063          	bnez	a4,16974 <_ldcheck+0x64>
   16958:	01410793          	addi	a5,sp,20
   1695c:	02610693          	addi	a3,sp,38
   16960:	0007d703          	lhu	a4,0(a5)
   16964:	00278793          	addi	a5,a5,2
   16968:	00071c63          	bnez	a4,16980 <_ldcheck+0x70>
   1696c:	fed79ae3          	bne	a5,a3,16960 <_ldcheck+0x50>
   16970:	00200513          	li	a0,2
   16974:	03c12083          	lw	ra,60(sp)
   16978:	04010113          	addi	sp,sp,64
   1697c:	00008067          	ret
   16980:	00100513          	li	a0,1
   16984:	ff1ff06f          	j	16974 <_ldcheck+0x64>

00016988 <__localeconv_l>:
   16988:	0f050513          	addi	a0,a0,240
   1698c:	00008067          	ret

00016990 <_localeconv_r>:
   16990:	12018513          	addi	a0,gp,288 # 269e0 <__global_locale+0xf0>
   16994:	00008067          	ret

00016998 <localeconv>:
   16998:	12018513          	addi	a0,gp,288 # 269e0 <__global_locale+0xf0>
   1699c:	00008067          	ret

000169a0 <__smakebuf_r>:
   169a0:	00c59783          	lh	a5,12(a1)
   169a4:	f8010113          	addi	sp,sp,-128
   169a8:	06812c23          	sw	s0,120(sp)
   169ac:	06112e23          	sw	ra,124(sp)
   169b0:	06912a23          	sw	s1,116(sp)
   169b4:	07212823          	sw	s2,112(sp)
   169b8:	07312623          	sw	s3,108(sp)
   169bc:	07412423          	sw	s4,104(sp)
   169c0:	0027f713          	andi	a4,a5,2
   169c4:	00058413          	mv	s0,a1
   169c8:	02070c63          	beqz	a4,16a00 <__smakebuf_r+0x60>
   169cc:	04358793          	addi	a5,a1,67
   169d0:	00f5a023          	sw	a5,0(a1)
   169d4:	00f5a823          	sw	a5,16(a1)
   169d8:	00100793          	li	a5,1
   169dc:	00f5aa23          	sw	a5,20(a1)
   169e0:	07c12083          	lw	ra,124(sp)
   169e4:	07812403          	lw	s0,120(sp)
   169e8:	07412483          	lw	s1,116(sp)
   169ec:	07012903          	lw	s2,112(sp)
   169f0:	06c12983          	lw	s3,108(sp)
   169f4:	06812a03          	lw	s4,104(sp)
   169f8:	08010113          	addi	sp,sp,128
   169fc:	00008067          	ret
   16a00:	00e59583          	lh	a1,14(a1)
   16a04:	00050493          	mv	s1,a0
   16a08:	0805cc63          	bltz	a1,16aa0 <__smakebuf_r+0x100>
   16a0c:	00810613          	addi	a2,sp,8
   16a10:	684060ef          	jal	ra,1d094 <_fstat_r>
   16a14:	08054463          	bltz	a0,16a9c <__smakebuf_r+0xfc>
   16a18:	00c12783          	lw	a5,12(sp)
   16a1c:	0000f937          	lui	s2,0xf
   16a20:	000019b7          	lui	s3,0x1
   16a24:	00f97933          	and	s2,s2,a5
   16a28:	ffffe7b7          	lui	a5,0xffffe
   16a2c:	00f90933          	add	s2,s2,a5
   16a30:	00193913          	seqz	s2,s2
   16a34:	40000a13          	li	s4,1024
   16a38:	80098993          	addi	s3,s3,-2048 # 800 <exit-0xf894>
   16a3c:	000a0593          	mv	a1,s4
   16a40:	00048513          	mv	a0,s1
   16a44:	1c4000ef          	jal	ra,16c08 <_malloc_r>
   16a48:	00c41783          	lh	a5,12(s0)
   16a4c:	06050e63          	beqz	a0,16ac8 <__smakebuf_r+0x128>
   16a50:	00013737          	lui	a4,0x13
   16a54:	36470713          	addi	a4,a4,868 # 13364 <_cleanup_r>
   16a58:	02e4ae23          	sw	a4,60(s1)
   16a5c:	0807e793          	ori	a5,a5,128
   16a60:	00f41623          	sh	a5,12(s0)
   16a64:	00a42023          	sw	a0,0(s0)
   16a68:	00a42823          	sw	a0,16(s0)
   16a6c:	01442a23          	sw	s4,20(s0)
   16a70:	08091863          	bnez	s2,16b00 <__smakebuf_r+0x160>
   16a74:	0137e7b3          	or	a5,a5,s3
   16a78:	07c12083          	lw	ra,124(sp)
   16a7c:	00f41623          	sh	a5,12(s0)
   16a80:	07812403          	lw	s0,120(sp)
   16a84:	07412483          	lw	s1,116(sp)
   16a88:	07012903          	lw	s2,112(sp)
   16a8c:	06c12983          	lw	s3,108(sp)
   16a90:	06812a03          	lw	s4,104(sp)
   16a94:	08010113          	addi	sp,sp,128
   16a98:	00008067          	ret
   16a9c:	00c41783          	lh	a5,12(s0)
   16aa0:	0807f793          	andi	a5,a5,128
   16aa4:	00000913          	li	s2,0
   16aa8:	04078663          	beqz	a5,16af4 <__smakebuf_r+0x154>
   16aac:	04000a13          	li	s4,64
   16ab0:	000a0593          	mv	a1,s4
   16ab4:	00048513          	mv	a0,s1
   16ab8:	150000ef          	jal	ra,16c08 <_malloc_r>
   16abc:	00c41783          	lh	a5,12(s0)
   16ac0:	00000993          	li	s3,0
   16ac4:	f80516e3          	bnez	a0,16a50 <__smakebuf_r+0xb0>
   16ac8:	2007f713          	andi	a4,a5,512
   16acc:	f0071ae3          	bnez	a4,169e0 <__smakebuf_r+0x40>
   16ad0:	ffc7f793          	andi	a5,a5,-4
   16ad4:	0027e793          	ori	a5,a5,2
   16ad8:	04340713          	addi	a4,s0,67
   16adc:	00f41623          	sh	a5,12(s0)
   16ae0:	00100793          	li	a5,1
   16ae4:	00e42023          	sw	a4,0(s0)
   16ae8:	00e42823          	sw	a4,16(s0)
   16aec:	00f42a23          	sw	a5,20(s0)
   16af0:	ef1ff06f          	j	169e0 <__smakebuf_r+0x40>
   16af4:	40000a13          	li	s4,1024
   16af8:	00000993          	li	s3,0
   16afc:	f41ff06f          	j	16a3c <__smakebuf_r+0x9c>
   16b00:	00e41583          	lh	a1,14(s0)
   16b04:	00048513          	mv	a0,s1
   16b08:	291060ef          	jal	ra,1d598 <_isatty_r>
   16b0c:	00051663          	bnez	a0,16b18 <__smakebuf_r+0x178>
   16b10:	00c41783          	lh	a5,12(s0)
   16b14:	f61ff06f          	j	16a74 <__smakebuf_r+0xd4>
   16b18:	00c45783          	lhu	a5,12(s0)
   16b1c:	ffc7f793          	andi	a5,a5,-4
   16b20:	0017e793          	ori	a5,a5,1
   16b24:	01079793          	slli	a5,a5,0x10
   16b28:	4107d793          	srai	a5,a5,0x10
   16b2c:	f49ff06f          	j	16a74 <__smakebuf_r+0xd4>

00016b30 <__swhatbuf_r>:
   16b30:	f9010113          	addi	sp,sp,-112
   16b34:	06812423          	sw	s0,104(sp)
   16b38:	00058413          	mv	s0,a1
   16b3c:	00e59583          	lh	a1,14(a1)
   16b40:	06912223          	sw	s1,100(sp)
   16b44:	07212023          	sw	s2,96(sp)
   16b48:	06112623          	sw	ra,108(sp)
   16b4c:	00060493          	mv	s1,a2
   16b50:	00068913          	mv	s2,a3
   16b54:	0405ca63          	bltz	a1,16ba8 <__swhatbuf_r+0x78>
   16b58:	00810613          	addi	a2,sp,8
   16b5c:	538060ef          	jal	ra,1d094 <_fstat_r>
   16b60:	04054463          	bltz	a0,16ba8 <__swhatbuf_r+0x78>
   16b64:	00c12703          	lw	a4,12(sp)
   16b68:	0000f7b7          	lui	a5,0xf
   16b6c:	06c12083          	lw	ra,108(sp)
   16b70:	00e7f7b3          	and	a5,a5,a4
   16b74:	ffffe737          	lui	a4,0xffffe
   16b78:	00e787b3          	add	a5,a5,a4
   16b7c:	06812403          	lw	s0,104(sp)
   16b80:	0017b793          	seqz	a5,a5
   16b84:	00f92023          	sw	a5,0(s2) # f000 <exit-0x1094>
   16b88:	40000713          	li	a4,1024
   16b8c:	00e4a023          	sw	a4,0(s1)
   16b90:	00001537          	lui	a0,0x1
   16b94:	06412483          	lw	s1,100(sp)
   16b98:	06012903          	lw	s2,96(sp)
   16b9c:	80050513          	addi	a0,a0,-2048 # 800 <exit-0xf894>
   16ba0:	07010113          	addi	sp,sp,112
   16ba4:	00008067          	ret
   16ba8:	00c45783          	lhu	a5,12(s0)
   16bac:	0807f793          	andi	a5,a5,128
   16bb0:	02078863          	beqz	a5,16be0 <__swhatbuf_r+0xb0>
   16bb4:	06c12083          	lw	ra,108(sp)
   16bb8:	06812403          	lw	s0,104(sp)
   16bbc:	00000793          	li	a5,0
   16bc0:	00f92023          	sw	a5,0(s2)
   16bc4:	04000713          	li	a4,64
   16bc8:	00e4a023          	sw	a4,0(s1)
   16bcc:	06012903          	lw	s2,96(sp)
   16bd0:	06412483          	lw	s1,100(sp)
   16bd4:	00000513          	li	a0,0
   16bd8:	07010113          	addi	sp,sp,112
   16bdc:	00008067          	ret
   16be0:	06c12083          	lw	ra,108(sp)
   16be4:	06812403          	lw	s0,104(sp)
   16be8:	00f92023          	sw	a5,0(s2)
   16bec:	40000713          	li	a4,1024
   16bf0:	00e4a023          	sw	a4,0(s1)
   16bf4:	06012903          	lw	s2,96(sp)
   16bf8:	06412483          	lw	s1,100(sp)
   16bfc:	00000513          	li	a0,0
   16c00:	07010113          	addi	sp,sp,112
   16c04:	00008067          	ret

00016c08 <_malloc_r>:
   16c08:	fd010113          	addi	sp,sp,-48
   16c0c:	01312e23          	sw	s3,28(sp)
   16c10:	02112623          	sw	ra,44(sp)
   16c14:	02812423          	sw	s0,40(sp)
   16c18:	02912223          	sw	s1,36(sp)
   16c1c:	03212023          	sw	s2,32(sp)
   16c20:	01412c23          	sw	s4,24(sp)
   16c24:	01512a23          	sw	s5,20(sp)
   16c28:	01612823          	sw	s6,16(sp)
   16c2c:	01712623          	sw	s7,12(sp)
   16c30:	01812423          	sw	s8,8(sp)
   16c34:	01912223          	sw	s9,4(sp)
   16c38:	00b58793          	addi	a5,a1,11
   16c3c:	01600713          	li	a4,22
   16c40:	00050993          	mv	s3,a0
   16c44:	08f76c63          	bltu	a4,a5,16cdc <_malloc_r+0xd4>
   16c48:	01000793          	li	a5,16
   16c4c:	20b7ea63          	bltu	a5,a1,16e60 <_malloc_r+0x258>
   16c50:	7f0000ef          	jal	ra,17440 <__malloc_lock>
   16c54:	01000493          	li	s1,16
   16c58:	01800793          	li	a5,24
   16c5c:	00200593          	li	a1,2
   16c60:	c2818913          	addi	s2,gp,-984 # 264e8 <__malloc_av_>
   16c64:	00f907b3          	add	a5,s2,a5
   16c68:	0047a403          	lw	s0,4(a5) # f004 <exit-0x1090>
   16c6c:	ff878713          	addi	a4,a5,-8
   16c70:	30e40063          	beq	s0,a4,16f70 <_malloc_r+0x368>
   16c74:	00442783          	lw	a5,4(s0)
   16c78:	00c42683          	lw	a3,12(s0)
   16c7c:	00842603          	lw	a2,8(s0)
   16c80:	ffc7f793          	andi	a5,a5,-4
   16c84:	00f407b3          	add	a5,s0,a5
   16c88:	0047a703          	lw	a4,4(a5)
   16c8c:	00d62623          	sw	a3,12(a2)
   16c90:	00c6a423          	sw	a2,8(a3)
   16c94:	00176713          	ori	a4,a4,1
   16c98:	00098513          	mv	a0,s3
   16c9c:	00e7a223          	sw	a4,4(a5)
   16ca0:	7a4000ef          	jal	ra,17444 <__malloc_unlock>
   16ca4:	00840513          	addi	a0,s0,8
   16ca8:	02c12083          	lw	ra,44(sp)
   16cac:	02812403          	lw	s0,40(sp)
   16cb0:	02412483          	lw	s1,36(sp)
   16cb4:	02012903          	lw	s2,32(sp)
   16cb8:	01c12983          	lw	s3,28(sp)
   16cbc:	01812a03          	lw	s4,24(sp)
   16cc0:	01412a83          	lw	s5,20(sp)
   16cc4:	01012b03          	lw	s6,16(sp)
   16cc8:	00c12b83          	lw	s7,12(sp)
   16ccc:	00812c03          	lw	s8,8(sp)
   16cd0:	00412c83          	lw	s9,4(sp)
   16cd4:	03010113          	addi	sp,sp,48
   16cd8:	00008067          	ret
   16cdc:	ff87f493          	andi	s1,a5,-8
   16ce0:	1807c063          	bltz	a5,16e60 <_malloc_r+0x258>
   16ce4:	16b4ee63          	bltu	s1,a1,16e60 <_malloc_r+0x258>
   16ce8:	758000ef          	jal	ra,17440 <__malloc_lock>
   16cec:	1f700793          	li	a5,503
   16cf0:	3897fa63          	bgeu	a5,s1,17084 <_malloc_r+0x47c>
   16cf4:	0094d793          	srli	a5,s1,0x9
   16cf8:	16078c63          	beqz	a5,16e70 <_malloc_r+0x268>
   16cfc:	00400713          	li	a4,4
   16d00:	2ef76063          	bltu	a4,a5,16fe0 <_malloc_r+0x3d8>
   16d04:	0064d793          	srli	a5,s1,0x6
   16d08:	03978593          	addi	a1,a5,57
   16d0c:	03878513          	addi	a0,a5,56
   16d10:	00359693          	slli	a3,a1,0x3
   16d14:	c2818913          	addi	s2,gp,-984 # 264e8 <__malloc_av_>
   16d18:	00d906b3          	add	a3,s2,a3
   16d1c:	0046a403          	lw	s0,4(a3)
   16d20:	ff868693          	addi	a3,a3,-8
   16d24:	02868663          	beq	a3,s0,16d50 <_malloc_r+0x148>
   16d28:	00f00613          	li	a2,15
   16d2c:	0100006f          	j	16d3c <_malloc_r+0x134>
   16d30:	22075a63          	bgez	a4,16f64 <_malloc_r+0x35c>
   16d34:	00c42403          	lw	s0,12(s0)
   16d38:	00868c63          	beq	a3,s0,16d50 <_malloc_r+0x148>
   16d3c:	00442783          	lw	a5,4(s0)
   16d40:	ffc7f793          	andi	a5,a5,-4
   16d44:	40978733          	sub	a4,a5,s1
   16d48:	fee654e3          	bge	a2,a4,16d30 <_malloc_r+0x128>
   16d4c:	00050593          	mv	a1,a0
   16d50:	01092403          	lw	s0,16(s2)
   16d54:	c3018813          	addi	a6,gp,-976 # 264f0 <__malloc_av_+0x8>
   16d58:	1d040e63          	beq	s0,a6,16f34 <_malloc_r+0x32c>
   16d5c:	00442783          	lw	a5,4(s0)
   16d60:	00f00693          	li	a3,15
   16d64:	ffc7f793          	andi	a5,a5,-4
   16d68:	40978733          	sub	a4,a5,s1
   16d6c:	32e6c263          	blt	a3,a4,17090 <_malloc_r+0x488>
   16d70:	01092a23          	sw	a6,20(s2)
   16d74:	01092823          	sw	a6,16(s2)
   16d78:	2e075663          	bgez	a4,17064 <_malloc_r+0x45c>
   16d7c:	1ff00713          	li	a4,511
   16d80:	00492503          	lw	a0,4(s2)
   16d84:	1ef76e63          	bltu	a4,a5,16f80 <_malloc_r+0x378>
   16d88:	ff87f713          	andi	a4,a5,-8
   16d8c:	00870713          	addi	a4,a4,8 # ffffe008 <__BSS_END__+0xfffd7520>
   16d90:	00e90733          	add	a4,s2,a4
   16d94:	00072683          	lw	a3,0(a4)
   16d98:	0057d613          	srli	a2,a5,0x5
   16d9c:	00100793          	li	a5,1
   16da0:	00c797b3          	sll	a5,a5,a2
   16da4:	00f56533          	or	a0,a0,a5
   16da8:	ff870793          	addi	a5,a4,-8
   16dac:	00f42623          	sw	a5,12(s0)
   16db0:	00d42423          	sw	a3,8(s0)
   16db4:	00a92223          	sw	a0,4(s2)
   16db8:	00872023          	sw	s0,0(a4)
   16dbc:	0086a623          	sw	s0,12(a3)
   16dc0:	4025d793          	srai	a5,a1,0x2
   16dc4:	00100613          	li	a2,1
   16dc8:	00f61633          	sll	a2,a2,a5
   16dcc:	0ac56a63          	bltu	a0,a2,16e80 <_malloc_r+0x278>
   16dd0:	00a677b3          	and	a5,a2,a0
   16dd4:	02079463          	bnez	a5,16dfc <_malloc_r+0x1f4>
   16dd8:	00161613          	slli	a2,a2,0x1
   16ddc:	ffc5f593          	andi	a1,a1,-4
   16de0:	00a677b3          	and	a5,a2,a0
   16de4:	00458593          	addi	a1,a1,4
   16de8:	00079a63          	bnez	a5,16dfc <_malloc_r+0x1f4>
   16dec:	00161613          	slli	a2,a2,0x1
   16df0:	00a677b3          	and	a5,a2,a0
   16df4:	00458593          	addi	a1,a1,4
   16df8:	fe078ae3          	beqz	a5,16dec <_malloc_r+0x1e4>
   16dfc:	00f00893          	li	a7,15
   16e00:	00359313          	slli	t1,a1,0x3
   16e04:	00690333          	add	t1,s2,t1
   16e08:	00030513          	mv	a0,t1
   16e0c:	00c52783          	lw	a5,12(a0)
   16e10:	00058e13          	mv	t3,a1
   16e14:	1ef50863          	beq	a0,a5,17004 <_malloc_r+0x3fc>
   16e18:	0047a703          	lw	a4,4(a5)
   16e1c:	00078413          	mv	s0,a5
   16e20:	00c7a783          	lw	a5,12(a5)
   16e24:	ffc77713          	andi	a4,a4,-4
   16e28:	409706b3          	sub	a3,a4,s1
   16e2c:	1ed8c863          	blt	a7,a3,1701c <_malloc_r+0x414>
   16e30:	fe06c2e3          	bltz	a3,16e14 <_malloc_r+0x20c>
   16e34:	00e40733          	add	a4,s0,a4
   16e38:	00472683          	lw	a3,4(a4)
   16e3c:	00842603          	lw	a2,8(s0)
   16e40:	00098513          	mv	a0,s3
   16e44:	0016e693          	ori	a3,a3,1
   16e48:	00d72223          	sw	a3,4(a4)
   16e4c:	00f62623          	sw	a5,12(a2)
   16e50:	00c7a423          	sw	a2,8(a5)
   16e54:	5f0000ef          	jal	ra,17444 <__malloc_unlock>
   16e58:	00840513          	addi	a0,s0,8
   16e5c:	e4dff06f          	j	16ca8 <_malloc_r+0xa0>
   16e60:	00c00793          	li	a5,12
   16e64:	00f9a023          	sw	a5,0(s3)
   16e68:	00000513          	li	a0,0
   16e6c:	e3dff06f          	j	16ca8 <_malloc_r+0xa0>
   16e70:	20000693          	li	a3,512
   16e74:	04000593          	li	a1,64
   16e78:	03f00513          	li	a0,63
   16e7c:	e99ff06f          	j	16d14 <_malloc_r+0x10c>
   16e80:	00892403          	lw	s0,8(s2)
   16e84:	00442783          	lw	a5,4(s0)
   16e88:	ffc7fb13          	andi	s6,a5,-4
   16e8c:	009b6863          	bltu	s6,s1,16e9c <_malloc_r+0x294>
   16e90:	409b0733          	sub	a4,s6,s1
   16e94:	00f00793          	li	a5,15
   16e98:	0ae7c263          	blt	a5,a4,16f3c <_malloc_r+0x334>
   16e9c:	1d41aa83          	lw	s5,468(gp) # 26a94 <__malloc_top_pad>
   16ea0:	1c41a703          	lw	a4,452(gp) # 26a84 <__malloc_sbrk_base>
   16ea4:	fff00793          	li	a5,-1
   16ea8:	01640a33          	add	s4,s0,s6
   16eac:	01548ab3          	add	s5,s1,s5
   16eb0:	3af70463          	beq	a4,a5,17258 <_malloc_r+0x650>
   16eb4:	000017b7          	lui	a5,0x1
   16eb8:	00f78793          	addi	a5,a5,15 # 100f <exit-0xf085>
   16ebc:	00fa8ab3          	add	s5,s5,a5
   16ec0:	fffff7b7          	lui	a5,0xfffff
   16ec4:	00fafab3          	and	s5,s5,a5
   16ec8:	000a8593          	mv	a1,s5
   16ecc:	00098513          	mv	a0,s3
   16ed0:	0c5010ef          	jal	ra,18794 <_sbrk_r>
   16ed4:	fff00793          	li	a5,-1
   16ed8:	00050b93          	mv	s7,a0
   16edc:	20f50463          	beq	a0,a5,170e4 <_malloc_r+0x4dc>
   16ee0:	21456063          	bltu	a0,s4,170e0 <_malloc_r+0x4d8>
   16ee4:	20018c13          	addi	s8,gp,512 # 26ac0 <__malloc_current_mallinfo>
   16ee8:	000c2583          	lw	a1,0(s8)
   16eec:	00ba85b3          	add	a1,s5,a1
   16ef0:	00bc2023          	sw	a1,0(s8)
   16ef4:	00058713          	mv	a4,a1
   16ef8:	28aa1663          	bne	s4,a0,17184 <_malloc_r+0x57c>
   16efc:	01451793          	slli	a5,a0,0x14
   16f00:	28079263          	bnez	a5,17184 <_malloc_r+0x57c>
   16f04:	00892b83          	lw	s7,8(s2)
   16f08:	015b07b3          	add	a5,s6,s5
   16f0c:	0017e793          	ori	a5,a5,1
   16f10:	00fba223          	sw	a5,4(s7)
   16f14:	1d01a683          	lw	a3,464(gp) # 26a90 <__malloc_max_sbrked_mem>
   16f18:	00b6f463          	bgeu	a3,a1,16f20 <_malloc_r+0x318>
   16f1c:	1cb1a823          	sw	a1,464(gp) # 26a90 <__malloc_max_sbrked_mem>
   16f20:	1cc1a683          	lw	a3,460(gp) # 26a8c <__malloc_max_total_mem>
   16f24:	00b6f463          	bgeu	a3,a1,16f2c <_malloc_r+0x324>
   16f28:	1cb1a623          	sw	a1,460(gp) # 26a8c <__malloc_max_total_mem>
   16f2c:	000b8413          	mv	s0,s7
   16f30:	1bc0006f          	j	170ec <_malloc_r+0x4e4>
   16f34:	00492503          	lw	a0,4(s2)
   16f38:	e89ff06f          	j	16dc0 <_malloc_r+0x1b8>
   16f3c:	0014e793          	ori	a5,s1,1
   16f40:	00f42223          	sw	a5,4(s0)
   16f44:	009404b3          	add	s1,s0,s1
   16f48:	00992423          	sw	s1,8(s2)
   16f4c:	00176713          	ori	a4,a4,1
   16f50:	00098513          	mv	a0,s3
   16f54:	00e4a223          	sw	a4,4(s1)
   16f58:	4ec000ef          	jal	ra,17444 <__malloc_unlock>
   16f5c:	00840513          	addi	a0,s0,8
   16f60:	d49ff06f          	j	16ca8 <_malloc_r+0xa0>
   16f64:	00c42683          	lw	a3,12(s0)
   16f68:	00842603          	lw	a2,8(s0)
   16f6c:	d19ff06f          	j	16c84 <_malloc_r+0x7c>
   16f70:	00c7a403          	lw	s0,12(a5) # fffff00c <__BSS_END__+0xfffd8524>
   16f74:	00258593          	addi	a1,a1,2
   16f78:	dc878ce3          	beq	a5,s0,16d50 <_malloc_r+0x148>
   16f7c:	cf9ff06f          	j	16c74 <_malloc_r+0x6c>
   16f80:	0097d713          	srli	a4,a5,0x9
   16f84:	00400693          	li	a3,4
   16f88:	14e6f263          	bgeu	a3,a4,170cc <_malloc_r+0x4c4>
   16f8c:	01400693          	li	a3,20
   16f90:	30e6ea63          	bltu	a3,a4,172a4 <_malloc_r+0x69c>
   16f94:	05c70613          	addi	a2,a4,92
   16f98:	05b70693          	addi	a3,a4,91
   16f9c:	00361613          	slli	a2,a2,0x3
   16fa0:	00c90633          	add	a2,s2,a2
   16fa4:	00062703          	lw	a4,0(a2)
   16fa8:	ff860613          	addi	a2,a2,-8
   16fac:	00e61863          	bne	a2,a4,16fbc <_malloc_r+0x3b4>
   16fb0:	2b00006f          	j	17260 <_malloc_r+0x658>
   16fb4:	00872703          	lw	a4,8(a4)
   16fb8:	00e60863          	beq	a2,a4,16fc8 <_malloc_r+0x3c0>
   16fbc:	00472683          	lw	a3,4(a4)
   16fc0:	ffc6f693          	andi	a3,a3,-4
   16fc4:	fed7e8e3          	bltu	a5,a3,16fb4 <_malloc_r+0x3ac>
   16fc8:	00c72603          	lw	a2,12(a4)
   16fcc:	00c42623          	sw	a2,12(s0)
   16fd0:	00e42423          	sw	a4,8(s0)
   16fd4:	00862423          	sw	s0,8(a2)
   16fd8:	00872623          	sw	s0,12(a4)
   16fdc:	de5ff06f          	j	16dc0 <_malloc_r+0x1b8>
   16fe0:	01400713          	li	a4,20
   16fe4:	12f77663          	bgeu	a4,a5,17110 <_malloc_r+0x508>
   16fe8:	05400713          	li	a4,84
   16fec:	2cf76a63          	bltu	a4,a5,172c0 <_malloc_r+0x6b8>
   16ff0:	00c4d793          	srli	a5,s1,0xc
   16ff4:	06f78593          	addi	a1,a5,111
   16ff8:	06e78513          	addi	a0,a5,110
   16ffc:	00359693          	slli	a3,a1,0x3
   17000:	d15ff06f          	j	16d14 <_malloc_r+0x10c>
   17004:	001e0e13          	addi	t3,t3,1
   17008:	003e7793          	andi	a5,t3,3
   1700c:	00850513          	addi	a0,a0,8
   17010:	10078e63          	beqz	a5,1712c <_malloc_r+0x524>
   17014:	00c52783          	lw	a5,12(a0)
   17018:	dfdff06f          	j	16e14 <_malloc_r+0x20c>
   1701c:	00842603          	lw	a2,8(s0)
   17020:	0014e593          	ori	a1,s1,1
   17024:	00b42223          	sw	a1,4(s0)
   17028:	00f62623          	sw	a5,12(a2)
   1702c:	00c7a423          	sw	a2,8(a5)
   17030:	009404b3          	add	s1,s0,s1
   17034:	00992a23          	sw	s1,20(s2)
   17038:	00992823          	sw	s1,16(s2)
   1703c:	0016e793          	ori	a5,a3,1
   17040:	0104a623          	sw	a6,12(s1)
   17044:	0104a423          	sw	a6,8(s1)
   17048:	00f4a223          	sw	a5,4(s1)
   1704c:	00e40733          	add	a4,s0,a4
   17050:	00098513          	mv	a0,s3
   17054:	00d72023          	sw	a3,0(a4)
   17058:	3ec000ef          	jal	ra,17444 <__malloc_unlock>
   1705c:	00840513          	addi	a0,s0,8
   17060:	c49ff06f          	j	16ca8 <_malloc_r+0xa0>
   17064:	00f407b3          	add	a5,s0,a5
   17068:	0047a703          	lw	a4,4(a5)
   1706c:	00098513          	mv	a0,s3
   17070:	00176713          	ori	a4,a4,1
   17074:	00e7a223          	sw	a4,4(a5)
   17078:	3cc000ef          	jal	ra,17444 <__malloc_unlock>
   1707c:	00840513          	addi	a0,s0,8
   17080:	c29ff06f          	j	16ca8 <_malloc_r+0xa0>
   17084:	0034d593          	srli	a1,s1,0x3
   17088:	00848793          	addi	a5,s1,8
   1708c:	bd5ff06f          	j	16c60 <_malloc_r+0x58>
   17090:	0014e693          	ori	a3,s1,1
   17094:	00d42223          	sw	a3,4(s0)
   17098:	009404b3          	add	s1,s0,s1
   1709c:	00992a23          	sw	s1,20(s2)
   170a0:	00992823          	sw	s1,16(s2)
   170a4:	00176693          	ori	a3,a4,1
   170a8:	0104a623          	sw	a6,12(s1)
   170ac:	0104a423          	sw	a6,8(s1)
   170b0:	00d4a223          	sw	a3,4(s1)
   170b4:	00f407b3          	add	a5,s0,a5
   170b8:	00098513          	mv	a0,s3
   170bc:	00e7a023          	sw	a4,0(a5)
   170c0:	384000ef          	jal	ra,17444 <__malloc_unlock>
   170c4:	00840513          	addi	a0,s0,8
   170c8:	be1ff06f          	j	16ca8 <_malloc_r+0xa0>
   170cc:	0067d713          	srli	a4,a5,0x6
   170d0:	03970613          	addi	a2,a4,57
   170d4:	03870693          	addi	a3,a4,56
   170d8:	00361613          	slli	a2,a2,0x3
   170dc:	ec5ff06f          	j	16fa0 <_malloc_r+0x398>
   170e0:	09240a63          	beq	s0,s2,17174 <_malloc_r+0x56c>
   170e4:	00892403          	lw	s0,8(s2)
   170e8:	00442783          	lw	a5,4(s0)
   170ec:	ffc7f793          	andi	a5,a5,-4
   170f0:	40978733          	sub	a4,a5,s1
   170f4:	0097e663          	bltu	a5,s1,17100 <_malloc_r+0x4f8>
   170f8:	00f00793          	li	a5,15
   170fc:	e4e7c0e3          	blt	a5,a4,16f3c <_malloc_r+0x334>
   17100:	00098513          	mv	a0,s3
   17104:	340000ef          	jal	ra,17444 <__malloc_unlock>
   17108:	00000513          	li	a0,0
   1710c:	b9dff06f          	j	16ca8 <_malloc_r+0xa0>
   17110:	05c78593          	addi	a1,a5,92
   17114:	05b78513          	addi	a0,a5,91
   17118:	00359693          	slli	a3,a1,0x3
   1711c:	bf9ff06f          	j	16d14 <_malloc_r+0x10c>
   17120:	00832783          	lw	a5,8(t1)
   17124:	fff58593          	addi	a1,a1,-1
   17128:	24679663          	bne	a5,t1,17374 <_malloc_r+0x76c>
   1712c:	0035f793          	andi	a5,a1,3
   17130:	ff830313          	addi	t1,t1,-8
   17134:	fe0796e3          	bnez	a5,17120 <_malloc_r+0x518>
   17138:	00492703          	lw	a4,4(s2)
   1713c:	fff64793          	not	a5,a2
   17140:	00e7f7b3          	and	a5,a5,a4
   17144:	00f92223          	sw	a5,4(s2)
   17148:	00161613          	slli	a2,a2,0x1
   1714c:	d2c7eae3          	bltu	a5,a2,16e80 <_malloc_r+0x278>
   17150:	d20608e3          	beqz	a2,16e80 <_malloc_r+0x278>
   17154:	00f67733          	and	a4,a2,a5
   17158:	00071a63          	bnez	a4,1716c <_malloc_r+0x564>
   1715c:	00161613          	slli	a2,a2,0x1
   17160:	00f67733          	and	a4,a2,a5
   17164:	004e0e13          	addi	t3,t3,4
   17168:	fe070ae3          	beqz	a4,1715c <_malloc_r+0x554>
   1716c:	000e0593          	mv	a1,t3
   17170:	c91ff06f          	j	16e00 <_malloc_r+0x1f8>
   17174:	20018c13          	addi	s8,gp,512 # 26ac0 <__malloc_current_mallinfo>
   17178:	000c2703          	lw	a4,0(s8)
   1717c:	00ea8733          	add	a4,s5,a4
   17180:	00ec2023          	sw	a4,0(s8)
   17184:	1c41a683          	lw	a3,452(gp) # 26a84 <__malloc_sbrk_base>
   17188:	fff00793          	li	a5,-1
   1718c:	14f68863          	beq	a3,a5,172dc <_malloc_r+0x6d4>
   17190:	414b87b3          	sub	a5,s7,s4
   17194:	00e787b3          	add	a5,a5,a4
   17198:	00fc2023          	sw	a5,0(s8)
   1719c:	007bfc93          	andi	s9,s7,7
   171a0:	0c0c8c63          	beqz	s9,17278 <_malloc_r+0x670>
   171a4:	00001737          	lui	a4,0x1
   171a8:	419b8bb3          	sub	s7,s7,s9
   171ac:	00870593          	addi	a1,a4,8 # 1008 <exit-0xf08c>
   171b0:	008b8b93          	addi	s7,s7,8
   171b4:	419585b3          	sub	a1,a1,s9
   171b8:	015b8ab3          	add	s5,s7,s5
   171bc:	415585b3          	sub	a1,a1,s5
   171c0:	fff70713          	addi	a4,a4,-1
   171c4:	00e5fa33          	and	s4,a1,a4
   171c8:	000a0593          	mv	a1,s4
   171cc:	00098513          	mv	a0,s3
   171d0:	5c4010ef          	jal	ra,18794 <_sbrk_r>
   171d4:	fff00793          	li	a5,-1
   171d8:	14f50863          	beq	a0,a5,17328 <_malloc_r+0x720>
   171dc:	41750533          	sub	a0,a0,s7
   171e0:	01450ab3          	add	s5,a0,s4
   171e4:	000c2703          	lw	a4,0(s8)
   171e8:	01792423          	sw	s7,8(s2)
   171ec:	001ae793          	ori	a5,s5,1
   171f0:	00ea05b3          	add	a1,s4,a4
   171f4:	00bc2023          	sw	a1,0(s8)
   171f8:	00fba223          	sw	a5,4(s7)
   171fc:	d1240ce3          	beq	s0,s2,16f14 <_malloc_r+0x30c>
   17200:	00f00693          	li	a3,15
   17204:	0f66f063          	bgeu	a3,s6,172e4 <_malloc_r+0x6dc>
   17208:	00442703          	lw	a4,4(s0)
   1720c:	ff4b0793          	addi	a5,s6,-12
   17210:	ff87f793          	andi	a5,a5,-8
   17214:	00177713          	andi	a4,a4,1
   17218:	00f76733          	or	a4,a4,a5
   1721c:	00e42223          	sw	a4,4(s0)
   17220:	00500613          	li	a2,5
   17224:	00f40733          	add	a4,s0,a5
   17228:	00c72223          	sw	a2,4(a4)
   1722c:	00c72423          	sw	a2,8(a4)
   17230:	00f6e663          	bltu	a3,a5,1723c <_malloc_r+0x634>
   17234:	004ba783          	lw	a5,4(s7)
   17238:	cddff06f          	j	16f14 <_malloc_r+0x30c>
   1723c:	00840593          	addi	a1,s0,8
   17240:	00098513          	mv	a0,s3
   17244:	e38fc0ef          	jal	ra,1387c <_free_r>
   17248:	00892b83          	lw	s7,8(s2)
   1724c:	000c2583          	lw	a1,0(s8)
   17250:	004ba783          	lw	a5,4(s7)
   17254:	cc1ff06f          	j	16f14 <_malloc_r+0x30c>
   17258:	010a8a93          	addi	s5,s5,16
   1725c:	c6dff06f          	j	16ec8 <_malloc_r+0x2c0>
   17260:	4026d693          	srai	a3,a3,0x2
   17264:	00100793          	li	a5,1
   17268:	00d797b3          	sll	a5,a5,a3
   1726c:	00f56533          	or	a0,a0,a5
   17270:	00a92223          	sw	a0,4(s2)
   17274:	d59ff06f          	j	16fcc <_malloc_r+0x3c4>
   17278:	015b85b3          	add	a1,s7,s5
   1727c:	40b005b3          	neg	a1,a1
   17280:	01459593          	slli	a1,a1,0x14
   17284:	0145da13          	srli	s4,a1,0x14
   17288:	000a0593          	mv	a1,s4
   1728c:	00098513          	mv	a0,s3
   17290:	504010ef          	jal	ra,18794 <_sbrk_r>
   17294:	fff00793          	li	a5,-1
   17298:	f4f512e3          	bne	a0,a5,171dc <_malloc_r+0x5d4>
   1729c:	00000a13          	li	s4,0
   172a0:	f45ff06f          	j	171e4 <_malloc_r+0x5dc>
   172a4:	05400693          	li	a3,84
   172a8:	04e6e463          	bltu	a3,a4,172f0 <_malloc_r+0x6e8>
   172ac:	00c7d713          	srli	a4,a5,0xc
   172b0:	06f70613          	addi	a2,a4,111
   172b4:	06e70693          	addi	a3,a4,110
   172b8:	00361613          	slli	a2,a2,0x3
   172bc:	ce5ff06f          	j	16fa0 <_malloc_r+0x398>
   172c0:	15400713          	li	a4,340
   172c4:	04f76463          	bltu	a4,a5,1730c <_malloc_r+0x704>
   172c8:	00f4d793          	srli	a5,s1,0xf
   172cc:	07878593          	addi	a1,a5,120
   172d0:	07778513          	addi	a0,a5,119
   172d4:	00359693          	slli	a3,a1,0x3
   172d8:	a3dff06f          	j	16d14 <_malloc_r+0x10c>
   172dc:	1d71a223          	sw	s7,452(gp) # 26a84 <__malloc_sbrk_base>
   172e0:	ebdff06f          	j	1719c <_malloc_r+0x594>
   172e4:	00100793          	li	a5,1
   172e8:	00fba223          	sw	a5,4(s7)
   172ec:	e15ff06f          	j	17100 <_malloc_r+0x4f8>
   172f0:	15400693          	li	a3,340
   172f4:	04e6e463          	bltu	a3,a4,1733c <_malloc_r+0x734>
   172f8:	00f7d713          	srli	a4,a5,0xf
   172fc:	07870613          	addi	a2,a4,120
   17300:	07770693          	addi	a3,a4,119
   17304:	00361613          	slli	a2,a2,0x3
   17308:	c99ff06f          	j	16fa0 <_malloc_r+0x398>
   1730c:	55400713          	li	a4,1364
   17310:	04f76463          	bltu	a4,a5,17358 <_malloc_r+0x750>
   17314:	0124d793          	srli	a5,s1,0x12
   17318:	07d78593          	addi	a1,a5,125
   1731c:	07c78513          	addi	a0,a5,124
   17320:	00359693          	slli	a3,a1,0x3
   17324:	9f1ff06f          	j	16d14 <_malloc_r+0x10c>
   17328:	ff8c8c93          	addi	s9,s9,-8
   1732c:	019a8ab3          	add	s5,s5,s9
   17330:	417a8ab3          	sub	s5,s5,s7
   17334:	00000a13          	li	s4,0
   17338:	eadff06f          	j	171e4 <_malloc_r+0x5dc>
   1733c:	55400693          	li	a3,1364
   17340:	02e6e463          	bltu	a3,a4,17368 <_malloc_r+0x760>
   17344:	0127d713          	srli	a4,a5,0x12
   17348:	07d70613          	addi	a2,a4,125
   1734c:	07c70693          	addi	a3,a4,124
   17350:	00361613          	slli	a2,a2,0x3
   17354:	c4dff06f          	j	16fa0 <_malloc_r+0x398>
   17358:	3f800693          	li	a3,1016
   1735c:	07f00593          	li	a1,127
   17360:	07e00513          	li	a0,126
   17364:	9b1ff06f          	j	16d14 <_malloc_r+0x10c>
   17368:	3f800613          	li	a2,1016
   1736c:	07e00693          	li	a3,126
   17370:	c31ff06f          	j	16fa0 <_malloc_r+0x398>
   17374:	00492783          	lw	a5,4(s2)
   17378:	dd1ff06f          	j	17148 <_malloc_r+0x540>

0001737c <memchr>:
   1737c:	00357793          	andi	a5,a0,3
   17380:	0ff5f693          	zext.b	a3,a1
   17384:	02078e63          	beqz	a5,173c0 <memchr+0x44>
   17388:	fff60793          	addi	a5,a2,-1
   1738c:	02060663          	beqz	a2,173b8 <memchr+0x3c>
   17390:	fff00613          	li	a2,-1
   17394:	0180006f          	j	173ac <memchr+0x30>
   17398:	00150513          	addi	a0,a0,1
   1739c:	00357713          	andi	a4,a0,3
   173a0:	02070263          	beqz	a4,173c4 <memchr+0x48>
   173a4:	fff78793          	addi	a5,a5,-1
   173a8:	00c78863          	beq	a5,a2,173b8 <memchr+0x3c>
   173ac:	00054703          	lbu	a4,0(a0)
   173b0:	fed714e3          	bne	a4,a3,17398 <memchr+0x1c>
   173b4:	00008067          	ret
   173b8:	00000513          	li	a0,0
   173bc:	00008067          	ret
   173c0:	00060793          	mv	a5,a2
   173c4:	00300713          	li	a4,3
   173c8:	04f77c63          	bgeu	a4,a5,17420 <memchr+0xa4>
   173cc:	0ff5f593          	zext.b	a1,a1
   173d0:	00859713          	slli	a4,a1,0x8
   173d4:	00b705b3          	add	a1,a4,a1
   173d8:	01059713          	slli	a4,a1,0x10
   173dc:	feff08b7          	lui	a7,0xfeff0
   173e0:	80808837          	lui	a6,0x80808
   173e4:	00e585b3          	add	a1,a1,a4
   173e8:	eff88893          	addi	a7,a7,-257 # fefefeff <__BSS_END__+0xfefc9417>
   173ec:	08080813          	addi	a6,a6,128 # 80808080 <__BSS_END__+0x807e1598>
   173f0:	00300313          	li	t1,3
   173f4:	0100006f          	j	17404 <memchr+0x88>
   173f8:	ffc78793          	addi	a5,a5,-4
   173fc:	00450513          	addi	a0,a0,4
   17400:	02f37063          	bgeu	t1,a5,17420 <memchr+0xa4>
   17404:	00052703          	lw	a4,0(a0)
   17408:	00e5c733          	xor	a4,a1,a4
   1740c:	01170633          	add	a2,a4,a7
   17410:	fff74713          	not	a4,a4
   17414:	00e67733          	and	a4,a2,a4
   17418:	01077733          	and	a4,a4,a6
   1741c:	fc070ee3          	beqz	a4,173f8 <memchr+0x7c>
   17420:	00f50733          	add	a4,a0,a5
   17424:	00079863          	bnez	a5,17434 <memchr+0xb8>
   17428:	f91ff06f          	j	173b8 <memchr+0x3c>
   1742c:	00150513          	addi	a0,a0,1
   17430:	f8e504e3          	beq	a0,a4,173b8 <memchr+0x3c>
   17434:	00054783          	lbu	a5,0(a0)
   17438:	fed79ae3          	bne	a5,a3,1742c <memchr+0xb0>
   1743c:	00008067          	ret

00017440 <__malloc_lock>:
   17440:	00008067          	ret

00017444 <__malloc_unlock>:
   17444:	00008067          	ret

00017448 <_Balloc>:
   17448:	04c52783          	lw	a5,76(a0)
   1744c:	ff010113          	addi	sp,sp,-16
   17450:	00812423          	sw	s0,8(sp)
   17454:	00912223          	sw	s1,4(sp)
   17458:	00112623          	sw	ra,12(sp)
   1745c:	01212023          	sw	s2,0(sp)
   17460:	00050413          	mv	s0,a0
   17464:	00058493          	mv	s1,a1
   17468:	02078e63          	beqz	a5,174a4 <_Balloc+0x5c>
   1746c:	00249713          	slli	a4,s1,0x2
   17470:	00e787b3          	add	a5,a5,a4
   17474:	0007a503          	lw	a0,0(a5)
   17478:	04050663          	beqz	a0,174c4 <_Balloc+0x7c>
   1747c:	00052703          	lw	a4,0(a0)
   17480:	00e7a023          	sw	a4,0(a5)
   17484:	00052823          	sw	zero,16(a0)
   17488:	00052623          	sw	zero,12(a0)
   1748c:	00c12083          	lw	ra,12(sp)
   17490:	00812403          	lw	s0,8(sp)
   17494:	00412483          	lw	s1,4(sp)
   17498:	00012903          	lw	s2,0(sp)
   1749c:	01010113          	addi	sp,sp,16
   174a0:	00008067          	ret
   174a4:	02100613          	li	a2,33
   174a8:	00400593          	li	a1,4
   174ac:	68c050ef          	jal	ra,1cb38 <_calloc_r>
   174b0:	04a42623          	sw	a0,76(s0)
   174b4:	00050793          	mv	a5,a0
   174b8:	fa051ae3          	bnez	a0,1746c <_Balloc+0x24>
   174bc:	00000513          	li	a0,0
   174c0:	fcdff06f          	j	1748c <_Balloc+0x44>
   174c4:	00100913          	li	s2,1
   174c8:	00991933          	sll	s2,s2,s1
   174cc:	00590613          	addi	a2,s2,5
   174d0:	00261613          	slli	a2,a2,0x2
   174d4:	00100593          	li	a1,1
   174d8:	00040513          	mv	a0,s0
   174dc:	65c050ef          	jal	ra,1cb38 <_calloc_r>
   174e0:	fc050ee3          	beqz	a0,174bc <_Balloc+0x74>
   174e4:	00952223          	sw	s1,4(a0)
   174e8:	01252423          	sw	s2,8(a0)
   174ec:	f99ff06f          	j	17484 <_Balloc+0x3c>

000174f0 <_Bfree>:
   174f0:	02058063          	beqz	a1,17510 <_Bfree+0x20>
   174f4:	0045a703          	lw	a4,4(a1)
   174f8:	04c52783          	lw	a5,76(a0)
   174fc:	00271713          	slli	a4,a4,0x2
   17500:	00e787b3          	add	a5,a5,a4
   17504:	0007a703          	lw	a4,0(a5)
   17508:	00e5a023          	sw	a4,0(a1)
   1750c:	00b7a023          	sw	a1,0(a5)
   17510:	00008067          	ret

00017514 <__multadd>:
   17514:	fd010113          	addi	sp,sp,-48
   17518:	01312e23          	sw	s3,28(sp)
   1751c:	0105a983          	lw	s3,16(a1)
   17520:	01812423          	sw	s8,8(sp)
   17524:	00010c37          	lui	s8,0x10
   17528:	02812423          	sw	s0,40(sp)
   1752c:	02912223          	sw	s1,36(sp)
   17530:	03212023          	sw	s2,32(sp)
   17534:	01412c23          	sw	s4,24(sp)
   17538:	01512a23          	sw	s5,20(sp)
   1753c:	01612823          	sw	s6,16(sp)
   17540:	02112623          	sw	ra,44(sp)
   17544:	01712623          	sw	s7,12(sp)
   17548:	00058a13          	mv	s4,a1
   1754c:	00050a93          	mv	s5,a0
   17550:	00060913          	mv	s2,a2
   17554:	00068413          	mv	s0,a3
   17558:	01458493          	addi	s1,a1,20
   1755c:	00000b13          	li	s6,0
   17560:	fffc0c13          	addi	s8,s8,-1 # ffff <exit-0x95>
   17564:	0004ab83          	lw	s7,0(s1)
   17568:	00090593          	mv	a1,s2
   1756c:	00448493          	addi	s1,s1,4
   17570:	018bf533          	and	a0,s7,s8
   17574:	1c50d0ef          	jal	ra,24f38 <__mulsi3>
   17578:	00850433          	add	s0,a0,s0
   1757c:	00090593          	mv	a1,s2
   17580:	010bd513          	srli	a0,s7,0x10
   17584:	1b50d0ef          	jal	ra,24f38 <__mulsi3>
   17588:	01045793          	srli	a5,s0,0x10
   1758c:	00f50533          	add	a0,a0,a5
   17590:	01847433          	and	s0,s0,s8
   17594:	01051793          	slli	a5,a0,0x10
   17598:	008787b3          	add	a5,a5,s0
   1759c:	fef4ae23          	sw	a5,-4(s1)
   175a0:	001b0b13          	addi	s6,s6,1
   175a4:	01055413          	srli	s0,a0,0x10
   175a8:	fb3b4ee3          	blt	s6,s3,17564 <__multadd+0x50>
   175ac:	02040263          	beqz	s0,175d0 <__multadd+0xbc>
   175b0:	008a2783          	lw	a5,8(s4)
   175b4:	04f9d863          	bge	s3,a5,17604 <__multadd+0xf0>
   175b8:	00498793          	addi	a5,s3,4
   175bc:	00279793          	slli	a5,a5,0x2
   175c0:	00fa07b3          	add	a5,s4,a5
   175c4:	0087a223          	sw	s0,4(a5)
   175c8:	00198993          	addi	s3,s3,1
   175cc:	013a2823          	sw	s3,16(s4)
   175d0:	02c12083          	lw	ra,44(sp)
   175d4:	02812403          	lw	s0,40(sp)
   175d8:	02412483          	lw	s1,36(sp)
   175dc:	02012903          	lw	s2,32(sp)
   175e0:	01c12983          	lw	s3,28(sp)
   175e4:	01412a83          	lw	s5,20(sp)
   175e8:	01012b03          	lw	s6,16(sp)
   175ec:	00c12b83          	lw	s7,12(sp)
   175f0:	00812c03          	lw	s8,8(sp)
   175f4:	000a0513          	mv	a0,s4
   175f8:	01812a03          	lw	s4,24(sp)
   175fc:	03010113          	addi	sp,sp,48
   17600:	00008067          	ret
   17604:	004a2583          	lw	a1,4(s4)
   17608:	000a8513          	mv	a0,s5
   1760c:	00158593          	addi	a1,a1,1
   17610:	e39ff0ef          	jal	ra,17448 <_Balloc>
   17614:	00050493          	mv	s1,a0
   17618:	04050c63          	beqz	a0,17670 <__multadd+0x15c>
   1761c:	010a2603          	lw	a2,16(s4)
   17620:	00ca0593          	addi	a1,s4,12
   17624:	00c50513          	addi	a0,a0,12
   17628:	00260613          	addi	a2,a2,2
   1762c:	00261613          	slli	a2,a2,0x2
   17630:	19c060ef          	jal	ra,1d7cc <memcpy>
   17634:	004a2703          	lw	a4,4(s4)
   17638:	04caa783          	lw	a5,76(s5)
   1763c:	00271713          	slli	a4,a4,0x2
   17640:	00e787b3          	add	a5,a5,a4
   17644:	0007a703          	lw	a4,0(a5)
   17648:	00ea2023          	sw	a4,0(s4)
   1764c:	0147a023          	sw	s4,0(a5)
   17650:	00498793          	addi	a5,s3,4
   17654:	00048a13          	mv	s4,s1
   17658:	00279793          	slli	a5,a5,0x2
   1765c:	00fa07b3          	add	a5,s4,a5
   17660:	0087a223          	sw	s0,4(a5)
   17664:	00198993          	addi	s3,s3,1
   17668:	013a2823          	sw	s3,16(s4)
   1766c:	f65ff06f          	j	175d0 <__multadd+0xbc>
   17670:	000256b7          	lui	a3,0x25
   17674:	00025537          	lui	a0,0x25
   17678:	38868693          	addi	a3,a3,904 # 25388 <blanks.1+0x30>
   1767c:	00000613          	li	a2,0
   17680:	0b500593          	li	a1,181
   17684:	63c50513          	addi	a0,a0,1596 # 2563c <ezero+0x14>
   17688:	448050ef          	jal	ra,1cad0 <__assert_func>

0001768c <__s2b>:
   1768c:	fe010113          	addi	sp,sp,-32
   17690:	00812c23          	sw	s0,24(sp)
   17694:	01212823          	sw	s2,16(sp)
   17698:	00058413          	mv	s0,a1
   1769c:	00050913          	mv	s2,a0
   176a0:	00900593          	li	a1,9
   176a4:	00868513          	addi	a0,a3,8
   176a8:	00912a23          	sw	s1,20(sp)
   176ac:	01312623          	sw	s3,12(sp)
   176b0:	01412423          	sw	s4,8(sp)
   176b4:	00112e23          	sw	ra,28(sp)
   176b8:	01512223          	sw	s5,4(sp)
   176bc:	00068493          	mv	s1,a3
   176c0:	00060993          	mv	s3,a2
   176c4:	00070a13          	mv	s4,a4
   176c8:	0950d0ef          	jal	ra,24f5c <__divsi3>
   176cc:	00900793          	li	a5,9
   176d0:	0c97d863          	bge	a5,s1,177a0 <__s2b+0x114>
   176d4:	00100793          	li	a5,1
   176d8:	00000593          	li	a1,0
   176dc:	00179793          	slli	a5,a5,0x1
   176e0:	00158593          	addi	a1,a1,1
   176e4:	fea7cce3          	blt	a5,a0,176dc <__s2b+0x50>
   176e8:	00090513          	mv	a0,s2
   176ec:	d5dff0ef          	jal	ra,17448 <_Balloc>
   176f0:	00050593          	mv	a1,a0
   176f4:	0a050a63          	beqz	a0,177a8 <__s2b+0x11c>
   176f8:	00100793          	li	a5,1
   176fc:	00f52823          	sw	a5,16(a0)
   17700:	01452a23          	sw	s4,20(a0)
   17704:	00900793          	li	a5,9
   17708:	0937d663          	bge	a5,s3,17794 <__s2b+0x108>
   1770c:	00940a93          	addi	s5,s0,9
   17710:	01340a33          	add	s4,s0,s3
   17714:	000a8413          	mv	s0,s5
   17718:	00044683          	lbu	a3,0(s0)
   1771c:	00a00613          	li	a2,10
   17720:	00090513          	mv	a0,s2
   17724:	fd068693          	addi	a3,a3,-48
   17728:	dedff0ef          	jal	ra,17514 <__multadd>
   1772c:	00140413          	addi	s0,s0,1
   17730:	00050593          	mv	a1,a0
   17734:	ff4412e3          	bne	s0,s4,17718 <__s2b+0x8c>
   17738:	ff898413          	addi	s0,s3,-8
   1773c:	008a8433          	add	s0,s5,s0
   17740:	0299d663          	bge	s3,s1,1776c <__s2b+0xe0>
   17744:	413484b3          	sub	s1,s1,s3
   17748:	009404b3          	add	s1,s0,s1
   1774c:	00044683          	lbu	a3,0(s0)
   17750:	00a00613          	li	a2,10
   17754:	00090513          	mv	a0,s2
   17758:	fd068693          	addi	a3,a3,-48
   1775c:	db9ff0ef          	jal	ra,17514 <__multadd>
   17760:	00140413          	addi	s0,s0,1
   17764:	00050593          	mv	a1,a0
   17768:	fe8492e3          	bne	s1,s0,1774c <__s2b+0xc0>
   1776c:	01c12083          	lw	ra,28(sp)
   17770:	01812403          	lw	s0,24(sp)
   17774:	01412483          	lw	s1,20(sp)
   17778:	01012903          	lw	s2,16(sp)
   1777c:	00c12983          	lw	s3,12(sp)
   17780:	00812a03          	lw	s4,8(sp)
   17784:	00412a83          	lw	s5,4(sp)
   17788:	00058513          	mv	a0,a1
   1778c:	02010113          	addi	sp,sp,32
   17790:	00008067          	ret
   17794:	00a40413          	addi	s0,s0,10
   17798:	00900993          	li	s3,9
   1779c:	fa5ff06f          	j	17740 <__s2b+0xb4>
   177a0:	00000593          	li	a1,0
   177a4:	f45ff06f          	j	176e8 <__s2b+0x5c>
   177a8:	000256b7          	lui	a3,0x25
   177ac:	00025537          	lui	a0,0x25
   177b0:	38868693          	addi	a3,a3,904 # 25388 <blanks.1+0x30>
   177b4:	00000613          	li	a2,0
   177b8:	0ce00593          	li	a1,206
   177bc:	63c50513          	addi	a0,a0,1596 # 2563c <ezero+0x14>
   177c0:	310050ef          	jal	ra,1cad0 <__assert_func>

000177c4 <__hi0bits>:
   177c4:	00050793          	mv	a5,a0
   177c8:	00010737          	lui	a4,0x10
   177cc:	00000513          	li	a0,0
   177d0:	00e7f663          	bgeu	a5,a4,177dc <__hi0bits+0x18>
   177d4:	01079793          	slli	a5,a5,0x10
   177d8:	01000513          	li	a0,16
   177dc:	01000737          	lui	a4,0x1000
   177e0:	00e7f663          	bgeu	a5,a4,177ec <__hi0bits+0x28>
   177e4:	00850513          	addi	a0,a0,8
   177e8:	00879793          	slli	a5,a5,0x8
   177ec:	10000737          	lui	a4,0x10000
   177f0:	00e7f663          	bgeu	a5,a4,177fc <__hi0bits+0x38>
   177f4:	00450513          	addi	a0,a0,4
   177f8:	00479793          	slli	a5,a5,0x4
   177fc:	40000737          	lui	a4,0x40000
   17800:	00e7ea63          	bltu	a5,a4,17814 <__hi0bits+0x50>
   17804:	fff7c793          	not	a5,a5
   17808:	01f7d793          	srli	a5,a5,0x1f
   1780c:	00f50533          	add	a0,a0,a5
   17810:	00008067          	ret
   17814:	00279793          	slli	a5,a5,0x2
   17818:	0007ca63          	bltz	a5,1782c <__hi0bits+0x68>
   1781c:	00e7f7b3          	and	a5,a5,a4
   17820:	00079a63          	bnez	a5,17834 <__hi0bits+0x70>
   17824:	02000513          	li	a0,32
   17828:	00008067          	ret
   1782c:	00250513          	addi	a0,a0,2
   17830:	00008067          	ret
   17834:	00350513          	addi	a0,a0,3
   17838:	00008067          	ret

0001783c <__lo0bits>:
   1783c:	00052783          	lw	a5,0(a0)
   17840:	00050713          	mv	a4,a0
   17844:	0077f693          	andi	a3,a5,7
   17848:	02068463          	beqz	a3,17870 <__lo0bits+0x34>
   1784c:	0017f693          	andi	a3,a5,1
   17850:	00000513          	li	a0,0
   17854:	04069e63          	bnez	a3,178b0 <__lo0bits+0x74>
   17858:	0027f693          	andi	a3,a5,2
   1785c:	0a068863          	beqz	a3,1790c <__lo0bits+0xd0>
   17860:	0017d793          	srli	a5,a5,0x1
   17864:	00f72023          	sw	a5,0(a4) # 40000000 <__BSS_END__+0x3ffd9518>
   17868:	00100513          	li	a0,1
   1786c:	00008067          	ret
   17870:	01079693          	slli	a3,a5,0x10
   17874:	0106d693          	srli	a3,a3,0x10
   17878:	00000513          	li	a0,0
   1787c:	06068e63          	beqz	a3,178f8 <__lo0bits+0xbc>
   17880:	0ff7f693          	zext.b	a3,a5
   17884:	06068063          	beqz	a3,178e4 <__lo0bits+0xa8>
   17888:	00f7f693          	andi	a3,a5,15
   1788c:	04068263          	beqz	a3,178d0 <__lo0bits+0x94>
   17890:	0037f693          	andi	a3,a5,3
   17894:	02068463          	beqz	a3,178bc <__lo0bits+0x80>
   17898:	0017f693          	andi	a3,a5,1
   1789c:	00069c63          	bnez	a3,178b4 <__lo0bits+0x78>
   178a0:	0017d793          	srli	a5,a5,0x1
   178a4:	00150513          	addi	a0,a0,1
   178a8:	00079663          	bnez	a5,178b4 <__lo0bits+0x78>
   178ac:	02000513          	li	a0,32
   178b0:	00008067          	ret
   178b4:	00f72023          	sw	a5,0(a4)
   178b8:	00008067          	ret
   178bc:	0027d793          	srli	a5,a5,0x2
   178c0:	0017f693          	andi	a3,a5,1
   178c4:	00250513          	addi	a0,a0,2
   178c8:	fe0696e3          	bnez	a3,178b4 <__lo0bits+0x78>
   178cc:	fd5ff06f          	j	178a0 <__lo0bits+0x64>
   178d0:	0047d793          	srli	a5,a5,0x4
   178d4:	0037f693          	andi	a3,a5,3
   178d8:	00450513          	addi	a0,a0,4
   178dc:	fa069ee3          	bnez	a3,17898 <__lo0bits+0x5c>
   178e0:	fddff06f          	j	178bc <__lo0bits+0x80>
   178e4:	0087d793          	srli	a5,a5,0x8
   178e8:	00f7f693          	andi	a3,a5,15
   178ec:	00850513          	addi	a0,a0,8
   178f0:	fa0690e3          	bnez	a3,17890 <__lo0bits+0x54>
   178f4:	fddff06f          	j	178d0 <__lo0bits+0x94>
   178f8:	0107d793          	srli	a5,a5,0x10
   178fc:	0ff7f693          	zext.b	a3,a5
   17900:	01000513          	li	a0,16
   17904:	f80692e3          	bnez	a3,17888 <__lo0bits+0x4c>
   17908:	fddff06f          	j	178e4 <__lo0bits+0xa8>
   1790c:	0027d793          	srli	a5,a5,0x2
   17910:	00f72023          	sw	a5,0(a4)
   17914:	00200513          	li	a0,2
   17918:	00008067          	ret

0001791c <__i2b>:
   1791c:	04c52783          	lw	a5,76(a0)
   17920:	ff010113          	addi	sp,sp,-16
   17924:	00812423          	sw	s0,8(sp)
   17928:	00912223          	sw	s1,4(sp)
   1792c:	00112623          	sw	ra,12(sp)
   17930:	00050413          	mv	s0,a0
   17934:	00058493          	mv	s1,a1
   17938:	02078c63          	beqz	a5,17970 <__i2b+0x54>
   1793c:	0047a503          	lw	a0,4(a5)
   17940:	06050263          	beqz	a0,179a4 <__i2b+0x88>
   17944:	00052703          	lw	a4,0(a0)
   17948:	00e7a223          	sw	a4,4(a5)
   1794c:	00c12083          	lw	ra,12(sp)
   17950:	00812403          	lw	s0,8(sp)
   17954:	00100793          	li	a5,1
   17958:	00952a23          	sw	s1,20(a0)
   1795c:	00052623          	sw	zero,12(a0)
   17960:	00f52823          	sw	a5,16(a0)
   17964:	00412483          	lw	s1,4(sp)
   17968:	01010113          	addi	sp,sp,16
   1796c:	00008067          	ret
   17970:	02100613          	li	a2,33
   17974:	00400593          	li	a1,4
   17978:	1c0050ef          	jal	ra,1cb38 <_calloc_r>
   1797c:	04a42623          	sw	a0,76(s0)
   17980:	00050793          	mv	a5,a0
   17984:	fa051ce3          	bnez	a0,1793c <__i2b+0x20>
   17988:	000256b7          	lui	a3,0x25
   1798c:	00025537          	lui	a0,0x25
   17990:	38868693          	addi	a3,a3,904 # 25388 <blanks.1+0x30>
   17994:	00000613          	li	a2,0
   17998:	14000593          	li	a1,320
   1799c:	63c50513          	addi	a0,a0,1596 # 2563c <ezero+0x14>
   179a0:	130050ef          	jal	ra,1cad0 <__assert_func>
   179a4:	01c00613          	li	a2,28
   179a8:	00100593          	li	a1,1
   179ac:	00040513          	mv	a0,s0
   179b0:	188050ef          	jal	ra,1cb38 <_calloc_r>
   179b4:	fc050ae3          	beqz	a0,17988 <__i2b+0x6c>
   179b8:	00100793          	li	a5,1
   179bc:	00f52223          	sw	a5,4(a0)
   179c0:	00200793          	li	a5,2
   179c4:	00f52423          	sw	a5,8(a0)
   179c8:	f85ff06f          	j	1794c <__i2b+0x30>

000179cc <__multiply>:
   179cc:	fb010113          	addi	sp,sp,-80
   179d0:	03312e23          	sw	s3,60(sp)
   179d4:	03812423          	sw	s8,40(sp)
   179d8:	01062983          	lw	s3,16(a2)
   179dc:	0105ac03          	lw	s8,16(a1)
   179e0:	04812423          	sw	s0,72(sp)
   179e4:	03412c23          	sw	s4,56(sp)
   179e8:	04112623          	sw	ra,76(sp)
   179ec:	04912223          	sw	s1,68(sp)
   179f0:	05212023          	sw	s2,64(sp)
   179f4:	03512a23          	sw	s5,52(sp)
   179f8:	03612823          	sw	s6,48(sp)
   179fc:	03712623          	sw	s7,44(sp)
   17a00:	03912223          	sw	s9,36(sp)
   17a04:	03a12023          	sw	s10,32(sp)
   17a08:	01b12e23          	sw	s11,28(sp)
   17a0c:	00058a13          	mv	s4,a1
   17a10:	00060413          	mv	s0,a2
   17a14:	013c4c63          	blt	s8,s3,17a2c <__multiply+0x60>
   17a18:	00098713          	mv	a4,s3
   17a1c:	00058413          	mv	s0,a1
   17a20:	000c0993          	mv	s3,s8
   17a24:	00060a13          	mv	s4,a2
   17a28:	00070c13          	mv	s8,a4
   17a2c:	00842783          	lw	a5,8(s0)
   17a30:	00442583          	lw	a1,4(s0)
   17a34:	01898bb3          	add	s7,s3,s8
   17a38:	0177a7b3          	slt	a5,a5,s7
   17a3c:	00f585b3          	add	a1,a1,a5
   17a40:	a09ff0ef          	jal	ra,17448 <_Balloc>
   17a44:	00a12623          	sw	a0,12(sp)
   17a48:	20050a63          	beqz	a0,17c5c <__multiply+0x290>
   17a4c:	00c12783          	lw	a5,12(sp)
   17a50:	002b9a93          	slli	s5,s7,0x2
   17a54:	01478b13          	addi	s6,a5,20
   17a58:	015b0ab3          	add	s5,s6,s5
   17a5c:	000b0793          	mv	a5,s6
   17a60:	015b7863          	bgeu	s6,s5,17a70 <__multiply+0xa4>
   17a64:	0007a023          	sw	zero,0(a5)
   17a68:	00478793          	addi	a5,a5,4
   17a6c:	ff57ece3          	bltu	a5,s5,17a64 <__multiply+0x98>
   17a70:	014a0a13          	addi	s4,s4,20
   17a74:	002c1c13          	slli	s8,s8,0x2
   17a78:	01440793          	addi	a5,s0,20
   17a7c:	018a0733          	add	a4,s4,s8
   17a80:	00299993          	slli	s3,s3,0x2
   17a84:	00f12423          	sw	a5,8(sp)
   17a88:	00e12023          	sw	a4,0(sp)
   17a8c:	013789b3          	add	s3,a5,s3
   17a90:	14ea7863          	bgeu	s4,a4,17be0 <__multiply+0x214>
   17a94:	00400713          	li	a4,4
   17a98:	01540793          	addi	a5,s0,21
   17a9c:	00e12223          	sw	a4,4(sp)
   17aa0:	1af9f263          	bgeu	s3,a5,17c44 <__multiply+0x278>
   17aa4:	00010437          	lui	s0,0x10
   17aa8:	fff40413          	addi	s0,s0,-1 # ffff <exit-0x95>
   17aac:	01c0006f          	j	17ac8 <__multiply+0xfc>
   17ab0:	01095913          	srli	s2,s2,0x10
   17ab4:	0a091063          	bnez	s2,17b54 <__multiply+0x188>
   17ab8:	00012783          	lw	a5,0(sp)
   17abc:	004a0a13          	addi	s4,s4,4
   17ac0:	004b0b13          	addi	s6,s6,4
   17ac4:	10fa7e63          	bgeu	s4,a5,17be0 <__multiply+0x214>
   17ac8:	000a2903          	lw	s2,0(s4)
   17acc:	008974b3          	and	s1,s2,s0
   17ad0:	fe0480e3          	beqz	s1,17ab0 <__multiply+0xe4>
   17ad4:	00812c83          	lw	s9,8(sp)
   17ad8:	000b0d13          	mv	s10,s6
   17adc:	00000c13          	li	s8,0
   17ae0:	000cad83          	lw	s11,0(s9)
   17ae4:	000d2903          	lw	s2,0(s10)
   17ae8:	00048593          	mv	a1,s1
   17aec:	008df533          	and	a0,s11,s0
   17af0:	4480d0ef          	jal	ra,24f38 <__mulsi3>
   17af4:	00897733          	and	a4,s2,s0
   17af8:	00e50733          	add	a4,a0,a4
   17afc:	00048593          	mv	a1,s1
   17b00:	010dd513          	srli	a0,s11,0x10
   17b04:	01870c33          	add	s8,a4,s8
   17b08:	01095913          	srli	s2,s2,0x10
   17b0c:	42c0d0ef          	jal	ra,24f38 <__mulsi3>
   17b10:	010c5713          	srli	a4,s8,0x10
   17b14:	01250533          	add	a0,a0,s2
   17b18:	00e50533          	add	a0,a0,a4
   17b1c:	008c77b3          	and	a5,s8,s0
   17b20:	01051713          	slli	a4,a0,0x10
   17b24:	004d0d13          	addi	s10,s10,4
   17b28:	00f767b3          	or	a5,a4,a5
   17b2c:	004c8c93          	addi	s9,s9,4
   17b30:	fefd2e23          	sw	a5,-4(s10)
   17b34:	01055c13          	srli	s8,a0,0x10
   17b38:	fb3ce4e3          	bltu	s9,s3,17ae0 <__multiply+0x114>
   17b3c:	00412783          	lw	a5,4(sp)
   17b40:	00fb0733          	add	a4,s6,a5
   17b44:	01872023          	sw	s8,0(a4)
   17b48:	000a2903          	lw	s2,0(s4)
   17b4c:	01095913          	srli	s2,s2,0x10
   17b50:	f60904e3          	beqz	s2,17ab8 <__multiply+0xec>
   17b54:	000b2c83          	lw	s9,0(s6)
   17b58:	00812d03          	lw	s10,8(sp)
   17b5c:	000b0c13          	mv	s8,s6
   17b60:	000c8493          	mv	s1,s9
   17b64:	00000d93          	li	s11,0
   17b68:	000d2503          	lw	a0,0(s10)
   17b6c:	00090593          	mv	a1,s2
   17b70:	0104d493          	srli	s1,s1,0x10
   17b74:	00857533          	and	a0,a0,s0
   17b78:	3c00d0ef          	jal	ra,24f38 <__mulsi3>
   17b7c:	01b50733          	add	a4,a0,s11
   17b80:	00970db3          	add	s11,a4,s1
   17b84:	010d9593          	slli	a1,s11,0x10
   17b88:	008cf7b3          	and	a5,s9,s0
   17b8c:	00f5e7b3          	or	a5,a1,a5
   17b90:	00fc2023          	sw	a5,0(s8)
   17b94:	002d5503          	lhu	a0,2(s10)
   17b98:	004c2483          	lw	s1,4(s8)
   17b9c:	00090593          	mv	a1,s2
   17ba0:	3980d0ef          	jal	ra,24f38 <__mulsi3>
   17ba4:	0084f7b3          	and	a5,s1,s0
   17ba8:	010dd713          	srli	a4,s11,0x10
   17bac:	00f507b3          	add	a5,a0,a5
   17bb0:	00e78cb3          	add	s9,a5,a4
   17bb4:	004d0d13          	addi	s10,s10,4
   17bb8:	004c0c13          	addi	s8,s8,4
   17bbc:	010cdd93          	srli	s11,s9,0x10
   17bc0:	fb3d64e3          	bltu	s10,s3,17b68 <__multiply+0x19c>
   17bc4:	00412783          	lw	a5,4(sp)
   17bc8:	004a0a13          	addi	s4,s4,4
   17bcc:	00fb0733          	add	a4,s6,a5
   17bd0:	00012783          	lw	a5,0(sp)
   17bd4:	01972023          	sw	s9,0(a4)
   17bd8:	004b0b13          	addi	s6,s6,4
   17bdc:	eefa66e3          	bltu	s4,a5,17ac8 <__multiply+0xfc>
   17be0:	01704863          	bgtz	s7,17bf0 <__multiply+0x224>
   17be4:	0180006f          	j	17bfc <__multiply+0x230>
   17be8:	fffb8b93          	addi	s7,s7,-1
   17bec:	000b8863          	beqz	s7,17bfc <__multiply+0x230>
   17bf0:	ffcaa783          	lw	a5,-4(s5)
   17bf4:	ffca8a93          	addi	s5,s5,-4
   17bf8:	fe0788e3          	beqz	a5,17be8 <__multiply+0x21c>
   17bfc:	00c12783          	lw	a5,12(sp)
   17c00:	04c12083          	lw	ra,76(sp)
   17c04:	04812403          	lw	s0,72(sp)
   17c08:	0177a823          	sw	s7,16(a5)
   17c0c:	04412483          	lw	s1,68(sp)
   17c10:	04012903          	lw	s2,64(sp)
   17c14:	03c12983          	lw	s3,60(sp)
   17c18:	03812a03          	lw	s4,56(sp)
   17c1c:	03412a83          	lw	s5,52(sp)
   17c20:	03012b03          	lw	s6,48(sp)
   17c24:	02c12b83          	lw	s7,44(sp)
   17c28:	02812c03          	lw	s8,40(sp)
   17c2c:	02412c83          	lw	s9,36(sp)
   17c30:	02012d03          	lw	s10,32(sp)
   17c34:	01c12d83          	lw	s11,28(sp)
   17c38:	00078513          	mv	a0,a5
   17c3c:	05010113          	addi	sp,sp,80
   17c40:	00008067          	ret
   17c44:	408987b3          	sub	a5,s3,s0
   17c48:	feb78793          	addi	a5,a5,-21
   17c4c:	ffc7f793          	andi	a5,a5,-4
   17c50:	00478793          	addi	a5,a5,4
   17c54:	00f12223          	sw	a5,4(sp)
   17c58:	e4dff06f          	j	17aa4 <__multiply+0xd8>
   17c5c:	000256b7          	lui	a3,0x25
   17c60:	00025537          	lui	a0,0x25
   17c64:	38868693          	addi	a3,a3,904 # 25388 <blanks.1+0x30>
   17c68:	00000613          	li	a2,0
   17c6c:	15d00593          	li	a1,349
   17c70:	63c50513          	addi	a0,a0,1596 # 2563c <ezero+0x14>
   17c74:	65d040ef          	jal	ra,1cad0 <__assert_func>

00017c78 <__pow5mult>:
   17c78:	fe010113          	addi	sp,sp,-32
   17c7c:	00812c23          	sw	s0,24(sp)
   17c80:	01212823          	sw	s2,16(sp)
   17c84:	01312623          	sw	s3,12(sp)
   17c88:	00112e23          	sw	ra,28(sp)
   17c8c:	00912a23          	sw	s1,20(sp)
   17c90:	00367793          	andi	a5,a2,3
   17c94:	00060413          	mv	s0,a2
   17c98:	00050993          	mv	s3,a0
   17c9c:	00058913          	mv	s2,a1
   17ca0:	0a079a63          	bnez	a5,17d54 <__pow5mult+0xdc>
   17ca4:	40245413          	srai	s0,s0,0x2
   17ca8:	06040663          	beqz	s0,17d14 <__pow5mult+0x9c>
   17cac:	0489a483          	lw	s1,72(s3)
   17cb0:	0c048663          	beqz	s1,17d7c <__pow5mult+0x104>
   17cb4:	00147793          	andi	a5,s0,1
   17cb8:	02079063          	bnez	a5,17cd8 <__pow5mult+0x60>
   17cbc:	40145413          	srai	s0,s0,0x1
   17cc0:	04040a63          	beqz	s0,17d14 <__pow5mult+0x9c>
   17cc4:	0004a503          	lw	a0,0(s1)
   17cc8:	06050663          	beqz	a0,17d34 <__pow5mult+0xbc>
   17ccc:	00050493          	mv	s1,a0
   17cd0:	00147793          	andi	a5,s0,1
   17cd4:	fe0784e3          	beqz	a5,17cbc <__pow5mult+0x44>
   17cd8:	00048613          	mv	a2,s1
   17cdc:	00090593          	mv	a1,s2
   17ce0:	00098513          	mv	a0,s3
   17ce4:	ce9ff0ef          	jal	ra,179cc <__multiply>
   17ce8:	02090063          	beqz	s2,17d08 <__pow5mult+0x90>
   17cec:	00492703          	lw	a4,4(s2)
   17cf0:	04c9a783          	lw	a5,76(s3)
   17cf4:	00271713          	slli	a4,a4,0x2
   17cf8:	00e787b3          	add	a5,a5,a4
   17cfc:	0007a703          	lw	a4,0(a5)
   17d00:	00e92023          	sw	a4,0(s2)
   17d04:	0127a023          	sw	s2,0(a5)
   17d08:	40145413          	srai	s0,s0,0x1
   17d0c:	00050913          	mv	s2,a0
   17d10:	fa041ae3          	bnez	s0,17cc4 <__pow5mult+0x4c>
   17d14:	01c12083          	lw	ra,28(sp)
   17d18:	01812403          	lw	s0,24(sp)
   17d1c:	01412483          	lw	s1,20(sp)
   17d20:	00c12983          	lw	s3,12(sp)
   17d24:	00090513          	mv	a0,s2
   17d28:	01012903          	lw	s2,16(sp)
   17d2c:	02010113          	addi	sp,sp,32
   17d30:	00008067          	ret
   17d34:	00048613          	mv	a2,s1
   17d38:	00048593          	mv	a1,s1
   17d3c:	00098513          	mv	a0,s3
   17d40:	c8dff0ef          	jal	ra,179cc <__multiply>
   17d44:	00a4a023          	sw	a0,0(s1)
   17d48:	00052023          	sw	zero,0(a0)
   17d4c:	00050493          	mv	s1,a0
   17d50:	f81ff06f          	j	17cd0 <__pow5mult+0x58>
   17d54:	fff78793          	addi	a5,a5,-1
   17d58:	00025737          	lui	a4,0x25
   17d5c:	68070713          	addi	a4,a4,1664 # 25680 <p05.0>
   17d60:	00279793          	slli	a5,a5,0x2
   17d64:	00f707b3          	add	a5,a4,a5
   17d68:	0007a603          	lw	a2,0(a5)
   17d6c:	00000693          	li	a3,0
   17d70:	fa4ff0ef          	jal	ra,17514 <__multadd>
   17d74:	00050913          	mv	s2,a0
   17d78:	f2dff06f          	j	17ca4 <__pow5mult+0x2c>
   17d7c:	00100593          	li	a1,1
   17d80:	00098513          	mv	a0,s3
   17d84:	ec4ff0ef          	jal	ra,17448 <_Balloc>
   17d88:	00050493          	mv	s1,a0
   17d8c:	02050063          	beqz	a0,17dac <__pow5mult+0x134>
   17d90:	27100793          	li	a5,625
   17d94:	00f52a23          	sw	a5,20(a0)
   17d98:	00100793          	li	a5,1
   17d9c:	00f52823          	sw	a5,16(a0)
   17da0:	04a9a423          	sw	a0,72(s3)
   17da4:	00052023          	sw	zero,0(a0)
   17da8:	f0dff06f          	j	17cb4 <__pow5mult+0x3c>
   17dac:	000256b7          	lui	a3,0x25
   17db0:	00025537          	lui	a0,0x25
   17db4:	38868693          	addi	a3,a3,904 # 25388 <blanks.1+0x30>
   17db8:	00000613          	li	a2,0
   17dbc:	14000593          	li	a1,320
   17dc0:	63c50513          	addi	a0,a0,1596 # 2563c <ezero+0x14>
   17dc4:	50d040ef          	jal	ra,1cad0 <__assert_func>

00017dc8 <__lshift>:
   17dc8:	fe010113          	addi	sp,sp,-32
   17dcc:	01512223          	sw	s5,4(sp)
   17dd0:	0105aa83          	lw	s5,16(a1)
   17dd4:	0085a783          	lw	a5,8(a1)
   17dd8:	01312623          	sw	s3,12(sp)
   17ddc:	40565993          	srai	s3,a2,0x5
   17de0:	01598ab3          	add	s5,s3,s5
   17de4:	00812c23          	sw	s0,24(sp)
   17de8:	00912a23          	sw	s1,20(sp)
   17dec:	01212823          	sw	s2,16(sp)
   17df0:	01412423          	sw	s4,8(sp)
   17df4:	00112e23          	sw	ra,28(sp)
   17df8:	001a8913          	addi	s2,s5,1
   17dfc:	00058493          	mv	s1,a1
   17e00:	00060413          	mv	s0,a2
   17e04:	0045a583          	lw	a1,4(a1)
   17e08:	00050a13          	mv	s4,a0
   17e0c:	0127d863          	bge	a5,s2,17e1c <__lshift+0x54>
   17e10:	00179793          	slli	a5,a5,0x1
   17e14:	00158593          	addi	a1,a1,1
   17e18:	ff27cce3          	blt	a5,s2,17e10 <__lshift+0x48>
   17e1c:	000a0513          	mv	a0,s4
   17e20:	e28ff0ef          	jal	ra,17448 <_Balloc>
   17e24:	10050c63          	beqz	a0,17f3c <__lshift+0x174>
   17e28:	01450813          	addi	a6,a0,20
   17e2c:	03305463          	blez	s3,17e54 <__lshift+0x8c>
   17e30:	00598993          	addi	s3,s3,5
   17e34:	00299993          	slli	s3,s3,0x2
   17e38:	01350733          	add	a4,a0,s3
   17e3c:	00080793          	mv	a5,a6
   17e40:	00478793          	addi	a5,a5,4
   17e44:	fe07ae23          	sw	zero,-4(a5)
   17e48:	fee79ce3          	bne	a5,a4,17e40 <__lshift+0x78>
   17e4c:	fec98993          	addi	s3,s3,-20
   17e50:	01380833          	add	a6,a6,s3
   17e54:	0104a883          	lw	a7,16(s1)
   17e58:	01448793          	addi	a5,s1,20
   17e5c:	01f47613          	andi	a2,s0,31
   17e60:	00289893          	slli	a7,a7,0x2
   17e64:	011788b3          	add	a7,a5,a7
   17e68:	0a060463          	beqz	a2,17f10 <__lshift+0x148>
   17e6c:	02000593          	li	a1,32
   17e70:	40c585b3          	sub	a1,a1,a2
   17e74:	00080313          	mv	t1,a6
   17e78:	00000693          	li	a3,0
   17e7c:	0007a703          	lw	a4,0(a5)
   17e80:	00430313          	addi	t1,t1,4
   17e84:	00478793          	addi	a5,a5,4
   17e88:	00c71733          	sll	a4,a4,a2
   17e8c:	00d76733          	or	a4,a4,a3
   17e90:	fee32e23          	sw	a4,-4(t1)
   17e94:	ffc7a683          	lw	a3,-4(a5)
   17e98:	00b6d6b3          	srl	a3,a3,a1
   17e9c:	ff17e0e3          	bltu	a5,a7,17e7c <__lshift+0xb4>
   17ea0:	01548793          	addi	a5,s1,21
   17ea4:	00400713          	li	a4,4
   17ea8:	00f8ea63          	bltu	a7,a5,17ebc <__lshift+0xf4>
   17eac:	409887b3          	sub	a5,a7,s1
   17eb0:	feb78793          	addi	a5,a5,-21
   17eb4:	ffc7f793          	andi	a5,a5,-4
   17eb8:	00478713          	addi	a4,a5,4
   17ebc:	00e80833          	add	a6,a6,a4
   17ec0:	00d82023          	sw	a3,0(a6)
   17ec4:	00069463          	bnez	a3,17ecc <__lshift+0x104>
   17ec8:	000a8913          	mv	s2,s5
   17ecc:	0044a703          	lw	a4,4(s1)
   17ed0:	04ca2783          	lw	a5,76(s4)
   17ed4:	01c12083          	lw	ra,28(sp)
   17ed8:	00271713          	slli	a4,a4,0x2
   17edc:	00e787b3          	add	a5,a5,a4
   17ee0:	0007a703          	lw	a4,0(a5)
   17ee4:	01252823          	sw	s2,16(a0)
   17ee8:	01812403          	lw	s0,24(sp)
   17eec:	00e4a023          	sw	a4,0(s1)
   17ef0:	0097a023          	sw	s1,0(a5)
   17ef4:	01012903          	lw	s2,16(sp)
   17ef8:	01412483          	lw	s1,20(sp)
   17efc:	00c12983          	lw	s3,12(sp)
   17f00:	00812a03          	lw	s4,8(sp)
   17f04:	00412a83          	lw	s5,4(sp)
   17f08:	02010113          	addi	sp,sp,32
   17f0c:	00008067          	ret
   17f10:	0007a703          	lw	a4,0(a5)
   17f14:	00478793          	addi	a5,a5,4
   17f18:	00480813          	addi	a6,a6,4
   17f1c:	fee82e23          	sw	a4,-4(a6)
   17f20:	fb17f4e3          	bgeu	a5,a7,17ec8 <__lshift+0x100>
   17f24:	0007a703          	lw	a4,0(a5)
   17f28:	00478793          	addi	a5,a5,4
   17f2c:	00480813          	addi	a6,a6,4
   17f30:	fee82e23          	sw	a4,-4(a6)
   17f34:	fd17eee3          	bltu	a5,a7,17f10 <__lshift+0x148>
   17f38:	f91ff06f          	j	17ec8 <__lshift+0x100>
   17f3c:	000256b7          	lui	a3,0x25
   17f40:	00025537          	lui	a0,0x25
   17f44:	38868693          	addi	a3,a3,904 # 25388 <blanks.1+0x30>
   17f48:	00000613          	li	a2,0
   17f4c:	1d900593          	li	a1,473
   17f50:	63c50513          	addi	a0,a0,1596 # 2563c <ezero+0x14>
   17f54:	37d040ef          	jal	ra,1cad0 <__assert_func>

00017f58 <__mcmp>:
   17f58:	01052703          	lw	a4,16(a0)
   17f5c:	0105a783          	lw	a5,16(a1)
   17f60:	00050813          	mv	a6,a0
   17f64:	40f70533          	sub	a0,a4,a5
   17f68:	04f71263          	bne	a4,a5,17fac <__mcmp+0x54>
   17f6c:	00279793          	slli	a5,a5,0x2
   17f70:	01480813          	addi	a6,a6,20
   17f74:	01458593          	addi	a1,a1,20
   17f78:	00f80733          	add	a4,a6,a5
   17f7c:	00f587b3          	add	a5,a1,a5
   17f80:	0080006f          	j	17f88 <__mcmp+0x30>
   17f84:	02e87463          	bgeu	a6,a4,17fac <__mcmp+0x54>
   17f88:	ffc72603          	lw	a2,-4(a4)
   17f8c:	ffc7a683          	lw	a3,-4(a5)
   17f90:	ffc70713          	addi	a4,a4,-4
   17f94:	ffc78793          	addi	a5,a5,-4
   17f98:	fed606e3          	beq	a2,a3,17f84 <__mcmp+0x2c>
   17f9c:	00100513          	li	a0,1
   17fa0:	00d67663          	bgeu	a2,a3,17fac <__mcmp+0x54>
   17fa4:	fff00513          	li	a0,-1
   17fa8:	00008067          	ret
   17fac:	00008067          	ret

00017fb0 <__mdiff>:
   17fb0:	0105a703          	lw	a4,16(a1)
   17fb4:	01062783          	lw	a5,16(a2)
   17fb8:	ff010113          	addi	sp,sp,-16
   17fbc:	00812423          	sw	s0,8(sp)
   17fc0:	00912223          	sw	s1,4(sp)
   17fc4:	01212023          	sw	s2,0(sp)
   17fc8:	00112623          	sw	ra,12(sp)
   17fcc:	00058493          	mv	s1,a1
   17fd0:	00060413          	mv	s0,a2
   17fd4:	40f70933          	sub	s2,a4,a5
   17fd8:	04f71663          	bne	a4,a5,18024 <__mdiff+0x74>
   17fdc:	00279693          	slli	a3,a5,0x2
   17fe0:	01458593          	addi	a1,a1,20
   17fe4:	01460713          	addi	a4,a2,20
   17fe8:	00d587b3          	add	a5,a1,a3
   17fec:	00d70733          	add	a4,a4,a3
   17ff0:	0080006f          	j	17ff8 <__mdiff+0x48>
   17ff4:	18f5f463          	bgeu	a1,a5,1817c <__mdiff+0x1cc>
   17ff8:	ffc7a603          	lw	a2,-4(a5)
   17ffc:	ffc72683          	lw	a3,-4(a4)
   18000:	ffc78793          	addi	a5,a5,-4
   18004:	ffc70713          	addi	a4,a4,-4
   18008:	fed606e3          	beq	a2,a3,17ff4 <__mdiff+0x44>
   1800c:	02d67063          	bgeu	a2,a3,1802c <__mdiff+0x7c>
   18010:	00048793          	mv	a5,s1
   18014:	00100913          	li	s2,1
   18018:	00040493          	mv	s1,s0
   1801c:	00078413          	mv	s0,a5
   18020:	00c0006f          	j	1802c <__mdiff+0x7c>
   18024:	fe0946e3          	bltz	s2,18010 <__mdiff+0x60>
   18028:	00000913          	li	s2,0
   1802c:	0044a583          	lw	a1,4(s1)
   18030:	c18ff0ef          	jal	ra,17448 <_Balloc>
   18034:	1a050863          	beqz	a0,181e4 <__mdiff+0x234>
   18038:	0104a303          	lw	t1,16(s1)
   1803c:	01042603          	lw	a2,16(s0)
   18040:	01448293          	addi	t0,s1,20
   18044:	00231e13          	slli	t3,t1,0x2
   18048:	01440813          	addi	a6,s0,20
   1804c:	00261613          	slli	a2,a2,0x2
   18050:	01450f93          	addi	t6,a0,20
   18054:	000108b7          	lui	a7,0x10
   18058:	01252623          	sw	s2,12(a0)
   1805c:	01c28e33          	add	t3,t0,t3
   18060:	00c80633          	add	a2,a6,a2
   18064:	000f8f13          	mv	t5,t6
   18068:	00028e93          	mv	t4,t0
   1806c:	00000693          	li	a3,0
   18070:	fff88893          	addi	a7,a7,-1 # ffff <exit-0x95>
   18074:	000ea703          	lw	a4,0(t4)
   18078:	00082583          	lw	a1,0(a6)
   1807c:	004f0f13          	addi	t5,t5,4
   18080:	011777b3          	and	a5,a4,a7
   18084:	0115f3b3          	and	t2,a1,a7
   18088:	407787b3          	sub	a5,a5,t2
   1808c:	00d787b3          	add	a5,a5,a3
   18090:	01075713          	srli	a4,a4,0x10
   18094:	0105d593          	srli	a1,a1,0x10
   18098:	4107d693          	srai	a3,a5,0x10
   1809c:	40b70733          	sub	a4,a4,a1
   180a0:	00d70733          	add	a4,a4,a3
   180a4:	01071693          	slli	a3,a4,0x10
   180a8:	0117f7b3          	and	a5,a5,a7
   180ac:	00d7e7b3          	or	a5,a5,a3
   180b0:	00480813          	addi	a6,a6,4
   180b4:	feff2e23          	sw	a5,-4(t5)
   180b8:	004e8e93          	addi	t4,t4,4
   180bc:	41075693          	srai	a3,a4,0x10
   180c0:	fac86ae3          	bltu	a6,a2,18074 <__mdiff+0xc4>
   180c4:	40860733          	sub	a4,a2,s0
   180c8:	feb70713          	addi	a4,a4,-21
   180cc:	01540413          	addi	s0,s0,21
   180d0:	00275f13          	srli	t5,a4,0x2
   180d4:	00400713          	li	a4,4
   180d8:	00866663          	bltu	a2,s0,180e4 <__mdiff+0x134>
   180dc:	001f0713          	addi	a4,t5,1
   180e0:	00271713          	slli	a4,a4,0x2
   180e4:	00e282b3          	add	t0,t0,a4
   180e8:	00ef8833          	add	a6,t6,a4
   180ec:	00010eb7          	lui	t4,0x10
   180f0:	00080893          	mv	a7,a6
   180f4:	00028593          	mv	a1,t0
   180f8:	fffe8e93          	addi	t4,t4,-1 # ffff <exit-0x95>
   180fc:	0bc2f863          	bgeu	t0,t3,181ac <__mdiff+0x1fc>
   18100:	0005a783          	lw	a5,0(a1)
   18104:	00488893          	addi	a7,a7,4
   18108:	00458593          	addi	a1,a1,4
   1810c:	01d7f733          	and	a4,a5,t4
   18110:	00d70733          	add	a4,a4,a3
   18114:	0107d613          	srli	a2,a5,0x10
   18118:	41075713          	srai	a4,a4,0x10
   1811c:	00c70733          	add	a4,a4,a2
   18120:	00d787b3          	add	a5,a5,a3
   18124:	01d7f7b3          	and	a5,a5,t4
   18128:	01071693          	slli	a3,a4,0x10
   1812c:	00d7e7b3          	or	a5,a5,a3
   18130:	fef8ae23          	sw	a5,-4(a7)
   18134:	41075693          	srai	a3,a4,0x10
   18138:	fdc5e4e3          	bltu	a1,t3,18100 <__mdiff+0x150>
   1813c:	fffe0e13          	addi	t3,t3,-1
   18140:	405e0e33          	sub	t3,t3,t0
   18144:	ffce7e13          	andi	t3,t3,-4
   18148:	01c80733          	add	a4,a6,t3
   1814c:	00079a63          	bnez	a5,18160 <__mdiff+0x1b0>
   18150:	ffc72783          	lw	a5,-4(a4)
   18154:	fff30313          	addi	t1,t1,-1
   18158:	ffc70713          	addi	a4,a4,-4
   1815c:	fe078ae3          	beqz	a5,18150 <__mdiff+0x1a0>
   18160:	00c12083          	lw	ra,12(sp)
   18164:	00812403          	lw	s0,8(sp)
   18168:	00652823          	sw	t1,16(a0)
   1816c:	00412483          	lw	s1,4(sp)
   18170:	00012903          	lw	s2,0(sp)
   18174:	01010113          	addi	sp,sp,16
   18178:	00008067          	ret
   1817c:	00000593          	li	a1,0
   18180:	ac8ff0ef          	jal	ra,17448 <_Balloc>
   18184:	04050263          	beqz	a0,181c8 <__mdiff+0x218>
   18188:	00c12083          	lw	ra,12(sp)
   1818c:	00812403          	lw	s0,8(sp)
   18190:	00100793          	li	a5,1
   18194:	00f52823          	sw	a5,16(a0)
   18198:	00052a23          	sw	zero,20(a0)
   1819c:	00412483          	lw	s1,4(sp)
   181a0:	00012903          	lw	s2,0(sp)
   181a4:	01010113          	addi	sp,sp,16
   181a8:	00008067          	ret
   181ac:	00000713          	li	a4,0
   181b0:	00867663          	bgeu	a2,s0,181bc <__mdiff+0x20c>
   181b4:	00ef8733          	add	a4,t6,a4
   181b8:	f95ff06f          	j	1814c <__mdiff+0x19c>
   181bc:	002f1713          	slli	a4,t5,0x2
   181c0:	00ef8733          	add	a4,t6,a4
   181c4:	f89ff06f          	j	1814c <__mdiff+0x19c>
   181c8:	000256b7          	lui	a3,0x25
   181cc:	00025537          	lui	a0,0x25
   181d0:	38868693          	addi	a3,a3,904 # 25388 <blanks.1+0x30>
   181d4:	00000613          	li	a2,0
   181d8:	23200593          	li	a1,562
   181dc:	63c50513          	addi	a0,a0,1596 # 2563c <ezero+0x14>
   181e0:	0f1040ef          	jal	ra,1cad0 <__assert_func>
   181e4:	000256b7          	lui	a3,0x25
   181e8:	00025537          	lui	a0,0x25
   181ec:	38868693          	addi	a3,a3,904 # 25388 <blanks.1+0x30>
   181f0:	00000613          	li	a2,0
   181f4:	24000593          	li	a1,576
   181f8:	63c50513          	addi	a0,a0,1596 # 2563c <ezero+0x14>
   181fc:	0d5040ef          	jal	ra,1cad0 <__assert_func>

00018200 <__ulp>:
   18200:	7ff007b7          	lui	a5,0x7ff00
   18204:	00b7f5b3          	and	a1,a5,a1
   18208:	fcc007b7          	lui	a5,0xfcc00
   1820c:	00f585b3          	add	a1,a1,a5
   18210:	00000793          	li	a5,0
   18214:	00b05663          	blez	a1,18220 <__ulp+0x20>
   18218:	00078513          	mv	a0,a5
   1821c:	00008067          	ret
   18220:	40b005b3          	neg	a1,a1
   18224:	4145d593          	srai	a1,a1,0x14
   18228:	01300793          	li	a5,19
   1822c:	00b7cc63          	blt	a5,a1,18244 <__ulp+0x44>
   18230:	000807b7          	lui	a5,0x80
   18234:	40b7d5b3          	sra	a1,a5,a1
   18238:	00000793          	li	a5,0
   1823c:	00078513          	mv	a0,a5
   18240:	00008067          	ret
   18244:	fec58593          	addi	a1,a1,-20
   18248:	01e00713          	li	a4,30
   1824c:	00100793          	li	a5,1
   18250:	00b74663          	blt	a4,a1,1825c <__ulp+0x5c>
   18254:	800007b7          	lui	a5,0x80000
   18258:	00b7d7b3          	srl	a5,a5,a1
   1825c:	00000593          	li	a1,0
   18260:	00078513          	mv	a0,a5
   18264:	00008067          	ret

00018268 <__b2d>:
   18268:	fe010113          	addi	sp,sp,-32
   1826c:	00912a23          	sw	s1,20(sp)
   18270:	01052483          	lw	s1,16(a0)
   18274:	00812c23          	sw	s0,24(sp)
   18278:	01450413          	addi	s0,a0,20
   1827c:	00249493          	slli	s1,s1,0x2
   18280:	009404b3          	add	s1,s0,s1
   18284:	01212823          	sw	s2,16(sp)
   18288:	ffc4a903          	lw	s2,-4(s1)
   1828c:	01312623          	sw	s3,12(sp)
   18290:	01412423          	sw	s4,8(sp)
   18294:	00090513          	mv	a0,s2
   18298:	00058993          	mv	s3,a1
   1829c:	00112e23          	sw	ra,28(sp)
   182a0:	d24ff0ef          	jal	ra,177c4 <__hi0bits>
   182a4:	02000713          	li	a4,32
   182a8:	40a707b3          	sub	a5,a4,a0
   182ac:	00f9a023          	sw	a5,0(s3)
   182b0:	00a00793          	li	a5,10
   182b4:	ffc48a13          	addi	s4,s1,-4
   182b8:	08a7dc63          	bge	a5,a0,18350 <__b2d+0xe8>
   182bc:	ff550613          	addi	a2,a0,-11
   182c0:	05447063          	bgeu	s0,s4,18300 <__b2d+0x98>
   182c4:	ff84a783          	lw	a5,-8(s1)
   182c8:	04060c63          	beqz	a2,18320 <__b2d+0xb8>
   182cc:	40c706b3          	sub	a3,a4,a2
   182d0:	00d7d733          	srl	a4,a5,a3
   182d4:	00c91933          	sll	s2,s2,a2
   182d8:	00e96933          	or	s2,s2,a4
   182dc:	ff848593          	addi	a1,s1,-8
   182e0:	3ff00737          	lui	a4,0x3ff00
   182e4:	00e96733          	or	a4,s2,a4
   182e8:	00c797b3          	sll	a5,a5,a2
   182ec:	02b47e63          	bgeu	s0,a1,18328 <__b2d+0xc0>
   182f0:	ff44a603          	lw	a2,-12(s1)
   182f4:	00d656b3          	srl	a3,a2,a3
   182f8:	00d7e7b3          	or	a5,a5,a3
   182fc:	02c0006f          	j	18328 <__b2d+0xc0>
   18300:	00b00793          	li	a5,11
   18304:	00f50c63          	beq	a0,a5,1831c <__b2d+0xb4>
   18308:	00c91933          	sll	s2,s2,a2
   1830c:	3ff00737          	lui	a4,0x3ff00
   18310:	00e96733          	or	a4,s2,a4
   18314:	00000793          	li	a5,0
   18318:	0100006f          	j	18328 <__b2d+0xc0>
   1831c:	00000793          	li	a5,0
   18320:	3ff00737          	lui	a4,0x3ff00
   18324:	00e96733          	or	a4,s2,a4
   18328:	01c12083          	lw	ra,28(sp)
   1832c:	01812403          	lw	s0,24(sp)
   18330:	01412483          	lw	s1,20(sp)
   18334:	01012903          	lw	s2,16(sp)
   18338:	00c12983          	lw	s3,12(sp)
   1833c:	00812a03          	lw	s4,8(sp)
   18340:	00078513          	mv	a0,a5
   18344:	00070593          	mv	a1,a4
   18348:	02010113          	addi	sp,sp,32
   1834c:	00008067          	ret
   18350:	00b00693          	li	a3,11
   18354:	40a686b3          	sub	a3,a3,a0
   18358:	3ff007b7          	lui	a5,0x3ff00
   1835c:	00d95733          	srl	a4,s2,a3
   18360:	00f76733          	or	a4,a4,a5
   18364:	00000793          	li	a5,0
   18368:	01447663          	bgeu	s0,s4,18374 <__b2d+0x10c>
   1836c:	ff84a783          	lw	a5,-8(s1)
   18370:	00d7d7b3          	srl	a5,a5,a3
   18374:	01550513          	addi	a0,a0,21
   18378:	00a91933          	sll	s2,s2,a0
   1837c:	00f967b3          	or	a5,s2,a5
   18380:	fa9ff06f          	j	18328 <__b2d+0xc0>

00018384 <__d2b>:
   18384:	fd010113          	addi	sp,sp,-48
   18388:	01512a23          	sw	s5,20(sp)
   1838c:	00058a93          	mv	s5,a1
   18390:	00100593          	li	a1,1
   18394:	02912223          	sw	s1,36(sp)
   18398:	01312e23          	sw	s3,28(sp)
   1839c:	01412c23          	sw	s4,24(sp)
   183a0:	02112623          	sw	ra,44(sp)
   183a4:	02812423          	sw	s0,40(sp)
   183a8:	03212023          	sw	s2,32(sp)
   183ac:	00060493          	mv	s1,a2
   183b0:	00068a13          	mv	s4,a3
   183b4:	00070993          	mv	s3,a4
   183b8:	890ff0ef          	jal	ra,17448 <_Balloc>
   183bc:	10050263          	beqz	a0,184c0 <__d2b+0x13c>
   183c0:	00100737          	lui	a4,0x100
   183c4:	0144d913          	srli	s2,s1,0x14
   183c8:	fff70793          	addi	a5,a4,-1 # fffff <__BSS_END__+0xd9517>
   183cc:	7ff97913          	andi	s2,s2,2047
   183d0:	00050413          	mv	s0,a0
   183d4:	0097f7b3          	and	a5,a5,s1
   183d8:	00090463          	beqz	s2,183e0 <__d2b+0x5c>
   183dc:	00e7e7b3          	or	a5,a5,a4
   183e0:	00f12623          	sw	a5,12(sp)
   183e4:	060a9263          	bnez	s5,18448 <__d2b+0xc4>
   183e8:	00c10513          	addi	a0,sp,12
   183ec:	c50ff0ef          	jal	ra,1783c <__lo0bits>
   183f0:	00c12703          	lw	a4,12(sp)
   183f4:	00100493          	li	s1,1
   183f8:	00942823          	sw	s1,16(s0)
   183fc:	00e42a23          	sw	a4,20(s0)
   18400:	02050793          	addi	a5,a0,32
   18404:	08090863          	beqz	s2,18494 <__d2b+0x110>
   18408:	bcd90913          	addi	s2,s2,-1075
   1840c:	00f90933          	add	s2,s2,a5
   18410:	03500493          	li	s1,53
   18414:	012a2023          	sw	s2,0(s4)
   18418:	40f48533          	sub	a0,s1,a5
   1841c:	00a9a023          	sw	a0,0(s3)
   18420:	02c12083          	lw	ra,44(sp)
   18424:	00040513          	mv	a0,s0
   18428:	02812403          	lw	s0,40(sp)
   1842c:	02412483          	lw	s1,36(sp)
   18430:	02012903          	lw	s2,32(sp)
   18434:	01c12983          	lw	s3,28(sp)
   18438:	01812a03          	lw	s4,24(sp)
   1843c:	01412a83          	lw	s5,20(sp)
   18440:	03010113          	addi	sp,sp,48
   18444:	00008067          	ret
   18448:	00810513          	addi	a0,sp,8
   1844c:	01512423          	sw	s5,8(sp)
   18450:	becff0ef          	jal	ra,1783c <__lo0bits>
   18454:	00c12703          	lw	a4,12(sp)
   18458:	00050793          	mv	a5,a0
   1845c:	04050e63          	beqz	a0,184b8 <__d2b+0x134>
   18460:	00812603          	lw	a2,8(sp)
   18464:	02000693          	li	a3,32
   18468:	40a686b3          	sub	a3,a3,a0
   1846c:	00d716b3          	sll	a3,a4,a3
   18470:	00a75733          	srl	a4,a4,a0
   18474:	00c6e6b3          	or	a3,a3,a2
   18478:	00e12623          	sw	a4,12(sp)
   1847c:	00e034b3          	snez	s1,a4
   18480:	00148493          	addi	s1,s1,1
   18484:	00d42a23          	sw	a3,20(s0)
   18488:	00e42c23          	sw	a4,24(s0)
   1848c:	00942823          	sw	s1,16(s0)
   18490:	f6091ce3          	bnez	s2,18408 <__d2b+0x84>
   18494:	00249713          	slli	a4,s1,0x2
   18498:	00e40733          	add	a4,s0,a4
   1849c:	01072503          	lw	a0,16(a4)
   184a0:	bce78793          	addi	a5,a5,-1074 # 3feffbce <__BSS_END__+0x3fed90e6>
   184a4:	00fa2023          	sw	a5,0(s4)
   184a8:	b1cff0ef          	jal	ra,177c4 <__hi0bits>
   184ac:	00549493          	slli	s1,s1,0x5
   184b0:	40a48533          	sub	a0,s1,a0
   184b4:	f69ff06f          	j	1841c <__d2b+0x98>
   184b8:	00812683          	lw	a3,8(sp)
   184bc:	fc1ff06f          	j	1847c <__d2b+0xf8>
   184c0:	000256b7          	lui	a3,0x25
   184c4:	00025537          	lui	a0,0x25
   184c8:	38868693          	addi	a3,a3,904 # 25388 <blanks.1+0x30>
   184cc:	00000613          	li	a2,0
   184d0:	30a00593          	li	a1,778
   184d4:	63c50513          	addi	a0,a0,1596 # 2563c <ezero+0x14>
   184d8:	5f8040ef          	jal	ra,1cad0 <__assert_func>

000184dc <__ratio>:
   184dc:	fd010113          	addi	sp,sp,-48
   184e0:	03212023          	sw	s2,32(sp)
   184e4:	00058913          	mv	s2,a1
   184e8:	00810593          	addi	a1,sp,8
   184ec:	02112623          	sw	ra,44(sp)
   184f0:	02812423          	sw	s0,40(sp)
   184f4:	02912223          	sw	s1,36(sp)
   184f8:	01312e23          	sw	s3,28(sp)
   184fc:	00050993          	mv	s3,a0
   18500:	d69ff0ef          	jal	ra,18268 <__b2d>
   18504:	00050493          	mv	s1,a0
   18508:	00058413          	mv	s0,a1
   1850c:	00090513          	mv	a0,s2
   18510:	00c10593          	addi	a1,sp,12
   18514:	d55ff0ef          	jal	ra,18268 <__b2d>
   18518:	01092703          	lw	a4,16(s2)
   1851c:	0109a783          	lw	a5,16(s3)
   18520:	00c12683          	lw	a3,12(sp)
   18524:	40e787b3          	sub	a5,a5,a4
   18528:	00812703          	lw	a4,8(sp)
   1852c:	00579793          	slli	a5,a5,0x5
   18530:	40d70733          	sub	a4,a4,a3
   18534:	00e787b3          	add	a5,a5,a4
   18538:	00050713          	mv	a4,a0
   1853c:	02f05e63          	blez	a5,18578 <__ratio+0x9c>
   18540:	01479793          	slli	a5,a5,0x14
   18544:	00878433          	add	s0,a5,s0
   18548:	00058693          	mv	a3,a1
   1854c:	00048513          	mv	a0,s1
   18550:	00040593          	mv	a1,s0
   18554:	00070613          	mv	a2,a4
   18558:	6f8080ef          	jal	ra,20c50 <__divdf3>
   1855c:	02c12083          	lw	ra,44(sp)
   18560:	02812403          	lw	s0,40(sp)
   18564:	02412483          	lw	s1,36(sp)
   18568:	02012903          	lw	s2,32(sp)
   1856c:	01c12983          	lw	s3,28(sp)
   18570:	03010113          	addi	sp,sp,48
   18574:	00008067          	ret
   18578:	01479793          	slli	a5,a5,0x14
   1857c:	40f585b3          	sub	a1,a1,a5
   18580:	fc9ff06f          	j	18548 <__ratio+0x6c>

00018584 <_mprec_log10>:
   18584:	ff010113          	addi	sp,sp,-16
   18588:	01212023          	sw	s2,0(sp)
   1858c:	00112623          	sw	ra,12(sp)
   18590:	00812423          	sw	s0,8(sp)
   18594:	00912223          	sw	s1,4(sp)
   18598:	01700793          	li	a5,23
   1859c:	00050913          	mv	s2,a0
   185a0:	04a7d663          	bge	a5,a0,185ec <_mprec_log10+0x68>
   185a4:	1a01a783          	lw	a5,416(gp) # 26a60 <__SDATA_BEGIN__>
   185a8:	1a41a583          	lw	a1,420(gp) # 26a64 <__SDATA_BEGIN__+0x4>
   185ac:	1a81a403          	lw	s0,424(gp) # 26a68 <__SDATA_BEGIN__+0x8>
   185b0:	1ac1a483          	lw	s1,428(gp) # 26a6c <__SDATA_BEGIN__+0xc>
   185b4:	00078513          	mv	a0,a5
   185b8:	00040613          	mv	a2,s0
   185bc:	00048693          	mv	a3,s1
   185c0:	65d080ef          	jal	ra,2141c <__muldf3>
   185c4:	fff90913          	addi	s2,s2,-1
   185c8:	00050793          	mv	a5,a0
   185cc:	fe0914e3          	bnez	s2,185b4 <_mprec_log10+0x30>
   185d0:	00c12083          	lw	ra,12(sp)
   185d4:	00812403          	lw	s0,8(sp)
   185d8:	00412483          	lw	s1,4(sp)
   185dc:	00012903          	lw	s2,0(sp)
   185e0:	00078513          	mv	a0,a5
   185e4:	01010113          	addi	sp,sp,16
   185e8:	00008067          	ret
   185ec:	00025737          	lui	a4,0x25
   185f0:	00351913          	slli	s2,a0,0x3
   185f4:	6e070713          	addi	a4,a4,1760 # 256e0 <__mprec_tens>
   185f8:	01270733          	add	a4,a4,s2
   185fc:	00072783          	lw	a5,0(a4)
   18600:	00c12083          	lw	ra,12(sp)
   18604:	00812403          	lw	s0,8(sp)
   18608:	00472583          	lw	a1,4(a4)
   1860c:	00412483          	lw	s1,4(sp)
   18610:	00012903          	lw	s2,0(sp)
   18614:	00078513          	mv	a0,a5
   18618:	01010113          	addi	sp,sp,16
   1861c:	00008067          	ret

00018620 <__copybits>:
   18620:	01062683          	lw	a3,16(a2)
   18624:	fff58593          	addi	a1,a1,-1
   18628:	4055d593          	srai	a1,a1,0x5
   1862c:	00158593          	addi	a1,a1,1
   18630:	01460793          	addi	a5,a2,20
   18634:	00269693          	slli	a3,a3,0x2
   18638:	00259593          	slli	a1,a1,0x2
   1863c:	00d786b3          	add	a3,a5,a3
   18640:	00b505b3          	add	a1,a0,a1
   18644:	02d7f863          	bgeu	a5,a3,18674 <__copybits+0x54>
   18648:	00050713          	mv	a4,a0
   1864c:	0007a803          	lw	a6,0(a5)
   18650:	00478793          	addi	a5,a5,4
   18654:	00470713          	addi	a4,a4,4
   18658:	ff072e23          	sw	a6,-4(a4)
   1865c:	fed7e8e3          	bltu	a5,a3,1864c <__copybits+0x2c>
   18660:	40c687b3          	sub	a5,a3,a2
   18664:	feb78793          	addi	a5,a5,-21
   18668:	ffc7f793          	andi	a5,a5,-4
   1866c:	00478793          	addi	a5,a5,4
   18670:	00f50533          	add	a0,a0,a5
   18674:	00b57863          	bgeu	a0,a1,18684 <__copybits+0x64>
   18678:	00450513          	addi	a0,a0,4
   1867c:	fe052e23          	sw	zero,-4(a0)
   18680:	feb56ce3          	bltu	a0,a1,18678 <__copybits+0x58>
   18684:	00008067          	ret

00018688 <__any_on>:
   18688:	01052703          	lw	a4,16(a0)
   1868c:	4055d613          	srai	a2,a1,0x5
   18690:	01450693          	addi	a3,a0,20
   18694:	02c75263          	bge	a4,a2,186b8 <__any_on+0x30>
   18698:	00271713          	slli	a4,a4,0x2
   1869c:	00e687b3          	add	a5,a3,a4
   186a0:	04f6f263          	bgeu	a3,a5,186e4 <__any_on+0x5c>
   186a4:	ffc7a703          	lw	a4,-4(a5)
   186a8:	ffc78793          	addi	a5,a5,-4
   186ac:	fe070ae3          	beqz	a4,186a0 <__any_on+0x18>
   186b0:	00100513          	li	a0,1
   186b4:	00008067          	ret
   186b8:	00261793          	slli	a5,a2,0x2
   186bc:	00f687b3          	add	a5,a3,a5
   186c0:	fee650e3          	bge	a2,a4,186a0 <__any_on+0x18>
   186c4:	01f5f593          	andi	a1,a1,31
   186c8:	fc058ce3          	beqz	a1,186a0 <__any_on+0x18>
   186cc:	0007a603          	lw	a2,0(a5)
   186d0:	00100513          	li	a0,1
   186d4:	00b65733          	srl	a4,a2,a1
   186d8:	00b71733          	sll	a4,a4,a1
   186dc:	fce602e3          	beq	a2,a4,186a0 <__any_on+0x18>
   186e0:	00008067          	ret
   186e4:	00000513          	li	a0,0
   186e8:	00008067          	ret

000186ec <frexp>:
   186ec:	ff010113          	addi	sp,sp,-16
   186f0:	00912223          	sw	s1,4(sp)
   186f4:	800004b7          	lui	s1,0x80000
   186f8:	00812423          	sw	s0,8(sp)
   186fc:	00112623          	sw	ra,12(sp)
   18700:	fff4c493          	not	s1,s1
   18704:	00060413          	mv	s0,a2
   18708:	00062023          	sw	zero,0(a2)
   1870c:	00b4f6b3          	and	a3,s1,a1
   18710:	7ff00637          	lui	a2,0x7ff00
   18714:	00058793          	mv	a5,a1
   18718:	00050713          	mv	a4,a0
   1871c:	02c6fe63          	bgeu	a3,a2,18758 <frexp+0x6c>
   18720:	00a6e8b3          	or	a7,a3,a0
   18724:	02088a63          	beqz	a7,18758 <frexp+0x6c>
   18728:	00c5f833          	and	a6,a1,a2
   1872c:	04080463          	beqz	a6,18774 <frexp+0x88>
   18730:	00000593          	li	a1,0
   18734:	4146d693          	srai	a3,a3,0x14
   18738:	80100637          	lui	a2,0x80100
   1873c:	fff60613          	addi	a2,a2,-1 # 800fffff <__BSS_END__+0x800d9517>
   18740:	c0268693          	addi	a3,a3,-1022
   18744:	00c7f7b3          	and	a5,a5,a2
   18748:	00b686b3          	add	a3,a3,a1
   1874c:	3fe00637          	lui	a2,0x3fe00
   18750:	00c7e7b3          	or	a5,a5,a2
   18754:	00d42023          	sw	a3,0(s0)
   18758:	00c12083          	lw	ra,12(sp)
   1875c:	00812403          	lw	s0,8(sp)
   18760:	00412483          	lw	s1,4(sp)
   18764:	00070513          	mv	a0,a4
   18768:	00078593          	mv	a1,a5
   1876c:	01010113          	addi	sp,sp,16
   18770:	00008067          	ret
   18774:	1b41a683          	lw	a3,436(gp) # 26a74 <__SDATA_BEGIN__+0x14>
   18778:	1b01a603          	lw	a2,432(gp) # 26a70 <__SDATA_BEGIN__+0x10>
   1877c:	4a1080ef          	jal	ra,2141c <__muldf3>
   18780:	00058793          	mv	a5,a1
   18784:	00b4f6b3          	and	a3,s1,a1
   18788:	00050713          	mv	a4,a0
   1878c:	fca00593          	li	a1,-54
   18790:	fa5ff06f          	j	18734 <frexp+0x48>

00018794 <_sbrk_r>:
   18794:	ff010113          	addi	sp,sp,-16
   18798:	00812423          	sw	s0,8(sp)
   1879c:	00912223          	sw	s1,4(sp)
   187a0:	00050413          	mv	s0,a0
   187a4:	00058513          	mv	a0,a1
   187a8:	00112623          	sw	ra,12(sp)
   187ac:	1c01ae23          	sw	zero,476(gp) # 26a9c <errno>
   187b0:	0a9070ef          	jal	ra,20058 <_sbrk>
   187b4:	fff00793          	li	a5,-1
   187b8:	00f50c63          	beq	a0,a5,187d0 <_sbrk_r+0x3c>
   187bc:	00c12083          	lw	ra,12(sp)
   187c0:	00812403          	lw	s0,8(sp)
   187c4:	00412483          	lw	s1,4(sp)
   187c8:	01010113          	addi	sp,sp,16
   187cc:	00008067          	ret
   187d0:	1dc1a783          	lw	a5,476(gp) # 26a9c <errno>
   187d4:	fe0784e3          	beqz	a5,187bc <_sbrk_r+0x28>
   187d8:	00c12083          	lw	ra,12(sp)
   187dc:	00f42023          	sw	a5,0(s0)
   187e0:	00812403          	lw	s0,8(sp)
   187e4:	00412483          	lw	s1,4(sp)
   187e8:	01010113          	addi	sp,sp,16
   187ec:	00008067          	ret

000187f0 <_sprintf_r>:
   187f0:	f6010113          	addi	sp,sp,-160
   187f4:	08c10e93          	addi	t4,sp,140
   187f8:	08f12a23          	sw	a5,148(sp)
   187fc:	80000337          	lui	t1,0x80000
   18800:	ffff07b7          	lui	a5,0xffff0
   18804:	00058e13          	mv	t3,a1
   18808:	fff34313          	not	t1,t1
   1880c:	08d12623          	sw	a3,140(sp)
   18810:	20878793          	addi	a5,a5,520 # ffff0208 <__BSS_END__+0xfffc9720>
   18814:	00810593          	addi	a1,sp,8
   18818:	000e8693          	mv	a3,t4
   1881c:	06112e23          	sw	ra,124(sp)
   18820:	00f12a23          	sw	a5,20(sp)
   18824:	08e12823          	sw	a4,144(sp)
   18828:	09012c23          	sw	a6,152(sp)
   1882c:	09112e23          	sw	a7,156(sp)
   18830:	01c12423          	sw	t3,8(sp)
   18834:	01c12c23          	sw	t3,24(sp)
   18838:	00612823          	sw	t1,16(sp)
   1883c:	00612e23          	sw	t1,28(sp)
   18840:	01d12223          	sw	t4,4(sp)
   18844:	3e4000ef          	jal	ra,18c28 <_svfprintf_r>
   18848:	00812783          	lw	a5,8(sp)
   1884c:	00078023          	sb	zero,0(a5)
   18850:	07c12083          	lw	ra,124(sp)
   18854:	0a010113          	addi	sp,sp,160
   18858:	00008067          	ret

0001885c <sprintf>:
   1885c:	00050e13          	mv	t3,a0
   18860:	f6010113          	addi	sp,sp,-160
   18864:	1c01a503          	lw	a0,448(gp) # 26a80 <_impure_ptr>
   18868:	08810e93          	addi	t4,sp,136
   1886c:	08f12a23          	sw	a5,148(sp)
   18870:	80000337          	lui	t1,0x80000
   18874:	ffff07b7          	lui	a5,0xffff0
   18878:	fff34313          	not	t1,t1
   1887c:	08c12423          	sw	a2,136(sp)
   18880:	08d12623          	sw	a3,140(sp)
   18884:	20878793          	addi	a5,a5,520 # ffff0208 <__BSS_END__+0xfffc9720>
   18888:	00058613          	mv	a2,a1
   1888c:	000e8693          	mv	a3,t4
   18890:	00810593          	addi	a1,sp,8
   18894:	06112e23          	sw	ra,124(sp)
   18898:	00f12a23          	sw	a5,20(sp)
   1889c:	08e12823          	sw	a4,144(sp)
   188a0:	09012c23          	sw	a6,152(sp)
   188a4:	09112e23          	sw	a7,156(sp)
   188a8:	01c12423          	sw	t3,8(sp)
   188ac:	01c12c23          	sw	t3,24(sp)
   188b0:	00612823          	sw	t1,16(sp)
   188b4:	00612e23          	sw	t1,28(sp)
   188b8:	01d12223          	sw	t4,4(sp)
   188bc:	36c000ef          	jal	ra,18c28 <_svfprintf_r>
   188c0:	00812783          	lw	a5,8(sp)
   188c4:	00078023          	sb	zero,0(a5)
   188c8:	07c12083          	lw	ra,124(sp)
   188cc:	0a010113          	addi	sp,sp,160
   188d0:	00008067          	ret

000188d4 <__sread>:
   188d4:	ff010113          	addi	sp,sp,-16
   188d8:	00812423          	sw	s0,8(sp)
   188dc:	00058413          	mv	s0,a1
   188e0:	00e59583          	lh	a1,14(a1)
   188e4:	00112623          	sw	ra,12(sp)
   188e8:	1a4050ef          	jal	ra,1da8c <_read_r>
   188ec:	02054063          	bltz	a0,1890c <__sread+0x38>
   188f0:	05042783          	lw	a5,80(s0)
   188f4:	00c12083          	lw	ra,12(sp)
   188f8:	00a787b3          	add	a5,a5,a0
   188fc:	04f42823          	sw	a5,80(s0)
   18900:	00812403          	lw	s0,8(sp)
   18904:	01010113          	addi	sp,sp,16
   18908:	00008067          	ret
   1890c:	00c45783          	lhu	a5,12(s0)
   18910:	fffff737          	lui	a4,0xfffff
   18914:	fff70713          	addi	a4,a4,-1 # ffffefff <__BSS_END__+0xfffd8517>
   18918:	00e7f7b3          	and	a5,a5,a4
   1891c:	00c12083          	lw	ra,12(sp)
   18920:	00f41623          	sh	a5,12(s0)
   18924:	00812403          	lw	s0,8(sp)
   18928:	01010113          	addi	sp,sp,16
   1892c:	00008067          	ret

00018930 <__seofread>:
   18930:	00000513          	li	a0,0
   18934:	00008067          	ret

00018938 <__swrite>:
   18938:	00c59783          	lh	a5,12(a1)
   1893c:	fe010113          	addi	sp,sp,-32
   18940:	00812c23          	sw	s0,24(sp)
   18944:	00912a23          	sw	s1,20(sp)
   18948:	01212823          	sw	s2,16(sp)
   1894c:	01312623          	sw	s3,12(sp)
   18950:	00112e23          	sw	ra,28(sp)
   18954:	1007f713          	andi	a4,a5,256
   18958:	00058413          	mv	s0,a1
   1895c:	00050493          	mv	s1,a0
   18960:	00060913          	mv	s2,a2
   18964:	00068993          	mv	s3,a3
   18968:	04071063          	bnez	a4,189a8 <__swrite+0x70>
   1896c:	fffff737          	lui	a4,0xfffff
   18970:	fff70713          	addi	a4,a4,-1 # ffffefff <__BSS_END__+0xfffd8517>
   18974:	00e7f7b3          	and	a5,a5,a4
   18978:	00e41583          	lh	a1,14(s0)
   1897c:	00f41623          	sh	a5,12(s0)
   18980:	01812403          	lw	s0,24(sp)
   18984:	01c12083          	lw	ra,28(sp)
   18988:	00098693          	mv	a3,s3
   1898c:	00090613          	mv	a2,s2
   18990:	00c12983          	lw	s3,12(sp)
   18994:	01012903          	lw	s2,16(sp)
   18998:	00048513          	mv	a0,s1
   1899c:	01412483          	lw	s1,20(sp)
   189a0:	02010113          	addi	sp,sp,32
   189a4:	02c0406f          	j	1c9d0 <_write_r>
   189a8:	00e59583          	lh	a1,14(a1)
   189ac:	00200693          	li	a3,2
   189b0:	00000613          	li	a2,0
   189b4:	541040ef          	jal	ra,1d6f4 <_lseek_r>
   189b8:	00c41783          	lh	a5,12(s0)
   189bc:	fb1ff06f          	j	1896c <__swrite+0x34>

000189c0 <__sseek>:
   189c0:	ff010113          	addi	sp,sp,-16
   189c4:	00812423          	sw	s0,8(sp)
   189c8:	00058413          	mv	s0,a1
   189cc:	00e59583          	lh	a1,14(a1)
   189d0:	00112623          	sw	ra,12(sp)
   189d4:	521040ef          	jal	ra,1d6f4 <_lseek_r>
   189d8:	fff00793          	li	a5,-1
   189dc:	02f50863          	beq	a0,a5,18a0c <__sseek+0x4c>
   189e0:	00c45783          	lhu	a5,12(s0)
   189e4:	00001737          	lui	a4,0x1
   189e8:	00c12083          	lw	ra,12(sp)
   189ec:	00e7e7b3          	or	a5,a5,a4
   189f0:	01079793          	slli	a5,a5,0x10
   189f4:	4107d793          	srai	a5,a5,0x10
   189f8:	04a42823          	sw	a0,80(s0)
   189fc:	00f41623          	sh	a5,12(s0)
   18a00:	00812403          	lw	s0,8(sp)
   18a04:	01010113          	addi	sp,sp,16
   18a08:	00008067          	ret
   18a0c:	00c45783          	lhu	a5,12(s0)
   18a10:	fffff737          	lui	a4,0xfffff
   18a14:	fff70713          	addi	a4,a4,-1 # ffffefff <__BSS_END__+0xfffd8517>
   18a18:	00e7f7b3          	and	a5,a5,a4
   18a1c:	01079793          	slli	a5,a5,0x10
   18a20:	4107d793          	srai	a5,a5,0x10
   18a24:	00c12083          	lw	ra,12(sp)
   18a28:	00f41623          	sh	a5,12(s0)
   18a2c:	00812403          	lw	s0,8(sp)
   18a30:	01010113          	addi	sp,sp,16
   18a34:	00008067          	ret

00018a38 <__sclose>:
   18a38:	00e59583          	lh	a1,14(a1)
   18a3c:	2b80406f          	j	1ccf4 <_close_r>

00018a40 <strcpy>:
   18a40:	00b567b3          	or	a5,a0,a1
   18a44:	0037f793          	andi	a5,a5,3
   18a48:	08079263          	bnez	a5,18acc <strcpy+0x8c>
   18a4c:	0005a703          	lw	a4,0(a1)
   18a50:	7f7f86b7          	lui	a3,0x7f7f8
   18a54:	f7f68693          	addi	a3,a3,-129 # 7f7f7f7f <__BSS_END__+0x7f7d1497>
   18a58:	00d777b3          	and	a5,a4,a3
   18a5c:	00d787b3          	add	a5,a5,a3
   18a60:	00e7e7b3          	or	a5,a5,a4
   18a64:	00d7e7b3          	or	a5,a5,a3
   18a68:	fff00613          	li	a2,-1
   18a6c:	06c79e63          	bne	a5,a2,18ae8 <strcpy+0xa8>
   18a70:	00050613          	mv	a2,a0
   18a74:	fff00813          	li	a6,-1
   18a78:	00e62023          	sw	a4,0(a2) # 3fe00000 <__BSS_END__+0x3fdd9518>
   18a7c:	0045a703          	lw	a4,4(a1)
   18a80:	00458593          	addi	a1,a1,4
   18a84:	00460613          	addi	a2,a2,4
   18a88:	00d777b3          	and	a5,a4,a3
   18a8c:	00d787b3          	add	a5,a5,a3
   18a90:	00e7e7b3          	or	a5,a5,a4
   18a94:	00d7e7b3          	or	a5,a5,a3
   18a98:	ff0780e3          	beq	a5,a6,18a78 <strcpy+0x38>
   18a9c:	0005c783          	lbu	a5,0(a1)
   18aa0:	0015c703          	lbu	a4,1(a1)
   18aa4:	0025c683          	lbu	a3,2(a1)
   18aa8:	00f60023          	sb	a5,0(a2)
   18aac:	00078a63          	beqz	a5,18ac0 <strcpy+0x80>
   18ab0:	00e600a3          	sb	a4,1(a2)
   18ab4:	00070663          	beqz	a4,18ac0 <strcpy+0x80>
   18ab8:	00d60123          	sb	a3,2(a2)
   18abc:	00069463          	bnez	a3,18ac4 <strcpy+0x84>
   18ac0:	00008067          	ret
   18ac4:	000601a3          	sb	zero,3(a2)
   18ac8:	00008067          	ret
   18acc:	00050793          	mv	a5,a0
   18ad0:	0005c703          	lbu	a4,0(a1)
   18ad4:	00178793          	addi	a5,a5,1
   18ad8:	00158593          	addi	a1,a1,1
   18adc:	fee78fa3          	sb	a4,-1(a5)
   18ae0:	fe0718e3          	bnez	a4,18ad0 <strcpy+0x90>
   18ae4:	00008067          	ret
   18ae8:	00050613          	mv	a2,a0
   18aec:	fb1ff06f          	j	18a9c <strcpy+0x5c>

00018af0 <strlen>:
   18af0:	00357793          	andi	a5,a0,3
   18af4:	00050713          	mv	a4,a0
   18af8:	04079c63          	bnez	a5,18b50 <strlen+0x60>
   18afc:	7f7f86b7          	lui	a3,0x7f7f8
   18b00:	f7f68693          	addi	a3,a3,-129 # 7f7f7f7f <__BSS_END__+0x7f7d1497>
   18b04:	fff00593          	li	a1,-1
   18b08:	00072603          	lw	a2,0(a4)
   18b0c:	00470713          	addi	a4,a4,4
   18b10:	00d677b3          	and	a5,a2,a3
   18b14:	00d787b3          	add	a5,a5,a3
   18b18:	00c7e7b3          	or	a5,a5,a2
   18b1c:	00d7e7b3          	or	a5,a5,a3
   18b20:	feb784e3          	beq	a5,a1,18b08 <strlen+0x18>
   18b24:	ffc74683          	lbu	a3,-4(a4)
   18b28:	40a707b3          	sub	a5,a4,a0
   18b2c:	04068463          	beqz	a3,18b74 <strlen+0x84>
   18b30:	ffd74683          	lbu	a3,-3(a4)
   18b34:	02068c63          	beqz	a3,18b6c <strlen+0x7c>
   18b38:	ffe74503          	lbu	a0,-2(a4)
   18b3c:	00a03533          	snez	a0,a0
   18b40:	00f50533          	add	a0,a0,a5
   18b44:	ffe50513          	addi	a0,a0,-2
   18b48:	00008067          	ret
   18b4c:	fa0688e3          	beqz	a3,18afc <strlen+0xc>
   18b50:	00074783          	lbu	a5,0(a4)
   18b54:	00170713          	addi	a4,a4,1
   18b58:	00377693          	andi	a3,a4,3
   18b5c:	fe0798e3          	bnez	a5,18b4c <strlen+0x5c>
   18b60:	40a70733          	sub	a4,a4,a0
   18b64:	fff70513          	addi	a0,a4,-1
   18b68:	00008067          	ret
   18b6c:	ffd78513          	addi	a0,a5,-3
   18b70:	00008067          	ret
   18b74:	ffc78513          	addi	a0,a5,-4
   18b78:	00008067          	ret

00018b7c <strncpy>:
   18b7c:	00b567b3          	or	a5,a0,a1
   18b80:	0037f793          	andi	a5,a5,3
   18b84:	00050713          	mv	a4,a0
   18b88:	06079a63          	bnez	a5,18bfc <strncpy+0x80>
   18b8c:	00300793          	li	a5,3
   18b90:	06c7f663          	bgeu	a5,a2,18bfc <strncpy+0x80>
   18b94:	feff0337          	lui	t1,0xfeff0
   18b98:	808088b7          	lui	a7,0x80808
   18b9c:	eff30313          	addi	t1,t1,-257 # fefefeff <__BSS_END__+0xfefc9417>
   18ba0:	08088893          	addi	a7,a7,128 # 80808080 <__BSS_END__+0x807e1598>
   18ba4:	00300e13          	li	t3,3
   18ba8:	0180006f          	j	18bc0 <strncpy+0x44>
   18bac:	00d72023          	sw	a3,0(a4)
   18bb0:	ffc60613          	addi	a2,a2,-4
   18bb4:	00470713          	addi	a4,a4,4
   18bb8:	00458593          	addi	a1,a1,4
   18bbc:	04ce7063          	bgeu	t3,a2,18bfc <strncpy+0x80>
   18bc0:	0005a683          	lw	a3,0(a1)
   18bc4:	006687b3          	add	a5,a3,t1
   18bc8:	fff6c813          	not	a6,a3
   18bcc:	0107f7b3          	and	a5,a5,a6
   18bd0:	0117f7b3          	and	a5,a5,a7
   18bd4:	fc078ce3          	beqz	a5,18bac <strncpy+0x30>
   18bd8:	00158593          	addi	a1,a1,1
   18bdc:	00170793          	addi	a5,a4,1
   18be0:	02060463          	beqz	a2,18c08 <strncpy+0x8c>
   18be4:	fff5c683          	lbu	a3,-1(a1)
   18be8:	fff60813          	addi	a6,a2,-1
   18bec:	fed78fa3          	sb	a3,-1(a5)
   18bf0:	00068e63          	beqz	a3,18c0c <strncpy+0x90>
   18bf4:	00078713          	mv	a4,a5
   18bf8:	00080613          	mv	a2,a6
   18bfc:	00158593          	addi	a1,a1,1
   18c00:	00170793          	addi	a5,a4,1
   18c04:	fe0610e3          	bnez	a2,18be4 <strncpy+0x68>
   18c08:	00008067          	ret
   18c0c:	00c70733          	add	a4,a4,a2
   18c10:	00080a63          	beqz	a6,18c24 <strncpy+0xa8>
   18c14:	00178793          	addi	a5,a5,1
   18c18:	fe078fa3          	sb	zero,-1(a5)
   18c1c:	fee79ce3          	bne	a5,a4,18c14 <strncpy+0x98>
   18c20:	00008067          	ret
   18c24:	00008067          	ret

00018c28 <_svfprintf_r>:
   18c28:	e1010113          	addi	sp,sp,-496
   18c2c:	1e112623          	sw	ra,492(sp)
   18c30:	1e812423          	sw	s0,488(sp)
   18c34:	1f212023          	sw	s2,480(sp)
   18c38:	00058413          	mv	s0,a1
   18c3c:	00b12423          	sw	a1,8(sp)
   18c40:	00060913          	mv	s2,a2
   18c44:	00d12c23          	sw	a3,24(sp)
   18c48:	1e912223          	sw	s1,484(sp)
   18c4c:	1d312e23          	sw	s3,476(sp)
   18c50:	1d412c23          	sw	s4,472(sp)
   18c54:	1d512a23          	sw	s5,468(sp)
   18c58:	1d612823          	sw	s6,464(sp)
   18c5c:	1d712623          	sw	s7,460(sp)
   18c60:	1d812423          	sw	s8,456(sp)
   18c64:	1d912223          	sw	s9,452(sp)
   18c68:	1da12023          	sw	s10,448(sp)
   18c6c:	1bb12e23          	sw	s11,444(sp)
   18c70:	02a12823          	sw	a0,48(sp)
   18c74:	d1dfd0ef          	jal	ra,16990 <_localeconv_r>
   18c78:	00052783          	lw	a5,0(a0)
   18c7c:	00078513          	mv	a0,a5
   18c80:	02f12c23          	sw	a5,56(sp)
   18c84:	e6dff0ef          	jal	ra,18af0 <strlen>
   18c88:	00c45783          	lhu	a5,12(s0)
   18c8c:	0e012823          	sw	zero,240(sp)
   18c90:	0e012a23          	sw	zero,244(sp)
   18c94:	0e012c23          	sw	zero,248(sp)
   18c98:	0e012e23          	sw	zero,252(sp)
   18c9c:	0807f793          	andi	a5,a5,128
   18ca0:	02a12a23          	sw	a0,52(sp)
   18ca4:	00078863          	beqz	a5,18cb4 <_svfprintf_r+0x8c>
   18ca8:	01042783          	lw	a5,16(s0)
   18cac:	00079463          	bnez	a5,18cb4 <_svfprintf_r+0x8c>
   18cb0:	3e00106f          	j	1a090 <_svfprintf_r+0x1468>
   18cb4:	000257b7          	lui	a5,0x25
   18cb8:	7a878793          	addi	a5,a5,1960 # 257a8 <__mprec_tens+0xc8>
   18cbc:	00090c93          	mv	s9,s2
   18cc0:	00f12e23          	sw	a5,28(sp)
   18cc4:	000cc703          	lbu	a4,0(s9)
   18cc8:	000267b7          	lui	a5,0x26
   18ccc:	10c10b13          	addi	s6,sp,268
   18cd0:	9ac78793          	addi	a5,a5,-1620 # 259ac <zeroes.0>
   18cd4:	0f612223          	sw	s6,228(sp)
   18cd8:	0e012623          	sw	zero,236(sp)
   18cdc:	0e012423          	sw	zero,232(sp)
   18ce0:	02012223          	sw	zero,36(sp)
   18ce4:	02012e23          	sw	zero,60(sp)
   18ce8:	04012223          	sw	zero,68(sp)
   18cec:	04012023          	sw	zero,64(sp)
   18cf0:	04012623          	sw	zero,76(sp)
   18cf4:	04012423          	sw	zero,72(sp)
   18cf8:	00012823          	sw	zero,16(sp)
   18cfc:	00f12623          	sw	a5,12(sp)
   18d00:	03012a03          	lw	s4,48(sp)
   18d04:	000b0413          	mv	s0,s6
   18d08:	22070463          	beqz	a4,18f30 <_svfprintf_r+0x308>
   18d0c:	000c8493          	mv	s1,s9
   18d10:	02500693          	li	a3,37
   18d14:	3cd70e63          	beq	a4,a3,190f0 <_svfprintf_r+0x4c8>
   18d18:	0014c703          	lbu	a4,1(s1) # 80000001 <__BSS_END__+0x7ffd9519>
   18d1c:	00148493          	addi	s1,s1,1
   18d20:	fe071ae3          	bnez	a4,18d14 <_svfprintf_r+0xec>
   18d24:	41948933          	sub	s2,s1,s9
   18d28:	21948463          	beq	s1,s9,18f30 <_svfprintf_r+0x308>
   18d2c:	0ec12683          	lw	a3,236(sp)
   18d30:	0e812703          	lw	a4,232(sp)
   18d34:	01942023          	sw	s9,0(s0)
   18d38:	012686b3          	add	a3,a3,s2
   18d3c:	00170713          	addi	a4,a4,1
   18d40:	01242223          	sw	s2,4(s0)
   18d44:	0ed12623          	sw	a3,236(sp)
   18d48:	0ee12423          	sw	a4,232(sp)
   18d4c:	00700693          	li	a3,7
   18d50:	00840413          	addi	s0,s0,8
   18d54:	3ae6c663          	blt	a3,a4,19100 <_svfprintf_r+0x4d8>
   18d58:	01012783          	lw	a5,16(sp)
   18d5c:	0004c703          	lbu	a4,0(s1)
   18d60:	012787b3          	add	a5,a5,s2
   18d64:	00f12823          	sw	a5,16(sp)
   18d68:	1c070463          	beqz	a4,18f30 <_svfprintf_r+0x308>
   18d6c:	0014c883          	lbu	a7,1(s1)
   18d70:	0c0103a3          	sb	zero,199(sp)
   18d74:	00148493          	addi	s1,s1,1
   18d78:	fff00993          	li	s3,-1
   18d7c:	00000d13          	li	s10,0
   18d80:	00000c13          	li	s8,0
   18d84:	05a00913          	li	s2,90
   18d88:	00148493          	addi	s1,s1,1
   18d8c:	fe088793          	addi	a5,a7,-32
   18d90:	04f96663          	bltu	s2,a5,18ddc <_svfprintf_r+0x1b4>
   18d94:	01c12703          	lw	a4,28(sp)
   18d98:	00279793          	slli	a5,a5,0x2
   18d9c:	00e787b3          	add	a5,a5,a4
   18da0:	0007a783          	lw	a5,0(a5)
   18da4:	00078067          	jr	a5
   18da8:	00000d13          	li	s10,0
   18dac:	fd088793          	addi	a5,a7,-48
   18db0:	00900693          	li	a3,9
   18db4:	0004c883          	lbu	a7,0(s1)
   18db8:	002d1713          	slli	a4,s10,0x2
   18dbc:	01a70d33          	add	s10,a4,s10
   18dc0:	001d1d13          	slli	s10,s10,0x1
   18dc4:	01a78d33          	add	s10,a5,s10
   18dc8:	fd088793          	addi	a5,a7,-48
   18dcc:	00148493          	addi	s1,s1,1
   18dd0:	fef6f2e3          	bgeu	a3,a5,18db4 <_svfprintf_r+0x18c>
   18dd4:	fe088793          	addi	a5,a7,-32
   18dd8:	faf97ee3          	bgeu	s2,a5,18d94 <_svfprintf_r+0x16c>
   18ddc:	14088a63          	beqz	a7,18f30 <_svfprintf_r+0x308>
   18de0:	15110623          	sb	a7,332(sp)
   18de4:	0c0103a3          	sb	zero,199(sp)
   18de8:	00100a93          	li	s5,1
   18dec:	00100913          	li	s2,1
   18df0:	14c10c93          	addi	s9,sp,332
   18df4:	00012a23          	sw	zero,20(sp)
   18df8:	00000993          	li	s3,0
   18dfc:	02012423          	sw	zero,40(sp)
   18e00:	02012623          	sw	zero,44(sp)
   18e04:	02012023          	sw	zero,32(sp)
   18e08:	002c7293          	andi	t0,s8,2
   18e0c:	00028463          	beqz	t0,18e14 <_svfprintf_r+0x1ec>
   18e10:	002a8a93          	addi	s5,s5,2
   18e14:	084c7d93          	andi	s11,s8,132
   18e18:	000d9663          	bnez	s11,18e24 <_svfprintf_r+0x1fc>
   18e1c:	415d06b3          	sub	a3,s10,s5
   18e20:	3ed04ee3          	bgtz	a3,19a1c <_svfprintf_r+0xdf4>
   18e24:	0c714683          	lbu	a3,199(sp)
   18e28:	02068c63          	beqz	a3,18e60 <_svfprintf_r+0x238>
   18e2c:	0ec12603          	lw	a2,236(sp)
   18e30:	0e812683          	lw	a3,232(sp)
   18e34:	0c710593          	addi	a1,sp,199
   18e38:	00160613          	addi	a2,a2,1
   18e3c:	00b42023          	sw	a1,0(s0)
   18e40:	00168693          	addi	a3,a3,1
   18e44:	00100593          	li	a1,1
   18e48:	00b42223          	sw	a1,4(s0)
   18e4c:	0ec12623          	sw	a2,236(sp)
   18e50:	0ed12423          	sw	a3,232(sp)
   18e54:	00700613          	li	a2,7
   18e58:	00840413          	addi	s0,s0,8
   18e5c:	3ad64463          	blt	a2,a3,19204 <_svfprintf_r+0x5dc>
   18e60:	02028c63          	beqz	t0,18e98 <_svfprintf_r+0x270>
   18e64:	0ec12603          	lw	a2,236(sp)
   18e68:	0e812683          	lw	a3,232(sp)
   18e6c:	0c810793          	addi	a5,sp,200
   18e70:	00260613          	addi	a2,a2,2
   18e74:	00168693          	addi	a3,a3,1
   18e78:	00200593          	li	a1,2
   18e7c:	00f42023          	sw	a5,0(s0)
   18e80:	00b42223          	sw	a1,4(s0)
   18e84:	0ec12623          	sw	a2,236(sp)
   18e88:	0ed12423          	sw	a3,232(sp)
   18e8c:	00700613          	li	a2,7
   18e90:	00840413          	addi	s0,s0,8
   18e94:	48d64ae3          	blt	a2,a3,19b28 <_svfprintf_r+0xf00>
   18e98:	08000693          	li	a3,128
   18e9c:	16dd88e3          	beq	s11,a3,1980c <_svfprintf_r+0xbe4>
   18ea0:	412989b3          	sub	s3,s3,s2
   18ea4:	273040e3          	bgtz	s3,19904 <_svfprintf_r+0xcdc>
   18ea8:	100c7693          	andi	a3,s8,256
   18eac:	7c069663          	bnez	a3,19678 <_svfprintf_r+0xa50>
   18eb0:	0ec12683          	lw	a3,236(sp)
   18eb4:	0e812783          	lw	a5,232(sp)
   18eb8:	01942023          	sw	s9,0(s0)
   18ebc:	00d906b3          	add	a3,s2,a3
   18ec0:	00178793          	addi	a5,a5,1
   18ec4:	01242223          	sw	s2,4(s0)
   18ec8:	0ed12623          	sw	a3,236(sp)
   18ecc:	0ef12423          	sw	a5,232(sp)
   18ed0:	00700613          	li	a2,7
   18ed4:	46f64063          	blt	a2,a5,19334 <_svfprintf_r+0x70c>
   18ed8:	00840413          	addi	s0,s0,8
   18edc:	004c7713          	andi	a4,s8,4
   18ee0:	00070663          	beqz	a4,18eec <_svfprintf_r+0x2c4>
   18ee4:	415d0933          	sub	s2,s10,s5
   18ee8:	472042e3          	bgtz	s2,19b4c <_svfprintf_r+0xf24>
   18eec:	000d0313          	mv	t1,s10
   18ef0:	015d5463          	bge	s10,s5,18ef8 <_svfprintf_r+0x2d0>
   18ef4:	000a8313          	mv	t1,s5
   18ef8:	01012783          	lw	a5,16(sp)
   18efc:	006787b3          	add	a5,a5,t1
   18f00:	00f12823          	sw	a5,16(sp)
   18f04:	2e0694e3          	bnez	a3,199ec <_svfprintf_r+0xdc4>
   18f08:	01412783          	lw	a5,20(sp)
   18f0c:	0e012423          	sw	zero,232(sp)
   18f10:	00078863          	beqz	a5,18f20 <_svfprintf_r+0x2f8>
   18f14:	01412583          	lw	a1,20(sp)
   18f18:	000a0513          	mv	a0,s4
   18f1c:	961fa0ef          	jal	ra,1387c <_free_r>
   18f20:	000b0413          	mv	s0,s6
   18f24:	00048c93          	mv	s9,s1
   18f28:	000cc703          	lbu	a4,0(s9)
   18f2c:	de0710e3          	bnez	a4,18d0c <_svfprintf_r+0xe4>
   18f30:	0ec12783          	lw	a5,236(sp)
   18f34:	00078463          	beqz	a5,18f3c <_svfprintf_r+0x314>
   18f38:	2a50106f          	j	1a9dc <_svfprintf_r+0x1db4>
   18f3c:	00812783          	lw	a5,8(sp)
   18f40:	00c7d783          	lhu	a5,12(a5)
   18f44:	0407f793          	andi	a5,a5,64
   18f48:	00078463          	beqz	a5,18f50 <_svfprintf_r+0x328>
   18f4c:	30c0206f          	j	1b258 <_svfprintf_r+0x2630>
   18f50:	1ec12083          	lw	ra,492(sp)
   18f54:	1e812403          	lw	s0,488(sp)
   18f58:	01012503          	lw	a0,16(sp)
   18f5c:	1e412483          	lw	s1,484(sp)
   18f60:	1e012903          	lw	s2,480(sp)
   18f64:	1dc12983          	lw	s3,476(sp)
   18f68:	1d812a03          	lw	s4,472(sp)
   18f6c:	1d412a83          	lw	s5,468(sp)
   18f70:	1d012b03          	lw	s6,464(sp)
   18f74:	1cc12b83          	lw	s7,460(sp)
   18f78:	1c812c03          	lw	s8,456(sp)
   18f7c:	1c412c83          	lw	s9,452(sp)
   18f80:	1c012d03          	lw	s10,448(sp)
   18f84:	1bc12d83          	lw	s11,444(sp)
   18f88:	1f010113          	addi	sp,sp,496
   18f8c:	00008067          	ret
   18f90:	000a0513          	mv	a0,s4
   18f94:	9fdfd0ef          	jal	ra,16990 <_localeconv_r>
   18f98:	00452783          	lw	a5,4(a0)
   18f9c:	00078513          	mv	a0,a5
   18fa0:	04f12423          	sw	a5,72(sp)
   18fa4:	b4dff0ef          	jal	ra,18af0 <strlen>
   18fa8:	00050793          	mv	a5,a0
   18fac:	000a0513          	mv	a0,s4
   18fb0:	00078a93          	mv	s5,a5
   18fb4:	04f12623          	sw	a5,76(sp)
   18fb8:	9d9fd0ef          	jal	ra,16990 <_localeconv_r>
   18fbc:	00852703          	lw	a4,8(a0)
   18fc0:	04e12023          	sw	a4,64(sp)
   18fc4:	000a8463          	beqz	s5,18fcc <_svfprintf_r+0x3a4>
   18fc8:	7cd0006f          	j	19f94 <_svfprintf_r+0x136c>
   18fcc:	0004c883          	lbu	a7,0(s1)
   18fd0:	db9ff06f          	j	18d88 <_svfprintf_r+0x160>
   18fd4:	0004c883          	lbu	a7,0(s1)
   18fd8:	020c6c13          	ori	s8,s8,32
   18fdc:	dadff06f          	j	18d88 <_svfprintf_r+0x160>
   18fe0:	010c6c13          	ori	s8,s8,16
   18fe4:	020c7793          	andi	a5,s8,32
   18fe8:	38078e63          	beqz	a5,19384 <_svfprintf_r+0x75c>
   18fec:	01812783          	lw	a5,24(sp)
   18ff0:	00778b93          	addi	s7,a5,7
   18ff4:	ff8bfb93          	andi	s7,s7,-8
   18ff8:	004ba783          	lw	a5,4(s7)
   18ffc:	000bad83          	lw	s11,0(s7)
   19000:	008b8713          	addi	a4,s7,8
   19004:	00e12c23          	sw	a4,24(sp)
   19008:	00078913          	mv	s2,a5
   1900c:	3a07c663          	bltz	a5,193b8 <_svfprintf_r+0x790>
   19010:	fff00793          	li	a5,-1
   19014:	000c0693          	mv	a3,s8
   19018:	00f98a63          	beq	s3,a5,1902c <_svfprintf_r+0x404>
   1901c:	012de7b3          	or	a5,s11,s2
   19020:	f7fc7693          	andi	a3,s8,-129
   19024:	00079463          	bnez	a5,1902c <_svfprintf_r+0x404>
   19028:	7a10006f          	j	19fc8 <_svfprintf_r+0x13a0>
   1902c:	00090463          	beqz	s2,19034 <_svfprintf_r+0x40c>
   19030:	35c0106f          	j	1a38c <_svfprintf_r+0x1764>
   19034:	00900793          	li	a5,9
   19038:	01b7f463          	bgeu	a5,s11,19040 <_svfprintf_r+0x418>
   1903c:	3500106f          	j	1a38c <_svfprintf_r+0x1764>
   19040:	030d8d93          	addi	s11,s11,48
   19044:	1bb107a3          	sb	s11,431(sp)
   19048:	00068c13          	mv	s8,a3
   1904c:	00100913          	li	s2,1
   19050:	1af10c93          	addi	s9,sp,431
   19054:	0c714683          	lbu	a3,199(sp)
   19058:	00090a93          	mv	s5,s2
   1905c:	01395463          	bge	s2,s3,19064 <_svfprintf_r+0x43c>
   19060:	00098a93          	mv	s5,s3
   19064:	00012a23          	sw	zero,20(sp)
   19068:	02012423          	sw	zero,40(sp)
   1906c:	02012623          	sw	zero,44(sp)
   19070:	02012023          	sw	zero,32(sp)
   19074:	d8068ae3          	beqz	a3,18e08 <_svfprintf_r+0x1e0>
   19078:	001a8a93          	addi	s5,s5,1
   1907c:	d8dff06f          	j	18e08 <_svfprintf_r+0x1e0>
   19080:	010c6c13          	ori	s8,s8,16
   19084:	020c7793          	andi	a5,s8,32
   19088:	2c078663          	beqz	a5,19354 <_svfprintf_r+0x72c>
   1908c:	01812783          	lw	a5,24(sp)
   19090:	00778b93          	addi	s7,a5,7
   19094:	ff8bfb93          	andi	s7,s7,-8
   19098:	000bad83          	lw	s11,0(s7)
   1909c:	004ba903          	lw	s2,4(s7)
   190a0:	008b8793          	addi	a5,s7,8
   190a4:	00f12c23          	sw	a5,24(sp)
   190a8:	bffc7693          	andi	a3,s8,-1025
   190ac:	00000613          	li	a2,0
   190b0:	00000793          	li	a5,0
   190b4:	0cf103a3          	sb	a5,199(sp)
   190b8:	fff00793          	li	a5,-1
   190bc:	32f98263          	beq	s3,a5,193e0 <_svfprintf_r+0x7b8>
   190c0:	012de7b3          	or	a5,s11,s2
   190c4:	f7f6fc13          	andi	s8,a3,-129
   190c8:	140796e3          	bnez	a5,19a14 <_svfprintf_r+0xdec>
   190cc:	6e099263          	bnez	s3,197b0 <_svfprintf_r+0xb88>
   190d0:	5e0610e3          	bnez	a2,19eb0 <_svfprintf_r+0x1288>
   190d4:	0016f913          	andi	s2,a3,1
   190d8:	1b010c93          	addi	s9,sp,432
   190dc:	f6090ce3          	beqz	s2,19054 <_svfprintf_r+0x42c>
   190e0:	03000793          	li	a5,48
   190e4:	1af107a3          	sb	a5,431(sp)
   190e8:	1af10c93          	addi	s9,sp,431
   190ec:	f69ff06f          	j	19054 <_svfprintf_r+0x42c>
   190f0:	41948933          	sub	s2,s1,s9
   190f4:	c3949ce3          	bne	s1,s9,18d2c <_svfprintf_r+0x104>
   190f8:	0004c703          	lbu	a4,0(s1)
   190fc:	c6dff06f          	j	18d68 <_svfprintf_r+0x140>
   19100:	00812583          	lw	a1,8(sp)
   19104:	0e410613          	addi	a2,sp,228
   19108:	000a0513          	mv	a0,s4
   1910c:	268050ef          	jal	ra,1e374 <__ssprint_r>
   19110:	e20516e3          	bnez	a0,18f3c <_svfprintf_r+0x314>
   19114:	000b0413          	mv	s0,s6
   19118:	c41ff06f          	j	18d58 <_svfprintf_r+0x130>
   1911c:	008c7693          	andi	a3,s8,8
   19120:	620692e3          	bnez	a3,19f44 <_svfprintf_r+0x131c>
   19124:	01812783          	lw	a5,24(sp)
   19128:	0b010513          	addi	a0,sp,176
   1912c:	01112a23          	sw	a7,20(sp)
   19130:	00778b93          	addi	s7,a5,7
   19134:	ff8bfb93          	andi	s7,s7,-8
   19138:	000ba583          	lw	a1,0(s7)
   1913c:	004ba603          	lw	a2,4(s7)
   19140:	008b8793          	addi	a5,s7,8
   19144:	00f12c23          	sw	a5,24(sp)
   19148:	0950b0ef          	jal	ra,249dc <__extenddftf2>
   1914c:	0b012803          	lw	a6,176(sp)
   19150:	0b412583          	lw	a1,180(sp)
   19154:	0b812603          	lw	a2,184(sp)
   19158:	0bc12683          	lw	a3,188(sp)
   1915c:	01412883          	lw	a7,20(sp)
   19160:	0f010513          	addi	a0,sp,240
   19164:	01112a23          	sw	a7,20(sp)
   19168:	0ed12e23          	sw	a3,252(sp)
   1916c:	0f012823          	sw	a6,240(sp)
   19170:	0eb12a23          	sw	a1,244(sp)
   19174:	0ec12c23          	sw	a2,248(sp)
   19178:	f98fd0ef          	jal	ra,16910 <_ldcheck>
   1917c:	0ca12623          	sw	a0,204(sp)
   19180:	00200693          	li	a3,2
   19184:	01412883          	lw	a7,20(sp)
   19188:	00d51463          	bne	a0,a3,19190 <_svfprintf_r+0x568>
   1918c:	3e40106f          	j	1a570 <_svfprintf_r+0x1948>
   19190:	00100693          	li	a3,1
   19194:	00d51463          	bne	a0,a3,1919c <_svfprintf_r+0x574>
   19198:	7140106f          	j	1a8ac <_svfprintf_r+0x1c84>
   1919c:	06100693          	li	a3,97
   191a0:	00d89463          	bne	a7,a3,191a8 <_svfprintf_r+0x580>
   191a4:	5440106f          	j	1a6e8 <_svfprintf_r+0x1ac0>
   191a8:	04100693          	li	a3,65
   191ac:	05800793          	li	a5,88
   191b0:	00d89463          	bne	a7,a3,191b8 <_svfprintf_r+0x590>
   191b4:	5380106f          	j	1a6ec <_svfprintf_r+0x1ac4>
   191b8:	fff00693          	li	a3,-1
   191bc:	00d99463          	bne	s3,a3,191c4 <_svfprintf_r+0x59c>
   191c0:	1e90106f          	j	1aba8 <_svfprintf_r+0x1f80>
   191c4:	fdf8f693          	andi	a3,a7,-33
   191c8:	04700613          	li	a2,71
   191cc:	00c69463          	bne	a3,a2,191d4 <_svfprintf_r+0x5ac>
   191d0:	0280206f          	j	1b1f8 <_svfprintf_r+0x25d0>
   191d4:	0fc12d83          	lw	s11,252(sp)
   191d8:	100c6793          	ori	a5,s8,256
   191dc:	04f12c23          	sw	a5,88(sp)
   191e0:	03812423          	sw	s8,40(sp)
   191e4:	0f012f03          	lw	t5,240(sp)
   191e8:	0f412e83          	lw	t4,244(sp)
   191ec:	0f812e03          	lw	t3,248(sp)
   191f0:	000dd463          	bgez	s11,191f8 <_svfprintf_r+0x5d0>
   191f4:	6a00106f          	j	1a894 <_svfprintf_r+0x1c6c>
   191f8:	06012023          	sw	zero,96(sp)
   191fc:	00012a23          	sw	zero,20(sp)
   19200:	5380106f          	j	1a738 <_svfprintf_r+0x1b10>
   19204:	00812583          	lw	a1,8(sp)
   19208:	0e410613          	addi	a2,sp,228
   1920c:	000a0513          	mv	a0,s4
   19210:	05112a23          	sw	a7,84(sp)
   19214:	04512823          	sw	t0,80(sp)
   19218:	15c050ef          	jal	ra,1e374 <__ssprint_r>
   1921c:	7e051263          	bnez	a0,19a00 <_svfprintf_r+0xdd8>
   19220:	05412883          	lw	a7,84(sp)
   19224:	05012283          	lw	t0,80(sp)
   19228:	000b0413          	mv	s0,s6
   1922c:	c35ff06f          	j	18e60 <_svfprintf_r+0x238>
   19230:	02412783          	lw	a5,36(sp)
   19234:	00100613          	li	a2,1
   19238:	00840993          	addi	s3,s0,8
   1923c:	34f656e3          	bge	a2,a5,19d88 <_svfprintf_r+0x1160>
   19240:	0ec12683          	lw	a3,236(sp)
   19244:	0e812903          	lw	s2,232(sp)
   19248:	00100613          	li	a2,1
   1924c:	00168693          	addi	a3,a3,1
   19250:	00190913          	addi	s2,s2,1
   19254:	00c42223          	sw	a2,4(s0)
   19258:	01942023          	sw	s9,0(s0)
   1925c:	0ed12623          	sw	a3,236(sp)
   19260:	0f212423          	sw	s2,232(sp)
   19264:	00700613          	li	a2,7
   19268:	45264ae3          	blt	a2,s2,19ebc <_svfprintf_r+0x1294>
   1926c:	03412783          	lw	a5,52(sp)
   19270:	03812703          	lw	a4,56(sp)
   19274:	00190913          	addi	s2,s2,1
   19278:	00d78db3          	add	s11,a5,a3
   1927c:	00e9a023          	sw	a4,0(s3)
   19280:	00f9a223          	sw	a5,4(s3)
   19284:	0fb12623          	sw	s11,236(sp)
   19288:	0f212423          	sw	s2,232(sp)
   1928c:	00700693          	li	a3,7
   19290:	00898993          	addi	s3,s3,8
   19294:	4526c6e3          	blt	a3,s2,19ee0 <_svfprintf_r+0x12b8>
   19298:	0f012683          	lw	a3,240(sp)
   1929c:	0a010593          	addi	a1,sp,160
   192a0:	0b010513          	addi	a0,sp,176
   192a4:	0ad12823          	sw	a3,176(sp)
   192a8:	0f412683          	lw	a3,244(sp)
   192ac:	0a012023          	sw	zero,160(sp)
   192b0:	0a012223          	sw	zero,164(sp)
   192b4:	0ad12a23          	sw	a3,180(sp)
   192b8:	0f812683          	lw	a3,248(sp)
   192bc:	0a012423          	sw	zero,168(sp)
   192c0:	0a012623          	sw	zero,172(sp)
   192c4:	0ad12c23          	sw	a3,184(sp)
   192c8:	0fc12683          	lw	a3,252(sp)
   192cc:	0ad12e23          	sw	a3,188(sp)
   192d0:	009080ef          	jal	ra,21ad8 <__eqtf2>
   192d4:	02412783          	lw	a5,36(sp)
   192d8:	fff78413          	addi	s0,a5,-1
   192dc:	300500e3          	beqz	a0,19ddc <_svfprintf_r+0x11b4>
   192e0:	001c8793          	addi	a5,s9,1
   192e4:	00190913          	addi	s2,s2,1
   192e8:	008d8db3          	add	s11,s11,s0
   192ec:	00f9a023          	sw	a5,0(s3)
   192f0:	0089a223          	sw	s0,4(s3)
   192f4:	0fb12623          	sw	s11,236(sp)
   192f8:	0f212423          	sw	s2,232(sp)
   192fc:	00700793          	li	a5,7
   19300:	00898993          	addi	s3,s3,8
   19304:	2b27cae3          	blt	a5,s2,19db8 <_svfprintf_r+0x1190>
   19308:	04412703          	lw	a4,68(sp)
   1930c:	0d410613          	addi	a2,sp,212
   19310:	00190793          	addi	a5,s2,1
   19314:	01b706b3          	add	a3,a4,s11
   19318:	00c9a023          	sw	a2,0(s3)
   1931c:	00e9a223          	sw	a4,4(s3)
   19320:	0ed12623          	sw	a3,236(sp)
   19324:	0ef12423          	sw	a5,232(sp)
   19328:	00700613          	li	a2,7
   1932c:	00898413          	addi	s0,s3,8
   19330:	baf656e3          	bge	a2,a5,18edc <_svfprintf_r+0x2b4>
   19334:	00812583          	lw	a1,8(sp)
   19338:	0e410613          	addi	a2,sp,228
   1933c:	000a0513          	mv	a0,s4
   19340:	034050ef          	jal	ra,1e374 <__ssprint_r>
   19344:	6a051e63          	bnez	a0,19a00 <_svfprintf_r+0xdd8>
   19348:	0ec12683          	lw	a3,236(sp)
   1934c:	000b0413          	mv	s0,s6
   19350:	b8dff06f          	j	18edc <_svfprintf_r+0x2b4>
   19354:	01812703          	lw	a4,24(sp)
   19358:	010c7793          	andi	a5,s8,16
   1935c:	00072d83          	lw	s11,0(a4)
   19360:	00470713          	addi	a4,a4,4
   19364:	00e12c23          	sw	a4,24(sp)
   19368:	3c079ae3          	bnez	a5,19f3c <_svfprintf_r+0x1314>
   1936c:	040c7793          	andi	a5,s8,64
   19370:	3c0782e3          	beqz	a5,19f34 <_svfprintf_r+0x130c>
   19374:	010d9d93          	slli	s11,s11,0x10
   19378:	010ddd93          	srli	s11,s11,0x10
   1937c:	00000913          	li	s2,0
   19380:	d29ff06f          	j	190a8 <_svfprintf_r+0x480>
   19384:	01812703          	lw	a4,24(sp)
   19388:	010c7793          	andi	a5,s8,16
   1938c:	00072d83          	lw	s11,0(a4)
   19390:	00470713          	addi	a4,a4,4
   19394:	00e12c23          	sw	a4,24(sp)
   19398:	380798e3          	bnez	a5,19f28 <_svfprintf_r+0x1300>
   1939c:	040c7793          	andi	a5,s8,64
   193a0:	380780e3          	beqz	a5,19f20 <_svfprintf_r+0x12f8>
   193a4:	010d9d93          	slli	s11,s11,0x10
   193a8:	410ddd93          	srai	s11,s11,0x10
   193ac:	41fdd913          	srai	s2,s11,0x1f
   193b0:	00090793          	mv	a5,s2
   193b4:	c407dee3          	bgez	a5,19010 <_svfprintf_r+0x3e8>
   193b8:	01b037b3          	snez	a5,s11
   193bc:	41200833          	neg	a6,s2
   193c0:	40f80933          	sub	s2,a6,a5
   193c4:	02d00793          	li	a5,45
   193c8:	0cf103a3          	sb	a5,199(sp)
   193cc:	fff00793          	li	a5,-1
   193d0:	41b00db3          	neg	s11,s11
   193d4:	000c0693          	mv	a3,s8
   193d8:	00100613          	li	a2,1
   193dc:	cef992e3          	bne	s3,a5,190c0 <_svfprintf_r+0x498>
   193e0:	00100793          	li	a5,1
   193e4:	c4f604e3          	beq	a2,a5,1902c <_svfprintf_r+0x404>
   193e8:	00200793          	li	a5,2
   193ec:	3cf60e63          	beq	a2,a5,197c8 <_svfprintf_r+0xba0>
   193f0:	1b010c93          	addi	s9,sp,432
   193f4:	01d91793          	slli	a5,s2,0x1d
   193f8:	007df713          	andi	a4,s11,7
   193fc:	003ddd93          	srli	s11,s11,0x3
   19400:	03070713          	addi	a4,a4,48
   19404:	01b7edb3          	or	s11,a5,s11
   19408:	00395913          	srli	s2,s2,0x3
   1940c:	feec8fa3          	sb	a4,-1(s9)
   19410:	012de7b3          	or	a5,s11,s2
   19414:	000c8593          	mv	a1,s9
   19418:	fffc8c93          	addi	s9,s9,-1
   1941c:	fc079ce3          	bnez	a5,193f4 <_svfprintf_r+0x7cc>
   19420:	0016f613          	andi	a2,a3,1
   19424:	3c060c63          	beqz	a2,197fc <_svfprintf_r+0xbd4>
   19428:	03000613          	li	a2,48
   1942c:	3cc70863          	beq	a4,a2,197fc <_svfprintf_r+0xbd4>
   19430:	ffe58593          	addi	a1,a1,-2
   19434:	1b010793          	addi	a5,sp,432
   19438:	fecc8fa3          	sb	a2,-1(s9)
   1943c:	40b78933          	sub	s2,a5,a1
   19440:	00068c13          	mv	s8,a3
   19444:	00058c93          	mv	s9,a1
   19448:	c0dff06f          	j	19054 <_svfprintf_r+0x42c>
   1944c:	01812783          	lw	a5,24(sp)
   19450:	0c0103a3          	sb	zero,199(sp)
   19454:	0007ac83          	lw	s9,0(a5)
   19458:	00478b93          	addi	s7,a5,4
   1945c:	000c9463          	bnez	s9,19464 <_svfprintf_r+0x83c>
   19460:	1a80106f          	j	1a608 <_svfprintf_r+0x19e0>
   19464:	fff00693          	li	a3,-1
   19468:	44d98ce3          	beq	s3,a3,1a0c0 <_svfprintf_r+0x1498>
   1946c:	00098613          	mv	a2,s3
   19470:	00000593          	li	a1,0
   19474:	000c8513          	mv	a0,s9
   19478:	01112c23          	sw	a7,24(sp)
   1947c:	f01fd0ef          	jal	ra,1737c <memchr>
   19480:	00a12a23          	sw	a0,20(sp)
   19484:	01812883          	lw	a7,24(sp)
   19488:	00051463          	bnez	a0,19490 <_svfprintf_r+0x868>
   1948c:	3bd0106f          	j	1b048 <_svfprintf_r+0x2420>
   19490:	01412783          	lw	a5,20(sp)
   19494:	0c714683          	lbu	a3,199(sp)
   19498:	01712c23          	sw	s7,24(sp)
   1949c:	41978933          	sub	s2,a5,s9
   194a0:	fff94813          	not	a6,s2
   194a4:	41f85813          	srai	a6,a6,0x1f
   194a8:	00012a23          	sw	zero,20(sp)
   194ac:	02012423          	sw	zero,40(sp)
   194b0:	02012623          	sw	zero,44(sp)
   194b4:	02012023          	sw	zero,32(sp)
   194b8:	01097ab3          	and	s5,s2,a6
   194bc:	00000993          	li	s3,0
   194c0:	ba069ce3          	bnez	a3,19078 <_svfprintf_r+0x450>
   194c4:	945ff06f          	j	18e08 <_svfprintf_r+0x1e0>
   194c8:	01812703          	lw	a4,24(sp)
   194cc:	0c0103a3          	sb	zero,199(sp)
   194d0:	00100a93          	li	s5,1
   194d4:	00072783          	lw	a5,0(a4)
   194d8:	00470713          	addi	a4,a4,4
   194dc:	00e12c23          	sw	a4,24(sp)
   194e0:	14f10623          	sb	a5,332(sp)
   194e4:	00100913          	li	s2,1
   194e8:	14c10c93          	addi	s9,sp,332
   194ec:	909ff06f          	j	18df4 <_svfprintf_r+0x1cc>
   194f0:	01812783          	lw	a5,24(sp)
   194f4:	0007ad03          	lw	s10,0(a5)
   194f8:	00478793          	addi	a5,a5,4
   194fc:	200d5ce3          	bgez	s10,19f14 <_svfprintf_r+0x12ec>
   19500:	41a00d33          	neg	s10,s10
   19504:	00f12c23          	sw	a5,24(sp)
   19508:	0004c883          	lbu	a7,0(s1)
   1950c:	004c6c13          	ori	s8,s8,4
   19510:	879ff06f          	j	18d88 <_svfprintf_r+0x160>
   19514:	02b00793          	li	a5,43
   19518:	0004c883          	lbu	a7,0(s1)
   1951c:	0cf103a3          	sb	a5,199(sp)
   19520:	869ff06f          	j	18d88 <_svfprintf_r+0x160>
   19524:	0004c883          	lbu	a7,0(s1)
   19528:	080c6c13          	ori	s8,s8,128
   1952c:	85dff06f          	j	18d88 <_svfprintf_r+0x160>
   19530:	0004c883          	lbu	a7,0(s1)
   19534:	02a00793          	li	a5,42
   19538:	00148713          	addi	a4,s1,1
   1953c:	00f89463          	bne	a7,a5,19544 <_svfprintf_r+0x91c>
   19540:	6e90106f          	j	1b428 <_svfprintf_r+0x2800>
   19544:	fd088793          	addi	a5,a7,-48
   19548:	00900613          	li	a2,9
   1954c:	00070493          	mv	s1,a4
   19550:	00000993          	li	s3,0
   19554:	00900693          	li	a3,9
   19558:	82f66ae3          	bltu	a2,a5,18d8c <_svfprintf_r+0x164>
   1955c:	0004c883          	lbu	a7,0(s1)
   19560:	00299713          	slli	a4,s3,0x2
   19564:	013709b3          	add	s3,a4,s3
   19568:	00199993          	slli	s3,s3,0x1
   1956c:	00f989b3          	add	s3,s3,a5
   19570:	fd088793          	addi	a5,a7,-48
   19574:	00148493          	addi	s1,s1,1
   19578:	fef6f2e3          	bgeu	a3,a5,1955c <_svfprintf_r+0x934>
   1957c:	811ff06f          	j	18d8c <_svfprintf_r+0x164>
   19580:	0004c883          	lbu	a7,0(s1)
   19584:	001c6c13          	ori	s8,s8,1
   19588:	801ff06f          	j	18d88 <_svfprintf_r+0x160>
   1958c:	0c714783          	lbu	a5,199(sp)
   19590:	0004c883          	lbu	a7,0(s1)
   19594:	fe079a63          	bnez	a5,18d88 <_svfprintf_r+0x160>
   19598:	02000793          	li	a5,32
   1959c:	0cf103a3          	sb	a5,199(sp)
   195a0:	fe8ff06f          	j	18d88 <_svfprintf_r+0x160>
   195a4:	010c6693          	ori	a3,s8,16
   195a8:	0206f793          	andi	a5,a3,32
   195ac:	0a078ce3          	beqz	a5,19e64 <_svfprintf_r+0x123c>
   195b0:	01812783          	lw	a5,24(sp)
   195b4:	00100613          	li	a2,1
   195b8:	00778b93          	addi	s7,a5,7
   195bc:	ff8bfb93          	andi	s7,s7,-8
   195c0:	008b8793          	addi	a5,s7,8
   195c4:	000bad83          	lw	s11,0(s7)
   195c8:	004ba903          	lw	s2,4(s7)
   195cc:	00f12c23          	sw	a5,24(sp)
   195d0:	ae1ff06f          	j	190b0 <_svfprintf_r+0x488>
   195d4:	0004c883          	lbu	a7,0(s1)
   195d8:	008c6c13          	ori	s8,s8,8
   195dc:	facff06f          	j	18d88 <_svfprintf_r+0x160>
   195e0:	01812703          	lw	a4,24(sp)
   195e4:	ffff87b7          	lui	a5,0xffff8
   195e8:	8307c793          	xori	a5,a5,-2000
   195ec:	0cf11423          	sh	a5,200(sp)
   195f0:	00470793          	addi	a5,a4,4
   195f4:	00f12c23          	sw	a5,24(sp)
   195f8:	000257b7          	lui	a5,0x25
   195fc:	11078793          	addi	a5,a5,272 # 25110 <__clzsi2+0x100>
   19600:	00072d83          	lw	s11,0(a4)
   19604:	00000913          	li	s2,0
   19608:	002c6693          	ori	a3,s8,2
   1960c:	02f12e23          	sw	a5,60(sp)
   19610:	00200613          	li	a2,2
   19614:	07800893          	li	a7,120
   19618:	a99ff06f          	j	190b0 <_svfprintf_r+0x488>
   1961c:	020c7793          	andi	a5,s8,32
   19620:	140784e3          	beqz	a5,19f68 <_svfprintf_r+0x1340>
   19624:	01812783          	lw	a5,24(sp)
   19628:	01012683          	lw	a3,16(sp)
   1962c:	0007a783          	lw	a5,0(a5)
   19630:	41f6d713          	srai	a4,a3,0x1f
   19634:	00d7a023          	sw	a3,0(a5)
   19638:	00e7a223          	sw	a4,4(a5)
   1963c:	01812783          	lw	a5,24(sp)
   19640:	00048c93          	mv	s9,s1
   19644:	00478793          	addi	a5,a5,4
   19648:	00f12c23          	sw	a5,24(sp)
   1964c:	8ddff06f          	j	18f28 <_svfprintf_r+0x300>
   19650:	0004c883          	lbu	a7,0(s1)
   19654:	06c00793          	li	a5,108
   19658:	20f884e3          	beq	a7,a5,1a060 <_svfprintf_r+0x1438>
   1965c:	010c6c13          	ori	s8,s8,16
   19660:	f28ff06f          	j	18d88 <_svfprintf_r+0x160>
   19664:	0004c883          	lbu	a7,0(s1)
   19668:	06800793          	li	a5,104
   1966c:	1ef882e3          	beq	a7,a5,1a050 <_svfprintf_r+0x1428>
   19670:	040c6c13          	ori	s8,s8,64
   19674:	f14ff06f          	j	18d88 <_svfprintf_r+0x160>
   19678:	06500693          	li	a3,101
   1967c:	bb16dae3          	bge	a3,a7,19230 <_svfprintf_r+0x608>
   19680:	0f012683          	lw	a3,240(sp)
   19684:	0a010593          	addi	a1,sp,160
   19688:	0b010513          	addi	a0,sp,176
   1968c:	0ad12823          	sw	a3,176(sp)
   19690:	0f412683          	lw	a3,244(sp)
   19694:	0a012023          	sw	zero,160(sp)
   19698:	0a012223          	sw	zero,164(sp)
   1969c:	0ad12a23          	sw	a3,180(sp)
   196a0:	0f812683          	lw	a3,248(sp)
   196a4:	0a012423          	sw	zero,168(sp)
   196a8:	0a012623          	sw	zero,172(sp)
   196ac:	0ad12c23          	sw	a3,184(sp)
   196b0:	0fc12683          	lw	a3,252(sp)
   196b4:	0ad12e23          	sw	a3,188(sp)
   196b8:	420080ef          	jal	ra,21ad8 <__eqtf2>
   196bc:	54051063          	bnez	a0,19bfc <_svfprintf_r+0xfd4>
   196c0:	0ec12683          	lw	a3,236(sp)
   196c4:	0e812783          	lw	a5,232(sp)
   196c8:	00025637          	lui	a2,0x25
   196cc:	14060613          	addi	a2,a2,320 # 25140 <__clzsi2+0x130>
   196d0:	00c42023          	sw	a2,0(s0)
   196d4:	00168693          	addi	a3,a3,1
   196d8:	00100613          	li	a2,1
   196dc:	00178793          	addi	a5,a5,1
   196e0:	00c42223          	sw	a2,4(s0)
   196e4:	0ed12623          	sw	a3,236(sp)
   196e8:	0ef12423          	sw	a5,232(sp)
   196ec:	00700613          	li	a2,7
   196f0:	00840413          	addi	s0,s0,8
   196f4:	62f644e3          	blt	a2,a5,1a51c <_svfprintf_r+0x18f4>
   196f8:	0cc12783          	lw	a5,204(sp)
   196fc:	02412703          	lw	a4,36(sp)
   19700:	00e7d2e3          	bge	a5,a4,19f04 <_svfprintf_r+0x12dc>
   19704:	03812783          	lw	a5,56(sp)
   19708:	03412703          	lw	a4,52(sp)
   1970c:	00700613          	li	a2,7
   19710:	00f42023          	sw	a5,0(s0)
   19714:	0e812783          	lw	a5,232(sp)
   19718:	00d706b3          	add	a3,a4,a3
   1971c:	00e42223          	sw	a4,4(s0)
   19720:	00178793          	addi	a5,a5,1
   19724:	0ed12623          	sw	a3,236(sp)
   19728:	0ef12423          	sw	a5,232(sp)
   1972c:	00840413          	addi	s0,s0,8
   19730:	14f640e3          	blt	a2,a5,1a070 <_svfprintf_r+0x1448>
   19734:	02412783          	lw	a5,36(sp)
   19738:	fff78913          	addi	s2,a5,-1
   1973c:	fb205063          	blez	s2,18edc <_svfprintf_r+0x2b4>
   19740:	00026e37          	lui	t3,0x26
   19744:	01000613          	li	a2,16
   19748:	0e812783          	lw	a5,232(sp)
   1974c:	9ace0b93          	addi	s7,t3,-1620 # 259ac <zeroes.0>
   19750:	5f2656e3          	bge	a2,s2,1a53c <_svfprintf_r+0x1914>
   19754:	00812c83          	lw	s9,8(sp)
   19758:	01000993          	li	s3,16
   1975c:	00700d93          	li	s11,7
   19760:	00c0006f          	j	1976c <_svfprintf_r+0xb44>
   19764:	ff090913          	addi	s2,s2,-16
   19768:	5d29dae3          	bge	s3,s2,1a53c <_svfprintf_r+0x1914>
   1976c:	01068693          	addi	a3,a3,16
   19770:	00178793          	addi	a5,a5,1
   19774:	01742023          	sw	s7,0(s0)
   19778:	01342223          	sw	s3,4(s0)
   1977c:	0ed12623          	sw	a3,236(sp)
   19780:	0ef12423          	sw	a5,232(sp)
   19784:	00840413          	addi	s0,s0,8
   19788:	fcfddee3          	bge	s11,a5,19764 <_svfprintf_r+0xb3c>
   1978c:	0e410613          	addi	a2,sp,228
   19790:	000c8593          	mv	a1,s9
   19794:	000a0513          	mv	a0,s4
   19798:	3dd040ef          	jal	ra,1e374 <__ssprint_r>
   1979c:	26051263          	bnez	a0,19a00 <_svfprintf_r+0xdd8>
   197a0:	0ec12683          	lw	a3,236(sp)
   197a4:	0e812783          	lw	a5,232(sp)
   197a8:	000b0413          	mv	s0,s6
   197ac:	fb9ff06f          	j	19764 <_svfprintf_r+0xb3c>
   197b0:	00100793          	li	a5,1
   197b4:	00f61463          	bne	a2,a5,197bc <_svfprintf_r+0xb94>
   197b8:	0f90106f          	j	1b0b0 <_svfprintf_r+0x2488>
   197bc:	00200793          	li	a5,2
   197c0:	000c0693          	mv	a3,s8
   197c4:	c2f616e3          	bne	a2,a5,193f0 <_svfprintf_r+0x7c8>
   197c8:	03c12603          	lw	a2,60(sp)
   197cc:	1b010c93          	addi	s9,sp,432
   197d0:	00fdf793          	andi	a5,s11,15
   197d4:	00f607b3          	add	a5,a2,a5
   197d8:	0007c703          	lbu	a4,0(a5)
   197dc:	004ddd93          	srli	s11,s11,0x4
   197e0:	01c91793          	slli	a5,s2,0x1c
   197e4:	01b7edb3          	or	s11,a5,s11
   197e8:	00495913          	srli	s2,s2,0x4
   197ec:	feec8fa3          	sb	a4,-1(s9)
   197f0:	012de7b3          	or	a5,s11,s2
   197f4:	fffc8c93          	addi	s9,s9,-1
   197f8:	fc079ce3          	bnez	a5,197d0 <_svfprintf_r+0xba8>
   197fc:	1b010793          	addi	a5,sp,432
   19800:	41978933          	sub	s2,a5,s9
   19804:	00068c13          	mv	s8,a3
   19808:	84dff06f          	j	19054 <_svfprintf_r+0x42c>
   1980c:	415d0db3          	sub	s11,s10,s5
   19810:	e9b05863          	blez	s11,18ea0 <_svfprintf_r+0x278>
   19814:	00026e37          	lui	t3,0x26
   19818:	01000513          	li	a0,16
   1981c:	0ec12583          	lw	a1,236(sp)
   19820:	0e812603          	lw	a2,232(sp)
   19824:	9ace0b93          	addi	s7,t3,-1620 # 259ac <zeroes.0>
   19828:	09b55863          	bge	a0,s11,198b8 <_svfprintf_r+0xc90>
   1982c:	00040793          	mv	a5,s0
   19830:	01000f13          	li	t5,16
   19834:	000b8413          	mv	s0,s7
   19838:	00700f93          	li	t6,7
   1983c:	000a8b93          	mv	s7,s5
   19840:	00090a93          	mv	s5,s2
   19844:	00088913          	mv	s2,a7
   19848:	00c0006f          	j	19854 <_svfprintf_r+0xc2c>
   1984c:	ff0d8d93          	addi	s11,s11,-16
   19850:	05bf5a63          	bge	t5,s11,198a4 <_svfprintf_r+0xc7c>
   19854:	01058593          	addi	a1,a1,16
   19858:	00160613          	addi	a2,a2,1
   1985c:	0087a023          	sw	s0,0(a5)
   19860:	01e7a223          	sw	t5,4(a5)
   19864:	0eb12623          	sw	a1,236(sp)
   19868:	0ec12423          	sw	a2,232(sp)
   1986c:	00878793          	addi	a5,a5,8
   19870:	fccfdee3          	bge	t6,a2,1984c <_svfprintf_r+0xc24>
   19874:	00812583          	lw	a1,8(sp)
   19878:	0e410613          	addi	a2,sp,228
   1987c:	000a0513          	mv	a0,s4
   19880:	2f5040ef          	jal	ra,1e374 <__ssprint_r>
   19884:	16051e63          	bnez	a0,19a00 <_svfprintf_r+0xdd8>
   19888:	01000f13          	li	t5,16
   1988c:	ff0d8d93          	addi	s11,s11,-16
   19890:	0ec12583          	lw	a1,236(sp)
   19894:	0e812603          	lw	a2,232(sp)
   19898:	000b0793          	mv	a5,s6
   1989c:	00700f93          	li	t6,7
   198a0:	fbbf4ae3          	blt	t5,s11,19854 <_svfprintf_r+0xc2c>
   198a4:	00090893          	mv	a7,s2
   198a8:	000a8913          	mv	s2,s5
   198ac:	000b8a93          	mv	s5,s7
   198b0:	00040b93          	mv	s7,s0
   198b4:	00078413          	mv	s0,a5
   198b8:	00bd85b3          	add	a1,s11,a1
   198bc:	00160613          	addi	a2,a2,1
   198c0:	01742023          	sw	s7,0(s0)
   198c4:	01b42223          	sw	s11,4(s0)
   198c8:	0eb12623          	sw	a1,236(sp)
   198cc:	0ec12423          	sw	a2,232(sp)
   198d0:	00700693          	li	a3,7
   198d4:	00840413          	addi	s0,s0,8
   198d8:	dcc6d463          	bge	a3,a2,18ea0 <_svfprintf_r+0x278>
   198dc:	00812583          	lw	a1,8(sp)
   198e0:	0e410613          	addi	a2,sp,228
   198e4:	000a0513          	mv	a0,s4
   198e8:	05112823          	sw	a7,80(sp)
   198ec:	289040ef          	jal	ra,1e374 <__ssprint_r>
   198f0:	10051863          	bnez	a0,19a00 <_svfprintf_r+0xdd8>
   198f4:	412989b3          	sub	s3,s3,s2
   198f8:	05012883          	lw	a7,80(sp)
   198fc:	000b0413          	mv	s0,s6
   19900:	db305463          	blez	s3,18ea8 <_svfprintf_r+0x280>
   19904:	00026e37          	lui	t3,0x26
   19908:	01000693          	li	a3,16
   1990c:	0ec12583          	lw	a1,236(sp)
   19910:	0e812603          	lw	a2,232(sp)
   19914:	9ace0b93          	addi	s7,t3,-1620 # 259ac <zeroes.0>
   19918:	0936d663          	bge	a3,s3,199a4 <_svfprintf_r+0xd7c>
   1991c:	00040793          	mv	a5,s0
   19920:	00c12b83          	lw	s7,12(sp)
   19924:	00098413          	mv	s0,s3
   19928:	01000693          	li	a3,16
   1992c:	00090993          	mv	s3,s2
   19930:	00700d93          	li	s11,7
   19934:	00088913          	mv	s2,a7
   19938:	00c0006f          	j	19944 <_svfprintf_r+0xd1c>
   1993c:	ff040413          	addi	s0,s0,-16
   19940:	0486da63          	bge	a3,s0,19994 <_svfprintf_r+0xd6c>
   19944:	00c12703          	lw	a4,12(sp)
   19948:	01058593          	addi	a1,a1,16
   1994c:	00160613          	addi	a2,a2,1
   19950:	00e7a023          	sw	a4,0(a5)
   19954:	00d7a223          	sw	a3,4(a5)
   19958:	0eb12623          	sw	a1,236(sp)
   1995c:	0ec12423          	sw	a2,232(sp)
   19960:	00878793          	addi	a5,a5,8
   19964:	fccddce3          	bge	s11,a2,1993c <_svfprintf_r+0xd14>
   19968:	00812583          	lw	a1,8(sp)
   1996c:	0e410613          	addi	a2,sp,228
   19970:	000a0513          	mv	a0,s4
   19974:	201040ef          	jal	ra,1e374 <__ssprint_r>
   19978:	08051463          	bnez	a0,19a00 <_svfprintf_r+0xdd8>
   1997c:	01000693          	li	a3,16
   19980:	ff040413          	addi	s0,s0,-16
   19984:	0ec12583          	lw	a1,236(sp)
   19988:	0e812603          	lw	a2,232(sp)
   1998c:	000b0793          	mv	a5,s6
   19990:	fa86cae3          	blt	a3,s0,19944 <_svfprintf_r+0xd1c>
   19994:	00090893          	mv	a7,s2
   19998:	00098913          	mv	s2,s3
   1999c:	00040993          	mv	s3,s0
   199a0:	00078413          	mv	s0,a5
   199a4:	00b985b3          	add	a1,s3,a1
   199a8:	00160613          	addi	a2,a2,1
   199ac:	01742023          	sw	s7,0(s0)
   199b0:	01342223          	sw	s3,4(s0)
   199b4:	0eb12623          	sw	a1,236(sp)
   199b8:	0ec12423          	sw	a2,232(sp)
   199bc:	00700693          	li	a3,7
   199c0:	00840413          	addi	s0,s0,8
   199c4:	cec6d263          	bge	a3,a2,18ea8 <_svfprintf_r+0x280>
   199c8:	00812583          	lw	a1,8(sp)
   199cc:	0e410613          	addi	a2,sp,228
   199d0:	000a0513          	mv	a0,s4
   199d4:	05112823          	sw	a7,80(sp)
   199d8:	19d040ef          	jal	ra,1e374 <__ssprint_r>
   199dc:	02051263          	bnez	a0,19a00 <_svfprintf_r+0xdd8>
   199e0:	05012883          	lw	a7,80(sp)
   199e4:	000b0413          	mv	s0,s6
   199e8:	cc0ff06f          	j	18ea8 <_svfprintf_r+0x280>
   199ec:	00812583          	lw	a1,8(sp)
   199f0:	0e410613          	addi	a2,sp,228
   199f4:	000a0513          	mv	a0,s4
   199f8:	17d040ef          	jal	ra,1e374 <__ssprint_r>
   199fc:	d0050663          	beqz	a0,18f08 <_svfprintf_r+0x2e0>
   19a00:	01412583          	lw	a1,20(sp)
   19a04:	d2058c63          	beqz	a1,18f3c <_svfprintf_r+0x314>
   19a08:	03012503          	lw	a0,48(sp)
   19a0c:	e71f90ef          	jal	ra,1387c <_free_r>
   19a10:	d2cff06f          	j	18f3c <_svfprintf_r+0x314>
   19a14:	000c0693          	mv	a3,s8
   19a18:	9c9ff06f          	j	193e0 <_svfprintf_r+0x7b8>
   19a1c:	00026e37          	lui	t3,0x26
   19a20:	01000513          	li	a0,16
   19a24:	0ec12583          	lw	a1,236(sp)
   19a28:	0e812603          	lw	a2,232(sp)
   19a2c:	9bce0b93          	addi	s7,t3,-1604 # 259bc <blanks.1>
   19a30:	0ad55463          	bge	a0,a3,19ad8 <_svfprintf_r+0xeb0>
   19a34:	04912823          	sw	s1,80(sp)
   19a38:	00040793          	mv	a5,s0
   19a3c:	000b8493          	mv	s1,s7
   19a40:	01000f13          	li	t5,16
   19a44:	000a8b93          	mv	s7,s5
   19a48:	00700393          	li	t2,7
   19a4c:	00090a93          	mv	s5,s2
   19a50:	04512a23          	sw	t0,84(sp)
   19a54:	00068413          	mv	s0,a3
   19a58:	00088913          	mv	s2,a7
   19a5c:	00c0006f          	j	19a68 <_svfprintf_r+0xe40>
   19a60:	ff040413          	addi	s0,s0,-16
   19a64:	048f5a63          	bge	t5,s0,19ab8 <_svfprintf_r+0xe90>
   19a68:	01058593          	addi	a1,a1,16
   19a6c:	00160613          	addi	a2,a2,1
   19a70:	0097a023          	sw	s1,0(a5)
   19a74:	01e7a223          	sw	t5,4(a5)
   19a78:	0eb12623          	sw	a1,236(sp)
   19a7c:	0ec12423          	sw	a2,232(sp)
   19a80:	00878793          	addi	a5,a5,8
   19a84:	fcc3dee3          	bge	t2,a2,19a60 <_svfprintf_r+0xe38>
   19a88:	00812583          	lw	a1,8(sp)
   19a8c:	0e410613          	addi	a2,sp,228
   19a90:	000a0513          	mv	a0,s4
   19a94:	0e1040ef          	jal	ra,1e374 <__ssprint_r>
   19a98:	f60514e3          	bnez	a0,19a00 <_svfprintf_r+0xdd8>
   19a9c:	01000f13          	li	t5,16
   19aa0:	ff040413          	addi	s0,s0,-16
   19aa4:	0ec12583          	lw	a1,236(sp)
   19aa8:	0e812603          	lw	a2,232(sp)
   19aac:	000b0793          	mv	a5,s6
   19ab0:	00700393          	li	t2,7
   19ab4:	fa8f4ae3          	blt	t5,s0,19a68 <_svfprintf_r+0xe40>
   19ab8:	00090893          	mv	a7,s2
   19abc:	05412283          	lw	t0,84(sp)
   19ac0:	000a8913          	mv	s2,s5
   19ac4:	000b8a93          	mv	s5,s7
   19ac8:	00048b93          	mv	s7,s1
   19acc:	05012483          	lw	s1,80(sp)
   19ad0:	00040693          	mv	a3,s0
   19ad4:	00078413          	mv	s0,a5
   19ad8:	00b685b3          	add	a1,a3,a1
   19adc:	00160613          	addi	a2,a2,1
   19ae0:	00d42223          	sw	a3,4(s0)
   19ae4:	01742023          	sw	s7,0(s0)
   19ae8:	0eb12623          	sw	a1,236(sp)
   19aec:	0ec12423          	sw	a2,232(sp)
   19af0:	00700693          	li	a3,7
   19af4:	00840413          	addi	s0,s0,8
   19af8:	b2c6d663          	bge	a3,a2,18e24 <_svfprintf_r+0x1fc>
   19afc:	00812583          	lw	a1,8(sp)
   19b00:	0e410613          	addi	a2,sp,228
   19b04:	000a0513          	mv	a0,s4
   19b08:	05112a23          	sw	a7,84(sp)
   19b0c:	04512823          	sw	t0,80(sp)
   19b10:	065040ef          	jal	ra,1e374 <__ssprint_r>
   19b14:	ee0516e3          	bnez	a0,19a00 <_svfprintf_r+0xdd8>
   19b18:	05412883          	lw	a7,84(sp)
   19b1c:	05012283          	lw	t0,80(sp)
   19b20:	000b0413          	mv	s0,s6
   19b24:	b00ff06f          	j	18e24 <_svfprintf_r+0x1fc>
   19b28:	00812583          	lw	a1,8(sp)
   19b2c:	0e410613          	addi	a2,sp,228
   19b30:	000a0513          	mv	a0,s4
   19b34:	05112823          	sw	a7,80(sp)
   19b38:	03d040ef          	jal	ra,1e374 <__ssprint_r>
   19b3c:	ec0512e3          	bnez	a0,19a00 <_svfprintf_r+0xdd8>
   19b40:	05012883          	lw	a7,80(sp)
   19b44:	000b0413          	mv	s0,s6
   19b48:	b50ff06f          	j	18e98 <_svfprintf_r+0x270>
   19b4c:	00026e37          	lui	t3,0x26
   19b50:	01000713          	li	a4,16
   19b54:	0e812783          	lw	a5,232(sp)
   19b58:	9bce0b93          	addi	s7,t3,-1604 # 259bc <blanks.1>
   19b5c:	07275263          	bge	a4,s2,19bc0 <_svfprintf_r+0xf98>
   19b60:	00812c03          	lw	s8,8(sp)
   19b64:	01000993          	li	s3,16
   19b68:	00700d93          	li	s11,7
   19b6c:	00c0006f          	j	19b78 <_svfprintf_r+0xf50>
   19b70:	ff090913          	addi	s2,s2,-16
   19b74:	0529d663          	bge	s3,s2,19bc0 <_svfprintf_r+0xf98>
   19b78:	01068693          	addi	a3,a3,16
   19b7c:	00178793          	addi	a5,a5,1
   19b80:	01742023          	sw	s7,0(s0)
   19b84:	01342223          	sw	s3,4(s0)
   19b88:	0ed12623          	sw	a3,236(sp)
   19b8c:	0ef12423          	sw	a5,232(sp)
   19b90:	00840413          	addi	s0,s0,8
   19b94:	fcfddee3          	bge	s11,a5,19b70 <_svfprintf_r+0xf48>
   19b98:	0e410613          	addi	a2,sp,228
   19b9c:	000c0593          	mv	a1,s8
   19ba0:	000a0513          	mv	a0,s4
   19ba4:	7d0040ef          	jal	ra,1e374 <__ssprint_r>
   19ba8:	e4051ce3          	bnez	a0,19a00 <_svfprintf_r+0xdd8>
   19bac:	ff090913          	addi	s2,s2,-16
   19bb0:	0ec12683          	lw	a3,236(sp)
   19bb4:	0e812783          	lw	a5,232(sp)
   19bb8:	000b0413          	mv	s0,s6
   19bbc:	fb29cee3          	blt	s3,s2,19b78 <_svfprintf_r+0xf50>
   19bc0:	012686b3          	add	a3,a3,s2
   19bc4:	00178793          	addi	a5,a5,1
   19bc8:	01742023          	sw	s7,0(s0)
   19bcc:	01242223          	sw	s2,4(s0)
   19bd0:	0ed12623          	sw	a3,236(sp)
   19bd4:	0ef12423          	sw	a5,232(sp)
   19bd8:	00700713          	li	a4,7
   19bdc:	b0f75863          	bge	a4,a5,18eec <_svfprintf_r+0x2c4>
   19be0:	00812583          	lw	a1,8(sp)
   19be4:	0e410613          	addi	a2,sp,228
   19be8:	000a0513          	mv	a0,s4
   19bec:	788040ef          	jal	ra,1e374 <__ssprint_r>
   19bf0:	e00518e3          	bnez	a0,19a00 <_svfprintf_r+0xdd8>
   19bf4:	0ec12683          	lw	a3,236(sp)
   19bf8:	af4ff06f          	j	18eec <_svfprintf_r+0x2c4>
   19bfc:	0cc12503          	lw	a0,204(sp)
   19c00:	04a056e3          	blez	a0,1a44c <_svfprintf_r+0x1824>
   19c04:	02412783          	lw	a5,36(sp)
   19c08:	00fc8733          	add	a4,s9,a5
   19c0c:	04e12823          	sw	a4,80(sp)
   19c10:	02012703          	lw	a4,32(sp)
   19c14:	00070913          	mv	s2,a4
   19c18:	3ae7c063          	blt	a5,a4,19fb8 <_svfprintf_r+0x1390>
   19c1c:	0ec12683          	lw	a3,236(sp)
   19c20:	03205663          	blez	s2,19c4c <_svfprintf_r+0x1024>
   19c24:	0e812603          	lw	a2,232(sp)
   19c28:	012686b3          	add	a3,a3,s2
   19c2c:	01942023          	sw	s9,0(s0)
   19c30:	00160613          	addi	a2,a2,1
   19c34:	01242223          	sw	s2,4(s0)
   19c38:	0ed12623          	sw	a3,236(sp)
   19c3c:	0ec12423          	sw	a2,232(sp)
   19c40:	00700593          	li	a1,7
   19c44:	00840413          	addi	s0,s0,8
   19c48:	50c5cae3          	blt	a1,a2,1a95c <_svfprintf_r+0x1d34>
   19c4c:	fff94613          	not	a2,s2
   19c50:	02012783          	lw	a5,32(sp)
   19c54:	41f65613          	srai	a2,a2,0x1f
   19c58:	00c978b3          	and	a7,s2,a2
   19c5c:	41178933          	sub	s2,a5,a7
   19c60:	4b204463          	bgtz	s2,1a108 <_svfprintf_r+0x14e0>
   19c64:	02012783          	lw	a5,32(sp)
   19c68:	400c7613          	andi	a2,s8,1024
   19c6c:	00fc8cb3          	add	s9,s9,a5
   19c70:	50061663          	bnez	a2,1a17c <_svfprintf_r+0x1554>
   19c74:	0cc12903          	lw	s2,204(sp)
   19c78:	02412783          	lw	a5,36(sp)
   19c7c:	00f94663          	blt	s2,a5,19c88 <_svfprintf_r+0x1060>
   19c80:	001c7613          	andi	a2,s8,1
   19c84:	500600e3          	beqz	a2,1a984 <_svfprintf_r+0x1d5c>
   19c88:	03412783          	lw	a5,52(sp)
   19c8c:	0e812603          	lw	a2,232(sp)
   19c90:	03812703          	lw	a4,56(sp)
   19c94:	00d786b3          	add	a3,a5,a3
   19c98:	00160613          	addi	a2,a2,1
   19c9c:	00e42023          	sw	a4,0(s0)
   19ca0:	00f42223          	sw	a5,4(s0)
   19ca4:	0ed12623          	sw	a3,236(sp)
   19ca8:	0ec12423          	sw	a2,232(sp)
   19cac:	00700593          	li	a1,7
   19cb0:	00840413          	addi	s0,s0,8
   19cb4:	00c5d463          	bge	a1,a2,19cbc <_svfprintf_r+0x1094>
   19cb8:	3580106f          	j	1b010 <_svfprintf_r+0x23e8>
   19cbc:	02412783          	lw	a5,36(sp)
   19cc0:	41278933          	sub	s2,a5,s2
   19cc4:	05012783          	lw	a5,80(sp)
   19cc8:	419789b3          	sub	s3,a5,s9
   19ccc:	01395463          	bge	s2,s3,19cd4 <_svfprintf_r+0x10ac>
   19cd0:	00090993          	mv	s3,s2
   19cd4:	03305863          	blez	s3,19d04 <_svfprintf_r+0x10dc>
   19cd8:	0e812783          	lw	a5,232(sp)
   19cdc:	013686b3          	add	a3,a3,s3
   19ce0:	01942023          	sw	s9,0(s0)
   19ce4:	00178793          	addi	a5,a5,1
   19ce8:	01342223          	sw	s3,4(s0)
   19cec:	0ed12623          	sw	a3,236(sp)
   19cf0:	0ef12423          	sw	a5,232(sp)
   19cf4:	00700613          	li	a2,7
   19cf8:	00840413          	addi	s0,s0,8
   19cfc:	00f65463          	bge	a2,a5,19d04 <_svfprintf_r+0x10dc>
   19d00:	3800106f          	j	1b080 <_svfprintf_r+0x2458>
   19d04:	fff9c793          	not	a5,s3
   19d08:	41f7d793          	srai	a5,a5,0x1f
   19d0c:	00f9f9b3          	and	s3,s3,a5
   19d10:	41390933          	sub	s2,s2,s3
   19d14:	9d205463          	blez	s2,18edc <_svfprintf_r+0x2b4>
   19d18:	00026e37          	lui	t3,0x26
   19d1c:	01000613          	li	a2,16
   19d20:	0e812783          	lw	a5,232(sp)
   19d24:	9ace0b93          	addi	s7,t3,-1620 # 259ac <zeroes.0>
   19d28:	01265ae3          	bge	a2,s2,1a53c <_svfprintf_r+0x1914>
   19d2c:	00812c83          	lw	s9,8(sp)
   19d30:	01000993          	li	s3,16
   19d34:	00700d93          	li	s11,7
   19d38:	00c0006f          	j	19d44 <_svfprintf_r+0x111c>
   19d3c:	ff090913          	addi	s2,s2,-16
   19d40:	7f29de63          	bge	s3,s2,1a53c <_svfprintf_r+0x1914>
   19d44:	01068693          	addi	a3,a3,16
   19d48:	00178793          	addi	a5,a5,1
   19d4c:	01742023          	sw	s7,0(s0)
   19d50:	01342223          	sw	s3,4(s0)
   19d54:	0ed12623          	sw	a3,236(sp)
   19d58:	0ef12423          	sw	a5,232(sp)
   19d5c:	00840413          	addi	s0,s0,8
   19d60:	fcfddee3          	bge	s11,a5,19d3c <_svfprintf_r+0x1114>
   19d64:	0e410613          	addi	a2,sp,228
   19d68:	000c8593          	mv	a1,s9
   19d6c:	000a0513          	mv	a0,s4
   19d70:	604040ef          	jal	ra,1e374 <__ssprint_r>
   19d74:	c80516e3          	bnez	a0,19a00 <_svfprintf_r+0xdd8>
   19d78:	0ec12683          	lw	a3,236(sp)
   19d7c:	0e812783          	lw	a5,232(sp)
   19d80:	000b0413          	mv	s0,s6
   19d84:	fb9ff06f          	j	19d3c <_svfprintf_r+0x1114>
   19d88:	001c7693          	andi	a3,s8,1
   19d8c:	ca069a63          	bnez	a3,19240 <_svfprintf_r+0x618>
   19d90:	0e812783          	lw	a5,232(sp)
   19d94:	0ec12683          	lw	a3,236(sp)
   19d98:	01942023          	sw	s9,0(s0)
   19d9c:	00178913          	addi	s2,a5,1
   19da0:	00168d93          	addi	s11,a3,1
   19da4:	00c42223          	sw	a2,4(s0)
   19da8:	0fb12623          	sw	s11,236(sp)
   19dac:	0f212423          	sw	s2,232(sp)
   19db0:	00700793          	li	a5,7
   19db4:	d527da63          	bge	a5,s2,19308 <_svfprintf_r+0x6e0>
   19db8:	00812583          	lw	a1,8(sp)
   19dbc:	0e410613          	addi	a2,sp,228
   19dc0:	000a0513          	mv	a0,s4
   19dc4:	5b0040ef          	jal	ra,1e374 <__ssprint_r>
   19dc8:	c2051ce3          	bnez	a0,19a00 <_svfprintf_r+0xdd8>
   19dcc:	0ec12d83          	lw	s11,236(sp)
   19dd0:	0e812903          	lw	s2,232(sp)
   19dd4:	000b0993          	mv	s3,s6
   19dd8:	d30ff06f          	j	19308 <_svfprintf_r+0x6e0>
   19ddc:	02412703          	lw	a4,36(sp)
   19de0:	00100793          	li	a5,1
   19de4:	d2e7d263          	bge	a5,a4,19308 <_svfprintf_r+0x6e0>
   19de8:	00026e37          	lui	t3,0x26
   19dec:	01100793          	li	a5,17
   19df0:	9ace0b93          	addi	s7,t3,-1620 # 259ac <zeroes.0>
   19df4:	04e7d2e3          	bge	a5,a4,1a638 <_svfprintf_r+0x1a10>
   19df8:	000b8713          	mv	a4,s7
   19dfc:	01000793          	li	a5,16
   19e00:	000a8b93          	mv	s7,s5
   19e04:	00700c93          	li	s9,7
   19e08:	00048a93          	mv	s5,s1
   19e0c:	00070493          	mv	s1,a4
   19e10:	00c0006f          	j	19e1c <_svfprintf_r+0x11f4>
   19e14:	ff040413          	addi	s0,s0,-16
   19e18:	0087d8e3          	bge	a5,s0,1a628 <_svfprintf_r+0x1a00>
   19e1c:	010d8d93          	addi	s11,s11,16
   19e20:	00190913          	addi	s2,s2,1
   19e24:	0099a023          	sw	s1,0(s3)
   19e28:	00f9a223          	sw	a5,4(s3)
   19e2c:	0fb12623          	sw	s11,236(sp)
   19e30:	0f212423          	sw	s2,232(sp)
   19e34:	00898993          	addi	s3,s3,8
   19e38:	fd2cdee3          	bge	s9,s2,19e14 <_svfprintf_r+0x11ec>
   19e3c:	00812583          	lw	a1,8(sp)
   19e40:	0e410613          	addi	a2,sp,228
   19e44:	000a0513          	mv	a0,s4
   19e48:	52c040ef          	jal	ra,1e374 <__ssprint_r>
   19e4c:	ba051ae3          	bnez	a0,19a00 <_svfprintf_r+0xdd8>
   19e50:	0ec12d83          	lw	s11,236(sp)
   19e54:	0e812903          	lw	s2,232(sp)
   19e58:	000b0993          	mv	s3,s6
   19e5c:	01000793          	li	a5,16
   19e60:	fb5ff06f          	j	19e14 <_svfprintf_r+0x11ec>
   19e64:	01812703          	lw	a4,24(sp)
   19e68:	0106f793          	andi	a5,a3,16
   19e6c:	00072d83          	lw	s11,0(a4)
   19e70:	00470713          	addi	a4,a4,4
   19e74:	00e12c23          	sw	a4,24(sp)
   19e78:	02079663          	bnez	a5,19ea4 <_svfprintf_r+0x127c>
   19e7c:	0406f793          	andi	a5,a3,64
   19e80:	00078c63          	beqz	a5,19e98 <_svfprintf_r+0x1270>
   19e84:	010d9d93          	slli	s11,s11,0x10
   19e88:	010ddd93          	srli	s11,s11,0x10
   19e8c:	00000913          	li	s2,0
   19e90:	00100613          	li	a2,1
   19e94:	a1cff06f          	j	190b0 <_svfprintf_r+0x488>
   19e98:	2006f793          	andi	a5,a3,512
   19e9c:	00078463          	beqz	a5,19ea4 <_svfprintf_r+0x127c>
   19ea0:	0ffdfd93          	zext.b	s11,s11
   19ea4:	00000913          	li	s2,0
   19ea8:	00100613          	li	a2,1
   19eac:	a04ff06f          	j	190b0 <_svfprintf_r+0x488>
   19eb0:	00000913          	li	s2,0
   19eb4:	1b010c93          	addi	s9,sp,432
   19eb8:	99cff06f          	j	19054 <_svfprintf_r+0x42c>
   19ebc:	00812583          	lw	a1,8(sp)
   19ec0:	0e410613          	addi	a2,sp,228
   19ec4:	000a0513          	mv	a0,s4
   19ec8:	4ac040ef          	jal	ra,1e374 <__ssprint_r>
   19ecc:	b2051ae3          	bnez	a0,19a00 <_svfprintf_r+0xdd8>
   19ed0:	0ec12683          	lw	a3,236(sp)
   19ed4:	0e812903          	lw	s2,232(sp)
   19ed8:	000b0993          	mv	s3,s6
   19edc:	b90ff06f          	j	1926c <_svfprintf_r+0x644>
   19ee0:	00812583          	lw	a1,8(sp)
   19ee4:	0e410613          	addi	a2,sp,228
   19ee8:	000a0513          	mv	a0,s4
   19eec:	488040ef          	jal	ra,1e374 <__ssprint_r>
   19ef0:	b00518e3          	bnez	a0,19a00 <_svfprintf_r+0xdd8>
   19ef4:	0ec12d83          	lw	s11,236(sp)
   19ef8:	0e812903          	lw	s2,232(sp)
   19efc:	000b0993          	mv	s3,s6
   19f00:	b98ff06f          	j	19298 <_svfprintf_r+0x670>
   19f04:	001c7793          	andi	a5,s8,1
   19f08:	00079463          	bnez	a5,19f10 <_svfprintf_r+0x12e8>
   19f0c:	fd1fe06f          	j	18edc <_svfprintf_r+0x2b4>
   19f10:	ff4ff06f          	j	19704 <_svfprintf_r+0xadc>
   19f14:	0004c883          	lbu	a7,0(s1)
   19f18:	00f12c23          	sw	a5,24(sp)
   19f1c:	e6dfe06f          	j	18d88 <_svfprintf_r+0x160>
   19f20:	200c7793          	andi	a5,s8,512
   19f24:	280792e3          	bnez	a5,1a9a8 <_svfprintf_r+0x1d80>
   19f28:	41fdd913          	srai	s2,s11,0x1f
   19f2c:	00090793          	mv	a5,s2
   19f30:	8dcff06f          	j	1900c <_svfprintf_r+0x3e4>
   19f34:	200c7793          	andi	a5,s8,512
   19f38:	280792e3          	bnez	a5,1a9bc <_svfprintf_r+0x1d94>
   19f3c:	00000913          	li	s2,0
   19f40:	968ff06f          	j	190a8 <_svfprintf_r+0x480>
   19f44:	01812783          	lw	a5,24(sp)
   19f48:	0007a683          	lw	a3,0(a5)
   19f4c:	00478793          	addi	a5,a5,4
   19f50:	00f12c23          	sw	a5,24(sp)
   19f54:	0006a803          	lw	a6,0(a3)
   19f58:	0046a583          	lw	a1,4(a3)
   19f5c:	0086a603          	lw	a2,8(a3)
   19f60:	00c6a683          	lw	a3,12(a3)
   19f64:	9fcff06f          	j	19160 <_svfprintf_r+0x538>
   19f68:	010c7793          	andi	a5,s8,16
   19f6c:	68079463          	bnez	a5,1a5f4 <_svfprintf_r+0x19cc>
   19f70:	040c7793          	andi	a5,s8,64
   19f74:	24079ae3          	bnez	a5,1a9c8 <_svfprintf_r+0x1da0>
   19f78:	200c7713          	andi	a4,s8,512
   19f7c:	66070c63          	beqz	a4,1a5f4 <_svfprintf_r+0x19cc>
   19f80:	01812783          	lw	a5,24(sp)
   19f84:	01012703          	lw	a4,16(sp)
   19f88:	0007a783          	lw	a5,0(a5)
   19f8c:	00e78023          	sb	a4,0(a5)
   19f90:	eacff06f          	j	1963c <_svfprintf_r+0xa14>
   19f94:	04012783          	lw	a5,64(sp)
   19f98:	0004c883          	lbu	a7,0(s1)
   19f9c:	00079463          	bnez	a5,19fa4 <_svfprintf_r+0x137c>
   19fa0:	de9fe06f          	j	18d88 <_svfprintf_r+0x160>
   19fa4:	0007c783          	lbu	a5,0(a5)
   19fa8:	00079463          	bnez	a5,19fb0 <_svfprintf_r+0x1388>
   19fac:	dddfe06f          	j	18d88 <_svfprintf_r+0x160>
   19fb0:	400c6c13          	ori	s8,s8,1024
   19fb4:	dd5fe06f          	j	18d88 <_svfprintf_r+0x160>
   19fb8:	00078913          	mv	s2,a5
   19fbc:	0ec12683          	lw	a3,236(sp)
   19fc0:	c72042e3          	bgtz	s2,19c24 <_svfprintf_r+0xffc>
   19fc4:	c89ff06f          	j	19c4c <_svfprintf_r+0x1024>
   19fc8:	86099c63          	bnez	s3,19040 <_svfprintf_r+0x418>
   19fcc:	00000913          	li	s2,0
   19fd0:	00068c13          	mv	s8,a3
   19fd4:	1b010c93          	addi	s9,sp,432
   19fd8:	87cff06f          	j	19054 <_svfprintf_r+0x42c>
   19fdc:	000257b7          	lui	a5,0x25
   19fe0:	12478793          	addi	a5,a5,292 # 25124 <__clzsi2+0x114>
   19fe4:	02f12e23          	sw	a5,60(sp)
   19fe8:	020c7793          	andi	a5,s8,32
   19fec:	34078063          	beqz	a5,1a32c <_svfprintf_r+0x1704>
   19ff0:	01812783          	lw	a5,24(sp)
   19ff4:	00778b93          	addi	s7,a5,7
   19ff8:	ff8bfb93          	andi	s7,s7,-8
   19ffc:	000bad83          	lw	s11,0(s7)
   1a000:	004ba903          	lw	s2,4(s7)
   1a004:	008b8793          	addi	a5,s7,8
   1a008:	00f12c23          	sw	a5,24(sp)
   1a00c:	001c7793          	andi	a5,s8,1
   1a010:	00078e63          	beqz	a5,1a02c <_svfprintf_r+0x1404>
   1a014:	012de7b3          	or	a5,s11,s2
   1a018:	00078a63          	beqz	a5,1a02c <_svfprintf_r+0x1404>
   1a01c:	03000793          	li	a5,48
   1a020:	0cf10423          	sb	a5,200(sp)
   1a024:	0d1104a3          	sb	a7,201(sp)
   1a028:	002c6c13          	ori	s8,s8,2
   1a02c:	bffc7693          	andi	a3,s8,-1025
   1a030:	00200613          	li	a2,2
   1a034:	87cff06f          	j	190b0 <_svfprintf_r+0x488>
   1a038:	000c0693          	mv	a3,s8
   1a03c:	d6cff06f          	j	195a8 <_svfprintf_r+0x980>
   1a040:	000257b7          	lui	a5,0x25
   1a044:	11078793          	addi	a5,a5,272 # 25110 <__clzsi2+0x100>
   1a048:	02f12e23          	sw	a5,60(sp)
   1a04c:	f9dff06f          	j	19fe8 <_svfprintf_r+0x13c0>
   1a050:	0014c883          	lbu	a7,1(s1)
   1a054:	200c6c13          	ori	s8,s8,512
   1a058:	00148493          	addi	s1,s1,1
   1a05c:	d2dfe06f          	j	18d88 <_svfprintf_r+0x160>
   1a060:	0014c883          	lbu	a7,1(s1)
   1a064:	020c6c13          	ori	s8,s8,32
   1a068:	00148493          	addi	s1,s1,1
   1a06c:	d1dfe06f          	j	18d88 <_svfprintf_r+0x160>
   1a070:	00812583          	lw	a1,8(sp)
   1a074:	0e410613          	addi	a2,sp,228
   1a078:	000a0513          	mv	a0,s4
   1a07c:	2f8040ef          	jal	ra,1e374 <__ssprint_r>
   1a080:	980510e3          	bnez	a0,19a00 <_svfprintf_r+0xdd8>
   1a084:	0ec12683          	lw	a3,236(sp)
   1a088:	000b0413          	mv	s0,s6
   1a08c:	ea8ff06f          	j	19734 <_svfprintf_r+0xb0c>
   1a090:	03012503          	lw	a0,48(sp)
   1a094:	04000593          	li	a1,64
   1a098:	b71fc0ef          	jal	ra,16c08 <_malloc_r>
   1a09c:	00812783          	lw	a5,8(sp)
   1a0a0:	00a7a023          	sw	a0,0(a5)
   1a0a4:	00a7a823          	sw	a0,16(a5)
   1a0a8:	00051463          	bnez	a0,1a0b0 <_svfprintf_r+0x1488>
   1a0ac:	1a00106f          	j	1b24c <_svfprintf_r+0x2624>
   1a0b0:	00812703          	lw	a4,8(sp)
   1a0b4:	04000793          	li	a5,64
   1a0b8:	00f72a23          	sw	a5,20(a4)
   1a0bc:	bf9fe06f          	j	18cb4 <_svfprintf_r+0x8c>
   1a0c0:	000c8513          	mv	a0,s9
   1a0c4:	05112823          	sw	a7,80(sp)
   1a0c8:	a29fe0ef          	jal	ra,18af0 <strlen>
   1a0cc:	0c714683          	lbu	a3,199(sp)
   1a0d0:	fff54813          	not	a6,a0
   1a0d4:	41f85813          	srai	a6,a6,0x1f
   1a0d8:	01712c23          	sw	s7,24(sp)
   1a0dc:	00012a23          	sw	zero,20(sp)
   1a0e0:	02012423          	sw	zero,40(sp)
   1a0e4:	02012623          	sw	zero,44(sp)
   1a0e8:	02012023          	sw	zero,32(sp)
   1a0ec:	05012883          	lw	a7,80(sp)
   1a0f0:	00050913          	mv	s2,a0
   1a0f4:	01057ab3          	and	s5,a0,a6
   1a0f8:	00000993          	li	s3,0
   1a0fc:	00068463          	beqz	a3,1a104 <_svfprintf_r+0x14dc>
   1a100:	f79fe06f          	j	19078 <_svfprintf_r+0x450>
   1a104:	d05fe06f          	j	18e08 <_svfprintf_r+0x1e0>
   1a108:	00026e37          	lui	t3,0x26
   1a10c:	01000593          	li	a1,16
   1a110:	0e812603          	lw	a2,232(sp)
   1a114:	9ace0b93          	addi	s7,t3,-1620 # 259ac <zeroes.0>
   1a118:	7b25da63          	bge	a1,s2,1a8cc <_svfprintf_r+0x1ca4>
   1a11c:	00812d83          	lw	s11,8(sp)
   1a120:	01000e93          	li	t4,16
   1a124:	00700993          	li	s3,7
   1a128:	00c0006f          	j	1a134 <_svfprintf_r+0x150c>
   1a12c:	ff090913          	addi	s2,s2,-16
   1a130:	792ede63          	bge	t4,s2,1a8cc <_svfprintf_r+0x1ca4>
   1a134:	01068693          	addi	a3,a3,16
   1a138:	00160613          	addi	a2,a2,1
   1a13c:	01742023          	sw	s7,0(s0)
   1a140:	01d42223          	sw	t4,4(s0)
   1a144:	0ed12623          	sw	a3,236(sp)
   1a148:	0ec12423          	sw	a2,232(sp)
   1a14c:	00840413          	addi	s0,s0,8
   1a150:	fcc9dee3          	bge	s3,a2,1a12c <_svfprintf_r+0x1504>
   1a154:	0e410613          	addi	a2,sp,228
   1a158:	000d8593          	mv	a1,s11
   1a15c:	000a0513          	mv	a0,s4
   1a160:	214040ef          	jal	ra,1e374 <__ssprint_r>
   1a164:	88051ee3          	bnez	a0,19a00 <_svfprintf_r+0xdd8>
   1a168:	0ec12683          	lw	a3,236(sp)
   1a16c:	0e812603          	lw	a2,232(sp)
   1a170:	000b0413          	mv	s0,s6
   1a174:	01000e93          	li	t4,16
   1a178:	fb5ff06f          	j	1a12c <_svfprintf_r+0x1504>
   1a17c:	02c12d83          	lw	s11,44(sp)
   1a180:	00026eb7          	lui	t4,0x26
   1a184:	04912a23          	sw	s1,84(sp)
   1a188:	05812c23          	sw	s8,88(sp)
   1a18c:	05a12e23          	sw	s10,92(sp)
   1a190:	000c8d13          	mv	s10,s9
   1a194:	02812c83          	lw	s9,40(sp)
   1a198:	03512423          	sw	s5,40(sp)
   1a19c:	00040613          	mv	a2,s0
   1a1a0:	04012c03          	lw	s8,64(sp)
   1a1a4:	04c12403          	lw	s0,76(sp)
   1a1a8:	00812483          	lw	s1,8(sp)
   1a1ac:	00700993          	li	s3,7
   1a1b0:	01000b93          	li	s7,16
   1a1b4:	9ace8913          	addi	s2,t4,-1620 # 259ac <zeroes.0>
   1a1b8:	080d8863          	beqz	s11,1a248 <_svfprintf_r+0x1620>
   1a1bc:	160c8263          	beqz	s9,1a320 <_svfprintf_r+0x16f8>
   1a1c0:	fffc8c93          	addi	s9,s9,-1
   1a1c4:	04812783          	lw	a5,72(sp)
   1a1c8:	008686b3          	add	a3,a3,s0
   1a1cc:	00862223          	sw	s0,4(a2)
   1a1d0:	00f62023          	sw	a5,0(a2)
   1a1d4:	0e812783          	lw	a5,232(sp)
   1a1d8:	0ed12623          	sw	a3,236(sp)
   1a1dc:	00860613          	addi	a2,a2,8
   1a1e0:	00178793          	addi	a5,a5,1
   1a1e4:	0ef12423          	sw	a5,232(sp)
   1a1e8:	16f9ca63          	blt	s3,a5,1a35c <_svfprintf_r+0x1734>
   1a1ec:	05012783          	lw	a5,80(sp)
   1a1f0:	000c4703          	lbu	a4,0(s8)
   1a1f4:	41a78ab3          	sub	s5,a5,s10
   1a1f8:	01575463          	bge	a4,s5,1a200 <_svfprintf_r+0x15d8>
   1a1fc:	00070a93          	mv	s5,a4
   1a200:	03505663          	blez	s5,1a22c <_svfprintf_r+0x1604>
   1a204:	0e812703          	lw	a4,232(sp)
   1a208:	015686b3          	add	a3,a3,s5
   1a20c:	01a62023          	sw	s10,0(a2)
   1a210:	00170713          	addi	a4,a4,1
   1a214:	01562223          	sw	s5,4(a2)
   1a218:	0ed12623          	sw	a3,236(sp)
   1a21c:	0ee12423          	sw	a4,232(sp)
   1a220:	32e9c663          	blt	s3,a4,1a54c <_svfprintf_r+0x1924>
   1a224:	000c4703          	lbu	a4,0(s8)
   1a228:	00860613          	addi	a2,a2,8
   1a22c:	fffac593          	not	a1,s5
   1a230:	41f5d593          	srai	a1,a1,0x1f
   1a234:	00baf7b3          	and	a5,s5,a1
   1a238:	40f70ab3          	sub	s5,a4,a5
   1a23c:	03504e63          	bgtz	s5,1a278 <_svfprintf_r+0x1650>
   1a240:	00ed0d33          	add	s10,s10,a4
   1a244:	f60d9ce3          	bnez	s11,1a1bc <_svfprintf_r+0x1594>
   1a248:	f60c9ce3          	bnez	s9,1a1c0 <_svfprintf_r+0x1598>
   1a24c:	05012783          	lw	a5,80(sp)
   1a250:	05812023          	sw	s8,64(sp)
   1a254:	000d0c93          	mv	s9,s10
   1a258:	05412483          	lw	s1,84(sp)
   1a25c:	05812c03          	lw	s8,88(sp)
   1a260:	05c12d03          	lw	s10,92(sp)
   1a264:	02812a83          	lw	s5,40(sp)
   1a268:	00060413          	mv	s0,a2
   1a26c:	a197f4e3          	bgeu	a5,s9,19c74 <_svfprintf_r+0x104c>
   1a270:	00078c93          	mv	s9,a5
   1a274:	a01ff06f          	j	19c74 <_svfprintf_r+0x104c>
   1a278:	000265b7          	lui	a1,0x26
   1a27c:	0e812703          	lw	a4,232(sp)
   1a280:	9ac58593          	addi	a1,a1,-1620 # 259ac <zeroes.0>
   1a284:	075bd863          	bge	s7,s5,1a2f4 <_svfprintf_r+0x16cc>
   1a288:	02812023          	sw	s0,32(sp)
   1a28c:	000a8413          	mv	s0,s5
   1a290:	00090a93          	mv	s5,s2
   1a294:	00c0006f          	j	1a2a0 <_svfprintf_r+0x1678>
   1a298:	ff040413          	addi	s0,s0,-16
   1a29c:	048bd663          	bge	s7,s0,1a2e8 <_svfprintf_r+0x16c0>
   1a2a0:	01068693          	addi	a3,a3,16
   1a2a4:	00170713          	addi	a4,a4,1
   1a2a8:	01262023          	sw	s2,0(a2)
   1a2ac:	01762223          	sw	s7,4(a2)
   1a2b0:	0ed12623          	sw	a3,236(sp)
   1a2b4:	0ee12423          	sw	a4,232(sp)
   1a2b8:	00860613          	addi	a2,a2,8
   1a2bc:	fce9dee3          	bge	s3,a4,1a298 <_svfprintf_r+0x1670>
   1a2c0:	0e410613          	addi	a2,sp,228
   1a2c4:	00048593          	mv	a1,s1
   1a2c8:	000a0513          	mv	a0,s4
   1a2cc:	0a8040ef          	jal	ra,1e374 <__ssprint_r>
   1a2d0:	f2051863          	bnez	a0,19a00 <_svfprintf_r+0xdd8>
   1a2d4:	ff040413          	addi	s0,s0,-16
   1a2d8:	0ec12683          	lw	a3,236(sp)
   1a2dc:	0e812703          	lw	a4,232(sp)
   1a2e0:	000b0613          	mv	a2,s6
   1a2e4:	fa8bcee3          	blt	s7,s0,1a2a0 <_svfprintf_r+0x1678>
   1a2e8:	000a8593          	mv	a1,s5
   1a2ec:	00040a93          	mv	s5,s0
   1a2f0:	02012403          	lw	s0,32(sp)
   1a2f4:	00da86b3          	add	a3,s5,a3
   1a2f8:	00170713          	addi	a4,a4,1
   1a2fc:	00b62023          	sw	a1,0(a2)
   1a300:	01562223          	sw	s5,4(a2)
   1a304:	0ed12623          	sw	a3,236(sp)
   1a308:	0ee12423          	sw	a4,232(sp)
   1a30c:	4ce9c6e3          	blt	s3,a4,1afd8 <_svfprintf_r+0x23b0>
   1a310:	000c4703          	lbu	a4,0(s8)
   1a314:	00860613          	addi	a2,a2,8
   1a318:	00ed0d33          	add	s10,s10,a4
   1a31c:	f29ff06f          	j	1a244 <_svfprintf_r+0x161c>
   1a320:	fffc0c13          	addi	s8,s8,-1
   1a324:	fffd8d93          	addi	s11,s11,-1
   1a328:	e9dff06f          	j	1a1c4 <_svfprintf_r+0x159c>
   1a32c:	01812703          	lw	a4,24(sp)
   1a330:	010c7793          	andi	a5,s8,16
   1a334:	00072d83          	lw	s11,0(a4)
   1a338:	00470713          	addi	a4,a4,4
   1a33c:	00e12c23          	sw	a4,24(sp)
   1a340:	04079263          	bnez	a5,1a384 <_svfprintf_r+0x175c>
   1a344:	040c7793          	andi	a5,s8,64
   1a348:	02078a63          	beqz	a5,1a37c <_svfprintf_r+0x1754>
   1a34c:	010d9d93          	slli	s11,s11,0x10
   1a350:	010ddd93          	srli	s11,s11,0x10
   1a354:	00000913          	li	s2,0
   1a358:	cb5ff06f          	j	1a00c <_svfprintf_r+0x13e4>
   1a35c:	0e410613          	addi	a2,sp,228
   1a360:	00048593          	mv	a1,s1
   1a364:	000a0513          	mv	a0,s4
   1a368:	00c040ef          	jal	ra,1e374 <__ssprint_r>
   1a36c:	e8051a63          	bnez	a0,19a00 <_svfprintf_r+0xdd8>
   1a370:	0ec12683          	lw	a3,236(sp)
   1a374:	000b0613          	mv	a2,s6
   1a378:	e75ff06f          	j	1a1ec <_svfprintf_r+0x15c4>
   1a37c:	200c7793          	andi	a5,s8,512
   1a380:	60079e63          	bnez	a5,1a99c <_svfprintf_r+0x1d74>
   1a384:	00000913          	li	s2,0
   1a388:	c85ff06f          	j	1a00c <_svfprintf_r+0x13e4>
   1a38c:	1b010c93          	addi	s9,sp,432
   1a390:	00912a23          	sw	s1,20(sp)
   1a394:	4006fb93          	andi	s7,a3,1024
   1a398:	000c8493          	mv	s1,s9
   1a39c:	00000c13          	li	s8,0
   1a3a0:	000a0c93          	mv	s9,s4
   1a3a4:	0ff00a93          	li	s5,255
   1a3a8:	00040a13          	mv	s4,s0
   1a3ac:	03112023          	sw	a7,32(sp)
   1a3b0:	04012403          	lw	s0,64(sp)
   1a3b4:	02d12423          	sw	a3,40(sp)
   1a3b8:	0240006f          	j	1a3dc <_svfprintf_r+0x17b4>
   1a3bc:	00a00613          	li	a2,10
   1a3c0:	00000693          	li	a3,0
   1a3c4:	000d8513          	mv	a0,s11
   1a3c8:	00090593          	mv	a1,s2
   1a3cc:	5f1050ef          	jal	ra,201bc <__udivdi3>
   1a3d0:	42090ae3          	beqz	s2,1b004 <_svfprintf_r+0x23dc>
   1a3d4:	00050d93          	mv	s11,a0
   1a3d8:	00058913          	mv	s2,a1
   1a3dc:	00a00613          	li	a2,10
   1a3e0:	00000693          	li	a3,0
   1a3e4:	000d8513          	mv	a0,s11
   1a3e8:	00090593          	mv	a1,s2
   1a3ec:	394060ef          	jal	ra,20780 <__umoddi3>
   1a3f0:	03050513          	addi	a0,a0,48
   1a3f4:	fea48fa3          	sb	a0,-1(s1)
   1a3f8:	001c0c13          	addi	s8,s8,1
   1a3fc:	fff48493          	addi	s1,s1,-1
   1a400:	fa0b8ee3          	beqz	s7,1a3bc <_svfprintf_r+0x1794>
   1a404:	00044703          	lbu	a4,0(s0)
   1a408:	faec1ae3          	bne	s8,a4,1a3bc <_svfprintf_r+0x1794>
   1a40c:	fb5c08e3          	beq	s8,s5,1a3bc <_svfprintf_r+0x1794>
   1a410:	50091063          	bnez	s2,1a910 <_svfprintf_r+0x1ce8>
   1a414:	00900713          	li	a4,9
   1a418:	4fb76c63          	bltu	a4,s11,1a910 <_svfprintf_r+0x1ce8>
   1a41c:	02812683          	lw	a3,40(sp)
   1a420:	04812023          	sw	s0,64(sp)
   1a424:	1b010793          	addi	a5,sp,432
   1a428:	000a0413          	mv	s0,s4
   1a42c:	000c8a13          	mv	s4,s9
   1a430:	00048c93          	mv	s9,s1
   1a434:	03812223          	sw	s8,36(sp)
   1a438:	02012883          	lw	a7,32(sp)
   1a43c:	01412483          	lw	s1,20(sp)
   1a440:	41978933          	sub	s2,a5,s9
   1a444:	00068c13          	mv	s8,a3
   1a448:	c0dfe06f          	j	19054 <_svfprintf_r+0x42c>
   1a44c:	0ec12683          	lw	a3,236(sp)
   1a450:	0e812603          	lw	a2,232(sp)
   1a454:	000255b7          	lui	a1,0x25
   1a458:	14058593          	addi	a1,a1,320 # 25140 <__clzsi2+0x130>
   1a45c:	00b42023          	sw	a1,0(s0)
   1a460:	00168693          	addi	a3,a3,1
   1a464:	00100593          	li	a1,1
   1a468:	00160613          	addi	a2,a2,1
   1a46c:	00b42223          	sw	a1,4(s0)
   1a470:	0ed12623          	sw	a3,236(sp)
   1a474:	0ec12423          	sw	a2,232(sp)
   1a478:	00700593          	li	a1,7
   1a47c:	00840413          	addi	s0,s0,8
   1a480:	06c5cc63          	blt	a1,a2,1a4f8 <_svfprintf_r+0x18d0>
   1a484:	1c051263          	bnez	a0,1a648 <_svfprintf_r+0x1a20>
   1a488:	02412783          	lw	a5,36(sp)
   1a48c:	001c7613          	andi	a2,s8,1
   1a490:	00f66633          	or	a2,a2,a5
   1a494:	00061463          	bnez	a2,1a49c <_svfprintf_r+0x1874>
   1a498:	a45fe06f          	j	18edc <_svfprintf_r+0x2b4>
   1a49c:	03412783          	lw	a5,52(sp)
   1a4a0:	0e812603          	lw	a2,232(sp)
   1a4a4:	03812703          	lw	a4,56(sp)
   1a4a8:	00d786b3          	add	a3,a5,a3
   1a4ac:	00160613          	addi	a2,a2,1
   1a4b0:	00e42023          	sw	a4,0(s0)
   1a4b4:	00f42223          	sw	a5,4(s0)
   1a4b8:	0ed12623          	sw	a3,236(sp)
   1a4bc:	0ec12423          	sw	a2,232(sp)
   1a4c0:	00700593          	li	a1,7
   1a4c4:	52c5ce63          	blt	a1,a2,1aa00 <_svfprintf_r+0x1dd8>
   1a4c8:	00840413          	addi	s0,s0,8
   1a4cc:	02412783          	lw	a5,36(sp)
   1a4d0:	00160613          	addi	a2,a2,1
   1a4d4:	01942023          	sw	s9,0(s0)
   1a4d8:	00d786b3          	add	a3,a5,a3
   1a4dc:	00f42223          	sw	a5,4(s0)
   1a4e0:	0ed12623          	sw	a3,236(sp)
   1a4e4:	0ec12423          	sw	a2,232(sp)
   1a4e8:	00700793          	li	a5,7
   1a4ec:	00c7c463          	blt	a5,a2,1a4f4 <_svfprintf_r+0x18cc>
   1a4f0:	9e9fe06f          	j	18ed8 <_svfprintf_r+0x2b0>
   1a4f4:	e41fe06f          	j	19334 <_svfprintf_r+0x70c>
   1a4f8:	00812583          	lw	a1,8(sp)
   1a4fc:	0e410613          	addi	a2,sp,228
   1a500:	000a0513          	mv	a0,s4
   1a504:	671030ef          	jal	ra,1e374 <__ssprint_r>
   1a508:	ce051c63          	bnez	a0,19a00 <_svfprintf_r+0xdd8>
   1a50c:	0cc12503          	lw	a0,204(sp)
   1a510:	0ec12683          	lw	a3,236(sp)
   1a514:	000b0413          	mv	s0,s6
   1a518:	f6dff06f          	j	1a484 <_svfprintf_r+0x185c>
   1a51c:	00812583          	lw	a1,8(sp)
   1a520:	0e410613          	addi	a2,sp,228
   1a524:	000a0513          	mv	a0,s4
   1a528:	64d030ef          	jal	ra,1e374 <__ssprint_r>
   1a52c:	cc051a63          	bnez	a0,19a00 <_svfprintf_r+0xdd8>
   1a530:	0ec12683          	lw	a3,236(sp)
   1a534:	000b0413          	mv	s0,s6
   1a538:	9c0ff06f          	j	196f8 <_svfprintf_r+0xad0>
   1a53c:	012686b3          	add	a3,a3,s2
   1a540:	00178793          	addi	a5,a5,1
   1a544:	01742023          	sw	s7,0(s0)
   1a548:	97dfe06f          	j	18ec4 <_svfprintf_r+0x29c>
   1a54c:	0e410613          	addi	a2,sp,228
   1a550:	00048593          	mv	a1,s1
   1a554:	000a0513          	mv	a0,s4
   1a558:	61d030ef          	jal	ra,1e374 <__ssprint_r>
   1a55c:	ca051263          	bnez	a0,19a00 <_svfprintf_r+0xdd8>
   1a560:	000c4703          	lbu	a4,0(s8)
   1a564:	0ec12683          	lw	a3,236(sp)
   1a568:	000b0613          	mv	a2,s6
   1a56c:	cc1ff06f          	j	1a22c <_svfprintf_r+0x1604>
   1a570:	0f012783          	lw	a5,240(sp)
   1a574:	0a010593          	addi	a1,sp,160
   1a578:	0b010513          	addi	a0,sp,176
   1a57c:	0af12823          	sw	a5,176(sp)
   1a580:	0f412783          	lw	a5,244(sp)
   1a584:	0a012023          	sw	zero,160(sp)
   1a588:	0a012223          	sw	zero,164(sp)
   1a58c:	0af12a23          	sw	a5,180(sp)
   1a590:	0f812783          	lw	a5,248(sp)
   1a594:	0a012423          	sw	zero,168(sp)
   1a598:	0a012623          	sw	zero,172(sp)
   1a59c:	0af12c23          	sw	a5,184(sp)
   1a5a0:	0fc12783          	lw	a5,252(sp)
   1a5a4:	0af12e23          	sw	a5,188(sp)
   1a5a8:	768070ef          	jal	ra,21d10 <__letf2>
   1a5ac:	01412883          	lw	a7,20(sp)
   1a5b0:	280544e3          	bltz	a0,1b038 <_svfprintf_r+0x2410>
   1a5b4:	0c714683          	lbu	a3,199(sp)
   1a5b8:	04700793          	li	a5,71
   1a5bc:	3917da63          	bge	a5,a7,1a950 <_svfprintf_r+0x1d28>
   1a5c0:	000257b7          	lui	a5,0x25
   1a5c4:	10478c93          	addi	s9,a5,260 # 25104 <__clzsi2+0xf4>
   1a5c8:	00012a23          	sw	zero,20(sp)
   1a5cc:	02012423          	sw	zero,40(sp)
   1a5d0:	02012623          	sw	zero,44(sp)
   1a5d4:	02012023          	sw	zero,32(sp)
   1a5d8:	f7fc7c13          	andi	s8,s8,-129
   1a5dc:	00300a93          	li	s5,3
   1a5e0:	00300913          	li	s2,3
   1a5e4:	00000993          	li	s3,0
   1a5e8:	00068463          	beqz	a3,1a5f0 <_svfprintf_r+0x19c8>
   1a5ec:	a8dfe06f          	j	19078 <_svfprintf_r+0x450>
   1a5f0:	819fe06f          	j	18e08 <_svfprintf_r+0x1e0>
   1a5f4:	01812783          	lw	a5,24(sp)
   1a5f8:	01012703          	lw	a4,16(sp)
   1a5fc:	0007a783          	lw	a5,0(a5)
   1a600:	00e7a023          	sw	a4,0(a5)
   1a604:	838ff06f          	j	1963c <_svfprintf_r+0xa14>
   1a608:	00600793          	li	a5,6
   1a60c:	00098913          	mv	s2,s3
   1a610:	3737e663          	bltu	a5,s3,1a97c <_svfprintf_r+0x1d54>
   1a614:	000257b7          	lui	a5,0x25
   1a618:	00090a93          	mv	s5,s2
   1a61c:	01712c23          	sw	s7,24(sp)
   1a620:	13878c93          	addi	s9,a5,312 # 25138 <__clzsi2+0x128>
   1a624:	fd0fe06f          	j	18df4 <_svfprintf_r+0x1cc>
   1a628:	00048793          	mv	a5,s1
   1a62c:	000a8493          	mv	s1,s5
   1a630:	000b8a93          	mv	s5,s7
   1a634:	00078b93          	mv	s7,a5
   1a638:	008d8db3          	add	s11,s11,s0
   1a63c:	00190913          	addi	s2,s2,1
   1a640:	0179a023          	sw	s7,0(s3)
   1a644:	cadfe06f          	j	192f0 <_svfprintf_r+0x6c8>
   1a648:	03412783          	lw	a5,52(sp)
   1a64c:	0e812603          	lw	a2,232(sp)
   1a650:	03812703          	lw	a4,56(sp)
   1a654:	00d786b3          	add	a3,a5,a3
   1a658:	00160613          	addi	a2,a2,1
   1a65c:	00e42023          	sw	a4,0(s0)
   1a660:	00f42223          	sw	a5,4(s0)
   1a664:	0ed12623          	sw	a3,236(sp)
   1a668:	0ec12423          	sw	a2,232(sp)
   1a66c:	00700593          	li	a1,7
   1a670:	00840413          	addi	s0,s0,8
   1a674:	38c5c663          	blt	a1,a2,1aa00 <_svfprintf_r+0x1dd8>
   1a678:	e4055ae3          	bgez	a0,1a4cc <_svfprintf_r+0x18a4>
   1a67c:	00026e37          	lui	t3,0x26
   1a680:	ff000593          	li	a1,-16
   1a684:	40a00933          	neg	s2,a0
   1a688:	9ace0b93          	addi	s7,t3,-1620 # 259ac <zeroes.0>
   1a68c:	01000993          	li	s3,16
   1a690:	00700d93          	li	s11,7
   1a694:	00b54863          	blt	a0,a1,1a6a4 <_svfprintf_r+0x1a7c>
   1a698:	3190006f          	j	1b1b0 <_svfprintf_r+0x2588>
   1a69c:	ff090913          	addi	s2,s2,-16
   1a6a0:	3129d8e3          	bge	s3,s2,1b1b0 <_svfprintf_r+0x2588>
   1a6a4:	01068693          	addi	a3,a3,16
   1a6a8:	00160613          	addi	a2,a2,1
   1a6ac:	01742023          	sw	s7,0(s0)
   1a6b0:	01342223          	sw	s3,4(s0)
   1a6b4:	0ed12623          	sw	a3,236(sp)
   1a6b8:	0ec12423          	sw	a2,232(sp)
   1a6bc:	00840413          	addi	s0,s0,8
   1a6c0:	fccddee3          	bge	s11,a2,1a69c <_svfprintf_r+0x1a74>
   1a6c4:	00812583          	lw	a1,8(sp)
   1a6c8:	0e410613          	addi	a2,sp,228
   1a6cc:	000a0513          	mv	a0,s4
   1a6d0:	4a5030ef          	jal	ra,1e374 <__ssprint_r>
   1a6d4:	b2051663          	bnez	a0,19a00 <_svfprintf_r+0xdd8>
   1a6d8:	0ec12683          	lw	a3,236(sp)
   1a6dc:	0e812603          	lw	a2,232(sp)
   1a6e0:	000b0413          	mv	s0,s6
   1a6e4:	fb9ff06f          	j	1a69c <_svfprintf_r+0x1a74>
   1a6e8:	07800793          	li	a5,120
   1a6ec:	03000693          	li	a3,48
   1a6f0:	0cf104a3          	sb	a5,201(sp)
   1a6f4:	002c6793          	ori	a5,s8,2
   1a6f8:	0cd10423          	sb	a3,200(sp)
   1a6fc:	02f12423          	sw	a5,40(sp)
   1a700:	06300693          	li	a3,99
   1a704:	00012a23          	sw	zero,20(sp)
   1a708:	14c10c93          	addi	s9,sp,332
   1a70c:	3336c263          	blt	a3,s3,1aa30 <_svfprintf_r+0x1e08>
   1a710:	0fc12d83          	lw	s11,252(sp)
   1a714:	102c6793          	ori	a5,s8,258
   1a718:	04f12c23          	sw	a5,88(sp)
   1a71c:	06012023          	sw	zero,96(sp)
   1a720:	0f012f03          	lw	t5,240(sp)
   1a724:	0f412e83          	lw	t4,244(sp)
   1a728:	0f812e03          	lw	t3,248(sp)
   1a72c:	160dc663          	bltz	s11,1a898 <_svfprintf_r+0x1c70>
   1a730:	06100713          	li	a4,97
   1a734:	32e888e3          	beq	a7,a4,1b264 <_svfprintf_r+0x263c>
   1a738:	fbf88713          	addi	a4,a7,-65
   1a73c:	02500693          	li	a3,37
   1a740:	00e6ee63          	bltu	a3,a4,1a75c <_svfprintf_r+0x1b34>
   1a744:	000266b7          	lui	a3,0x26
   1a748:	00271713          	slli	a4,a4,0x2
   1a74c:	91468693          	addi	a3,a3,-1772 # 25914 <__mprec_tens+0x234>
   1a750:	00d70733          	add	a4,a4,a3
   1a754:	00072703          	lw	a4,0(a4)
   1a758:	00070067          	jr	a4
   1a75c:	00098693          	mv	a3,s3
   1a760:	00200613          	li	a2,2
   1a764:	0b010913          	addi	s2,sp,176
   1a768:	0cc10713          	addi	a4,sp,204
   1a76c:	0dc10813          	addi	a6,sp,220
   1a770:	0d010793          	addi	a5,sp,208
   1a774:	00090593          	mv	a1,s2
   1a778:	000a0513          	mv	a0,s4
   1a77c:	05112a23          	sw	a7,84(sp)
   1a780:	04d12823          	sw	a3,80(sp)
   1a784:	0be12823          	sw	t5,176(sp)
   1a788:	03e12623          	sw	t5,44(sp)
   1a78c:	0bd12a23          	sw	t4,180(sp)
   1a790:	03d12223          	sw	t4,36(sp)
   1a794:	0bc12c23          	sw	t3,184(sp)
   1a798:	03c12023          	sw	t3,32(sp)
   1a79c:	0bb12e23          	sw	s11,188(sp)
   1a7a0:	e49fa0ef          	jal	ra,155e8 <_ldtoa_r>
   1a7a4:	05412883          	lw	a7,84(sp)
   1a7a8:	06700713          	li	a4,103
   1a7ac:	02012e03          	lw	t3,32(sp)
   1a7b0:	02412e83          	lw	t4,36(sp)
   1a7b4:	02c12f03          	lw	t5,44(sp)
   1a7b8:	05012683          	lw	a3,80(sp)
   1a7bc:	00050c93          	mv	s9,a0
   1a7c0:	28e88a63          	beq	a7,a4,1aa54 <_svfprintf_r+0x1e2c>
   1a7c4:	04700713          	li	a4,71
   1a7c8:	28e88663          	beq	a7,a4,1aa54 <_svfprintf_r+0x1e2c>
   1a7cc:	fdf8fa93          	andi	s5,a7,-33
   1a7d0:	04600593          	li	a1,70
   1a7d4:	00d50bb3          	add	s7,a0,a3
   1a7d8:	0a010c13          	addi	s8,sp,160
   1a7dc:	00ba9c63          	bne	s5,a1,1a7f4 <_svfprintf_r+0x1bcc>
   1a7e0:	00054503          	lbu	a0,0(a0)
   1a7e4:	03000593          	li	a1,48
   1a7e8:	3cb50463          	beq	a0,a1,1abb0 <_svfprintf_r+0x1f88>
   1a7ec:	0cc12683          	lw	a3,204(sp)
   1a7f0:	00db8bb3          	add	s7,s7,a3
   1a7f4:	000c0593          	mv	a1,s8
   1a7f8:	00090513          	mv	a0,s2
   1a7fc:	03112023          	sw	a7,32(sp)
   1a800:	0be12823          	sw	t5,176(sp)
   1a804:	0bd12a23          	sw	t4,180(sp)
   1a808:	0bc12c23          	sw	t3,184(sp)
   1a80c:	0bb12e23          	sw	s11,188(sp)
   1a810:	0a012023          	sw	zero,160(sp)
   1a814:	0a012223          	sw	zero,164(sp)
   1a818:	0a012423          	sw	zero,168(sp)
   1a81c:	0a012623          	sw	zero,172(sp)
   1a820:	2b8070ef          	jal	ra,21ad8 <__eqtf2>
   1a824:	02012883          	lw	a7,32(sp)
   1a828:	000b8c13          	mv	s8,s7
   1a82c:	02050263          	beqz	a0,1a850 <_svfprintf_r+0x1c28>
   1a830:	0dc12c03          	lw	s8,220(sp)
   1a834:	017c7e63          	bgeu	s8,s7,1a850 <_svfprintf_r+0x1c28>
   1a838:	03000593          	li	a1,48
   1a83c:	001c0793          	addi	a5,s8,1
   1a840:	0cf12e23          	sw	a5,220(sp)
   1a844:	00bc0023          	sb	a1,0(s8)
   1a848:	0dc12c03          	lw	s8,220(sp)
   1a84c:	ff7c68e3          	bltu	s8,s7,1a83c <_svfprintf_r+0x1c14>
   1a850:	419c07b3          	sub	a5,s8,s9
   1a854:	02f12223          	sw	a5,36(sp)
   1a858:	0cc12703          	lw	a4,204(sp)
   1a85c:	04700693          	li	a3,71
   1a860:	02e12023          	sw	a4,32(sp)
   1a864:	20da8663          	beq	s5,a3,1aa70 <_svfprintf_r+0x1e48>
   1a868:	04600693          	li	a3,70
   1a86c:	08da82e3          	beq	s5,a3,1b0f0 <_svfprintf_r+0x24c8>
   1a870:	fff70d93          	addi	s11,a4,-1
   1a874:	0db12623          	sw	s11,204(sp)
   1a878:	06100693          	li	a3,97
   1a87c:	3ad880e3          	beq	a7,a3,1b41c <_svfprintf_r+0x27f4>
   1a880:	04100613          	li	a2,65
   1a884:	05000693          	li	a3,80
   1a888:	20c89263          	bne	a7,a2,1aa8c <_svfprintf_r+0x1e64>
   1a88c:	00100613          	li	a2,1
   1a890:	2040006f          	j	1aa94 <_svfprintf_r+0x1e6c>
   1a894:	00012a23          	sw	zero,20(sp)
   1a898:	80000737          	lui	a4,0x80000
   1a89c:	02d00793          	li	a5,45
   1a8a0:	01b74db3          	xor	s11,a4,s11
   1a8a4:	06f12023          	sw	a5,96(sp)
   1a8a8:	e89ff06f          	j	1a730 <_svfprintf_r+0x1b08>
   1a8ac:	0fc12783          	lw	a5,252(sp)
   1a8b0:	1407c063          	bltz	a5,1a9f0 <_svfprintf_r+0x1dc8>
   1a8b4:	0c714683          	lbu	a3,199(sp)
   1a8b8:	04700793          	li	a5,71
   1a8bc:	7b17dc63          	bge	a5,a7,1b074 <_svfprintf_r+0x244c>
   1a8c0:	000257b7          	lui	a5,0x25
   1a8c4:	10c78c93          	addi	s9,a5,268 # 2510c <__clzsi2+0xfc>
   1a8c8:	d01ff06f          	j	1a5c8 <_svfprintf_r+0x19a0>
   1a8cc:	00d906b3          	add	a3,s2,a3
   1a8d0:	00160613          	addi	a2,a2,1
   1a8d4:	01742023          	sw	s7,0(s0)
   1a8d8:	01242223          	sw	s2,4(s0)
   1a8dc:	0ed12623          	sw	a3,236(sp)
   1a8e0:	0ec12423          	sw	a2,232(sp)
   1a8e4:	00700593          	li	a1,7
   1a8e8:	00840413          	addi	s0,s0,8
   1a8ec:	b6c5dc63          	bge	a1,a2,19c64 <_svfprintf_r+0x103c>
   1a8f0:	00812583          	lw	a1,8(sp)
   1a8f4:	0e410613          	addi	a2,sp,228
   1a8f8:	000a0513          	mv	a0,s4
   1a8fc:	279030ef          	jal	ra,1e374 <__ssprint_r>
   1a900:	90051063          	bnez	a0,19a00 <_svfprintf_r+0xdd8>
   1a904:	0ec12683          	lw	a3,236(sp)
   1a908:	000b0413          	mv	s0,s6
   1a90c:	b58ff06f          	j	19c64 <_svfprintf_r+0x103c>
   1a910:	04c12783          	lw	a5,76(sp)
   1a914:	04812583          	lw	a1,72(sp)
   1a918:	00000c13          	li	s8,0
   1a91c:	40f484b3          	sub	s1,s1,a5
   1a920:	00078613          	mv	a2,a5
   1a924:	00048513          	mv	a0,s1
   1a928:	a54fe0ef          	jal	ra,18b7c <strncpy>
   1a92c:	00144703          	lbu	a4,1(s0)
   1a930:	00a00613          	li	a2,10
   1a934:	00000693          	li	a3,0
   1a938:	00e03733          	snez	a4,a4
   1a93c:	000d8513          	mv	a0,s11
   1a940:	00090593          	mv	a1,s2
   1a944:	00e40433          	add	s0,s0,a4
   1a948:	075050ef          	jal	ra,201bc <__udivdi3>
   1a94c:	a89ff06f          	j	1a3d4 <_svfprintf_r+0x17ac>
   1a950:	000257b7          	lui	a5,0x25
   1a954:	10078c93          	addi	s9,a5,256 # 25100 <__clzsi2+0xf0>
   1a958:	c71ff06f          	j	1a5c8 <_svfprintf_r+0x19a0>
   1a95c:	00812583          	lw	a1,8(sp)
   1a960:	0e410613          	addi	a2,sp,228
   1a964:	000a0513          	mv	a0,s4
   1a968:	20d030ef          	jal	ra,1e374 <__ssprint_r>
   1a96c:	88051a63          	bnez	a0,19a00 <_svfprintf_r+0xdd8>
   1a970:	0ec12683          	lw	a3,236(sp)
   1a974:	000b0413          	mv	s0,s6
   1a978:	ad4ff06f          	j	19c4c <_svfprintf_r+0x1024>
   1a97c:	00600913          	li	s2,6
   1a980:	c95ff06f          	j	1a614 <_svfprintf_r+0x19ec>
   1a984:	41278933          	sub	s2,a5,s2
   1a988:	05012783          	lw	a5,80(sp)
   1a98c:	419789b3          	sub	s3,a5,s9
   1a990:	b7395a63          	bge	s2,s3,19d04 <_svfprintf_r+0x10dc>
   1a994:	00090993          	mv	s3,s2
   1a998:	b6cff06f          	j	19d04 <_svfprintf_r+0x10dc>
   1a99c:	0ffdfd93          	zext.b	s11,s11
   1a9a0:	00000913          	li	s2,0
   1a9a4:	e68ff06f          	j	1a00c <_svfprintf_r+0x13e4>
   1a9a8:	018d9d93          	slli	s11,s11,0x18
   1a9ac:	418ddd93          	srai	s11,s11,0x18
   1a9b0:	41fdd913          	srai	s2,s11,0x1f
   1a9b4:	00090793          	mv	a5,s2
   1a9b8:	e54fe06f          	j	1900c <_svfprintf_r+0x3e4>
   1a9bc:	0ffdfd93          	zext.b	s11,s11
   1a9c0:	00000913          	li	s2,0
   1a9c4:	ee4fe06f          	j	190a8 <_svfprintf_r+0x480>
   1a9c8:	01812783          	lw	a5,24(sp)
   1a9cc:	01012703          	lw	a4,16(sp)
   1a9d0:	0007a783          	lw	a5,0(a5)
   1a9d4:	00e79023          	sh	a4,0(a5)
   1a9d8:	c65fe06f          	j	1963c <_svfprintf_r+0xa14>
   1a9dc:	00812583          	lw	a1,8(sp)
   1a9e0:	03012503          	lw	a0,48(sp)
   1a9e4:	0e410613          	addi	a2,sp,228
   1a9e8:	18d030ef          	jal	ra,1e374 <__ssprint_r>
   1a9ec:	d50fe06f          	j	18f3c <_svfprintf_r+0x314>
   1a9f0:	02d00793          	li	a5,45
   1a9f4:	0cf103a3          	sb	a5,199(sp)
   1a9f8:	02d00693          	li	a3,45
   1a9fc:	ebdff06f          	j	1a8b8 <_svfprintf_r+0x1c90>
   1aa00:	00812583          	lw	a1,8(sp)
   1aa04:	0e410613          	addi	a2,sp,228
   1aa08:	000a0513          	mv	a0,s4
   1aa0c:	169030ef          	jal	ra,1e374 <__ssprint_r>
   1aa10:	00050463          	beqz	a0,1aa18 <_svfprintf_r+0x1df0>
   1aa14:	fedfe06f          	j	19a00 <_svfprintf_r+0xdd8>
   1aa18:	0cc12503          	lw	a0,204(sp)
   1aa1c:	0ec12683          	lw	a3,236(sp)
   1aa20:	0e812603          	lw	a2,232(sp)
   1aa24:	000b0413          	mv	s0,s6
   1aa28:	aa0552e3          	bgez	a0,1a4cc <_svfprintf_r+0x18a4>
   1aa2c:	c51ff06f          	j	1a67c <_svfprintf_r+0x1a54>
   1aa30:	00198593          	addi	a1,s3,1
   1aa34:	000a0513          	mv	a0,s4
   1aa38:	01112a23          	sw	a7,20(sp)
   1aa3c:	9ccfc0ef          	jal	ra,16c08 <_malloc_r>
   1aa40:	01412883          	lw	a7,20(sp)
   1aa44:	00050c93          	mv	s9,a0
   1aa48:	24050ce3          	beqz	a0,1b4a0 <_svfprintf_r+0x2878>
   1aa4c:	00a12a23          	sw	a0,20(sp)
   1aa50:	cc1ff06f          	j	1a710 <_svfprintf_r+0x1ae8>
   1aa54:	02812783          	lw	a5,40(sp)
   1aa58:	0017f713          	andi	a4,a5,1
   1aa5c:	6a071c63          	bnez	a4,1b114 <_svfprintf_r+0x24ec>
   1aa60:	0dc12c03          	lw	s8,220(sp)
   1aa64:	0cc12703          	lw	a4,204(sp)
   1aa68:	419c07b3          	sub	a5,s8,s9
   1aa6c:	02f12223          	sw	a5,36(sp)
   1aa70:	ffd00693          	li	a3,-3
   1aa74:	02e12023          	sw	a4,32(sp)
   1aa78:	00d74463          	blt	a4,a3,1aa80 <_svfprintf_r+0x1e58>
   1aa7c:	50e9d663          	bge	s3,a4,1af88 <_svfprintf_r+0x2360>
   1aa80:	fff70d93          	addi	s11,a4,-1 # 7fffffff <__BSS_END__+0x7ffd9517>
   1aa84:	ffe88893          	addi	a7,a7,-2
   1aa88:	0db12623          	sw	s11,204(sp)
   1aa8c:	0ff8f693          	zext.b	a3,a7
   1aa90:	00000613          	li	a2,0
   1aa94:	0cd10a23          	sb	a3,212(sp)
   1aa98:	02b00693          	li	a3,43
   1aa9c:	000dd863          	bgez	s11,1aaac <_svfprintf_r+0x1e84>
   1aaa0:	00100d93          	li	s11,1
   1aaa4:	40ed8db3          	sub	s11,s11,a4
   1aaa8:	02d00693          	li	a3,45
   1aaac:	0cd10aa3          	sb	a3,213(sp)
   1aab0:	00900713          	li	a4,9
   1aab4:	67b75863          	bge	a4,s11,1b124 <_svfprintf_r+0x24fc>
   1aab8:	0e310913          	addi	s2,sp,227
   1aabc:	00090b93          	mv	s7,s2
   1aac0:	06300993          	li	s3,99
   1aac4:	00088c13          	mv	s8,a7
   1aac8:	02812023          	sw	s0,32(sp)
   1aacc:	00a00593          	li	a1,10
   1aad0:	000d8513          	mv	a0,s11
   1aad4:	50c0a0ef          	jal	ra,24fe0 <__modsi3>
   1aad8:	03050793          	addi	a5,a0,48
   1aadc:	fefb8fa3          	sb	a5,-1(s7)
   1aae0:	000d8513          	mv	a0,s11
   1aae4:	00a00593          	li	a1,10
   1aae8:	000d8413          	mv	s0,s11
   1aaec:	4700a0ef          	jal	ra,24f5c <__divsi3>
   1aaf0:	000b8a93          	mv	s5,s7
   1aaf4:	00050d93          	mv	s11,a0
   1aaf8:	fffb8b93          	addi	s7,s7,-1
   1aafc:	fc89c8e3          	blt	s3,s0,1aacc <_svfprintf_r+0x1ea4>
   1ab00:	03050d93          	addi	s11,a0,48
   1ab04:	ffea8713          	addi	a4,s5,-2
   1ab08:	ffbb8fa3          	sb	s11,-1(s7)
   1ab0c:	02012403          	lw	s0,32(sp)
   1ab10:	000c0893          	mv	a7,s8
   1ab14:	17277ae3          	bgeu	a4,s2,1b488 <_svfprintf_r+0x2860>
   1ab18:	0d610613          	addi	a2,sp,214
   1ab1c:	00074783          	lbu	a5,0(a4)
   1ab20:	00170713          	addi	a4,a4,1
   1ab24:	00160613          	addi	a2,a2,1
   1ab28:	fef60fa3          	sb	a5,-1(a2)
   1ab2c:	ff2718e3          	bne	a4,s2,1ab1c <_svfprintf_r+0x1ef4>
   1ab30:	0e510713          	addi	a4,sp,229
   1ab34:	0d610793          	addi	a5,sp,214
   1ab38:	41570733          	sub	a4,a4,s5
   1ab3c:	00e78733          	add	a4,a5,a4
   1ab40:	0d410693          	addi	a3,sp,212
   1ab44:	40d707b3          	sub	a5,a4,a3
   1ab48:	04f12223          	sw	a5,68(sp)
   1ab4c:	04412683          	lw	a3,68(sp)
   1ab50:	02412783          	lw	a5,36(sp)
   1ab54:	00100713          	li	a4,1
   1ab58:	00f68933          	add	s2,a3,a5
   1ab5c:	6ef75063          	bge	a4,a5,1b23c <_svfprintf_r+0x2614>
   1ab60:	03412783          	lw	a5,52(sp)
   1ab64:	00f90933          	add	s2,s2,a5
   1ab68:	02812783          	lw	a5,40(sp)
   1ab6c:	fff94813          	not	a6,s2
   1ab70:	41f85813          	srai	a6,a6,0x1f
   1ab74:	bff7f713          	andi	a4,a5,-1025
   1ab78:	10076c13          	ori	s8,a4,256
   1ab7c:	01097ab3          	and	s5,s2,a6
   1ab80:	02012423          	sw	zero,40(sp)
   1ab84:	02012623          	sw	zero,44(sp)
   1ab88:	02012023          	sw	zero,32(sp)
   1ab8c:	06012783          	lw	a5,96(sp)
   1ab90:	3e078263          	beqz	a5,1af74 <_svfprintf_r+0x234c>
   1ab94:	02d00693          	li	a3,45
   1ab98:	0cd103a3          	sb	a3,199(sp)
   1ab9c:	00000993          	li	s3,0
   1aba0:	001a8a93          	addi	s5,s5,1
   1aba4:	a64fe06f          	j	18e08 <_svfprintf_r+0x1e0>
   1aba8:	00600993          	li	s3,6
   1abac:	e28fe06f          	j	191d4 <_svfprintf_r+0x5ac>
   1abb0:	000c0593          	mv	a1,s8
   1abb4:	00090513          	mv	a0,s2
   1abb8:	05112823          	sw	a7,80(sp)
   1abbc:	0be12823          	sw	t5,176(sp)
   1abc0:	03e12623          	sw	t5,44(sp)
   1abc4:	0bd12a23          	sw	t4,180(sp)
   1abc8:	03d12223          	sw	t4,36(sp)
   1abcc:	0bc12c23          	sw	t3,184(sp)
   1abd0:	03c12023          	sw	t3,32(sp)
   1abd4:	04d12a23          	sw	a3,84(sp)
   1abd8:	0bb12e23          	sw	s11,188(sp)
   1abdc:	0a012023          	sw	zero,160(sp)
   1abe0:	0a012223          	sw	zero,164(sp)
   1abe4:	0a012423          	sw	zero,168(sp)
   1abe8:	0a012623          	sw	zero,172(sp)
   1abec:	6ed060ef          	jal	ra,21ad8 <__eqtf2>
   1abf0:	02012e03          	lw	t3,32(sp)
   1abf4:	02412e83          	lw	t4,36(sp)
   1abf8:	02c12f03          	lw	t5,44(sp)
   1abfc:	05012883          	lw	a7,80(sp)
   1ac00:	be0506e3          	beqz	a0,1a7ec <_svfprintf_r+0x1bc4>
   1ac04:	05412683          	lw	a3,84(sp)
   1ac08:	00100593          	li	a1,1
   1ac0c:	40d586b3          	sub	a3,a1,a3
   1ac10:	0cd12623          	sw	a3,204(sp)
   1ac14:	bddff06f          	j	1a7f0 <_svfprintf_r+0x1bc8>
   1ac18:	00198693          	addi	a3,s3,1
   1ac1c:	00200613          	li	a2,2
   1ac20:	b45ff06f          	j	1a764 <_svfprintf_r+0x1b3c>
   1ac24:	00098693          	mv	a3,s3
   1ac28:	00300613          	li	a2,3
   1ac2c:	b39ff06f          	j	1a764 <_svfprintf_r+0x1b3c>
   1ac30:	0b010913          	addi	s2,sp,176
   1ac34:	00090513          	mv	a0,s2
   1ac38:	07112223          	sw	a7,100(sp)
   1ac3c:	0be12823          	sw	t5,176(sp)
   1ac40:	0bd12a23          	sw	t4,180(sp)
   1ac44:	0bc12c23          	sw	t3,184(sp)
   1ac48:	0bb12e23          	sw	s11,188(sp)
   1ac4c:	799090ef          	jal	ra,24be4 <__trunctfdf2>
   1ac50:	0cc10613          	addi	a2,sp,204
   1ac54:	a99fd0ef          	jal	ra,186ec <frexp>
   1ac58:	00058613          	mv	a2,a1
   1ac5c:	00050593          	mv	a1,a0
   1ac60:	00090513          	mv	a0,s2
   1ac64:	579090ef          	jal	ra,249dc <__extenddftf2>
   1ac68:	0b012703          	lw	a4,176(sp)
   1ac6c:	09010793          	addi	a5,sp,144
   1ac70:	0a010c13          	addi	s8,sp,160
   1ac74:	08e12823          	sw	a4,144(sp)
   1ac78:	0b412703          	lw	a4,180(sp)
   1ac7c:	08010613          	addi	a2,sp,128
   1ac80:	00078593          	mv	a1,a5
   1ac84:	08e12a23          	sw	a4,148(sp)
   1ac88:	0b812703          	lw	a4,184(sp)
   1ac8c:	000c0513          	mv	a0,s8
   1ac90:	04f12a23          	sw	a5,84(sp)
   1ac94:	08e12c23          	sw	a4,152(sp)
   1ac98:	0bc12703          	lw	a4,188(sp)
   1ac9c:	04c12823          	sw	a2,80(sp)
   1aca0:	08012023          	sw	zero,128(sp)
   1aca4:	08e12e23          	sw	a4,156(sp)
   1aca8:	3ffc0737          	lui	a4,0x3ffc0
   1acac:	08e12623          	sw	a4,140(sp)
   1acb0:	08012223          	sw	zero,132(sp)
   1acb4:	08012423          	sw	zero,136(sp)
   1acb8:	1bc070ef          	jal	ra,21e74 <__multf3>
   1acbc:	0a012683          	lw	a3,160(sp)
   1acc0:	0a412803          	lw	a6,164(sp)
   1acc4:	0a812e03          	lw	t3,168(sp)
   1acc8:	0ac12e83          	lw	t4,172(sp)
   1accc:	000c0593          	mv	a1,s8
   1acd0:	00090513          	mv	a0,s2
   1acd4:	0ad12823          	sw	a3,176(sp)
   1acd8:	04d12e23          	sw	a3,92(sp)
   1acdc:	0b012a23          	sw	a6,180(sp)
   1ace0:	03012623          	sw	a6,44(sp)
   1ace4:	0bc12c23          	sw	t3,184(sp)
   1ace8:	03c12223          	sw	t3,36(sp)
   1acec:	0bd12e23          	sw	t4,188(sp)
   1acf0:	03d12023          	sw	t4,32(sp)
   1acf4:	0a012023          	sw	zero,160(sp)
   1acf8:	0a012223          	sw	zero,164(sp)
   1acfc:	0a012423          	sw	zero,168(sp)
   1ad00:	0a012623          	sw	zero,172(sp)
   1ad04:	5d5060ef          	jal	ra,21ad8 <__eqtf2>
   1ad08:	02012e83          	lw	t4,32(sp)
   1ad0c:	02412e03          	lw	t3,36(sp)
   1ad10:	02c12803          	lw	a6,44(sp)
   1ad14:	05c12683          	lw	a3,92(sp)
   1ad18:	06412883          	lw	a7,100(sp)
   1ad1c:	00051a63          	bnez	a0,1ad30 <_svfprintf_r+0x2108>
   1ad20:	00100713          	li	a4,1
   1ad24:	0ce12623          	sw	a4,204(sp)
   1ad28:	06100713          	li	a4,97
   1ad2c:	62e88463          	beq	a7,a4,1b354 <_svfprintf_r+0x272c>
   1ad30:	00025737          	lui	a4,0x25
   1ad34:	12470393          	addi	t2,a4,292 # 25124 <__clzsi2+0x114>
   1ad38:	fff98b93          	addi	s7,s3,-1
   1ad3c:	07312823          	sw	s3,112(sp)
   1ad40:	06812a23          	sw	s0,116(sp)
   1ad44:	000c8993          	mv	s3,s9
   1ad48:	07412c23          	sw	s4,120(sp)
   1ad4c:	07912e23          	sw	s9,124(sp)
   1ad50:	06912223          	sw	s1,100(sp)
   1ad54:	07112423          	sw	a7,104(sp)
   1ad58:	07a12623          	sw	s10,108(sp)
   1ad5c:	02712623          	sw	t2,44(sp)
   1ad60:	00068a13          	mv	s4,a3
   1ad64:	00080a93          	mv	s5,a6
   1ad68:	000e0c93          	mv	s9,t3
   1ad6c:	000e8413          	mv	s0,t4
   1ad70:	04c0006f          	j	1adbc <_svfprintf_r+0x2194>
   1ad74:	000c0593          	mv	a1,s8
   1ad78:	00090513          	mv	a0,s2
   1ad7c:	02f12223          	sw	a5,36(sp)
   1ad80:	02c12023          	sw	a2,32(sp)
   1ad84:	0ac12c23          	sw	a2,184(sp)
   1ad88:	0af12e23          	sw	a5,188(sp)
   1ad8c:	0a912823          	sw	s1,176(sp)
   1ad90:	0ba12a23          	sw	s10,180(sp)
   1ad94:	0a012023          	sw	zero,160(sp)
   1ad98:	0a012223          	sw	zero,164(sp)
   1ad9c:	0a012423          	sw	zero,168(sp)
   1ada0:	0a012623          	sw	zero,172(sp)
   1ada4:	535060ef          	jal	ra,21ad8 <__eqtf2>
   1ada8:	fffb8593          	addi	a1,s7,-1
   1adac:	000c8613          	mv	a2,s9
   1adb0:	00040793          	mv	a5,s0
   1adb4:	44050a63          	beqz	a0,1b208 <_svfprintf_r+0x25e0>
   1adb8:	00058b93          	mv	s7,a1
   1adbc:	05412d03          	lw	s10,84(sp)
   1adc0:	400307b7          	lui	a5,0x40030
   1adc4:	000c0593          	mv	a1,s8
   1adc8:	000d0613          	mv	a2,s10
   1adcc:	00090513          	mv	a0,s2
   1add0:	08f12e23          	sw	a5,156(sp)
   1add4:	0b412023          	sw	s4,160(sp)
   1add8:	0b512223          	sw	s5,164(sp)
   1addc:	0b912423          	sw	s9,168(sp)
   1ade0:	0a812623          	sw	s0,172(sp)
   1ade4:	08012823          	sw	zero,144(sp)
   1ade8:	08012a23          	sw	zero,148(sp)
   1adec:	08012c23          	sw	zero,152(sp)
   1adf0:	084070ef          	jal	ra,21e74 <__multf3>
   1adf4:	00090513          	mv	a0,s2
   1adf8:	19d090ef          	jal	ra,24794 <__fixtfsi>
   1adfc:	00050593          	mv	a1,a0
   1ae00:	00050d93          	mv	s11,a0
   1ae04:	00090513          	mv	a0,s2
   1ae08:	0b012a83          	lw	s5,176(sp)
   1ae0c:	0b412a03          	lw	s4,180(sp)
   1ae10:	0b812483          	lw	s1,184(sp)
   1ae14:	0bc12403          	lw	s0,188(sp)
   1ae18:	271090ef          	jal	ra,24888 <__floatsitf>
   1ae1c:	0b012783          	lw	a5,176(sp)
   1ae20:	05012603          	lw	a2,80(sp)
   1ae24:	000d0593          	mv	a1,s10
   1ae28:	08f12023          	sw	a5,128(sp)
   1ae2c:	0b412783          	lw	a5,180(sp)
   1ae30:	000c0513          	mv	a0,s8
   1ae34:	09512823          	sw	s5,144(sp)
   1ae38:	08f12223          	sw	a5,132(sp)
   1ae3c:	0b812783          	lw	a5,184(sp)
   1ae40:	09412a23          	sw	s4,148(sp)
   1ae44:	08912c23          	sw	s1,152(sp)
   1ae48:	08f12423          	sw	a5,136(sp)
   1ae4c:	0bc12783          	lw	a5,188(sp)
   1ae50:	08812e23          	sw	s0,156(sp)
   1ae54:	08f12623          	sw	a5,140(sp)
   1ae58:	448080ef          	jal	ra,232a0 <__subtf3>
   1ae5c:	02c12783          	lw	a5,44(sp)
   1ae60:	0a012483          	lw	s1,160(sp)
   1ae64:	0a412d03          	lw	s10,164(sp)
   1ae68:	01b787b3          	add	a5,a5,s11
   1ae6c:	0007c683          	lbu	a3,0(a5) # 40030000 <__BSS_END__+0x40009518>
   1ae70:	0a812603          	lw	a2,168(sp)
   1ae74:	0ac12783          	lw	a5,172(sp)
   1ae78:	05312e23          	sw	s3,92(sp)
   1ae7c:	00d98023          	sb	a3,0(s3)
   1ae80:	fff00713          	li	a4,-1
   1ae84:	00198993          	addi	s3,s3,1
   1ae88:	00048a13          	mv	s4,s1
   1ae8c:	000d0a93          	mv	s5,s10
   1ae90:	00060c93          	mv	s9,a2
   1ae94:	00078413          	mv	s0,a5
   1ae98:	eceb9ee3          	bne	s7,a4,1ad74 <_svfprintf_r+0x214c>
   1ae9c:	00098a93          	mv	s5,s3
   1aea0:	00048f93          	mv	t6,s1
   1aea4:	000d0f13          	mv	t5,s10
   1aea8:	06812883          	lw	a7,104(sp)
   1aeac:	07412403          	lw	s0,116(sp)
   1aeb0:	07012983          	lw	s3,112(sp)
   1aeb4:	02c12383          	lw	t2,44(sp)
   1aeb8:	07812a03          	lw	s4,120(sp)
   1aebc:	07c12c83          	lw	s9,124(sp)
   1aec0:	06412483          	lw	s1,100(sp)
   1aec4:	06c12d03          	lw	s10,108(sp)
   1aec8:	fff00693          	li	a3,-1
   1aecc:	3ffe0837          	lui	a6,0x3ffe0
   1aed0:	000c0593          	mv	a1,s8
   1aed4:	00090513          	mv	a0,s2
   1aed8:	02712223          	sw	t2,36(sp)
   1aedc:	03112023          	sw	a7,32(sp)
   1aee0:	06d12423          	sw	a3,104(sp)
   1aee4:	0bf12823          	sw	t6,176(sp)
   1aee8:	07f12223          	sw	t6,100(sp)
   1aeec:	0be12a23          	sw	t5,180(sp)
   1aef0:	05e12a23          	sw	t5,84(sp)
   1aef4:	0ac12c23          	sw	a2,184(sp)
   1aef8:	04c12823          	sw	a2,80(sp)
   1aefc:	0af12e23          	sw	a5,188(sp)
   1af00:	02f12623          	sw	a5,44(sp)
   1af04:	0a012023          	sw	zero,160(sp)
   1af08:	0a012223          	sw	zero,164(sp)
   1af0c:	0a012423          	sw	zero,168(sp)
   1af10:	0b012623          	sw	a6,172(sp)
   1af14:	499060ef          	jal	ra,21bac <__getf2>
   1af18:	02012883          	lw	a7,32(sp)
   1af1c:	02412383          	lw	t2,36(sp)
   1af20:	22a04a63          	bgtz	a0,1b154 <_svfprintf_r+0x252c>
   1af24:	000c0593          	mv	a1,s8
   1af28:	00090513          	mv	a0,s2
   1af2c:	3ad060ef          	jal	ra,21ad8 <__eqtf2>
   1af30:	02012883          	lw	a7,32(sp)
   1af34:	02412383          	lw	t2,36(sp)
   1af38:	06812683          	lw	a3,104(sp)
   1af3c:	00051663          	bnez	a0,1af48 <_svfprintf_r+0x2320>
   1af40:	001dfd93          	andi	s11,s11,1
   1af44:	200d9863          	bnez	s11,1b154 <_svfprintf_r+0x252c>
   1af48:	00168c13          	addi	s8,a3,1
   1af4c:	018a8c33          	add	s8,s5,s8
   1af50:	03000613          	li	a2,48
   1af54:	2406c463          	bltz	a3,1b19c <_svfprintf_r+0x2574>
   1af58:	001a8a93          	addi	s5,s5,1
   1af5c:	feca8fa3          	sb	a2,-1(s5)
   1af60:	ff5c1ce3          	bne	s8,s5,1af58 <_svfprintf_r+0x2330>
   1af64:	419c07b3          	sub	a5,s8,s9
   1af68:	02f12223          	sw	a5,36(sp)
   1af6c:	fdf8fa93          	andi	s5,a7,-33
   1af70:	8e9ff06f          	j	1a858 <_svfprintf_r+0x1c30>
   1af74:	0c714683          	lbu	a3,199(sp)
   1af78:	00000993          	li	s3,0
   1af7c:	00068463          	beqz	a3,1af84 <_svfprintf_r+0x235c>
   1af80:	8f8fe06f          	j	19078 <_svfprintf_r+0x450>
   1af84:	e85fd06f          	j	18e08 <_svfprintf_r+0x1e0>
   1af88:	02412783          	lw	a5,36(sp)
   1af8c:	12f74663          	blt	a4,a5,1b0b8 <_svfprintf_r+0x2490>
   1af90:	02812783          	lw	a5,40(sp)
   1af94:	00070913          	mv	s2,a4
   1af98:	0017f693          	andi	a3,a5,1
   1af9c:	00068663          	beqz	a3,1afa8 <_svfprintf_r+0x2380>
   1afa0:	03412783          	lw	a5,52(sp)
   1afa4:	00f70933          	add	s2,a4,a5
   1afa8:	02812783          	lw	a5,40(sp)
   1afac:	4007f693          	andi	a3,a5,1024
   1afb0:	00068463          	beqz	a3,1afb8 <_svfprintf_r+0x2390>
   1afb4:	3ae04663          	bgtz	a4,1b360 <_svfprintf_r+0x2738>
   1afb8:	fff94813          	not	a6,s2
   1afbc:	05812c03          	lw	s8,88(sp)
   1afc0:	41f85813          	srai	a6,a6,0x1f
   1afc4:	01097ab3          	and	s5,s2,a6
   1afc8:	06700893          	li	a7,103
   1afcc:	02012423          	sw	zero,40(sp)
   1afd0:	02012623          	sw	zero,44(sp)
   1afd4:	bb9ff06f          	j	1ab8c <_svfprintf_r+0x1f64>
   1afd8:	0e410613          	addi	a2,sp,228
   1afdc:	00048593          	mv	a1,s1
   1afe0:	000a0513          	mv	a0,s4
   1afe4:	390030ef          	jal	ra,1e374 <__ssprint_r>
   1afe8:	00050463          	beqz	a0,1aff0 <_svfprintf_r+0x23c8>
   1afec:	a15fe06f          	j	19a00 <_svfprintf_r+0xdd8>
   1aff0:	000c4703          	lbu	a4,0(s8)
   1aff4:	0ec12683          	lw	a3,236(sp)
   1aff8:	000b0613          	mv	a2,s6
   1affc:	00ed0d33          	add	s10,s10,a4
   1b000:	a44ff06f          	j	1a244 <_svfprintf_r+0x161c>
   1b004:	00900713          	li	a4,9
   1b008:	bdb76663          	bltu	a4,s11,1a3d4 <_svfprintf_r+0x17ac>
   1b00c:	c10ff06f          	j	1a41c <_svfprintf_r+0x17f4>
   1b010:	00812583          	lw	a1,8(sp)
   1b014:	0e410613          	addi	a2,sp,228
   1b018:	000a0513          	mv	a0,s4
   1b01c:	358030ef          	jal	ra,1e374 <__ssprint_r>
   1b020:	00050463          	beqz	a0,1b028 <_svfprintf_r+0x2400>
   1b024:	9ddfe06f          	j	19a00 <_svfprintf_r+0xdd8>
   1b028:	0cc12903          	lw	s2,204(sp)
   1b02c:	0ec12683          	lw	a3,236(sp)
   1b030:	000b0413          	mv	s0,s6
   1b034:	c89fe06f          	j	19cbc <_svfprintf_r+0x1094>
   1b038:	02d00793          	li	a5,45
   1b03c:	0cf103a3          	sb	a5,199(sp)
   1b040:	02d00693          	li	a3,45
   1b044:	d74ff06f          	j	1a5b8 <_svfprintf_r+0x1990>
   1b048:	0c714683          	lbu	a3,199(sp)
   1b04c:	01712c23          	sw	s7,24(sp)
   1b050:	02012423          	sw	zero,40(sp)
   1b054:	02012623          	sw	zero,44(sp)
   1b058:	02012023          	sw	zero,32(sp)
   1b05c:	00098a93          	mv	s5,s3
   1b060:	00098913          	mv	s2,s3
   1b064:	00000993          	li	s3,0
   1b068:	00068463          	beqz	a3,1b070 <_svfprintf_r+0x2448>
   1b06c:	80cfe06f          	j	19078 <_svfprintf_r+0x450>
   1b070:	d99fd06f          	j	18e08 <_svfprintf_r+0x1e0>
   1b074:	000257b7          	lui	a5,0x25
   1b078:	10878c93          	addi	s9,a5,264 # 25108 <__clzsi2+0xf8>
   1b07c:	d4cff06f          	j	1a5c8 <_svfprintf_r+0x19a0>
   1b080:	00812583          	lw	a1,8(sp)
   1b084:	0e410613          	addi	a2,sp,228
   1b088:	000a0513          	mv	a0,s4
   1b08c:	2e8030ef          	jal	ra,1e374 <__ssprint_r>
   1b090:	00050463          	beqz	a0,1b098 <_svfprintf_r+0x2470>
   1b094:	96dfe06f          	j	19a00 <_svfprintf_r+0xdd8>
   1b098:	0cc12903          	lw	s2,204(sp)
   1b09c:	02412783          	lw	a5,36(sp)
   1b0a0:	0ec12683          	lw	a3,236(sp)
   1b0a4:	000b0413          	mv	s0,s6
   1b0a8:	41278933          	sub	s2,a5,s2
   1b0ac:	c59fe06f          	j	19d04 <_svfprintf_r+0x10dc>
   1b0b0:	000c0693          	mv	a3,s8
   1b0b4:	f8dfd06f          	j	19040 <_svfprintf_r+0x418>
   1b0b8:	02412783          	lw	a5,36(sp)
   1b0bc:	03412703          	lw	a4,52(sp)
   1b0c0:	06700893          	li	a7,103
   1b0c4:	00e78933          	add	s2,a5,a4
   1b0c8:	02012783          	lw	a5,32(sp)
   1b0cc:	32f05063          	blez	a5,1b3ec <_svfprintf_r+0x27c4>
   1b0d0:	02812783          	lw	a5,40(sp)
   1b0d4:	4007f713          	andi	a4,a5,1024
   1b0d8:	28071663          	bnez	a4,1b364 <_svfprintf_r+0x273c>
   1b0dc:	fff94813          	not	a6,s2
   1b0e0:	41f85813          	srai	a6,a6,0x1f
   1b0e4:	05812c03          	lw	s8,88(sp)
   1b0e8:	01097ab3          	and	s5,s2,a6
   1b0ec:	ee1ff06f          	j	1afcc <_svfprintf_r+0x23a4>
   1b0f0:	02812783          	lw	a5,40(sp)
   1b0f4:	0017f713          	andi	a4,a5,1
   1b0f8:	02012783          	lw	a5,32(sp)
   1b0fc:	01376733          	or	a4,a4,s3
   1b100:	34f05663          	blez	a5,1b44c <_svfprintf_r+0x2824>
   1b104:	30071263          	bnez	a4,1b408 <_svfprintf_r+0x27e0>
   1b108:	02012903          	lw	s2,32(sp)
   1b10c:	06600893          	li	a7,102
   1b110:	fc1ff06f          	j	1b0d0 <_svfprintf_r+0x24a8>
   1b114:	00dc8bb3          	add	s7,s9,a3
   1b118:	04700a93          	li	s5,71
   1b11c:	0a010c13          	addi	s8,sp,160
   1b120:	ed4ff06f          	j	1a7f4 <_svfprintf_r+0x1bcc>
   1b124:	0d610713          	addi	a4,sp,214
   1b128:	00061863          	bnez	a2,1b138 <_svfprintf_r+0x2510>
   1b12c:	03000713          	li	a4,48
   1b130:	0ce10b23          	sb	a4,214(sp)
   1b134:	0d710713          	addi	a4,sp,215
   1b138:	1b010793          	addi	a5,sp,432
   1b13c:	40f706b3          	sub	a3,a4,a5
   1b140:	030d8d93          	addi	s11,s11,48
   1b144:	0dd68793          	addi	a5,a3,221
   1b148:	01b70023          	sb	s11,0(a4)
   1b14c:	04f12223          	sw	a5,68(sp)
   1b150:	9fdff06f          	j	1ab4c <_svfprintf_r+0x1f24>
   1b154:	05c12783          	lw	a5,92(sp)
   1b158:	00f3c583          	lbu	a1,15(t2)
   1b15c:	000a8693          	mv	a3,s5
   1b160:	0cf12e23          	sw	a5,220(sp)
   1b164:	fffac603          	lbu	a2,-1(s5)
   1b168:	02b61063          	bne	a2,a1,1b188 <_svfprintf_r+0x2560>
   1b16c:	03000513          	li	a0,48
   1b170:	fea68fa3          	sb	a0,-1(a3)
   1b174:	0dc12683          	lw	a3,220(sp)
   1b178:	fff68793          	addi	a5,a3,-1
   1b17c:	0cf12e23          	sw	a5,220(sp)
   1b180:	fff6c603          	lbu	a2,-1(a3)
   1b184:	fec586e3          	beq	a1,a2,1b170 <_svfprintf_r+0x2548>
   1b188:	00160593          	addi	a1,a2,1
   1b18c:	03900513          	li	a0,57
   1b190:	0ff5f593          	zext.b	a1,a1
   1b194:	00a60863          	beq	a2,a0,1b1a4 <_svfprintf_r+0x257c>
   1b198:	feb68fa3          	sb	a1,-1(a3)
   1b19c:	000a8c13          	mv	s8,s5
   1b1a0:	dc5ff06f          	j	1af64 <_svfprintf_r+0x233c>
   1b1a4:	00a3c583          	lbu	a1,10(t2)
   1b1a8:	feb68fa3          	sb	a1,-1(a3)
   1b1ac:	ff1ff06f          	j	1b19c <_svfprintf_r+0x2574>
   1b1b0:	012686b3          	add	a3,a3,s2
   1b1b4:	00160613          	addi	a2,a2,1
   1b1b8:	01742023          	sw	s7,0(s0)
   1b1bc:	01242223          	sw	s2,4(s0)
   1b1c0:	0ed12623          	sw	a3,236(sp)
   1b1c4:	0ec12423          	sw	a2,232(sp)
   1b1c8:	00700593          	li	a1,7
   1b1cc:	aec5de63          	bge	a1,a2,1a4c8 <_svfprintf_r+0x18a0>
   1b1d0:	00812583          	lw	a1,8(sp)
   1b1d4:	0e410613          	addi	a2,sp,228
   1b1d8:	000a0513          	mv	a0,s4
   1b1dc:	198030ef          	jal	ra,1e374 <__ssprint_r>
   1b1e0:	00050463          	beqz	a0,1b1e8 <_svfprintf_r+0x25c0>
   1b1e4:	81dfe06f          	j	19a00 <_svfprintf_r+0xdd8>
   1b1e8:	0ec12683          	lw	a3,236(sp)
   1b1ec:	0e812603          	lw	a2,232(sp)
   1b1f0:	000b0413          	mv	s0,s6
   1b1f4:	ad8ff06f          	j	1a4cc <_svfprintf_r+0x18a4>
   1b1f8:	00098463          	beqz	s3,1b200 <_svfprintf_r+0x25d8>
   1b1fc:	fd9fd06f          	j	191d4 <_svfprintf_r+0x5ac>
   1b200:	00100993          	li	s3,1
   1b204:	fd1fd06f          	j	191d4 <_svfprintf_r+0x5ac>
   1b208:	00098a93          	mv	s5,s3
   1b20c:	00048f93          	mv	t6,s1
   1b210:	000d0f13          	mv	t5,s10
   1b214:	06812883          	lw	a7,104(sp)
   1b218:	07412403          	lw	s0,116(sp)
   1b21c:	07012983          	lw	s3,112(sp)
   1b220:	02c12383          	lw	t2,44(sp)
   1b224:	07812a03          	lw	s4,120(sp)
   1b228:	07c12c83          	lw	s9,124(sp)
   1b22c:	06412483          	lw	s1,100(sp)
   1b230:	06c12d03          	lw	s10,108(sp)
   1b234:	000b8693          	mv	a3,s7
   1b238:	c95ff06f          	j	1aecc <_svfprintf_r+0x22a4>
   1b23c:	02812783          	lw	a5,40(sp)
   1b240:	0017f713          	andi	a4,a5,1
   1b244:	920702e3          	beqz	a4,1ab68 <_svfprintf_r+0x1f40>
   1b248:	919ff06f          	j	1ab60 <_svfprintf_r+0x1f38>
   1b24c:	03012703          	lw	a4,48(sp)
   1b250:	00c00793          	li	a5,12
   1b254:	00f72023          	sw	a5,0(a4)
   1b258:	fff00793          	li	a5,-1
   1b25c:	00f12823          	sw	a5,16(sp)
   1b260:	cf1fd06f          	j	18f50 <_svfprintf_r+0x328>
   1b264:	0b010913          	addi	s2,sp,176
   1b268:	00090513          	mv	a0,s2
   1b26c:	07112223          	sw	a7,100(sp)
   1b270:	0be12823          	sw	t5,176(sp)
   1b274:	0bd12a23          	sw	t4,180(sp)
   1b278:	0bc12c23          	sw	t3,184(sp)
   1b27c:	0bb12e23          	sw	s11,188(sp)
   1b280:	165090ef          	jal	ra,24be4 <__trunctfdf2>
   1b284:	0cc10613          	addi	a2,sp,204
   1b288:	c64fd0ef          	jal	ra,186ec <frexp>
   1b28c:	00058613          	mv	a2,a1
   1b290:	00050593          	mv	a1,a0
   1b294:	00090513          	mv	a0,s2
   1b298:	744090ef          	jal	ra,249dc <__extenddftf2>
   1b29c:	0b012703          	lw	a4,176(sp)
   1b2a0:	09010793          	addi	a5,sp,144
   1b2a4:	0a010c13          	addi	s8,sp,160
   1b2a8:	08e12823          	sw	a4,144(sp)
   1b2ac:	0b412703          	lw	a4,180(sp)
   1b2b0:	08010613          	addi	a2,sp,128
   1b2b4:	00078593          	mv	a1,a5
   1b2b8:	08e12a23          	sw	a4,148(sp)
   1b2bc:	0b812703          	lw	a4,184(sp)
   1b2c0:	000c0513          	mv	a0,s8
   1b2c4:	04f12a23          	sw	a5,84(sp)
   1b2c8:	08e12c23          	sw	a4,152(sp)
   1b2cc:	0bc12703          	lw	a4,188(sp)
   1b2d0:	04c12823          	sw	a2,80(sp)
   1b2d4:	08012023          	sw	zero,128(sp)
   1b2d8:	08e12e23          	sw	a4,156(sp)
   1b2dc:	3ffc0737          	lui	a4,0x3ffc0
   1b2e0:	08e12623          	sw	a4,140(sp)
   1b2e4:	08012223          	sw	zero,132(sp)
   1b2e8:	08012423          	sw	zero,136(sp)
   1b2ec:	389060ef          	jal	ra,21e74 <__multf3>
   1b2f0:	0a012683          	lw	a3,160(sp)
   1b2f4:	0a412803          	lw	a6,164(sp)
   1b2f8:	0a812e03          	lw	t3,168(sp)
   1b2fc:	0ac12e83          	lw	t4,172(sp)
   1b300:	000c0593          	mv	a1,s8
   1b304:	00090513          	mv	a0,s2
   1b308:	0ad12823          	sw	a3,176(sp)
   1b30c:	04d12e23          	sw	a3,92(sp)
   1b310:	0b012a23          	sw	a6,180(sp)
   1b314:	03012623          	sw	a6,44(sp)
   1b318:	0bc12c23          	sw	t3,184(sp)
   1b31c:	03c12223          	sw	t3,36(sp)
   1b320:	0bd12e23          	sw	t4,188(sp)
   1b324:	03d12023          	sw	t4,32(sp)
   1b328:	0a012023          	sw	zero,160(sp)
   1b32c:	0a012223          	sw	zero,164(sp)
   1b330:	0a012423          	sw	zero,168(sp)
   1b334:	0a012623          	sw	zero,172(sp)
   1b338:	7a0060ef          	jal	ra,21ad8 <__eqtf2>
   1b33c:	02012e83          	lw	t4,32(sp)
   1b340:	02412e03          	lw	t3,36(sp)
   1b344:	02c12803          	lw	a6,44(sp)
   1b348:	05c12683          	lw	a3,92(sp)
   1b34c:	06412883          	lw	a7,100(sp)
   1b350:	9c0508e3          	beqz	a0,1ad20 <_svfprintf_r+0x20f8>
   1b354:	00025737          	lui	a4,0x25
   1b358:	11070393          	addi	t2,a4,272 # 25110 <__clzsi2+0x100>
   1b35c:	9ddff06f          	j	1ad38 <_svfprintf_r+0x2110>
   1b360:	06700893          	li	a7,103
   1b364:	04012603          	lw	a2,64(sp)
   1b368:	0ff00693          	li	a3,255
   1b36c:	00064703          	lbu	a4,0(a2)
   1b370:	12d70263          	beq	a4,a3,1b494 <_svfprintf_r+0x286c>
   1b374:	02012783          	lw	a5,32(sp)
   1b378:	00000593          	li	a1,0
   1b37c:	00000513          	li	a0,0
   1b380:	00f75e63          	bge	a4,a5,1b39c <_svfprintf_r+0x2774>
   1b384:	40e787b3          	sub	a5,a5,a4
   1b388:	00164703          	lbu	a4,1(a2)
   1b38c:	04070a63          	beqz	a4,1b3e0 <_svfprintf_r+0x27b8>
   1b390:	00150513          	addi	a0,a0,1
   1b394:	00160613          	addi	a2,a2,1
   1b398:	fed714e3          	bne	a4,a3,1b380 <_svfprintf_r+0x2758>
   1b39c:	04c12023          	sw	a2,64(sp)
   1b3a0:	02b12423          	sw	a1,40(sp)
   1b3a4:	02f12023          	sw	a5,32(sp)
   1b3a8:	02a12623          	sw	a0,44(sp)
   1b3ac:	02812783          	lw	a5,40(sp)
   1b3b0:	02c12703          	lw	a4,44(sp)
   1b3b4:	04c12583          	lw	a1,76(sp)
   1b3b8:	05112823          	sw	a7,80(sp)
   1b3bc:	00e78533          	add	a0,a5,a4
   1b3c0:	379090ef          	jal	ra,24f38 <__mulsi3>
   1b3c4:	01250933          	add	s2,a0,s2
   1b3c8:	fff94813          	not	a6,s2
   1b3cc:	41f85813          	srai	a6,a6,0x1f
   1b3d0:	05812c03          	lw	s8,88(sp)
   1b3d4:	05012883          	lw	a7,80(sp)
   1b3d8:	01097ab3          	and	s5,s2,a6
   1b3dc:	fb0ff06f          	j	1ab8c <_svfprintf_r+0x1f64>
   1b3e0:	00064703          	lbu	a4,0(a2)
   1b3e4:	00158593          	addi	a1,a1,1
   1b3e8:	fb1ff06f          	j	1b398 <_svfprintf_r+0x2770>
   1b3ec:	40f90eb3          	sub	t4,s2,a5
   1b3f0:	001e8913          	addi	s2,t4,1
   1b3f4:	fff94813          	not	a6,s2
   1b3f8:	41f85813          	srai	a6,a6,0x1f
   1b3fc:	05812c03          	lw	s8,88(sp)
   1b400:	01097ab3          	and	s5,s2,a6
   1b404:	bc9ff06f          	j	1afcc <_svfprintf_r+0x23a4>
   1b408:	03412703          	lw	a4,52(sp)
   1b40c:	06600893          	li	a7,102
   1b410:	00e78eb3          	add	t4,a5,a4
   1b414:	013e8933          	add	s2,t4,s3
   1b418:	cb9ff06f          	j	1b0d0 <_svfprintf_r+0x24a8>
   1b41c:	07000693          	li	a3,112
   1b420:	00100613          	li	a2,1
   1b424:	e70ff06f          	j	1aa94 <_svfprintf_r+0x1e6c>
   1b428:	01812783          	lw	a5,24(sp)
   1b42c:	0007a983          	lw	s3,0(a5)
   1b430:	00478793          	addi	a5,a5,4
   1b434:	0009d463          	bgez	s3,1b43c <_svfprintf_r+0x2814>
   1b438:	fff00993          	li	s3,-1
   1b43c:	0014c883          	lbu	a7,1(s1)
   1b440:	00f12c23          	sw	a5,24(sp)
   1b444:	00070493          	mv	s1,a4
   1b448:	941fd06f          	j	18d88 <_svfprintf_r+0x160>
   1b44c:	00071c63          	bnez	a4,1b464 <_svfprintf_r+0x283c>
   1b450:	05812c03          	lw	s8,88(sp)
   1b454:	00100a93          	li	s5,1
   1b458:	06600893          	li	a7,102
   1b45c:	00100913          	li	s2,1
   1b460:	b6dff06f          	j	1afcc <_svfprintf_r+0x23a4>
   1b464:	03412783          	lw	a5,52(sp)
   1b468:	05812c03          	lw	s8,88(sp)
   1b46c:	06600893          	li	a7,102
   1b470:	00178e93          	addi	t4,a5,1
   1b474:	013e8933          	add	s2,t4,s3
   1b478:	fff94813          	not	a6,s2
   1b47c:	41f85813          	srai	a6,a6,0x1f
   1b480:	01097ab3          	and	s5,s2,a6
   1b484:	b49ff06f          	j	1afcc <_svfprintf_r+0x23a4>
   1b488:	00200793          	li	a5,2
   1b48c:	04f12223          	sw	a5,68(sp)
   1b490:	ebcff06f          	j	1ab4c <_svfprintf_r+0x1f24>
   1b494:	02012423          	sw	zero,40(sp)
   1b498:	02012623          	sw	zero,44(sp)
   1b49c:	f11ff06f          	j	1b3ac <_svfprintf_r+0x2784>
   1b4a0:	00812703          	lw	a4,8(sp)
   1b4a4:	00c75783          	lhu	a5,12(a4)
   1b4a8:	0407e793          	ori	a5,a5,64
   1b4ac:	00f71623          	sh	a5,12(a4)
   1b4b0:	a8dfd06f          	j	18f3c <_svfprintf_r+0x314>

0001b4b4 <__sprint_r.part.0>:
   1b4b4:	0645a703          	lw	a4,100(a1)
   1b4b8:	fd010113          	addi	sp,sp,-48
   1b4bc:	000027b7          	lui	a5,0x2
   1b4c0:	01612823          	sw	s6,16(sp)
   1b4c4:	02112623          	sw	ra,44(sp)
   1b4c8:	02812423          	sw	s0,40(sp)
   1b4cc:	02912223          	sw	s1,36(sp)
   1b4d0:	03212023          	sw	s2,32(sp)
   1b4d4:	01312e23          	sw	s3,28(sp)
   1b4d8:	01412c23          	sw	s4,24(sp)
   1b4dc:	01512a23          	sw	s5,20(sp)
   1b4e0:	01712623          	sw	s7,12(sp)
   1b4e4:	01812423          	sw	s8,8(sp)
   1b4e8:	00e7f7b3          	and	a5,a5,a4
   1b4ec:	00060b13          	mv	s6,a2
   1b4f0:	0a078863          	beqz	a5,1b5a0 <__sprint_r.part.0+0xec>
   1b4f4:	00862783          	lw	a5,8(a2)
   1b4f8:	00062b83          	lw	s7,0(a2)
   1b4fc:	00058913          	mv	s2,a1
   1b500:	00050993          	mv	s3,a0
   1b504:	fff00a93          	li	s5,-1
   1b508:	08078863          	beqz	a5,1b598 <__sprint_r.part.0+0xe4>
   1b50c:	004bac03          	lw	s8,4(s7)
   1b510:	000ba403          	lw	s0,0(s7)
   1b514:	002c5a13          	srli	s4,s8,0x2
   1b518:	060a0663          	beqz	s4,1b584 <__sprint_r.part.0+0xd0>
   1b51c:	00000493          	li	s1,0
   1b520:	00c0006f          	j	1b52c <__sprint_r.part.0+0x78>
   1b524:	00440413          	addi	s0,s0,4
   1b528:	049a0c63          	beq	s4,s1,1b580 <__sprint_r.part.0+0xcc>
   1b52c:	00042583          	lw	a1,0(s0)
   1b530:	00090613          	mv	a2,s2
   1b534:	00098513          	mv	a0,s3
   1b538:	2b5010ef          	jal	ra,1cfec <_fputwc_r>
   1b53c:	00148493          	addi	s1,s1,1
   1b540:	ff5512e3          	bne	a0,s5,1b524 <__sprint_r.part.0+0x70>
   1b544:	fff00513          	li	a0,-1
   1b548:	02c12083          	lw	ra,44(sp)
   1b54c:	02812403          	lw	s0,40(sp)
   1b550:	000b2423          	sw	zero,8(s6)
   1b554:	000b2223          	sw	zero,4(s6)
   1b558:	02412483          	lw	s1,36(sp)
   1b55c:	02012903          	lw	s2,32(sp)
   1b560:	01c12983          	lw	s3,28(sp)
   1b564:	01812a03          	lw	s4,24(sp)
   1b568:	01412a83          	lw	s5,20(sp)
   1b56c:	01012b03          	lw	s6,16(sp)
   1b570:	00c12b83          	lw	s7,12(sp)
   1b574:	00812c03          	lw	s8,8(sp)
   1b578:	03010113          	addi	sp,sp,48
   1b57c:	00008067          	ret
   1b580:	008b2783          	lw	a5,8(s6)
   1b584:	ffcc7c13          	andi	s8,s8,-4
   1b588:	418787b3          	sub	a5,a5,s8
   1b58c:	00fb2423          	sw	a5,8(s6)
   1b590:	008b8b93          	addi	s7,s7,8
   1b594:	f6079ce3          	bnez	a5,1b50c <__sprint_r.part.0+0x58>
   1b598:	00000513          	li	a0,0
   1b59c:	fadff06f          	j	1b548 <__sprint_r.part.0+0x94>
   1b5a0:	359010ef          	jal	ra,1d0f8 <__sfvwrite_r>
   1b5a4:	fa5ff06f          	j	1b548 <__sprint_r.part.0+0x94>

0001b5a8 <__sprint_r>:
   1b5a8:	00862703          	lw	a4,8(a2)
   1b5ac:	00070463          	beqz	a4,1b5b4 <__sprint_r+0xc>
   1b5b0:	f05ff06f          	j	1b4b4 <__sprint_r.part.0>
   1b5b4:	00062223          	sw	zero,4(a2)
   1b5b8:	00000513          	li	a0,0
   1b5bc:	00008067          	ret

0001b5c0 <_vfiprintf_r>:
   1b5c0:	ed010113          	addi	sp,sp,-304
   1b5c4:	13212023          	sw	s2,288(sp)
   1b5c8:	11312e23          	sw	s3,284(sp)
   1b5cc:	11412c23          	sw	s4,280(sp)
   1b5d0:	11812423          	sw	s8,264(sp)
   1b5d4:	12112623          	sw	ra,300(sp)
   1b5d8:	12812423          	sw	s0,296(sp)
   1b5dc:	12912223          	sw	s1,292(sp)
   1b5e0:	11512a23          	sw	s5,276(sp)
   1b5e4:	11612823          	sw	s6,272(sp)
   1b5e8:	11712623          	sw	s7,268(sp)
   1b5ec:	11912223          	sw	s9,260(sp)
   1b5f0:	11a12023          	sw	s10,256(sp)
   1b5f4:	0fb12e23          	sw	s11,252(sp)
   1b5f8:	00050a13          	mv	s4,a0
   1b5fc:	00058913          	mv	s2,a1
   1b600:	00060c13          	mv	s8,a2
   1b604:	00068993          	mv	s3,a3
   1b608:	00050663          	beqz	a0,1b614 <_vfiprintf_r+0x54>
   1b60c:	03852783          	lw	a5,56(a0)
   1b610:	54078663          	beqz	a5,1bb5c <_vfiprintf_r+0x59c>
   1b614:	00c91783          	lh	a5,12(s2)
   1b618:	01279713          	slli	a4,a5,0x12
   1b61c:	02074663          	bltz	a4,1b648 <_vfiprintf_r+0x88>
   1b620:	06492703          	lw	a4,100(s2)
   1b624:	000026b7          	lui	a3,0x2
   1b628:	00d7e7b3          	or	a5,a5,a3
   1b62c:	ffffe6b7          	lui	a3,0xffffe
   1b630:	01079793          	slli	a5,a5,0x10
   1b634:	fff68693          	addi	a3,a3,-1 # ffffdfff <__BSS_END__+0xfffd7517>
   1b638:	4107d793          	srai	a5,a5,0x10
   1b63c:	00d77733          	and	a4,a4,a3
   1b640:	00f91623          	sh	a5,12(s2)
   1b644:	06e92223          	sw	a4,100(s2)
   1b648:	0087f713          	andi	a4,a5,8
   1b64c:	12070663          	beqz	a4,1b778 <_vfiprintf_r+0x1b8>
   1b650:	01092703          	lw	a4,16(s2)
   1b654:	12070263          	beqz	a4,1b778 <_vfiprintf_r+0x1b8>
   1b658:	01a7f793          	andi	a5,a5,26
   1b65c:	00a00713          	li	a4,10
   1b660:	12e78e63          	beq	a5,a4,1b79c <_vfiprintf_r+0x1dc>
   1b664:	000267b7          	lui	a5,0x26
   1b668:	04c10493          	addi	s1,sp,76
   1b66c:	00000b13          	li	s6,0
   1b670:	9cc78793          	addi	a5,a5,-1588 # 259cc <blanks.1+0x10>
   1b674:	00026ab7          	lui	s5,0x26
   1b678:	04912023          	sw	s1,64(sp)
   1b67c:	04012423          	sw	zero,72(sp)
   1b680:	04012223          	sw	zero,68(sp)
   1b684:	00048713          	mv	a4,s1
   1b688:	00012423          	sw	zero,8(sp)
   1b68c:	00012e23          	sw	zero,28(sp)
   1b690:	02012023          	sw	zero,32(sp)
   1b694:	02012223          	sw	zero,36(sp)
   1b698:	00f12223          	sw	a5,4(sp)
   1b69c:	01000413          	li	s0,16
   1b6a0:	b38a8a93          	addi	s5,s5,-1224 # 25b38 <zeroes.0>
   1b6a4:	000b0c93          	mv	s9,s6
   1b6a8:	00098813          	mv	a6,s3
   1b6ac:	000c4783          	lbu	a5,0(s8)
   1b6b0:	36078463          	beqz	a5,1ba18 <_vfiprintf_r+0x458>
   1b6b4:	000c0b93          	mv	s7,s8
   1b6b8:	02500693          	li	a3,37
   1b6bc:	38d78e63          	beq	a5,a3,1ba58 <_vfiprintf_r+0x498>
   1b6c0:	001bc783          	lbu	a5,1(s7)
   1b6c4:	001b8b93          	addi	s7,s7,1
   1b6c8:	fe079ae3          	bnez	a5,1b6bc <_vfiprintf_r+0xfc>
   1b6cc:	418b89b3          	sub	s3,s7,s8
   1b6d0:	358b8463          	beq	s7,s8,1ba18 <_vfiprintf_r+0x458>
   1b6d4:	04812683          	lw	a3,72(sp)
   1b6d8:	04412783          	lw	a5,68(sp)
   1b6dc:	01872023          	sw	s8,0(a4)
   1b6e0:	00d986b3          	add	a3,s3,a3
   1b6e4:	00178793          	addi	a5,a5,1
   1b6e8:	01372223          	sw	s3,4(a4)
   1b6ec:	04d12423          	sw	a3,72(sp)
   1b6f0:	04f12223          	sw	a5,68(sp)
   1b6f4:	00700613          	li	a2,7
   1b6f8:	00870713          	addi	a4,a4,8
   1b6fc:	02f65463          	bge	a2,a5,1b724 <_vfiprintf_r+0x164>
   1b700:	5e068ae3          	beqz	a3,1c4f4 <_vfiprintf_r+0xf34>
   1b704:	04010613          	addi	a2,sp,64
   1b708:	00090593          	mv	a1,s2
   1b70c:	000a0513          	mv	a0,s4
   1b710:	01012623          	sw	a6,12(sp)
   1b714:	da1ff0ef          	jal	ra,1b4b4 <__sprint_r.part.0>
   1b718:	00c12803          	lw	a6,12(sp)
   1b71c:	0e051863          	bnez	a0,1b80c <_vfiprintf_r+0x24c>
   1b720:	00048713          	mv	a4,s1
   1b724:	000bc783          	lbu	a5,0(s7)
   1b728:	013c8cb3          	add	s9,s9,s3
   1b72c:	2e078663          	beqz	a5,1ba18 <_vfiprintf_r+0x458>
   1b730:	00000313          	li	t1,0
   1b734:	001bc783          	lbu	a5,1(s7)
   1b738:	001b8c13          	addi	s8,s7,1
   1b73c:	02010da3          	sb	zero,59(sp)
   1b740:	fff00d13          	li	s10,-1
   1b744:	00000b13          	li	s6,0
   1b748:	05a00993          	li	s3,90
   1b74c:	00030b93          	mv	s7,t1
   1b750:	00070d93          	mv	s11,a4
   1b754:	001c0c13          	addi	s8,s8,1
   1b758:	00078613          	mv	a2,a5
   1b75c:	fe060693          	addi	a3,a2,-32
   1b760:	12d9ea63          	bltu	s3,a3,1b894 <_vfiprintf_r+0x2d4>
   1b764:	00412783          	lw	a5,4(sp)
   1b768:	00269693          	slli	a3,a3,0x2
   1b76c:	00f686b3          	add	a3,a3,a5
   1b770:	0006a783          	lw	a5,0(a3)
   1b774:	00078067          	jr	a5
   1b778:	00090593          	mv	a1,s2
   1b77c:	000a0513          	mv	a0,s4
   1b780:	e40f70ef          	jal	ra,12dc0 <__swsetup_r>
   1b784:	00050463          	beqz	a0,1b78c <_vfiprintf_r+0x1cc>
   1b788:	1300106f          	j	1c8b8 <_vfiprintf_r+0x12f8>
   1b78c:	00c91783          	lh	a5,12(s2)
   1b790:	00a00713          	li	a4,10
   1b794:	01a7f793          	andi	a5,a5,26
   1b798:	ece796e3          	bne	a5,a4,1b664 <_vfiprintf_r+0xa4>
   1b79c:	00e91783          	lh	a5,14(s2)
   1b7a0:	ec07c2e3          	bltz	a5,1b664 <_vfiprintf_r+0xa4>
   1b7a4:	12812403          	lw	s0,296(sp)
   1b7a8:	12c12083          	lw	ra,300(sp)
   1b7ac:	12412483          	lw	s1,292(sp)
   1b7b0:	11412a83          	lw	s5,276(sp)
   1b7b4:	11012b03          	lw	s6,272(sp)
   1b7b8:	10c12b83          	lw	s7,268(sp)
   1b7bc:	10412c83          	lw	s9,260(sp)
   1b7c0:	10012d03          	lw	s10,256(sp)
   1b7c4:	0fc12d83          	lw	s11,252(sp)
   1b7c8:	00098693          	mv	a3,s3
   1b7cc:	000c0613          	mv	a2,s8
   1b7d0:	11c12983          	lw	s3,284(sp)
   1b7d4:	10812c03          	lw	s8,264(sp)
   1b7d8:	00090593          	mv	a1,s2
   1b7dc:	000a0513          	mv	a0,s4
   1b7e0:	12012903          	lw	s2,288(sp)
   1b7e4:	11812a03          	lw	s4,280(sp)
   1b7e8:	13010113          	addi	sp,sp,304
   1b7ec:	1180106f          	j	1c904 <__sbprintf>
   1b7f0:	04010613          	addi	a2,sp,64
   1b7f4:	00090593          	mv	a1,s2
   1b7f8:	000a0513          	mv	a0,s4
   1b7fc:	01012623          	sw	a6,12(sp)
   1b800:	cb5ff0ef          	jal	ra,1b4b4 <__sprint_r.part.0>
   1b804:	00c12803          	lw	a6,12(sp)
   1b808:	20050063          	beqz	a0,1ba08 <_vfiprintf_r+0x448>
   1b80c:	000c8b13          	mv	s6,s9
   1b810:	00c95783          	lhu	a5,12(s2)
   1b814:	0407f793          	andi	a5,a5,64
   1b818:	00078463          	beqz	a5,1b820 <_vfiprintf_r+0x260>
   1b81c:	09c0106f          	j	1c8b8 <_vfiprintf_r+0x12f8>
   1b820:	12c12083          	lw	ra,300(sp)
   1b824:	12812403          	lw	s0,296(sp)
   1b828:	12412483          	lw	s1,292(sp)
   1b82c:	12012903          	lw	s2,288(sp)
   1b830:	11c12983          	lw	s3,284(sp)
   1b834:	11812a03          	lw	s4,280(sp)
   1b838:	11412a83          	lw	s5,276(sp)
   1b83c:	10c12b83          	lw	s7,268(sp)
   1b840:	10812c03          	lw	s8,264(sp)
   1b844:	10412c83          	lw	s9,260(sp)
   1b848:	10012d03          	lw	s10,256(sp)
   1b84c:	0fc12d83          	lw	s11,252(sp)
   1b850:	000b0513          	mv	a0,s6
   1b854:	11012b03          	lw	s6,272(sp)
   1b858:	13010113          	addi	sp,sp,304
   1b85c:	00008067          	ret
   1b860:	00000b13          	li	s6,0
   1b864:	fd060793          	addi	a5,a2,-48
   1b868:	00900593          	li	a1,9
   1b86c:	000c4603          	lbu	a2,0(s8)
   1b870:	002b1693          	slli	a3,s6,0x2
   1b874:	01668b33          	add	s6,a3,s6
   1b878:	001b1b13          	slli	s6,s6,0x1
   1b87c:	01678b33          	add	s6,a5,s6
   1b880:	fd060793          	addi	a5,a2,-48
   1b884:	001c0c13          	addi	s8,s8,1
   1b888:	fef5f2e3          	bgeu	a1,a5,1b86c <_vfiprintf_r+0x2ac>
   1b88c:	fe060693          	addi	a3,a2,-32
   1b890:	ecd9fae3          	bgeu	s3,a3,1b764 <_vfiprintf_r+0x1a4>
   1b894:	000b8313          	mv	t1,s7
   1b898:	000d8713          	mv	a4,s11
   1b89c:	16060e63          	beqz	a2,1ba18 <_vfiprintf_r+0x458>
   1b8a0:	08c10623          	sb	a2,140(sp)
   1b8a4:	02010da3          	sb	zero,59(sp)
   1b8a8:	00100d93          	li	s11,1
   1b8ac:	00100e13          	li	t3,1
   1b8b0:	08c10b93          	addi	s7,sp,140
   1b8b4:	00000d13          	li	s10,0
   1b8b8:	00237f93          	andi	t6,t1,2
   1b8bc:	000f8463          	beqz	t6,1b8c4 <_vfiprintf_r+0x304>
   1b8c0:	002d8d93          	addi	s11,s11,2
   1b8c4:	04412683          	lw	a3,68(sp)
   1b8c8:	08437293          	andi	t0,t1,132
   1b8cc:	04812783          	lw	a5,72(sp)
   1b8d0:	00168613          	addi	a2,a3,1
   1b8d4:	00060593          	mv	a1,a2
   1b8d8:	00029663          	bnez	t0,1b8e4 <_vfiprintf_r+0x324>
   1b8dc:	41bb09b3          	sub	s3,s6,s11
   1b8e0:	2d3044e3          	bgtz	s3,1c3a8 <_vfiprintf_r+0xde8>
   1b8e4:	03b14603          	lbu	a2,59(sp)
   1b8e8:	02060a63          	beqz	a2,1b91c <_vfiprintf_r+0x35c>
   1b8ec:	03b10693          	addi	a3,sp,59
   1b8f0:	00178793          	addi	a5,a5,1
   1b8f4:	00d72023          	sw	a3,0(a4)
   1b8f8:	00100693          	li	a3,1
   1b8fc:	00d72223          	sw	a3,4(a4)
   1b900:	04f12423          	sw	a5,72(sp)
   1b904:	04b12223          	sw	a1,68(sp)
   1b908:	00700693          	li	a3,7
   1b90c:	1cb6c2e3          	blt	a3,a1,1c2d0 <_vfiprintf_r+0xd10>
   1b910:	00058693          	mv	a3,a1
   1b914:	00870713          	addi	a4,a4,8
   1b918:	00158593          	addi	a1,a1,1
   1b91c:	060f8863          	beqz	t6,1b98c <_vfiprintf_r+0x3cc>
   1b920:	03c10693          	addi	a3,sp,60
   1b924:	00278793          	addi	a5,a5,2
   1b928:	00d72023          	sw	a3,0(a4)
   1b92c:	00200693          	li	a3,2
   1b930:	00d72223          	sw	a3,4(a4)
   1b934:	04f12423          	sw	a5,72(sp)
   1b938:	04b12223          	sw	a1,68(sp)
   1b93c:	00700693          	li	a3,7
   1b940:	20b6d0e3          	bge	a3,a1,1c340 <_vfiprintf_r+0xd80>
   1b944:	440784e3          	beqz	a5,1c58c <_vfiprintf_r+0xfcc>
   1b948:	04010613          	addi	a2,sp,64
   1b94c:	00090593          	mv	a1,s2
   1b950:	000a0513          	mv	a0,s4
   1b954:	01012c23          	sw	a6,24(sp)
   1b958:	00612a23          	sw	t1,20(sp)
   1b95c:	01c12823          	sw	t3,16(sp)
   1b960:	00512623          	sw	t0,12(sp)
   1b964:	b51ff0ef          	jal	ra,1b4b4 <__sprint_r.part.0>
   1b968:	ea0512e3          	bnez	a0,1b80c <_vfiprintf_r+0x24c>
   1b96c:	04412683          	lw	a3,68(sp)
   1b970:	04812783          	lw	a5,72(sp)
   1b974:	01812803          	lw	a6,24(sp)
   1b978:	01412303          	lw	t1,20(sp)
   1b97c:	01012e03          	lw	t3,16(sp)
   1b980:	00c12283          	lw	t0,12(sp)
   1b984:	00048713          	mv	a4,s1
   1b988:	00168593          	addi	a1,a3,1
   1b98c:	08000613          	li	a2,128
   1b990:	72c28e63          	beq	t0,a2,1c0cc <_vfiprintf_r+0xb0c>
   1b994:	41cd0d33          	sub	s10,s10,t3
   1b998:	05a046e3          	bgtz	s10,1c1e4 <_vfiprintf_r+0xc24>
   1b99c:	00fe07b3          	add	a5,t3,a5
   1b9a0:	01772023          	sw	s7,0(a4)
   1b9a4:	01c72223          	sw	t3,4(a4)
   1b9a8:	04f12423          	sw	a5,72(sp)
   1b9ac:	04b12223          	sw	a1,68(sp)
   1b9b0:	00700693          	li	a3,7
   1b9b4:	70b6d063          	bge	a3,a1,1c0b4 <_vfiprintf_r+0xaf4>
   1b9b8:	0a078863          	beqz	a5,1ba68 <_vfiprintf_r+0x4a8>
   1b9bc:	04010613          	addi	a2,sp,64
   1b9c0:	00090593          	mv	a1,s2
   1b9c4:	000a0513          	mv	a0,s4
   1b9c8:	01012823          	sw	a6,16(sp)
   1b9cc:	00612623          	sw	t1,12(sp)
   1b9d0:	ae5ff0ef          	jal	ra,1b4b4 <__sprint_r.part.0>
   1b9d4:	e2051ce3          	bnez	a0,1b80c <_vfiprintf_r+0x24c>
   1b9d8:	04812783          	lw	a5,72(sp)
   1b9dc:	01012803          	lw	a6,16(sp)
   1b9e0:	00c12303          	lw	t1,12(sp)
   1b9e4:	00048713          	mv	a4,s1
   1b9e8:	00437313          	andi	t1,t1,4
   1b9ec:	00030663          	beqz	t1,1b9f8 <_vfiprintf_r+0x438>
   1b9f0:	41bb09b3          	sub	s3,s6,s11
   1b9f4:	09304663          	bgtz	s3,1ba80 <_vfiprintf_r+0x4c0>
   1b9f8:	01bb5463          	bge	s6,s11,1ba00 <_vfiprintf_r+0x440>
   1b9fc:	000d8b13          	mv	s6,s11
   1ba00:	016c8cb3          	add	s9,s9,s6
   1ba04:	de0796e3          	bnez	a5,1b7f0 <_vfiprintf_r+0x230>
   1ba08:	000c4783          	lbu	a5,0(s8)
   1ba0c:	04012223          	sw	zero,68(sp)
   1ba10:	00048713          	mv	a4,s1
   1ba14:	ca0790e3          	bnez	a5,1b6b4 <_vfiprintf_r+0xf4>
   1ba18:	04812783          	lw	a5,72(sp)
   1ba1c:	000c8b13          	mv	s6,s9
   1ba20:	de0788e3          	beqz	a5,1b810 <_vfiprintf_r+0x250>
   1ba24:	04010613          	addi	a2,sp,64
   1ba28:	00090593          	mv	a1,s2
   1ba2c:	000a0513          	mv	a0,s4
   1ba30:	a85ff0ef          	jal	ra,1b4b4 <__sprint_r.part.0>
   1ba34:	dddff06f          	j	1b810 <_vfiprintf_r+0x250>
   1ba38:	00082b03          	lw	s6,0(a6) # 3ffe0000 <__BSS_END__+0x3ffb9518>
   1ba3c:	00480813          	addi	a6,a6,4
   1ba40:	200b4063          	bltz	s6,1bc40 <_vfiprintf_r+0x680>
   1ba44:	000c4783          	lbu	a5,0(s8)
   1ba48:	d0dff06f          	j	1b754 <_vfiprintf_r+0x194>
   1ba4c:	000c4783          	lbu	a5,0(s8)
   1ba50:	020beb93          	ori	s7,s7,32
   1ba54:	d01ff06f          	j	1b754 <_vfiprintf_r+0x194>
   1ba58:	418b89b3          	sub	s3,s7,s8
   1ba5c:	c78b9ce3          	bne	s7,s8,1b6d4 <_vfiprintf_r+0x114>
   1ba60:	000bc783          	lbu	a5,0(s7)
   1ba64:	cc9ff06f          	j	1b72c <_vfiprintf_r+0x16c>
   1ba68:	04012223          	sw	zero,68(sp)
   1ba6c:	00437313          	andi	t1,t1,4
   1ba70:	220308e3          	beqz	t1,1c4a0 <_vfiprintf_r+0xee0>
   1ba74:	41bb09b3          	sub	s3,s6,s11
   1ba78:	233054e3          	blez	s3,1c4a0 <_vfiprintf_r+0xee0>
   1ba7c:	00048713          	mv	a4,s1
   1ba80:	01000693          	li	a3,16
   1ba84:	04412603          	lw	a2,68(sp)
   1ba88:	6336d0e3          	bge	a3,s3,1c8a8 <_vfiprintf_r+0x12e8>
   1ba8c:	00026eb7          	lui	t4,0x26
   1ba90:	b48e8e93          	addi	t4,t4,-1208 # 25b48 <blanks.1>
   1ba94:	01612623          	sw	s6,12(sp)
   1ba98:	01000b93          	li	s7,16
   1ba9c:	00700d13          	li	s10,7
   1baa0:	01012823          	sw	a6,16(sp)
   1baa4:	000e8b13          	mv	s6,t4
   1baa8:	0180006f          	j	1bac0 <_vfiprintf_r+0x500>
   1baac:	00260593          	addi	a1,a2,2
   1bab0:	00870713          	addi	a4,a4,8
   1bab4:	00068613          	mv	a2,a3
   1bab8:	ff098993          	addi	s3,s3,-16
   1babc:	053bd863          	bge	s7,s3,1bb0c <_vfiprintf_r+0x54c>
   1bac0:	01078793          	addi	a5,a5,16
   1bac4:	00160693          	addi	a3,a2,1
   1bac8:	01672023          	sw	s6,0(a4)
   1bacc:	01772223          	sw	s7,4(a4)
   1bad0:	04f12423          	sw	a5,72(sp)
   1bad4:	04d12223          	sw	a3,68(sp)
   1bad8:	fcdd5ae3          	bge	s10,a3,1baac <_vfiprintf_r+0x4ec>
   1badc:	5e078063          	beqz	a5,1c0bc <_vfiprintf_r+0xafc>
   1bae0:	04010613          	addi	a2,sp,64
   1bae4:	00090593          	mv	a1,s2
   1bae8:	000a0513          	mv	a0,s4
   1baec:	9c9ff0ef          	jal	ra,1b4b4 <__sprint_r.part.0>
   1baf0:	d0051ee3          	bnez	a0,1b80c <_vfiprintf_r+0x24c>
   1baf4:	04412603          	lw	a2,68(sp)
   1baf8:	ff098993          	addi	s3,s3,-16
   1bafc:	04812783          	lw	a5,72(sp)
   1bb00:	00048713          	mv	a4,s1
   1bb04:	00160593          	addi	a1,a2,1
   1bb08:	fb3bcce3          	blt	s7,s3,1bac0 <_vfiprintf_r+0x500>
   1bb0c:	000b0e93          	mv	t4,s6
   1bb10:	01012803          	lw	a6,16(sp)
   1bb14:	00c12b03          	lw	s6,12(sp)
   1bb18:	013787b3          	add	a5,a5,s3
   1bb1c:	01d72023          	sw	t4,0(a4)
   1bb20:	01372223          	sw	s3,4(a4)
   1bb24:	04f12423          	sw	a5,72(sp)
   1bb28:	04b12223          	sw	a1,68(sp)
   1bb2c:	00700713          	li	a4,7
   1bb30:	ecb754e3          	bge	a4,a1,1b9f8 <_vfiprintf_r+0x438>
   1bb34:	160786e3          	beqz	a5,1c4a0 <_vfiprintf_r+0xee0>
   1bb38:	04010613          	addi	a2,sp,64
   1bb3c:	00090593          	mv	a1,s2
   1bb40:	000a0513          	mv	a0,s4
   1bb44:	01012623          	sw	a6,12(sp)
   1bb48:	96dff0ef          	jal	ra,1b4b4 <__sprint_r.part.0>
   1bb4c:	cc0510e3          	bnez	a0,1b80c <_vfiprintf_r+0x24c>
   1bb50:	04812783          	lw	a5,72(sp)
   1bb54:	00c12803          	lw	a6,12(sp)
   1bb58:	ea1ff06f          	j	1b9f8 <_vfiprintf_r+0x438>
   1bb5c:	b55f70ef          	jal	ra,136b0 <__sinit>
   1bb60:	ab5ff06f          	j	1b614 <_vfiprintf_r+0x54>
   1bb64:	000b8313          	mv	t1,s7
   1bb68:	00082b83          	lw	s7,0(a6)
   1bb6c:	02010da3          	sb	zero,59(sp)
   1bb70:	000d8713          	mv	a4,s11
   1bb74:	00480993          	addi	s3,a6,4
   1bb78:	440b8ee3          	beqz	s7,1c7d4 <_vfiprintf_r+0x1214>
   1bb7c:	fff00793          	li	a5,-1
   1bb80:	01b12823          	sw	s11,16(sp)
   1bb84:	00612623          	sw	t1,12(sp)
   1bb88:	36fd06e3          	beq	s10,a5,1c6f4 <_vfiprintf_r+0x1134>
   1bb8c:	000d0613          	mv	a2,s10
   1bb90:	00000593          	li	a1,0
   1bb94:	000b8513          	mv	a0,s7
   1bb98:	fe4fb0ef          	jal	ra,1737c <memchr>
   1bb9c:	00c12303          	lw	t1,12(sp)
   1bba0:	01012703          	lw	a4,16(sp)
   1bba4:	4e0500e3          	beqz	a0,1c884 <_vfiprintf_r+0x12c4>
   1bba8:	41750e33          	sub	t3,a0,s7
   1bbac:	fffe4d93          	not	s11,t3
   1bbb0:	41fddd93          	srai	s11,s11,0x1f
   1bbb4:	01be7db3          	and	s11,t3,s11
   1bbb8:	00098813          	mv	a6,s3
   1bbbc:	00000d13          	li	s10,0
   1bbc0:	2b00006f          	j	1be70 <_vfiprintf_r+0x8b0>
   1bbc4:	00082783          	lw	a5,0(a6)
   1bbc8:	000b8313          	mv	t1,s7
   1bbcc:	000d8713          	mv	a4,s11
   1bbd0:	02010da3          	sb	zero,59(sp)
   1bbd4:	00480813          	addi	a6,a6,4
   1bbd8:	08f10623          	sb	a5,140(sp)
   1bbdc:	00100d93          	li	s11,1
   1bbe0:	00100e13          	li	t3,1
   1bbe4:	08c10b93          	addi	s7,sp,140
   1bbe8:	ccdff06f          	j	1b8b4 <_vfiprintf_r+0x2f4>
   1bbec:	000b8313          	mv	t1,s7
   1bbf0:	02037793          	andi	a5,t1,32
   1bbf4:	000d8713          	mv	a4,s11
   1bbf8:	1e078e63          	beqz	a5,1bdf4 <_vfiprintf_r+0x834>
   1bbfc:	00780813          	addi	a6,a6,7
   1bc00:	ff887813          	andi	a6,a6,-8
   1bc04:	00482683          	lw	a3,4(a6)
   1bc08:	00082983          	lw	s3,0(a6)
   1bc0c:	00880813          	addi	a6,a6,8
   1bc10:	00068d93          	mv	s11,a3
   1bc14:	2006c663          	bltz	a3,1be20 <_vfiprintf_r+0x860>
   1bc18:	fff00693          	li	a3,-1
   1bc1c:	22dd0463          	beq	s10,a3,1be44 <_vfiprintf_r+0x884>
   1bc20:	01b9e6b3          	or	a3,s3,s11
   1bc24:	f7f37313          	andi	t1,t1,-129
   1bc28:	20069e63          	bnez	a3,1be44 <_vfiprintf_r+0x884>
   1bc2c:	440d18e3          	bnez	s10,1c87c <_vfiprintf_r+0x12bc>
   1bc30:	00000d93          	li	s11,0
   1bc34:	00000e13          	li	t3,0
   1bc38:	0f010b93          	addi	s7,sp,240
   1bc3c:	2340006f          	j	1be70 <_vfiprintf_r+0x8b0>
   1bc40:	41600b33          	neg	s6,s6
   1bc44:	000c4783          	lbu	a5,0(s8)
   1bc48:	004beb93          	ori	s7,s7,4
   1bc4c:	b09ff06f          	j	1b754 <_vfiprintf_r+0x194>
   1bc50:	000d8713          	mv	a4,s11
   1bc54:	010be693          	ori	a3,s7,16
   1bc58:	0206f793          	andi	a5,a3,32
   1bc5c:	0a078ee3          	beqz	a5,1c518 <_vfiprintf_r+0xf58>
   1bc60:	00780813          	addi	a6,a6,7
   1bc64:	ff887813          	andi	a6,a6,-8
   1bc68:	00082783          	lw	a5,0(a6)
   1bc6c:	00482583          	lw	a1,4(a6)
   1bc70:	00880813          	addi	a6,a6,8
   1bc74:	02010da3          	sb	zero,59(sp)
   1bc78:	fff00613          	li	a2,-1
   1bc7c:	bff6f313          	andi	t1,a3,-1025
   1bc80:	0acd0e63          	beq	s10,a2,1bd3c <_vfiprintf_r+0x77c>
   1bc84:	00b7e633          	or	a2,a5,a1
   1bc88:	b7f6f693          	andi	a3,a3,-1153
   1bc8c:	300614e3          	bnez	a2,1c794 <_vfiprintf_r+0x11d4>
   1bc90:	00030e13          	mv	t3,t1
   1bc94:	00000793          	li	a5,0
   1bc98:	00068313          	mv	t1,a3
   1bc9c:	080d1463          	bnez	s10,1bd24 <_vfiprintf_r+0x764>
   1bca0:	f80798e3          	bnez	a5,1bc30 <_vfiprintf_r+0x670>
   1bca4:	001e7e13          	andi	t3,t3,1
   1bca8:	140e04e3          	beqz	t3,1c5f0 <_vfiprintf_r+0x1030>
   1bcac:	03000793          	li	a5,48
   1bcb0:	0ef107a3          	sb	a5,239(sp)
   1bcb4:	000e0d93          	mv	s11,t3
   1bcb8:	0ef10b93          	addi	s7,sp,239
   1bcbc:	1b40006f          	j	1be70 <_vfiprintf_r+0x8b0>
   1bcc0:	02b00693          	li	a3,43
   1bcc4:	000c4783          	lbu	a5,0(s8)
   1bcc8:	02d10da3          	sb	a3,59(sp)
   1bccc:	a89ff06f          	j	1b754 <_vfiprintf_r+0x194>
   1bcd0:	ffff86b7          	lui	a3,0xffff8
   1bcd4:	8306c693          	xori	a3,a3,-2000
   1bcd8:	02d11e23          	sh	a3,60(sp)
   1bcdc:	000256b7          	lui	a3,0x25
   1bce0:	11068693          	addi	a3,a3,272 # 25110 <__clzsi2+0x100>
   1bce4:	00082783          	lw	a5,0(a6)
   1bce8:	000d8713          	mv	a4,s11
   1bcec:	00000593          	li	a1,0
   1bcf0:	002be313          	ori	t1,s7,2
   1bcf4:	00480813          	addi	a6,a6,4
   1bcf8:	00d12423          	sw	a3,8(sp)
   1bcfc:	02010da3          	sb	zero,59(sp)
   1bd00:	fff00693          	li	a3,-1
   1bd04:	64dd0c63          	beq	s10,a3,1c35c <_vfiprintf_r+0xd9c>
   1bd08:	00b7e6b3          	or	a3,a5,a1
   1bd0c:	f7f37613          	andi	a2,t1,-129
   1bd10:	64069063          	bnez	a3,1c350 <_vfiprintf_r+0xd90>
   1bd14:	00030e13          	mv	t3,t1
   1bd18:	00200793          	li	a5,2
   1bd1c:	00060313          	mv	t1,a2
   1bd20:	f80d00e3          	beqz	s10,1bca0 <_vfiprintf_r+0x6e0>
   1bd24:	00100693          	li	a3,1
   1bd28:	34d78ae3          	beq	a5,a3,1c87c <_vfiprintf_r+0x12bc>
   1bd2c:	00200693          	li	a3,2
   1bd30:	2cd782e3          	beq	a5,a3,1c7f4 <_vfiprintf_r+0x1234>
   1bd34:	00000793          	li	a5,0
   1bd38:	00000593          	li	a1,0
   1bd3c:	0f010b93          	addi	s7,sp,240
   1bd40:	01d59613          	slli	a2,a1,0x1d
   1bd44:	0077f693          	andi	a3,a5,7
   1bd48:	0037d793          	srli	a5,a5,0x3
   1bd4c:	03068693          	addi	a3,a3,48
   1bd50:	00f667b3          	or	a5,a2,a5
   1bd54:	0035d593          	srli	a1,a1,0x3
   1bd58:	fedb8fa3          	sb	a3,-1(s7)
   1bd5c:	00b7e633          	or	a2,a5,a1
   1bd60:	000b8513          	mv	a0,s7
   1bd64:	fffb8b93          	addi	s7,s7,-1
   1bd68:	fc061ce3          	bnez	a2,1bd40 <_vfiprintf_r+0x780>
   1bd6c:	00137793          	andi	a5,t1,1
   1bd70:	62078063          	beqz	a5,1c390 <_vfiprintf_r+0xdd0>
   1bd74:	03000793          	li	a5,48
   1bd78:	60f68c63          	beq	a3,a5,1c390 <_vfiprintf_r+0xdd0>
   1bd7c:	ffe50513          	addi	a0,a0,-2
   1bd80:	0f010693          	addi	a3,sp,240
   1bd84:	40a68e33          	sub	t3,a3,a0
   1bd88:	fefb8fa3          	sb	a5,-1(s7)
   1bd8c:	000e0d93          	mv	s11,t3
   1bd90:	0bae42e3          	blt	t3,s10,1c634 <_vfiprintf_r+0x1074>
   1bd94:	00050b93          	mv	s7,a0
   1bd98:	0d80006f          	j	1be70 <_vfiprintf_r+0x8b0>
   1bd9c:	020bf793          	andi	a5,s7,32
   1bda0:	000d8713          	mv	a4,s11
   1bda4:	060794e3          	bnez	a5,1c60c <_vfiprintf_r+0x104c>
   1bda8:	010bf793          	andi	a5,s7,16
   1bdac:	20079ce3          	bnez	a5,1c7c4 <_vfiprintf_r+0x1204>
   1bdb0:	040bf793          	andi	a5,s7,64
   1bdb4:	2a079ce3          	bnez	a5,1c86c <_vfiprintf_r+0x12ac>
   1bdb8:	200bf313          	andi	t1,s7,512
   1bdbc:	200304e3          	beqz	t1,1c7c4 <_vfiprintf_r+0x1204>
   1bdc0:	00082783          	lw	a5,0(a6)
   1bdc4:	00480813          	addi	a6,a6,4
   1bdc8:	01978023          	sb	s9,0(a5)
   1bdcc:	8e1ff06f          	j	1b6ac <_vfiprintf_r+0xec>
   1bdd0:	000c4783          	lbu	a5,0(s8)
   1bdd4:	06c00693          	li	a3,108
   1bdd8:	1cd78ee3          	beq	a5,a3,1c7b4 <_vfiprintf_r+0x11f4>
   1bddc:	010beb93          	ori	s7,s7,16
   1bde0:	975ff06f          	j	1b754 <_vfiprintf_r+0x194>
   1bde4:	010be313          	ori	t1,s7,16
   1bde8:	02037793          	andi	a5,t1,32
   1bdec:	000d8713          	mv	a4,s11
   1bdf0:	e00796e3          	bnez	a5,1bbfc <_vfiprintf_r+0x63c>
   1bdf4:	01037693          	andi	a3,t1,16
   1bdf8:	00082783          	lw	a5,0(a6)
   1bdfc:	00480813          	addi	a6,a6,4
   1be00:	70069463          	bnez	a3,1c508 <_vfiprintf_r+0xf48>
   1be04:	04037693          	andi	a3,t1,64
   1be08:	6e068c63          	beqz	a3,1c500 <_vfiprintf_r+0xf40>
   1be0c:	01079993          	slli	s3,a5,0x10
   1be10:	4109d993          	srai	s3,s3,0x10
   1be14:	41f9dd93          	srai	s11,s3,0x1f
   1be18:	000d8693          	mv	a3,s11
   1be1c:	de06dee3          	bgez	a3,1bc18 <_vfiprintf_r+0x658>
   1be20:	02d00613          	li	a2,45
   1be24:	013036b3          	snez	a3,s3
   1be28:	41b00eb3          	neg	t4,s11
   1be2c:	02c10da3          	sb	a2,59(sp)
   1be30:	fff00613          	li	a2,-1
   1be34:	40de8db3          	sub	s11,t4,a3
   1be38:	413009b3          	neg	s3,s3
   1be3c:	00cd0463          	beq	s10,a2,1be44 <_vfiprintf_r+0x884>
   1be40:	f7f37313          	andi	t1,t1,-129
   1be44:	080d9c63          	bnez	s11,1bedc <_vfiprintf_r+0x91c>
   1be48:	00900693          	li	a3,9
   1be4c:	0936e863          	bltu	a3,s3,1bedc <_vfiprintf_r+0x91c>
   1be50:	03098793          	addi	a5,s3,48
   1be54:	0ff7f793          	zext.b	a5,a5
   1be58:	0ef107a3          	sb	a5,239(sp)
   1be5c:	000d0d93          	mv	s11,s10
   1be60:	01a04463          	bgtz	s10,1be68 <_vfiprintf_r+0x8a8>
   1be64:	00100d93          	li	s11,1
   1be68:	00100e13          	li	t3,1
   1be6c:	0ef10b93          	addi	s7,sp,239
   1be70:	03b14783          	lbu	a5,59(sp)
   1be74:	00f037b3          	snez	a5,a5
   1be78:	00fd8db3          	add	s11,s11,a5
   1be7c:	a3dff06f          	j	1b8b8 <_vfiprintf_r+0x2f8>
   1be80:	000c4783          	lbu	a5,0(s8)
   1be84:	06800693          	li	a3,104
   1be88:	10d78ee3          	beq	a5,a3,1c7a4 <_vfiprintf_r+0x11e4>
   1be8c:	040beb93          	ori	s7,s7,64
   1be90:	8c5ff06f          	j	1b754 <_vfiprintf_r+0x194>
   1be94:	000d8713          	mv	a4,s11
   1be98:	010bee13          	ori	t3,s7,16
   1be9c:	020e7793          	andi	a5,t3,32
   1bea0:	6a078863          	beqz	a5,1c550 <_vfiprintf_r+0xf90>
   1bea4:	00780813          	addi	a6,a6,7
   1bea8:	ff887813          	andi	a6,a6,-8
   1beac:	00082983          	lw	s3,0(a6)
   1beb0:	00482d83          	lw	s11,4(a6)
   1beb4:	00880813          	addi	a6,a6,8
   1beb8:	02010da3          	sb	zero,59(sp)
   1bebc:	fff00693          	li	a3,-1
   1bec0:	000e0313          	mv	t1,t3
   1bec4:	f8dd00e3          	beq	s10,a3,1be44 <_vfiprintf_r+0x884>
   1bec8:	01b9e6b3          	or	a3,s3,s11
   1becc:	f7fe7313          	andi	t1,t3,-129
   1bed0:	00100793          	li	a5,1
   1bed4:	dc0684e3          	beqz	a3,1bc9c <_vfiprintf_r+0x6dc>
   1bed8:	f60d88e3          	beqz	s11,1be48 <_vfiprintf_r+0x888>
   1bedc:	0f010b93          	addi	s7,sp,240
   1bee0:	40037793          	andi	a5,t1,1024
   1bee4:	00000693          	li	a3,0
   1bee8:	01612823          	sw	s6,16(sp)
   1beec:	01a12a23          	sw	s10,20(sp)
   1bef0:	03412423          	sw	s4,40(sp)
   1bef4:	00612623          	sw	t1,12(sp)
   1bef8:	000b8a13          	mv	s4,s7
   1befc:	00e12c23          	sw	a4,24(sp)
   1bf00:	000c0b93          	mv	s7,s8
   1bf04:	00078d13          	mv	s10,a5
   1bf08:	00090c13          	mv	s8,s2
   1bf0c:	00068b13          	mv	s6,a3
   1bf10:	01c12903          	lw	s2,28(sp)
   1bf14:	03012623          	sw	a6,44(sp)
   1bf18:	0240006f          	j	1bf3c <_vfiprintf_r+0x97c>
   1bf1c:	00a00613          	li	a2,10
   1bf20:	00000693          	li	a3,0
   1bf24:	00098513          	mv	a0,s3
   1bf28:	000d8593          	mv	a1,s11
   1bf2c:	290040ef          	jal	ra,201bc <__udivdi3>
   1bf30:	0e0d80e3          	beqz	s11,1c810 <_vfiprintf_r+0x1250>
   1bf34:	00050993          	mv	s3,a0
   1bf38:	00058d93          	mv	s11,a1
   1bf3c:	00a00613          	li	a2,10
   1bf40:	00000693          	li	a3,0
   1bf44:	00098513          	mv	a0,s3
   1bf48:	000d8593          	mv	a1,s11
   1bf4c:	035040ef          	jal	ra,20780 <__umoddi3>
   1bf50:	03050513          	addi	a0,a0,48
   1bf54:	feaa0fa3          	sb	a0,-1(s4)
   1bf58:	001b0b13          	addi	s6,s6,1
   1bf5c:	fffa0a13          	addi	s4,s4,-1
   1bf60:	fa0d0ee3          	beqz	s10,1bf1c <_vfiprintf_r+0x95c>
   1bf64:	00094703          	lbu	a4,0(s2)
   1bf68:	fb671ae3          	bne	a4,s6,1bf1c <_vfiprintf_r+0x95c>
   1bf6c:	0ff00793          	li	a5,255
   1bf70:	fafb06e3          	beq	s6,a5,1bf1c <_vfiprintf_r+0x95c>
   1bf74:	7c0d9863          	bnez	s11,1c744 <_vfiprintf_r+0x1184>
   1bf78:	00900713          	li	a4,9
   1bf7c:	7d376463          	bltu	a4,s3,1c744 <_vfiprintf_r+0x1184>
   1bf80:	01412d03          	lw	s10,20(sp)
   1bf84:	01212e23          	sw	s2,28(sp)
   1bf88:	0f010793          	addi	a5,sp,240
   1bf8c:	000c0913          	mv	s2,s8
   1bf90:	000b8c13          	mv	s8,s7
   1bf94:	000a0b93          	mv	s7,s4
   1bf98:	41778e33          	sub	t3,a5,s7
   1bf9c:	00c12303          	lw	t1,12(sp)
   1bfa0:	01012b03          	lw	s6,16(sp)
   1bfa4:	01812703          	lw	a4,24(sp)
   1bfa8:	02812a03          	lw	s4,40(sp)
   1bfac:	02c12803          	lw	a6,44(sp)
   1bfb0:	000e0d93          	mv	s11,t3
   1bfb4:	ebae5ee3          	bge	t3,s10,1be70 <_vfiprintf_r+0x8b0>
   1bfb8:	000d0d93          	mv	s11,s10
   1bfbc:	eb5ff06f          	j	1be70 <_vfiprintf_r+0x8b0>
   1bfc0:	000a0513          	mv	a0,s4
   1bfc4:	01012623          	sw	a6,12(sp)
   1bfc8:	9c9fa0ef          	jal	ra,16990 <_localeconv_r>
   1bfcc:	00452783          	lw	a5,4(a0)
   1bfd0:	00078513          	mv	a0,a5
   1bfd4:	02f12223          	sw	a5,36(sp)
   1bfd8:	b19fc0ef          	jal	ra,18af0 <strlen>
   1bfdc:	00050793          	mv	a5,a0
   1bfe0:	000a0513          	mv	a0,s4
   1bfe4:	02f12023          	sw	a5,32(sp)
   1bfe8:	9a9fa0ef          	jal	ra,16990 <_localeconv_r>
   1bfec:	00852703          	lw	a4,8(a0)
   1bff0:	02012783          	lw	a5,32(sp)
   1bff4:	00c12803          	lw	a6,12(sp)
   1bff8:	00e12e23          	sw	a4,28(sp)
   1bffc:	a40784e3          	beqz	a5,1ba44 <_vfiprintf_r+0x484>
   1c000:	01c12703          	lw	a4,28(sp)
   1c004:	000c4783          	lbu	a5,0(s8)
   1c008:	f4070663          	beqz	a4,1b754 <_vfiprintf_r+0x194>
   1c00c:	00074683          	lbu	a3,0(a4)
   1c010:	f4068263          	beqz	a3,1b754 <_vfiprintf_r+0x194>
   1c014:	400beb93          	ori	s7,s7,1024
   1c018:	f3cff06f          	j	1b754 <_vfiprintf_r+0x194>
   1c01c:	000c4783          	lbu	a5,0(s8)
   1c020:	080beb93          	ori	s7,s7,128
   1c024:	f30ff06f          	j	1b754 <_vfiprintf_r+0x194>
   1c028:	000c4603          	lbu	a2,0(s8)
   1c02c:	02a00793          	li	a5,42
   1c030:	001c0693          	addi	a3,s8,1
   1c034:	08f60ee3          	beq	a2,a5,1c8d0 <_vfiprintf_r+0x1310>
   1c038:	fd060793          	addi	a5,a2,-48
   1c03c:	00900513          	li	a0,9
   1c040:	00068c13          	mv	s8,a3
   1c044:	00000d13          	li	s10,0
   1c048:	00900593          	li	a1,9
   1c04c:	f0f56863          	bltu	a0,a5,1b75c <_vfiprintf_r+0x19c>
   1c050:	000c4603          	lbu	a2,0(s8)
   1c054:	002d1693          	slli	a3,s10,0x2
   1c058:	01a68d33          	add	s10,a3,s10
   1c05c:	001d1d13          	slli	s10,s10,0x1
   1c060:	00fd0d33          	add	s10,s10,a5
   1c064:	fd060793          	addi	a5,a2,-48
   1c068:	001c0c13          	addi	s8,s8,1
   1c06c:	fef5f2e3          	bgeu	a1,a5,1c050 <_vfiprintf_r+0xa90>
   1c070:	eecff06f          	j	1b75c <_vfiprintf_r+0x19c>
   1c074:	000c4783          	lbu	a5,0(s8)
   1c078:	001beb93          	ori	s7,s7,1
   1c07c:	ed8ff06f          	j	1b754 <_vfiprintf_r+0x194>
   1c080:	03b14683          	lbu	a3,59(sp)
   1c084:	000c4783          	lbu	a5,0(s8)
   1c088:	ec069663          	bnez	a3,1b754 <_vfiprintf_r+0x194>
   1c08c:	02000693          	li	a3,32
   1c090:	02d10da3          	sb	a3,59(sp)
   1c094:	ec0ff06f          	j	1b754 <_vfiprintf_r+0x194>
   1c098:	00100713          	li	a4,1
   1c09c:	04e12223          	sw	a4,68(sp)
   1c0a0:	000e0793          	mv	a5,t3
   1c0a4:	05712623          	sw	s7,76(sp)
   1c0a8:	05c12823          	sw	t3,80(sp)
   1c0ac:	05c12423          	sw	t3,72(sp)
   1c0b0:	00048713          	mv	a4,s1
   1c0b4:	00870713          	addi	a4,a4,8
   1c0b8:	931ff06f          	j	1b9e8 <_vfiprintf_r+0x428>
   1c0bc:	00100593          	li	a1,1
   1c0c0:	00000613          	li	a2,0
   1c0c4:	00048713          	mv	a4,s1
   1c0c8:	9f1ff06f          	j	1bab8 <_vfiprintf_r+0x4f8>
   1c0cc:	41bb09b3          	sub	s3,s6,s11
   1c0d0:	8d3052e3          	blez	s3,1b994 <_vfiprintf_r+0x3d4>
   1c0d4:	01000613          	li	a2,16
   1c0d8:	7f365463          	bge	a2,s3,1c8c0 <_vfiprintf_r+0x1300>
   1c0dc:	00026eb7          	lui	t4,0x26
   1c0e0:	b38e8e93          	addi	t4,t4,-1224 # 25b38 <zeroes.0>
   1c0e4:	01612a23          	sw	s6,20(sp)
   1c0e8:	01000f13          	li	t5,16
   1c0ec:	00700f93          	li	t6,7
   1c0f0:	01c12623          	sw	t3,12(sp)
   1c0f4:	00612823          	sw	t1,16(sp)
   1c0f8:	01012c23          	sw	a6,24(sp)
   1c0fc:	000e8b13          	mv	s6,t4
   1c100:	0180006f          	j	1c118 <_vfiprintf_r+0xb58>
   1c104:	00268513          	addi	a0,a3,2
   1c108:	00870713          	addi	a4,a4,8
   1c10c:	00060693          	mv	a3,a2
   1c110:	ff098993          	addi	s3,s3,-16
   1c114:	053f5c63          	bge	t5,s3,1c16c <_vfiprintf_r+0xbac>
   1c118:	01078793          	addi	a5,a5,16
   1c11c:	00168613          	addi	a2,a3,1
   1c120:	01672023          	sw	s6,0(a4)
   1c124:	01e72223          	sw	t5,4(a4)
   1c128:	04f12423          	sw	a5,72(sp)
   1c12c:	04c12223          	sw	a2,68(sp)
   1c130:	fccfdae3          	bge	t6,a2,1c104 <_vfiprintf_r+0xb44>
   1c134:	18078663          	beqz	a5,1c2c0 <_vfiprintf_r+0xd00>
   1c138:	04010613          	addi	a2,sp,64
   1c13c:	00090593          	mv	a1,s2
   1c140:	000a0513          	mv	a0,s4
   1c144:	b70ff0ef          	jal	ra,1b4b4 <__sprint_r.part.0>
   1c148:	ec051263          	bnez	a0,1b80c <_vfiprintf_r+0x24c>
   1c14c:	04412683          	lw	a3,68(sp)
   1c150:	01000f13          	li	t5,16
   1c154:	ff098993          	addi	s3,s3,-16
   1c158:	04812783          	lw	a5,72(sp)
   1c15c:	00048713          	mv	a4,s1
   1c160:	00168513          	addi	a0,a3,1
   1c164:	00700f93          	li	t6,7
   1c168:	fb3f48e3          	blt	t5,s3,1c118 <_vfiprintf_r+0xb58>
   1c16c:	000b0e93          	mv	t4,s6
   1c170:	00c12e03          	lw	t3,12(sp)
   1c174:	01012303          	lw	t1,16(sp)
   1c178:	01812803          	lw	a6,24(sp)
   1c17c:	01412b03          	lw	s6,20(sp)
   1c180:	013787b3          	add	a5,a5,s3
   1c184:	01d72023          	sw	t4,0(a4)
   1c188:	01372223          	sw	s3,4(a4)
   1c18c:	04f12423          	sw	a5,72(sp)
   1c190:	04a12223          	sw	a0,68(sp)
   1c194:	00700693          	li	a3,7
   1c198:	46a6d263          	bge	a3,a0,1c5fc <_vfiprintf_r+0x103c>
   1c19c:	66078263          	beqz	a5,1c800 <_vfiprintf_r+0x1240>
   1c1a0:	04010613          	addi	a2,sp,64
   1c1a4:	00090593          	mv	a1,s2
   1c1a8:	000a0513          	mv	a0,s4
   1c1ac:	01012a23          	sw	a6,20(sp)
   1c1b0:	00612823          	sw	t1,16(sp)
   1c1b4:	01c12623          	sw	t3,12(sp)
   1c1b8:	afcff0ef          	jal	ra,1b4b4 <__sprint_r.part.0>
   1c1bc:	e4051863          	bnez	a0,1b80c <_vfiprintf_r+0x24c>
   1c1c0:	00c12e03          	lw	t3,12(sp)
   1c1c4:	04412683          	lw	a3,68(sp)
   1c1c8:	04812783          	lw	a5,72(sp)
   1c1cc:	41cd0d33          	sub	s10,s10,t3
   1c1d0:	01412803          	lw	a6,20(sp)
   1c1d4:	01012303          	lw	t1,16(sp)
   1c1d8:	00048713          	mv	a4,s1
   1c1dc:	00168593          	addi	a1,a3,1
   1c1e0:	fba05e63          	blez	s10,1b99c <_vfiprintf_r+0x3dc>
   1c1e4:	00026eb7          	lui	t4,0x26
   1c1e8:	b38e8e93          	addi	t4,t4,-1224 # 25b38 <zeroes.0>
   1c1ec:	09a45e63          	bge	s0,s10,1c288 <_vfiprintf_r+0xcc8>
   1c1f0:	01612a23          	sw	s6,20(sp)
   1c1f4:	00700993          	li	s3,7
   1c1f8:	000d0b13          	mv	s6,s10
   1c1fc:	01c12623          	sw	t3,12(sp)
   1c200:	00612823          	sw	t1,16(sp)
   1c204:	01012c23          	sw	a6,24(sp)
   1c208:	000a8d13          	mv	s10,s5
   1c20c:	0180006f          	j	1c224 <_vfiprintf_r+0xc64>
   1c210:	00268593          	addi	a1,a3,2
   1c214:	00870713          	addi	a4,a4,8
   1c218:	00060693          	mv	a3,a2
   1c21c:	ff0b0b13          	addi	s6,s6,-16
   1c220:	05645863          	bge	s0,s6,1c270 <_vfiprintf_r+0xcb0>
   1c224:	01078793          	addi	a5,a5,16
   1c228:	00168613          	addi	a2,a3,1
   1c22c:	01572023          	sw	s5,0(a4)
   1c230:	00872223          	sw	s0,4(a4)
   1c234:	04f12423          	sw	a5,72(sp)
   1c238:	04c12223          	sw	a2,68(sp)
   1c23c:	fcc9dae3          	bge	s3,a2,1c210 <_vfiprintf_r+0xc50>
   1c240:	06078863          	beqz	a5,1c2b0 <_vfiprintf_r+0xcf0>
   1c244:	04010613          	addi	a2,sp,64
   1c248:	00090593          	mv	a1,s2
   1c24c:	000a0513          	mv	a0,s4
   1c250:	a64ff0ef          	jal	ra,1b4b4 <__sprint_r.part.0>
   1c254:	da051c63          	bnez	a0,1b80c <_vfiprintf_r+0x24c>
   1c258:	04412683          	lw	a3,68(sp)
   1c25c:	ff0b0b13          	addi	s6,s6,-16
   1c260:	04812783          	lw	a5,72(sp)
   1c264:	00048713          	mv	a4,s1
   1c268:	00168593          	addi	a1,a3,1
   1c26c:	fb644ce3          	blt	s0,s6,1c224 <_vfiprintf_r+0xc64>
   1c270:	000d0e93          	mv	t4,s10
   1c274:	00c12e03          	lw	t3,12(sp)
   1c278:	000b0d13          	mv	s10,s6
   1c27c:	01012303          	lw	t1,16(sp)
   1c280:	01812803          	lw	a6,24(sp)
   1c284:	01412b03          	lw	s6,20(sp)
   1c288:	01a787b3          	add	a5,a5,s10
   1c28c:	01d72023          	sw	t4,0(a4)
   1c290:	01a72223          	sw	s10,4(a4)
   1c294:	04f12423          	sw	a5,72(sp)
   1c298:	04b12223          	sw	a1,68(sp)
   1c29c:	00700693          	li	a3,7
   1c2a0:	20b6c863          	blt	a3,a1,1c4b0 <_vfiprintf_r+0xef0>
   1c2a4:	00870713          	addi	a4,a4,8
   1c2a8:	00158593          	addi	a1,a1,1
   1c2ac:	ef0ff06f          	j	1b99c <_vfiprintf_r+0x3dc>
   1c2b0:	00100593          	li	a1,1
   1c2b4:	00000693          	li	a3,0
   1c2b8:	00048713          	mv	a4,s1
   1c2bc:	f61ff06f          	j	1c21c <_vfiprintf_r+0xc5c>
   1c2c0:	00100513          	li	a0,1
   1c2c4:	00000693          	li	a3,0
   1c2c8:	00048713          	mv	a4,s1
   1c2cc:	e45ff06f          	j	1c110 <_vfiprintf_r+0xb50>
   1c2d0:	04078a63          	beqz	a5,1c324 <_vfiprintf_r+0xd64>
   1c2d4:	04010613          	addi	a2,sp,64
   1c2d8:	00090593          	mv	a1,s2
   1c2dc:	000a0513          	mv	a0,s4
   1c2e0:	03012423          	sw	a6,40(sp)
   1c2e4:	00612c23          	sw	t1,24(sp)
   1c2e8:	01c12a23          	sw	t3,20(sp)
   1c2ec:	00512823          	sw	t0,16(sp)
   1c2f0:	01f12623          	sw	t6,12(sp)
   1c2f4:	9c0ff0ef          	jal	ra,1b4b4 <__sprint_r.part.0>
   1c2f8:	d0051a63          	bnez	a0,1b80c <_vfiprintf_r+0x24c>
   1c2fc:	04412683          	lw	a3,68(sp)
   1c300:	04812783          	lw	a5,72(sp)
   1c304:	02812803          	lw	a6,40(sp)
   1c308:	01812303          	lw	t1,24(sp)
   1c30c:	01412e03          	lw	t3,20(sp)
   1c310:	01012283          	lw	t0,16(sp)
   1c314:	00c12f83          	lw	t6,12(sp)
   1c318:	00048713          	mv	a4,s1
   1c31c:	00168593          	addi	a1,a3,1
   1c320:	dfcff06f          	j	1b91c <_vfiprintf_r+0x35c>
   1c324:	300f8063          	beqz	t6,1c624 <_vfiprintf_r+0x1064>
   1c328:	03c10793          	addi	a5,sp,60
   1c32c:	04f12623          	sw	a5,76(sp)
   1c330:	00200793          	li	a5,2
   1c334:	04f12823          	sw	a5,80(sp)
   1c338:	00100593          	li	a1,1
   1c33c:	00048713          	mv	a4,s1
   1c340:	00058693          	mv	a3,a1
   1c344:	00870713          	addi	a4,a4,8
   1c348:	00158593          	addi	a1,a1,1
   1c34c:	e40ff06f          	j	1b98c <_vfiprintf_r+0x3cc>
   1c350:	00200693          	li	a3,2
   1c354:	00060313          	mv	t1,a2
   1c358:	9e0682e3          	beqz	a3,1bd3c <_vfiprintf_r+0x77c>
   1c35c:	00812503          	lw	a0,8(sp)
   1c360:	0f010b93          	addi	s7,sp,240
   1c364:	00f7f693          	andi	a3,a5,15
   1c368:	00d506b3          	add	a3,a0,a3
   1c36c:	0006c603          	lbu	a2,0(a3)
   1c370:	0047d793          	srli	a5,a5,0x4
   1c374:	01c59693          	slli	a3,a1,0x1c
   1c378:	00f6e7b3          	or	a5,a3,a5
   1c37c:	0045d593          	srli	a1,a1,0x4
   1c380:	fecb8fa3          	sb	a2,-1(s7)
   1c384:	00b7e6b3          	or	a3,a5,a1
   1c388:	fffb8b93          	addi	s7,s7,-1
   1c38c:	fc069ce3          	bnez	a3,1c364 <_vfiprintf_r+0xda4>
   1c390:	0f010793          	addi	a5,sp,240
   1c394:	41778e33          	sub	t3,a5,s7
   1c398:	000e0d93          	mv	s11,t3
   1c39c:	adae5ae3          	bge	t3,s10,1be70 <_vfiprintf_r+0x8b0>
   1c3a0:	000d0d93          	mv	s11,s10
   1c3a4:	acdff06f          	j	1be70 <_vfiprintf_r+0x8b0>
   1c3a8:	01000593          	li	a1,16
   1c3ac:	4f35d663          	bge	a1,s3,1c898 <_vfiprintf_r+0x12d8>
   1c3b0:	00026eb7          	lui	t4,0x26
   1c3b4:	b48e8e93          	addi	t4,t4,-1208 # 25b48 <blanks.1>
   1c3b8:	03612423          	sw	s6,40(sp)
   1c3bc:	01000f13          	li	t5,16
   1c3c0:	00700393          	li	t2,7
   1c3c4:	01f12623          	sw	t6,12(sp)
   1c3c8:	00512823          	sw	t0,16(sp)
   1c3cc:	01c12a23          	sw	t3,20(sp)
   1c3d0:	00612c23          	sw	t1,24(sp)
   1c3d4:	03012623          	sw	a6,44(sp)
   1c3d8:	000e8b13          	mv	s6,t4
   1c3dc:	01c0006f          	j	1c3f8 <_vfiprintf_r+0xe38>
   1c3e0:	00268513          	addi	a0,a3,2
   1c3e4:	00870713          	addi	a4,a4,8
   1c3e8:	00060693          	mv	a3,a2
   1c3ec:	ff098993          	addi	s3,s3,-16
   1c3f0:	053f5c63          	bge	t5,s3,1c448 <_vfiprintf_r+0xe88>
   1c3f4:	00168613          	addi	a2,a3,1
   1c3f8:	01078793          	addi	a5,a5,16
   1c3fc:	01672023          	sw	s6,0(a4)
   1c400:	01e72223          	sw	t5,4(a4)
   1c404:	04f12423          	sw	a5,72(sp)
   1c408:	04c12223          	sw	a2,68(sp)
   1c40c:	fcc3dae3          	bge	t2,a2,1c3e0 <_vfiprintf_r+0xe20>
   1c410:	08078063          	beqz	a5,1c490 <_vfiprintf_r+0xed0>
   1c414:	04010613          	addi	a2,sp,64
   1c418:	00090593          	mv	a1,s2
   1c41c:	000a0513          	mv	a0,s4
   1c420:	894ff0ef          	jal	ra,1b4b4 <__sprint_r.part.0>
   1c424:	be051463          	bnez	a0,1b80c <_vfiprintf_r+0x24c>
   1c428:	04412683          	lw	a3,68(sp)
   1c42c:	01000f13          	li	t5,16
   1c430:	ff098993          	addi	s3,s3,-16
   1c434:	04812783          	lw	a5,72(sp)
   1c438:	00048713          	mv	a4,s1
   1c43c:	00168513          	addi	a0,a3,1
   1c440:	00700393          	li	t2,7
   1c444:	fb3f48e3          	blt	t5,s3,1c3f4 <_vfiprintf_r+0xe34>
   1c448:	000b0e93          	mv	t4,s6
   1c44c:	00c12f83          	lw	t6,12(sp)
   1c450:	01012283          	lw	t0,16(sp)
   1c454:	01412e03          	lw	t3,20(sp)
   1c458:	01812303          	lw	t1,24(sp)
   1c45c:	02c12803          	lw	a6,44(sp)
   1c460:	02812b03          	lw	s6,40(sp)
   1c464:	013787b3          	add	a5,a5,s3
   1c468:	01d72023          	sw	t4,0(a4)
   1c46c:	01372223          	sw	s3,4(a4)
   1c470:	04f12423          	sw	a5,72(sp)
   1c474:	04a12223          	sw	a0,68(sp)
   1c478:	00700693          	li	a3,7
   1c47c:	12a6c063          	blt	a3,a0,1c59c <_vfiprintf_r+0xfdc>
   1c480:	00870713          	addi	a4,a4,8
   1c484:	00150593          	addi	a1,a0,1
   1c488:	00050693          	mv	a3,a0
   1c48c:	c58ff06f          	j	1b8e4 <_vfiprintf_r+0x324>
   1c490:	00000693          	li	a3,0
   1c494:	00100513          	li	a0,1
   1c498:	00048713          	mv	a4,s1
   1c49c:	f51ff06f          	j	1c3ec <_vfiprintf_r+0xe2c>
   1c4a0:	01bb5463          	bge	s6,s11,1c4a8 <_vfiprintf_r+0xee8>
   1c4a4:	000d8b13          	mv	s6,s11
   1c4a8:	016c8cb3          	add	s9,s9,s6
   1c4ac:	d5cff06f          	j	1ba08 <_vfiprintf_r+0x448>
   1c4b0:	be0784e3          	beqz	a5,1c098 <_vfiprintf_r+0xad8>
   1c4b4:	04010613          	addi	a2,sp,64
   1c4b8:	00090593          	mv	a1,s2
   1c4bc:	000a0513          	mv	a0,s4
   1c4c0:	01012a23          	sw	a6,20(sp)
   1c4c4:	00612823          	sw	t1,16(sp)
   1c4c8:	01c12623          	sw	t3,12(sp)
   1c4cc:	fe9fe0ef          	jal	ra,1b4b4 <__sprint_r.part.0>
   1c4d0:	b2051e63          	bnez	a0,1b80c <_vfiprintf_r+0x24c>
   1c4d4:	04412583          	lw	a1,68(sp)
   1c4d8:	04812783          	lw	a5,72(sp)
   1c4dc:	01412803          	lw	a6,20(sp)
   1c4e0:	01012303          	lw	t1,16(sp)
   1c4e4:	00c12e03          	lw	t3,12(sp)
   1c4e8:	00048713          	mv	a4,s1
   1c4ec:	00158593          	addi	a1,a1,1
   1c4f0:	cacff06f          	j	1b99c <_vfiprintf_r+0x3dc>
   1c4f4:	04012223          	sw	zero,68(sp)
   1c4f8:	00048713          	mv	a4,s1
   1c4fc:	a28ff06f          	j	1b724 <_vfiprintf_r+0x164>
   1c500:	20037693          	andi	a3,t1,512
   1c504:	34069a63          	bnez	a3,1c858 <_vfiprintf_r+0x1298>
   1c508:	41f7dd93          	srai	s11,a5,0x1f
   1c50c:	00078993          	mv	s3,a5
   1c510:	000d8693          	mv	a3,s11
   1c514:	f00ff06f          	j	1bc14 <_vfiprintf_r+0x654>
   1c518:	0106f613          	andi	a2,a3,16
   1c51c:	00082783          	lw	a5,0(a6)
   1c520:	00480813          	addi	a6,a6,4
   1c524:	02061263          	bnez	a2,1c548 <_vfiprintf_r+0xf88>
   1c528:	0406f613          	andi	a2,a3,64
   1c52c:	00060a63          	beqz	a2,1c540 <_vfiprintf_r+0xf80>
   1c530:	01079793          	slli	a5,a5,0x10
   1c534:	0107d793          	srli	a5,a5,0x10
   1c538:	00000593          	li	a1,0
   1c53c:	f38ff06f          	j	1bc74 <_vfiprintf_r+0x6b4>
   1c540:	2006f613          	andi	a2,a3,512
   1c544:	2e061863          	bnez	a2,1c834 <_vfiprintf_r+0x1274>
   1c548:	00000593          	li	a1,0
   1c54c:	f28ff06f          	j	1bc74 <_vfiprintf_r+0x6b4>
   1c550:	010e7693          	andi	a3,t3,16
   1c554:	00082783          	lw	a5,0(a6)
   1c558:	00480813          	addi	a6,a6,4
   1c55c:	02069263          	bnez	a3,1c580 <_vfiprintf_r+0xfc0>
   1c560:	040e7693          	andi	a3,t3,64
   1c564:	00068a63          	beqz	a3,1c578 <_vfiprintf_r+0xfb8>
   1c568:	01079993          	slli	s3,a5,0x10
   1c56c:	0109d993          	srli	s3,s3,0x10
   1c570:	00000d93          	li	s11,0
   1c574:	945ff06f          	j	1beb8 <_vfiprintf_r+0x8f8>
   1c578:	200e7693          	andi	a3,t3,512
   1c57c:	2c069263          	bnez	a3,1c840 <_vfiprintf_r+0x1280>
   1c580:	00078993          	mv	s3,a5
   1c584:	00000d93          	li	s11,0
   1c588:	931ff06f          	j	1beb8 <_vfiprintf_r+0x8f8>
   1c58c:	00100593          	li	a1,1
   1c590:	00000693          	li	a3,0
   1c594:	00048713          	mv	a4,s1
   1c598:	bf4ff06f          	j	1b98c <_vfiprintf_r+0x3cc>
   1c59c:	18078263          	beqz	a5,1c720 <_vfiprintf_r+0x1160>
   1c5a0:	04010613          	addi	a2,sp,64
   1c5a4:	00090593          	mv	a1,s2
   1c5a8:	000a0513          	mv	a0,s4
   1c5ac:	03012423          	sw	a6,40(sp)
   1c5b0:	00612c23          	sw	t1,24(sp)
   1c5b4:	01c12a23          	sw	t3,20(sp)
   1c5b8:	00512823          	sw	t0,16(sp)
   1c5bc:	01f12623          	sw	t6,12(sp)
   1c5c0:	ef5fe0ef          	jal	ra,1b4b4 <__sprint_r.part.0>
   1c5c4:	a4051463          	bnez	a0,1b80c <_vfiprintf_r+0x24c>
   1c5c8:	04412683          	lw	a3,68(sp)
   1c5cc:	04812783          	lw	a5,72(sp)
   1c5d0:	02812803          	lw	a6,40(sp)
   1c5d4:	01812303          	lw	t1,24(sp)
   1c5d8:	01412e03          	lw	t3,20(sp)
   1c5dc:	01012283          	lw	t0,16(sp)
   1c5e0:	00c12f83          	lw	t6,12(sp)
   1c5e4:	00048713          	mv	a4,s1
   1c5e8:	00168593          	addi	a1,a3,1
   1c5ec:	af8ff06f          	j	1b8e4 <_vfiprintf_r+0x324>
   1c5f0:	00000d93          	li	s11,0
   1c5f4:	0f010b93          	addi	s7,sp,240
   1c5f8:	879ff06f          	j	1be70 <_vfiprintf_r+0x8b0>
   1c5fc:	00870713          	addi	a4,a4,8
   1c600:	00150593          	addi	a1,a0,1
   1c604:	00050693          	mv	a3,a0
   1c608:	b8cff06f          	j	1b994 <_vfiprintf_r+0x3d4>
   1c60c:	00082783          	lw	a5,0(a6)
   1c610:	41fcd693          	srai	a3,s9,0x1f
   1c614:	00480813          	addi	a6,a6,4
   1c618:	0197a023          	sw	s9,0(a5)
   1c61c:	00d7a223          	sw	a3,4(a5)
   1c620:	88cff06f          	j	1b6ac <_vfiprintf_r+0xec>
   1c624:	00000693          	li	a3,0
   1c628:	00100593          	li	a1,1
   1c62c:	00048713          	mv	a4,s1
   1c630:	b5cff06f          	j	1b98c <_vfiprintf_r+0x3cc>
   1c634:	000d0d93          	mv	s11,s10
   1c638:	00050b93          	mv	s7,a0
   1c63c:	835ff06f          	j	1be70 <_vfiprintf_r+0x8b0>
   1c640:	000d8713          	mv	a4,s11
   1c644:	000b8693          	mv	a3,s7
   1c648:	e10ff06f          	j	1bc58 <_vfiprintf_r+0x698>
   1c64c:	000d8713          	mv	a4,s11
   1c650:	000b8e13          	mv	t3,s7
   1c654:	849ff06f          	j	1be9c <_vfiprintf_r+0x8dc>
   1c658:	000257b7          	lui	a5,0x25
   1c65c:	12478793          	addi	a5,a5,292 # 25124 <__clzsi2+0x114>
   1c660:	000b8313          	mv	t1,s7
   1c664:	00f12423          	sw	a5,8(sp)
   1c668:	02037793          	andi	a5,t1,32
   1c66c:	000d8713          	mv	a4,s11
   1c670:	04078e63          	beqz	a5,1c6cc <_vfiprintf_r+0x110c>
   1c674:	00780813          	addi	a6,a6,7
   1c678:	ff887813          	andi	a6,a6,-8
   1c67c:	00082783          	lw	a5,0(a6)
   1c680:	00482583          	lw	a1,4(a6)
   1c684:	00880813          	addi	a6,a6,8
   1c688:	00137693          	andi	a3,t1,1
   1c68c:	00068e63          	beqz	a3,1c6a8 <_vfiprintf_r+0x10e8>
   1c690:	00b7e6b3          	or	a3,a5,a1
   1c694:	00068a63          	beqz	a3,1c6a8 <_vfiprintf_r+0x10e8>
   1c698:	03000693          	li	a3,48
   1c69c:	02d10e23          	sb	a3,60(sp)
   1c6a0:	02c10ea3          	sb	a2,61(sp)
   1c6a4:	00236313          	ori	t1,t1,2
   1c6a8:	bff37313          	andi	t1,t1,-1025
   1c6ac:	e50ff06f          	j	1bcfc <_vfiprintf_r+0x73c>
   1c6b0:	000257b7          	lui	a5,0x25
   1c6b4:	11078793          	addi	a5,a5,272 # 25110 <__clzsi2+0x100>
   1c6b8:	000b8313          	mv	t1,s7
   1c6bc:	00f12423          	sw	a5,8(sp)
   1c6c0:	02037793          	andi	a5,t1,32
   1c6c4:	000d8713          	mv	a4,s11
   1c6c8:	fa0796e3          	bnez	a5,1c674 <_vfiprintf_r+0x10b4>
   1c6cc:	01037693          	andi	a3,t1,16
   1c6d0:	00082783          	lw	a5,0(a6)
   1c6d4:	00480813          	addi	a6,a6,4
   1c6d8:	0a069a63          	bnez	a3,1c78c <_vfiprintf_r+0x11cc>
   1c6dc:	04037693          	andi	a3,t1,64
   1c6e0:	0a068263          	beqz	a3,1c784 <_vfiprintf_r+0x11c4>
   1c6e4:	01079793          	slli	a5,a5,0x10
   1c6e8:	0107d793          	srli	a5,a5,0x10
   1c6ec:	00000593          	li	a1,0
   1c6f0:	f99ff06f          	j	1c688 <_vfiprintf_r+0x10c8>
   1c6f4:	000b8513          	mv	a0,s7
   1c6f8:	bf8fc0ef          	jal	ra,18af0 <strlen>
   1c6fc:	fff54d93          	not	s11,a0
   1c700:	41fddd93          	srai	s11,s11,0x1f
   1c704:	00c12303          	lw	t1,12(sp)
   1c708:	01012703          	lw	a4,16(sp)
   1c70c:	00050e13          	mv	t3,a0
   1c710:	01b57db3          	and	s11,a0,s11
   1c714:	00098813          	mv	a6,s3
   1c718:	00000d13          	li	s10,0
   1c71c:	f54ff06f          	j	1be70 <_vfiprintf_r+0x8b0>
   1c720:	03b14703          	lbu	a4,59(sp)
   1c724:	10070063          	beqz	a4,1c824 <_vfiprintf_r+0x1264>
   1c728:	03b10793          	addi	a5,sp,59
   1c72c:	04f12623          	sw	a5,76(sp)
   1c730:	00100793          	li	a5,1
   1c734:	04f12823          	sw	a5,80(sp)
   1c738:	00100593          	li	a1,1
   1c73c:	00048713          	mv	a4,s1
   1c740:	9d0ff06f          	j	1b910 <_vfiprintf_r+0x350>
   1c744:	02012783          	lw	a5,32(sp)
   1c748:	02412583          	lw	a1,36(sp)
   1c74c:	00000b13          	li	s6,0
   1c750:	40fa0a33          	sub	s4,s4,a5
   1c754:	00078613          	mv	a2,a5
   1c758:	000a0513          	mv	a0,s4
   1c75c:	c20fc0ef          	jal	ra,18b7c <strncpy>
   1c760:	00194703          	lbu	a4,1(s2)
   1c764:	00a00613          	li	a2,10
   1c768:	00000693          	li	a3,0
   1c76c:	00e03733          	snez	a4,a4
   1c770:	00098513          	mv	a0,s3
   1c774:	000d8593          	mv	a1,s11
   1c778:	00e90933          	add	s2,s2,a4
   1c77c:	241030ef          	jal	ra,201bc <__udivdi3>
   1c780:	fb4ff06f          	j	1bf34 <_vfiprintf_r+0x974>
   1c784:	20037693          	andi	a3,t1,512
   1c788:	0c069263          	bnez	a3,1c84c <_vfiprintf_r+0x128c>
   1c78c:	00000593          	li	a1,0
   1c790:	ef9ff06f          	j	1c688 <_vfiprintf_r+0x10c8>
   1c794:	00068313          	mv	t1,a3
   1c798:	00000693          	li	a3,0
   1c79c:	da068063          	beqz	a3,1bd3c <_vfiprintf_r+0x77c>
   1c7a0:	bbdff06f          	j	1c35c <_vfiprintf_r+0xd9c>
   1c7a4:	001c4783          	lbu	a5,1(s8)
   1c7a8:	200beb93          	ori	s7,s7,512
   1c7ac:	001c0c13          	addi	s8,s8,1
   1c7b0:	fa5fe06f          	j	1b754 <_vfiprintf_r+0x194>
   1c7b4:	001c4783          	lbu	a5,1(s8)
   1c7b8:	020beb93          	ori	s7,s7,32
   1c7bc:	001c0c13          	addi	s8,s8,1
   1c7c0:	f95fe06f          	j	1b754 <_vfiprintf_r+0x194>
   1c7c4:	00082783          	lw	a5,0(a6)
   1c7c8:	00480813          	addi	a6,a6,4
   1c7cc:	0197a023          	sw	s9,0(a5)
   1c7d0:	eddfe06f          	j	1b6ac <_vfiprintf_r+0xec>
   1c7d4:	00600793          	li	a5,6
   1c7d8:	000d0e13          	mv	t3,s10
   1c7dc:	05a7e063          	bltu	a5,s10,1c81c <_vfiprintf_r+0x125c>
   1c7e0:	00025bb7          	lui	s7,0x25
   1c7e4:	000e0d93          	mv	s11,t3
   1c7e8:	00098813          	mv	a6,s3
   1c7ec:	138b8b93          	addi	s7,s7,312 # 25138 <__clzsi2+0x128>
   1c7f0:	8c4ff06f          	j	1b8b4 <_vfiprintf_r+0x2f4>
   1c7f4:	00000793          	li	a5,0
   1c7f8:	00000593          	li	a1,0
   1c7fc:	b61ff06f          	j	1c35c <_vfiprintf_r+0xd9c>
   1c800:	00100593          	li	a1,1
   1c804:	00000693          	li	a3,0
   1c808:	00048713          	mv	a4,s1
   1c80c:	988ff06f          	j	1b994 <_vfiprintf_r+0x3d4>
   1c810:	00900713          	li	a4,9
   1c814:	f3376063          	bltu	a4,s3,1bf34 <_vfiprintf_r+0x974>
   1c818:	f68ff06f          	j	1bf80 <_vfiprintf_r+0x9c0>
   1c81c:	00600e13          	li	t3,6
   1c820:	fc1ff06f          	j	1c7e0 <_vfiprintf_r+0x1220>
   1c824:	00000693          	li	a3,0
   1c828:	00100593          	li	a1,1
   1c82c:	00048713          	mv	a4,s1
   1c830:	8ecff06f          	j	1b91c <_vfiprintf_r+0x35c>
   1c834:	0ff7f793          	zext.b	a5,a5
   1c838:	00000593          	li	a1,0
   1c83c:	c38ff06f          	j	1bc74 <_vfiprintf_r+0x6b4>
   1c840:	0ff7f993          	zext.b	s3,a5
   1c844:	00000d93          	li	s11,0
   1c848:	e70ff06f          	j	1beb8 <_vfiprintf_r+0x8f8>
   1c84c:	0ff7f793          	zext.b	a5,a5
   1c850:	00000593          	li	a1,0
   1c854:	e35ff06f          	j	1c688 <_vfiprintf_r+0x10c8>
   1c858:	01879993          	slli	s3,a5,0x18
   1c85c:	4189d993          	srai	s3,s3,0x18
   1c860:	41f9dd93          	srai	s11,s3,0x1f
   1c864:	000d8693          	mv	a3,s11
   1c868:	bacff06f          	j	1bc14 <_vfiprintf_r+0x654>
   1c86c:	00082783          	lw	a5,0(a6)
   1c870:	00480813          	addi	a6,a6,4
   1c874:	01979023          	sh	s9,0(a5)
   1c878:	e35fe06f          	j	1b6ac <_vfiprintf_r+0xec>
   1c87c:	03000793          	li	a5,48
   1c880:	dd8ff06f          	j	1be58 <_vfiprintf_r+0x898>
   1c884:	000d0d93          	mv	s11,s10
   1c888:	000d0e13          	mv	t3,s10
   1c88c:	00098813          	mv	a6,s3
   1c890:	00000d13          	li	s10,0
   1c894:	ddcff06f          	j	1be70 <_vfiprintf_r+0x8b0>
   1c898:	00026eb7          	lui	t4,0x26
   1c89c:	00060513          	mv	a0,a2
   1c8a0:	b48e8e93          	addi	t4,t4,-1208 # 25b48 <blanks.1>
   1c8a4:	bc1ff06f          	j	1c464 <_vfiprintf_r+0xea4>
   1c8a8:	00026eb7          	lui	t4,0x26
   1c8ac:	00160593          	addi	a1,a2,1
   1c8b0:	b48e8e93          	addi	t4,t4,-1208 # 25b48 <blanks.1>
   1c8b4:	a64ff06f          	j	1bb18 <_vfiprintf_r+0x558>
   1c8b8:	fff00b13          	li	s6,-1
   1c8bc:	f65fe06f          	j	1b820 <_vfiprintf_r+0x260>
   1c8c0:	00026eb7          	lui	t4,0x26
   1c8c4:	00058513          	mv	a0,a1
   1c8c8:	b38e8e93          	addi	t4,t4,-1224 # 25b38 <zeroes.0>
   1c8cc:	8b5ff06f          	j	1c180 <_vfiprintf_r+0xbc0>
   1c8d0:	00082d03          	lw	s10,0(a6)
   1c8d4:	00480813          	addi	a6,a6,4
   1c8d8:	000d5463          	bgez	s10,1c8e0 <_vfiprintf_r+0x1320>
   1c8dc:	fff00d13          	li	s10,-1
   1c8e0:	001c4783          	lbu	a5,1(s8)
   1c8e4:	00068c13          	mv	s8,a3
   1c8e8:	e6dfe06f          	j	1b754 <_vfiprintf_r+0x194>

0001c8ec <vfiprintf>:
   1c8ec:	00050793          	mv	a5,a0
   1c8f0:	1c01a503          	lw	a0,448(gp) # 26a80 <_impure_ptr>
   1c8f4:	00060693          	mv	a3,a2
   1c8f8:	00058613          	mv	a2,a1
   1c8fc:	00078593          	mv	a1,a5
   1c900:	cc1fe06f          	j	1b5c0 <_vfiprintf_r>

0001c904 <__sbprintf>:
   1c904:	00c59783          	lh	a5,12(a1)
   1c908:	00e5d703          	lhu	a4,14(a1)
   1c90c:	0645a303          	lw	t1,100(a1)
   1c910:	ffd7f793          	andi	a5,a5,-3
   1c914:	01079793          	slli	a5,a5,0x10
   1c918:	01c5a883          	lw	a7,28(a1)
   1c91c:	0245a803          	lw	a6,36(a1)
   1c920:	01071713          	slli	a4,a4,0x10
   1c924:	0107d793          	srli	a5,a5,0x10
   1c928:	b8010113          	addi	sp,sp,-1152
   1c92c:	00e7e7b3          	or	a5,a5,a4
   1c930:	46812c23          	sw	s0,1144(sp)
   1c934:	40000713          	li	a4,1024
   1c938:	00f12a23          	sw	a5,20(sp)
   1c93c:	00058413          	mv	s0,a1
   1c940:	07010793          	addi	a5,sp,112
   1c944:	00810593          	addi	a1,sp,8
   1c948:	46912a23          	sw	s1,1140(sp)
   1c94c:	47212823          	sw	s2,1136(sp)
   1c950:	46112e23          	sw	ra,1148(sp)
   1c954:	00050913          	mv	s2,a0
   1c958:	06612623          	sw	t1,108(sp)
   1c95c:	03112223          	sw	a7,36(sp)
   1c960:	03012623          	sw	a6,44(sp)
   1c964:	00f12423          	sw	a5,8(sp)
   1c968:	00f12c23          	sw	a5,24(sp)
   1c96c:	00e12823          	sw	a4,16(sp)
   1c970:	00e12e23          	sw	a4,28(sp)
   1c974:	02012023          	sw	zero,32(sp)
   1c978:	c49fe0ef          	jal	ra,1b5c0 <_vfiprintf_r>
   1c97c:	00050493          	mv	s1,a0
   1c980:	02055c63          	bgez	a0,1c9b8 <__sbprintf+0xb4>
   1c984:	01415783          	lhu	a5,20(sp)
   1c988:	0407f793          	andi	a5,a5,64
   1c98c:	00078863          	beqz	a5,1c99c <__sbprintf+0x98>
   1c990:	00c45783          	lhu	a5,12(s0)
   1c994:	0407e793          	ori	a5,a5,64
   1c998:	00f41623          	sh	a5,12(s0)
   1c99c:	47c12083          	lw	ra,1148(sp)
   1c9a0:	47812403          	lw	s0,1144(sp)
   1c9a4:	47012903          	lw	s2,1136(sp)
   1c9a8:	00048513          	mv	a0,s1
   1c9ac:	47412483          	lw	s1,1140(sp)
   1c9b0:	48010113          	addi	sp,sp,1152
   1c9b4:	00008067          	ret
   1c9b8:	00810593          	addi	a1,sp,8
   1c9bc:	00090513          	mv	a0,s2
   1c9c0:	8c1f60ef          	jal	ra,13280 <_fflush_r>
   1c9c4:	fc0500e3          	beqz	a0,1c984 <__sbprintf+0x80>
   1c9c8:	fff00493          	li	s1,-1
   1c9cc:	fb9ff06f          	j	1c984 <__sbprintf+0x80>

0001c9d0 <_write_r>:
   1c9d0:	ff010113          	addi	sp,sp,-16
   1c9d4:	00058713          	mv	a4,a1
   1c9d8:	00812423          	sw	s0,8(sp)
   1c9dc:	00912223          	sw	s1,4(sp)
   1c9e0:	00060593          	mv	a1,a2
   1c9e4:	00050413          	mv	s0,a0
   1c9e8:	00068613          	mv	a2,a3
   1c9ec:	00070513          	mv	a0,a4
   1c9f0:	00112623          	sw	ra,12(sp)
   1c9f4:	1c01ae23          	sw	zero,476(gp) # 26a9c <errno>
   1c9f8:	6d8030ef          	jal	ra,200d0 <_write>
   1c9fc:	fff00793          	li	a5,-1
   1ca00:	00f50c63          	beq	a0,a5,1ca18 <_write_r+0x48>
   1ca04:	00c12083          	lw	ra,12(sp)
   1ca08:	00812403          	lw	s0,8(sp)
   1ca0c:	00412483          	lw	s1,4(sp)
   1ca10:	01010113          	addi	sp,sp,16
   1ca14:	00008067          	ret
   1ca18:	1dc1a783          	lw	a5,476(gp) # 26a9c <errno>
   1ca1c:	fe0784e3          	beqz	a5,1ca04 <_write_r+0x34>
   1ca20:	00c12083          	lw	ra,12(sp)
   1ca24:	00f42023          	sw	a5,0(s0)
   1ca28:	00812403          	lw	s0,8(sp)
   1ca2c:	00412483          	lw	s1,4(sp)
   1ca30:	01010113          	addi	sp,sp,16
   1ca34:	00008067          	ret

0001ca38 <__register_exitproc>:
   1ca38:	1b81a703          	lw	a4,440(gp) # 26a78 <_global_impure_ptr>
   1ca3c:	14872783          	lw	a5,328(a4)
   1ca40:	04078c63          	beqz	a5,1ca98 <__register_exitproc+0x60>
   1ca44:	0047a703          	lw	a4,4(a5)
   1ca48:	01f00813          	li	a6,31
   1ca4c:	06e84e63          	blt	a6,a4,1cac8 <__register_exitproc+0x90>
   1ca50:	00271813          	slli	a6,a4,0x2
   1ca54:	02050663          	beqz	a0,1ca80 <__register_exitproc+0x48>
   1ca58:	01078333          	add	t1,a5,a6
   1ca5c:	08c32423          	sw	a2,136(t1)
   1ca60:	1887a883          	lw	a7,392(a5)
   1ca64:	00100613          	li	a2,1
   1ca68:	00e61633          	sll	a2,a2,a4
   1ca6c:	00c8e8b3          	or	a7,a7,a2
   1ca70:	1917a423          	sw	a7,392(a5)
   1ca74:	10d32423          	sw	a3,264(t1)
   1ca78:	00200693          	li	a3,2
   1ca7c:	02d50463          	beq	a0,a3,1caa4 <__register_exitproc+0x6c>
   1ca80:	00170713          	addi	a4,a4,1
   1ca84:	00e7a223          	sw	a4,4(a5)
   1ca88:	010787b3          	add	a5,a5,a6
   1ca8c:	00b7a423          	sw	a1,8(a5)
   1ca90:	00000513          	li	a0,0
   1ca94:	00008067          	ret
   1ca98:	14c70793          	addi	a5,a4,332
   1ca9c:	14f72423          	sw	a5,328(a4)
   1caa0:	fa5ff06f          	j	1ca44 <__register_exitproc+0xc>
   1caa4:	18c7a683          	lw	a3,396(a5)
   1caa8:	00170713          	addi	a4,a4,1
   1caac:	00e7a223          	sw	a4,4(a5)
   1cab0:	00c6e6b3          	or	a3,a3,a2
   1cab4:	18d7a623          	sw	a3,396(a5)
   1cab8:	010787b3          	add	a5,a5,a6
   1cabc:	00b7a423          	sw	a1,8(a5)
   1cac0:	00000513          	li	a0,0
   1cac4:	00008067          	ret
   1cac8:	fff00513          	li	a0,-1
   1cacc:	00008067          	ret

0001cad0 <__assert_func>:
   1cad0:	1c01a703          	lw	a4,448(gp) # 26a80 <_impure_ptr>
   1cad4:	ff010113          	addi	sp,sp,-16
   1cad8:	00068793          	mv	a5,a3
   1cadc:	00060813          	mv	a6,a2
   1cae0:	00112623          	sw	ra,12(sp)
   1cae4:	00c72883          	lw	a7,12(a4)
   1cae8:	00050693          	mv	a3,a0
   1caec:	00058713          	mv	a4,a1
   1caf0:	00078613          	mv	a2,a5
   1caf4:	02080063          	beqz	a6,1cb14 <__assert_func+0x44>
   1caf8:	000267b7          	lui	a5,0x26
   1cafc:	b5878793          	addi	a5,a5,-1192 # 25b58 <blanks.1+0x10>
   1cb00:	000265b7          	lui	a1,0x26
   1cb04:	b6858593          	addi	a1,a1,-1176 # 25b68 <blanks.1+0x20>
   1cb08:	00088513          	mv	a0,a7
   1cb0c:	3a0000ef          	jal	ra,1ceac <fiprintf>
   1cb10:	5e5020ef          	jal	ra,1f8f4 <abort>
   1cb14:	00025837          	lui	a6,0x25
   1cb18:	0fc80793          	addi	a5,a6,252 # 250fc <__clzsi2+0xec>
   1cb1c:	0fc80813          	addi	a6,a6,252
   1cb20:	fe1ff06f          	j	1cb00 <__assert_func+0x30>

0001cb24 <__assert>:
   1cb24:	ff010113          	addi	sp,sp,-16
   1cb28:	00060693          	mv	a3,a2
   1cb2c:	00000613          	li	a2,0
   1cb30:	00112623          	sw	ra,12(sp)
   1cb34:	f9dff0ef          	jal	ra,1cad0 <__assert_func>

0001cb38 <_calloc_r>:
   1cb38:	fe010113          	addi	sp,sp,-32
   1cb3c:	00812c23          	sw	s0,24(sp)
   1cb40:	00112e23          	sw	ra,28(sp)
   1cb44:	00912a23          	sw	s1,20(sp)
   1cb48:	01212823          	sw	s2,16(sp)
   1cb4c:	01312623          	sw	s3,12(sp)
   1cb50:	0105d693          	srli	a3,a1,0x10
   1cb54:	00058793          	mv	a5,a1
   1cb58:	00050413          	mv	s0,a0
   1cb5c:	01065713          	srli	a4,a2,0x10
   1cb60:	0c069c63          	bnez	a3,1cc38 <_calloc_r+0x100>
   1cb64:	16071063          	bnez	a4,1ccc4 <_calloc_r+0x18c>
   1cb68:	01061593          	slli	a1,a2,0x10
   1cb6c:	01079513          	slli	a0,a5,0x10
   1cb70:	0105d593          	srli	a1,a1,0x10
   1cb74:	01055513          	srli	a0,a0,0x10
   1cb78:	3c0080ef          	jal	ra,24f38 <__mulsi3>
   1cb7c:	00050593          	mv	a1,a0
   1cb80:	00040513          	mv	a0,s0
   1cb84:	884fa0ef          	jal	ra,16c08 <_malloc_r>
   1cb88:	00050413          	mv	s0,a0
   1cb8c:	10050a63          	beqz	a0,1cca0 <_calloc_r+0x168>
   1cb90:	ffc52603          	lw	a2,-4(a0)
   1cb94:	02400713          	li	a4,36
   1cb98:	ffc67613          	andi	a2,a2,-4
   1cb9c:	ffc60613          	addi	a2,a2,-4
   1cba0:	04c76e63          	bltu	a4,a2,1cbfc <_calloc_r+0xc4>
   1cba4:	01300693          	li	a3,19
   1cba8:	00050793          	mv	a5,a0
   1cbac:	02c6f263          	bgeu	a3,a2,1cbd0 <_calloc_r+0x98>
   1cbb0:	00052023          	sw	zero,0(a0)
   1cbb4:	00052223          	sw	zero,4(a0)
   1cbb8:	01b00793          	li	a5,27
   1cbbc:	06c7f463          	bgeu	a5,a2,1cc24 <_calloc_r+0xec>
   1cbc0:	00052423          	sw	zero,8(a0)
   1cbc4:	00052623          	sw	zero,12(a0)
   1cbc8:	01050793          	addi	a5,a0,16
   1cbcc:	10e60263          	beq	a2,a4,1ccd0 <_calloc_r+0x198>
   1cbd0:	0007a023          	sw	zero,0(a5)
   1cbd4:	0007a223          	sw	zero,4(a5)
   1cbd8:	0007a423          	sw	zero,8(a5)
   1cbdc:	01c12083          	lw	ra,28(sp)
   1cbe0:	00040513          	mv	a0,s0
   1cbe4:	01812403          	lw	s0,24(sp)
   1cbe8:	01412483          	lw	s1,20(sp)
   1cbec:	01012903          	lw	s2,16(sp)
   1cbf0:	00c12983          	lw	s3,12(sp)
   1cbf4:	02010113          	addi	sp,sp,32
   1cbf8:	00008067          	ret
   1cbfc:	00000593          	li	a1,0
   1cc00:	e90f30ef          	jal	ra,10290 <memset>
   1cc04:	01c12083          	lw	ra,28(sp)
   1cc08:	00040513          	mv	a0,s0
   1cc0c:	01812403          	lw	s0,24(sp)
   1cc10:	01412483          	lw	s1,20(sp)
   1cc14:	01012903          	lw	s2,16(sp)
   1cc18:	00c12983          	lw	s3,12(sp)
   1cc1c:	02010113          	addi	sp,sp,32
   1cc20:	00008067          	ret
   1cc24:	00850793          	addi	a5,a0,8
   1cc28:	0007a023          	sw	zero,0(a5)
   1cc2c:	0007a223          	sw	zero,4(a5)
   1cc30:	0007a423          	sw	zero,8(a5)
   1cc34:	fa9ff06f          	j	1cbdc <_calloc_r+0xa4>
   1cc38:	0a071463          	bnez	a4,1cce0 <_calloc_r+0x1a8>
   1cc3c:	00068913          	mv	s2,a3
   1cc40:	00060993          	mv	s3,a2
   1cc44:	01079513          	slli	a0,a5,0x10
   1cc48:	01061593          	slli	a1,a2,0x10
   1cc4c:	0105d593          	srli	a1,a1,0x10
   1cc50:	01055513          	srli	a0,a0,0x10
   1cc54:	2e4080ef          	jal	ra,24f38 <__mulsi3>
   1cc58:	00050493          	mv	s1,a0
   1cc5c:	01091593          	slli	a1,s2,0x10
   1cc60:	01099513          	slli	a0,s3,0x10
   1cc64:	0105d593          	srli	a1,a1,0x10
   1cc68:	01055513          	srli	a0,a0,0x10
   1cc6c:	2cc080ef          	jal	ra,24f38 <__mulsi3>
   1cc70:	0104d793          	srli	a5,s1,0x10
   1cc74:	00f505b3          	add	a1,a0,a5
   1cc78:	0105d793          	srli	a5,a1,0x10
   1cc7c:	06079263          	bnez	a5,1cce0 <_calloc_r+0x1a8>
   1cc80:	01049493          	slli	s1,s1,0x10
   1cc84:	01059593          	slli	a1,a1,0x10
   1cc88:	0104d493          	srli	s1,s1,0x10
   1cc8c:	00040513          	mv	a0,s0
   1cc90:	0095e5b3          	or	a1,a1,s1
   1cc94:	f75f90ef          	jal	ra,16c08 <_malloc_r>
   1cc98:	00050413          	mv	s0,a0
   1cc9c:	ee051ae3          	bnez	a0,1cb90 <_calloc_r+0x58>
   1cca0:	00000413          	li	s0,0
   1cca4:	01c12083          	lw	ra,28(sp)
   1cca8:	00040513          	mv	a0,s0
   1ccac:	01812403          	lw	s0,24(sp)
   1ccb0:	01412483          	lw	s1,20(sp)
   1ccb4:	01012903          	lw	s2,16(sp)
   1ccb8:	00c12983          	lw	s3,12(sp)
   1ccbc:	02010113          	addi	sp,sp,32
   1ccc0:	00008067          	ret
   1ccc4:	00070913          	mv	s2,a4
   1ccc8:	00058993          	mv	s3,a1
   1cccc:	f79ff06f          	j	1cc44 <_calloc_r+0x10c>
   1ccd0:	00052823          	sw	zero,16(a0)
   1ccd4:	01850793          	addi	a5,a0,24
   1ccd8:	00052a23          	sw	zero,20(a0)
   1ccdc:	ef5ff06f          	j	1cbd0 <_calloc_r+0x98>
   1cce0:	070000ef          	jal	ra,1cd50 <__errno>
   1cce4:	00c00793          	li	a5,12
   1cce8:	00f52023          	sw	a5,0(a0)
   1ccec:	00000413          	li	s0,0
   1ccf0:	fb5ff06f          	j	1cca4 <_calloc_r+0x16c>

0001ccf4 <_close_r>:
   1ccf4:	ff010113          	addi	sp,sp,-16
   1ccf8:	00812423          	sw	s0,8(sp)
   1ccfc:	00912223          	sw	s1,4(sp)
   1cd00:	00050413          	mv	s0,a0
   1cd04:	00058513          	mv	a0,a1
   1cd08:	00112623          	sw	ra,12(sp)
   1cd0c:	1c01ae23          	sw	zero,476(gp) # 26a9c <errno>
   1cd10:	180030ef          	jal	ra,1fe90 <_close>
   1cd14:	fff00793          	li	a5,-1
   1cd18:	00f50c63          	beq	a0,a5,1cd30 <_close_r+0x3c>
   1cd1c:	00c12083          	lw	ra,12(sp)
   1cd20:	00812403          	lw	s0,8(sp)
   1cd24:	00412483          	lw	s1,4(sp)
   1cd28:	01010113          	addi	sp,sp,16
   1cd2c:	00008067          	ret
   1cd30:	1dc1a783          	lw	a5,476(gp) # 26a9c <errno>
   1cd34:	fe0784e3          	beqz	a5,1cd1c <_close_r+0x28>
   1cd38:	00c12083          	lw	ra,12(sp)
   1cd3c:	00f42023          	sw	a5,0(s0)
   1cd40:	00812403          	lw	s0,8(sp)
   1cd44:	00412483          	lw	s1,4(sp)
   1cd48:	01010113          	addi	sp,sp,16
   1cd4c:	00008067          	ret

0001cd50 <__errno>:
   1cd50:	1c01a503          	lw	a0,448(gp) # 26a80 <_impure_ptr>
   1cd54:	00008067          	ret

0001cd58 <_fclose_r>:
   1cd58:	ff010113          	addi	sp,sp,-16
   1cd5c:	00112623          	sw	ra,12(sp)
   1cd60:	00812423          	sw	s0,8(sp)
   1cd64:	00912223          	sw	s1,4(sp)
   1cd68:	01212023          	sw	s2,0(sp)
   1cd6c:	02058063          	beqz	a1,1cd8c <_fclose_r+0x34>
   1cd70:	00058413          	mv	s0,a1
   1cd74:	00050493          	mv	s1,a0
   1cd78:	00050663          	beqz	a0,1cd84 <_fclose_r+0x2c>
   1cd7c:	03852783          	lw	a5,56(a0)
   1cd80:	0a078c63          	beqz	a5,1ce38 <_fclose_r+0xe0>
   1cd84:	00c41783          	lh	a5,12(s0)
   1cd88:	02079263          	bnez	a5,1cdac <_fclose_r+0x54>
   1cd8c:	00c12083          	lw	ra,12(sp)
   1cd90:	00812403          	lw	s0,8(sp)
   1cd94:	00000913          	li	s2,0
   1cd98:	00412483          	lw	s1,4(sp)
   1cd9c:	00090513          	mv	a0,s2
   1cda0:	00012903          	lw	s2,0(sp)
   1cda4:	01010113          	addi	sp,sp,16
   1cda8:	00008067          	ret
   1cdac:	00040593          	mv	a1,s0
   1cdb0:	00048513          	mv	a0,s1
   1cdb4:	a80f60ef          	jal	ra,13034 <__sflush_r>
   1cdb8:	02c42783          	lw	a5,44(s0)
   1cdbc:	00050913          	mv	s2,a0
   1cdc0:	00078a63          	beqz	a5,1cdd4 <_fclose_r+0x7c>
   1cdc4:	01c42583          	lw	a1,28(s0)
   1cdc8:	00048513          	mv	a0,s1
   1cdcc:	000780e7          	jalr	a5
   1cdd0:	06054c63          	bltz	a0,1ce48 <_fclose_r+0xf0>
   1cdd4:	00c45783          	lhu	a5,12(s0)
   1cdd8:	0807f793          	andi	a5,a5,128
   1cddc:	06079e63          	bnez	a5,1ce58 <_fclose_r+0x100>
   1cde0:	03042583          	lw	a1,48(s0)
   1cde4:	00058c63          	beqz	a1,1cdfc <_fclose_r+0xa4>
   1cde8:	04040793          	addi	a5,s0,64
   1cdec:	00f58663          	beq	a1,a5,1cdf8 <_fclose_r+0xa0>
   1cdf0:	00048513          	mv	a0,s1
   1cdf4:	a89f60ef          	jal	ra,1387c <_free_r>
   1cdf8:	02042823          	sw	zero,48(s0)
   1cdfc:	04442583          	lw	a1,68(s0)
   1ce00:	00058863          	beqz	a1,1ce10 <_fclose_r+0xb8>
   1ce04:	00048513          	mv	a0,s1
   1ce08:	a75f60ef          	jal	ra,1387c <_free_r>
   1ce0c:	04042223          	sw	zero,68(s0)
   1ce10:	8b1f60ef          	jal	ra,136c0 <__sfp_lock_acquire>
   1ce14:	00041623          	sh	zero,12(s0)
   1ce18:	8adf60ef          	jal	ra,136c4 <__sfp_lock_release>
   1ce1c:	00c12083          	lw	ra,12(sp)
   1ce20:	00812403          	lw	s0,8(sp)
   1ce24:	00412483          	lw	s1,4(sp)
   1ce28:	00090513          	mv	a0,s2
   1ce2c:	00012903          	lw	s2,0(sp)
   1ce30:	01010113          	addi	sp,sp,16
   1ce34:	00008067          	ret
   1ce38:	879f60ef          	jal	ra,136b0 <__sinit>
   1ce3c:	00c41783          	lh	a5,12(s0)
   1ce40:	f40786e3          	beqz	a5,1cd8c <_fclose_r+0x34>
   1ce44:	f69ff06f          	j	1cdac <_fclose_r+0x54>
   1ce48:	00c45783          	lhu	a5,12(s0)
   1ce4c:	fff00913          	li	s2,-1
   1ce50:	0807f793          	andi	a5,a5,128
   1ce54:	f80786e3          	beqz	a5,1cde0 <_fclose_r+0x88>
   1ce58:	01042583          	lw	a1,16(s0)
   1ce5c:	00048513          	mv	a0,s1
   1ce60:	a1df60ef          	jal	ra,1387c <_free_r>
   1ce64:	f7dff06f          	j	1cde0 <_fclose_r+0x88>

0001ce68 <fclose>:
   1ce68:	00050593          	mv	a1,a0
   1ce6c:	1c01a503          	lw	a0,448(gp) # 26a80 <_impure_ptr>
   1ce70:	ee9ff06f          	j	1cd58 <_fclose_r>

0001ce74 <_fiprintf_r>:
   1ce74:	fc010113          	addi	sp,sp,-64
   1ce78:	02c10313          	addi	t1,sp,44
   1ce7c:	02d12623          	sw	a3,44(sp)
   1ce80:	00030693          	mv	a3,t1
   1ce84:	00112e23          	sw	ra,28(sp)
   1ce88:	02e12823          	sw	a4,48(sp)
   1ce8c:	02f12a23          	sw	a5,52(sp)
   1ce90:	03012c23          	sw	a6,56(sp)
   1ce94:	03112e23          	sw	a7,60(sp)
   1ce98:	00612623          	sw	t1,12(sp)
   1ce9c:	f24fe0ef          	jal	ra,1b5c0 <_vfiprintf_r>
   1cea0:	01c12083          	lw	ra,28(sp)
   1cea4:	04010113          	addi	sp,sp,64
   1cea8:	00008067          	ret

0001ceac <fiprintf>:
   1ceac:	00050e13          	mv	t3,a0
   1ceb0:	fc010113          	addi	sp,sp,-64
   1ceb4:	1c01a503          	lw	a0,448(gp) # 26a80 <_impure_ptr>
   1ceb8:	02810313          	addi	t1,sp,40
   1cebc:	02c12423          	sw	a2,40(sp)
   1cec0:	02d12623          	sw	a3,44(sp)
   1cec4:	00058613          	mv	a2,a1
   1cec8:	00030693          	mv	a3,t1
   1cecc:	000e0593          	mv	a1,t3
   1ced0:	00112e23          	sw	ra,28(sp)
   1ced4:	02e12823          	sw	a4,48(sp)
   1ced8:	02f12a23          	sw	a5,52(sp)
   1cedc:	03012c23          	sw	a6,56(sp)
   1cee0:	03112e23          	sw	a7,60(sp)
   1cee4:	00612623          	sw	t1,12(sp)
   1cee8:	ed8fe0ef          	jal	ra,1b5c0 <_vfiprintf_r>
   1ceec:	01c12083          	lw	ra,28(sp)
   1cef0:	04010113          	addi	sp,sp,64
   1cef4:	00008067          	ret

0001cef8 <__fputwc>:
   1cef8:	fe010113          	addi	sp,sp,-32
   1cefc:	00812c23          	sw	s0,24(sp)
   1cf00:	00912a23          	sw	s1,20(sp)
   1cf04:	01212823          	sw	s2,16(sp)
   1cf08:	00112e23          	sw	ra,28(sp)
   1cf0c:	00050913          	mv	s2,a0
   1cf10:	00058493          	mv	s1,a1
   1cf14:	00060413          	mv	s0,a2
   1cf18:	758000ef          	jal	ra,1d670 <__locale_mb_cur_max>
   1cf1c:	00100793          	li	a5,1
   1cf20:	00f51c63          	bne	a0,a5,1cf38 <__fputwc+0x40>
   1cf24:	fff48793          	addi	a5,s1,-1
   1cf28:	0fe00713          	li	a4,254
   1cf2c:	00f76663          	bltu	a4,a5,1cf38 <__fputwc+0x40>
   1cf30:	00910623          	sb	s1,12(sp)
   1cf34:	0240006f          	j	1cf58 <__fputwc+0x60>
   1cf38:	05c40693          	addi	a3,s0,92
   1cf3c:	00048613          	mv	a2,s1
   1cf40:	00c10593          	addi	a1,sp,12
   1cf44:	00090513          	mv	a0,s2
   1cf48:	075020ef          	jal	ra,1f7bc <_wcrtomb_r>
   1cf4c:	fff00793          	li	a5,-1
   1cf50:	08f50463          	beq	a0,a5,1cfd8 <__fputwc+0xe0>
   1cf54:	02050c63          	beqz	a0,1cf8c <__fputwc+0x94>
   1cf58:	00842783          	lw	a5,8(s0)
   1cf5c:	00c14583          	lbu	a1,12(sp)
   1cf60:	fff78793          	addi	a5,a5,-1
   1cf64:	00f42423          	sw	a5,8(s0)
   1cf68:	0007da63          	bgez	a5,1cf7c <__fputwc+0x84>
   1cf6c:	01842703          	lw	a4,24(s0)
   1cf70:	02e7cc63          	blt	a5,a4,1cfa8 <__fputwc+0xb0>
   1cf74:	00a00793          	li	a5,10
   1cf78:	02f58863          	beq	a1,a5,1cfa8 <__fputwc+0xb0>
   1cf7c:	00042783          	lw	a5,0(s0)
   1cf80:	00178713          	addi	a4,a5,1
   1cf84:	00e42023          	sw	a4,0(s0)
   1cf88:	00b78023          	sb	a1,0(a5)
   1cf8c:	01c12083          	lw	ra,28(sp)
   1cf90:	01812403          	lw	s0,24(sp)
   1cf94:	01012903          	lw	s2,16(sp)
   1cf98:	00048513          	mv	a0,s1
   1cf9c:	01412483          	lw	s1,20(sp)
   1cfa0:	02010113          	addi	sp,sp,32
   1cfa4:	00008067          	ret
   1cfa8:	00040613          	mv	a2,s0
   1cfac:	00090513          	mv	a0,s2
   1cfb0:	684020ef          	jal	ra,1f634 <__swbuf_r>
   1cfb4:	fff00793          	li	a5,-1
   1cfb8:	fcf51ae3          	bne	a0,a5,1cf8c <__fputwc+0x94>
   1cfbc:	fff00513          	li	a0,-1
   1cfc0:	01c12083          	lw	ra,28(sp)
   1cfc4:	01812403          	lw	s0,24(sp)
   1cfc8:	01412483          	lw	s1,20(sp)
   1cfcc:	01012903          	lw	s2,16(sp)
   1cfd0:	02010113          	addi	sp,sp,32
   1cfd4:	00008067          	ret
   1cfd8:	00c45783          	lhu	a5,12(s0)
   1cfdc:	fff00513          	li	a0,-1
   1cfe0:	0407e793          	ori	a5,a5,64
   1cfe4:	00f41623          	sh	a5,12(s0)
   1cfe8:	fd9ff06f          	j	1cfc0 <__fputwc+0xc8>

0001cfec <_fputwc_r>:
   1cfec:	00c61783          	lh	a5,12(a2)
   1cff0:	01279713          	slli	a4,a5,0x12
   1cff4:	02074063          	bltz	a4,1d014 <_fputwc_r+0x28>
   1cff8:	06462703          	lw	a4,100(a2)
   1cffc:	000026b7          	lui	a3,0x2
   1d000:	00d7e7b3          	or	a5,a5,a3
   1d004:	000026b7          	lui	a3,0x2
   1d008:	00d76733          	or	a4,a4,a3
   1d00c:	00f61623          	sh	a5,12(a2)
   1d010:	06e62223          	sw	a4,100(a2)
   1d014:	ee5ff06f          	j	1cef8 <__fputwc>

0001d018 <fputwc>:
   1d018:	fe010113          	addi	sp,sp,-32
   1d01c:	00812c23          	sw	s0,24(sp)
   1d020:	1c01a403          	lw	s0,448(gp) # 26a80 <_impure_ptr>
   1d024:	00112e23          	sw	ra,28(sp)
   1d028:	00058613          	mv	a2,a1
   1d02c:	00050593          	mv	a1,a0
   1d030:	00040663          	beqz	s0,1d03c <fputwc+0x24>
   1d034:	03842783          	lw	a5,56(s0)
   1d038:	04078063          	beqz	a5,1d078 <fputwc+0x60>
   1d03c:	00c61783          	lh	a5,12(a2)
   1d040:	01279713          	slli	a4,a5,0x12
   1d044:	02074063          	bltz	a4,1d064 <fputwc+0x4c>
   1d048:	06462703          	lw	a4,100(a2)
   1d04c:	000026b7          	lui	a3,0x2
   1d050:	00d7e7b3          	or	a5,a5,a3
   1d054:	000026b7          	lui	a3,0x2
   1d058:	00d76733          	or	a4,a4,a3
   1d05c:	00f61623          	sh	a5,12(a2)
   1d060:	06e62223          	sw	a4,100(a2)
   1d064:	00040513          	mv	a0,s0
   1d068:	01812403          	lw	s0,24(sp)
   1d06c:	01c12083          	lw	ra,28(sp)
   1d070:	02010113          	addi	sp,sp,32
   1d074:	e85ff06f          	j	1cef8 <__fputwc>
   1d078:	00a12423          	sw	a0,8(sp)
   1d07c:	00040513          	mv	a0,s0
   1d080:	00c12623          	sw	a2,12(sp)
   1d084:	e2cf60ef          	jal	ra,136b0 <__sinit>
   1d088:	00c12603          	lw	a2,12(sp)
   1d08c:	00812583          	lw	a1,8(sp)
   1d090:	fadff06f          	j	1d03c <fputwc+0x24>

0001d094 <_fstat_r>:
   1d094:	ff010113          	addi	sp,sp,-16
   1d098:	00058713          	mv	a4,a1
   1d09c:	00812423          	sw	s0,8(sp)
   1d0a0:	00912223          	sw	s1,4(sp)
   1d0a4:	00050413          	mv	s0,a0
   1d0a8:	00060593          	mv	a1,a2
   1d0ac:	00070513          	mv	a0,a4
   1d0b0:	00112623          	sw	ra,12(sp)
   1d0b4:	1c01ae23          	sw	zero,476(gp) # 26a9c <errno>
   1d0b8:	64d020ef          	jal	ra,1ff04 <_fstat>
   1d0bc:	fff00793          	li	a5,-1
   1d0c0:	00f50c63          	beq	a0,a5,1d0d8 <_fstat_r+0x44>
   1d0c4:	00c12083          	lw	ra,12(sp)
   1d0c8:	00812403          	lw	s0,8(sp)
   1d0cc:	00412483          	lw	s1,4(sp)
   1d0d0:	01010113          	addi	sp,sp,16
   1d0d4:	00008067          	ret
   1d0d8:	1dc1a783          	lw	a5,476(gp) # 26a9c <errno>
   1d0dc:	fe0784e3          	beqz	a5,1d0c4 <_fstat_r+0x30>
   1d0e0:	00c12083          	lw	ra,12(sp)
   1d0e4:	00f42023          	sw	a5,0(s0)
   1d0e8:	00812403          	lw	s0,8(sp)
   1d0ec:	00412483          	lw	s1,4(sp)
   1d0f0:	01010113          	addi	sp,sp,16
   1d0f4:	00008067          	ret

0001d0f8 <__sfvwrite_r>:
   1d0f8:	00862783          	lw	a5,8(a2)
   1d0fc:	30078a63          	beqz	a5,1d410 <__sfvwrite_r+0x318>
   1d100:	00c59683          	lh	a3,12(a1)
   1d104:	fd010113          	addi	sp,sp,-48
   1d108:	02812423          	sw	s0,40(sp)
   1d10c:	01412c23          	sw	s4,24(sp)
   1d110:	01612823          	sw	s6,16(sp)
   1d114:	02112623          	sw	ra,44(sp)
   1d118:	02912223          	sw	s1,36(sp)
   1d11c:	03212023          	sw	s2,32(sp)
   1d120:	01312e23          	sw	s3,28(sp)
   1d124:	01512a23          	sw	s5,20(sp)
   1d128:	01712623          	sw	s7,12(sp)
   1d12c:	01812423          	sw	s8,8(sp)
   1d130:	01912223          	sw	s9,4(sp)
   1d134:	0086f793          	andi	a5,a3,8
   1d138:	00060b13          	mv	s6,a2
   1d13c:	00050a13          	mv	s4,a0
   1d140:	00058413          	mv	s0,a1
   1d144:	08078663          	beqz	a5,1d1d0 <__sfvwrite_r+0xd8>
   1d148:	0105a783          	lw	a5,16(a1)
   1d14c:	08078263          	beqz	a5,1d1d0 <__sfvwrite_r+0xd8>
   1d150:	0026f793          	andi	a5,a3,2
   1d154:	000b2483          	lw	s1,0(s6)
   1d158:	08078c63          	beqz	a5,1d1f0 <__sfvwrite_r+0xf8>
   1d15c:	02442783          	lw	a5,36(s0)
   1d160:	01c42583          	lw	a1,28(s0)
   1d164:	80000ab7          	lui	s5,0x80000
   1d168:	00000993          	li	s3,0
   1d16c:	00000913          	li	s2,0
   1d170:	c00aca93          	xori	s5,s5,-1024
   1d174:	00098613          	mv	a2,s3
   1d178:	000a0513          	mv	a0,s4
   1d17c:	04090263          	beqz	s2,1d1c0 <__sfvwrite_r+0xc8>
   1d180:	00090693          	mv	a3,s2
   1d184:	012af463          	bgeu	s5,s2,1d18c <__sfvwrite_r+0x94>
   1d188:	000a8693          	mv	a3,s5
   1d18c:	000780e7          	jalr	a5
   1d190:	26a05663          	blez	a0,1d3fc <__sfvwrite_r+0x304>
   1d194:	008b2783          	lw	a5,8(s6)
   1d198:	00a989b3          	add	s3,s3,a0
   1d19c:	40a90933          	sub	s2,s2,a0
   1d1a0:	40a787b3          	sub	a5,a5,a0
   1d1a4:	00fb2423          	sw	a5,8(s6)
   1d1a8:	20078663          	beqz	a5,1d3b4 <__sfvwrite_r+0x2bc>
   1d1ac:	02442783          	lw	a5,36(s0)
   1d1b0:	01c42583          	lw	a1,28(s0)
   1d1b4:	00098613          	mv	a2,s3
   1d1b8:	000a0513          	mv	a0,s4
   1d1bc:	fc0912e3          	bnez	s2,1d180 <__sfvwrite_r+0x88>
   1d1c0:	0004a983          	lw	s3,0(s1)
   1d1c4:	0044a903          	lw	s2,4(s1)
   1d1c8:	00848493          	addi	s1,s1,8
   1d1cc:	fa9ff06f          	j	1d174 <__sfvwrite_r+0x7c>
   1d1d0:	00040593          	mv	a1,s0
   1d1d4:	000a0513          	mv	a0,s4
   1d1d8:	be9f50ef          	jal	ra,12dc0 <__swsetup_r>
   1d1dc:	22051663          	bnez	a0,1d408 <__sfvwrite_r+0x310>
   1d1e0:	00c41683          	lh	a3,12(s0)
   1d1e4:	000b2483          	lw	s1,0(s6)
   1d1e8:	0026f793          	andi	a5,a3,2
   1d1ec:	f60798e3          	bnez	a5,1d15c <__sfvwrite_r+0x64>
   1d1f0:	0016f793          	andi	a5,a3,1
   1d1f4:	12079c63          	bnez	a5,1d32c <__sfvwrite_r+0x234>
   1d1f8:	00042783          	lw	a5,0(s0)
   1d1fc:	00842703          	lw	a4,8(s0)
   1d200:	80000ab7          	lui	s5,0x80000
   1d204:	00000b93          	li	s7,0
   1d208:	00000993          	li	s3,0
   1d20c:	fffaca93          	not	s5,s5
   1d210:	00078513          	mv	a0,a5
   1d214:	00070c13          	mv	s8,a4
   1d218:	10098263          	beqz	s3,1d31c <__sfvwrite_r+0x224>
   1d21c:	2006f613          	andi	a2,a3,512
   1d220:	24060c63          	beqz	a2,1d478 <__sfvwrite_r+0x380>
   1d224:	00070c93          	mv	s9,a4
   1d228:	2ee9e663          	bltu	s3,a4,1d514 <__sfvwrite_r+0x41c>
   1d22c:	4806f713          	andi	a4,a3,1152
   1d230:	08070a63          	beqz	a4,1d2c4 <__sfvwrite_r+0x1cc>
   1d234:	01442603          	lw	a2,20(s0)
   1d238:	01042583          	lw	a1,16(s0)
   1d23c:	00161713          	slli	a4,a2,0x1
   1d240:	00c70733          	add	a4,a4,a2
   1d244:	40b78933          	sub	s2,a5,a1
   1d248:	01f75c13          	srli	s8,a4,0x1f
   1d24c:	00ec0c33          	add	s8,s8,a4
   1d250:	00190793          	addi	a5,s2,1
   1d254:	401c5c13          	srai	s8,s8,0x1
   1d258:	013787b3          	add	a5,a5,s3
   1d25c:	000c0613          	mv	a2,s8
   1d260:	00fc7663          	bgeu	s8,a5,1d26c <__sfvwrite_r+0x174>
   1d264:	00078c13          	mv	s8,a5
   1d268:	00078613          	mv	a2,a5
   1d26c:	4006f693          	andi	a3,a3,1024
   1d270:	2c068e63          	beqz	a3,1d54c <__sfvwrite_r+0x454>
   1d274:	00060593          	mv	a1,a2
   1d278:	000a0513          	mv	a0,s4
   1d27c:	98df90ef          	jal	ra,16c08 <_malloc_r>
   1d280:	00050c93          	mv	s9,a0
   1d284:	30050263          	beqz	a0,1d588 <__sfvwrite_r+0x490>
   1d288:	01042583          	lw	a1,16(s0)
   1d28c:	00090613          	mv	a2,s2
   1d290:	53c000ef          	jal	ra,1d7cc <memcpy>
   1d294:	00c45783          	lhu	a5,12(s0)
   1d298:	b7f7f793          	andi	a5,a5,-1153
   1d29c:	0807e793          	ori	a5,a5,128
   1d2a0:	00f41623          	sh	a5,12(s0)
   1d2a4:	012c8533          	add	a0,s9,s2
   1d2a8:	412c07b3          	sub	a5,s8,s2
   1d2ac:	01942823          	sw	s9,16(s0)
   1d2b0:	01842a23          	sw	s8,20(s0)
   1d2b4:	00a42023          	sw	a0,0(s0)
   1d2b8:	00098c13          	mv	s8,s3
   1d2bc:	00f42423          	sw	a5,8(s0)
   1d2c0:	00098c93          	mv	s9,s3
   1d2c4:	000c8613          	mv	a2,s9
   1d2c8:	000b8593          	mv	a1,s7
   1d2cc:	6a4000ef          	jal	ra,1d970 <memmove>
   1d2d0:	00842703          	lw	a4,8(s0)
   1d2d4:	00042783          	lw	a5,0(s0)
   1d2d8:	00098913          	mv	s2,s3
   1d2dc:	41870733          	sub	a4,a4,s8
   1d2e0:	019787b3          	add	a5,a5,s9
   1d2e4:	00e42423          	sw	a4,8(s0)
   1d2e8:	00f42023          	sw	a5,0(s0)
   1d2ec:	00000993          	li	s3,0
   1d2f0:	008b2783          	lw	a5,8(s6)
   1d2f4:	012b8bb3          	add	s7,s7,s2
   1d2f8:	412787b3          	sub	a5,a5,s2
   1d2fc:	00fb2423          	sw	a5,8(s6)
   1d300:	0a078a63          	beqz	a5,1d3b4 <__sfvwrite_r+0x2bc>
   1d304:	00042783          	lw	a5,0(s0)
   1d308:	00842703          	lw	a4,8(s0)
   1d30c:	00c41683          	lh	a3,12(s0)
   1d310:	00078513          	mv	a0,a5
   1d314:	00070c13          	mv	s8,a4
   1d318:	f00992e3          	bnez	s3,1d21c <__sfvwrite_r+0x124>
   1d31c:	0004ab83          	lw	s7,0(s1)
   1d320:	0044a983          	lw	s3,4(s1)
   1d324:	00848493          	addi	s1,s1,8
   1d328:	ee9ff06f          	j	1d210 <__sfvwrite_r+0x118>
   1d32c:	00000a93          	li	s5,0
   1d330:	00000513          	li	a0,0
   1d334:	00000c13          	li	s8,0
   1d338:	00000993          	li	s3,0
   1d33c:	0c098e63          	beqz	s3,1d418 <__sfvwrite_r+0x320>
   1d340:	0e050663          	beqz	a0,1d42c <__sfvwrite_r+0x334>
   1d344:	000a8793          	mv	a5,s5
   1d348:	00098b93          	mv	s7,s3
   1d34c:	0137f463          	bgeu	a5,s3,1d354 <__sfvwrite_r+0x25c>
   1d350:	00078b93          	mv	s7,a5
   1d354:	00042503          	lw	a0,0(s0)
   1d358:	01042783          	lw	a5,16(s0)
   1d35c:	00842903          	lw	s2,8(s0)
   1d360:	01442683          	lw	a3,20(s0)
   1d364:	00a7f663          	bgeu	a5,a0,1d370 <__sfvwrite_r+0x278>
   1d368:	00d90933          	add	s2,s2,a3
   1d36c:	0f794063          	blt	s2,s7,1d44c <__sfvwrite_r+0x354>
   1d370:	1adbc863          	blt	s7,a3,1d520 <__sfvwrite_r+0x428>
   1d374:	02442783          	lw	a5,36(s0)
   1d378:	01c42583          	lw	a1,28(s0)
   1d37c:	000c0613          	mv	a2,s8
   1d380:	000a0513          	mv	a0,s4
   1d384:	000780e7          	jalr	a5
   1d388:	00050913          	mv	s2,a0
   1d38c:	06a05863          	blez	a0,1d3fc <__sfvwrite_r+0x304>
   1d390:	412a8ab3          	sub	s5,s5,s2
   1d394:	00100513          	li	a0,1
   1d398:	040a8a63          	beqz	s5,1d3ec <__sfvwrite_r+0x2f4>
   1d39c:	008b2783          	lw	a5,8(s6)
   1d3a0:	012c0c33          	add	s8,s8,s2
   1d3a4:	412989b3          	sub	s3,s3,s2
   1d3a8:	412787b3          	sub	a5,a5,s2
   1d3ac:	00fb2423          	sw	a5,8(s6)
   1d3b0:	f80796e3          	bnez	a5,1d33c <__sfvwrite_r+0x244>
   1d3b4:	00000513          	li	a0,0
   1d3b8:	02c12083          	lw	ra,44(sp)
   1d3bc:	02812403          	lw	s0,40(sp)
   1d3c0:	02412483          	lw	s1,36(sp)
   1d3c4:	02012903          	lw	s2,32(sp)
   1d3c8:	01c12983          	lw	s3,28(sp)
   1d3cc:	01812a03          	lw	s4,24(sp)
   1d3d0:	01412a83          	lw	s5,20(sp)
   1d3d4:	01012b03          	lw	s6,16(sp)
   1d3d8:	00c12b83          	lw	s7,12(sp)
   1d3dc:	00812c03          	lw	s8,8(sp)
   1d3e0:	00412c83          	lw	s9,4(sp)
   1d3e4:	03010113          	addi	sp,sp,48
   1d3e8:	00008067          	ret
   1d3ec:	00040593          	mv	a1,s0
   1d3f0:	000a0513          	mv	a0,s4
   1d3f4:	e8df50ef          	jal	ra,13280 <_fflush_r>
   1d3f8:	fa0502e3          	beqz	a0,1d39c <__sfvwrite_r+0x2a4>
   1d3fc:	00c41783          	lh	a5,12(s0)
   1d400:	0407e793          	ori	a5,a5,64
   1d404:	00f41623          	sh	a5,12(s0)
   1d408:	fff00513          	li	a0,-1
   1d40c:	fadff06f          	j	1d3b8 <__sfvwrite_r+0x2c0>
   1d410:	00000513          	li	a0,0
   1d414:	00008067          	ret
   1d418:	0044a983          	lw	s3,4(s1)
   1d41c:	00048793          	mv	a5,s1
   1d420:	00848493          	addi	s1,s1,8
   1d424:	fe098ae3          	beqz	s3,1d418 <__sfvwrite_r+0x320>
   1d428:	0007ac03          	lw	s8,0(a5)
   1d42c:	00098613          	mv	a2,s3
   1d430:	00a00593          	li	a1,10
   1d434:	000c0513          	mv	a0,s8
   1d438:	f45f90ef          	jal	ra,1737c <memchr>
   1d43c:	14050063          	beqz	a0,1d57c <__sfvwrite_r+0x484>
   1d440:	00150513          	addi	a0,a0,1
   1d444:	41850ab3          	sub	s5,a0,s8
   1d448:	efdff06f          	j	1d344 <__sfvwrite_r+0x24c>
   1d44c:	000c0593          	mv	a1,s8
   1d450:	00090613          	mv	a2,s2
   1d454:	51c000ef          	jal	ra,1d970 <memmove>
   1d458:	00042783          	lw	a5,0(s0)
   1d45c:	00040593          	mv	a1,s0
   1d460:	000a0513          	mv	a0,s4
   1d464:	012787b3          	add	a5,a5,s2
   1d468:	00f42023          	sw	a5,0(s0)
   1d46c:	e15f50ef          	jal	ra,13280 <_fflush_r>
   1d470:	f20500e3          	beqz	a0,1d390 <__sfvwrite_r+0x298>
   1d474:	f89ff06f          	j	1d3fc <__sfvwrite_r+0x304>
   1d478:	01042683          	lw	a3,16(s0)
   1d47c:	04f6e463          	bltu	a3,a5,1d4c4 <__sfvwrite_r+0x3cc>
   1d480:	01442583          	lw	a1,20(s0)
   1d484:	04b9e063          	bltu	s3,a1,1d4c4 <__sfvwrite_r+0x3cc>
   1d488:	00098913          	mv	s2,s3
   1d48c:	013af463          	bgeu	s5,s3,1d494 <__sfvwrite_r+0x39c>
   1d490:	000a8913          	mv	s2,s5
   1d494:	00090513          	mv	a0,s2
   1d498:	349070ef          	jal	ra,24fe0 <__modsi3>
   1d49c:	02442783          	lw	a5,36(s0)
   1d4a0:	01c42583          	lw	a1,28(s0)
   1d4a4:	40a906b3          	sub	a3,s2,a0
   1d4a8:	000b8613          	mv	a2,s7
   1d4ac:	000a0513          	mv	a0,s4
   1d4b0:	000780e7          	jalr	a5
   1d4b4:	00050913          	mv	s2,a0
   1d4b8:	f4a052e3          	blez	a0,1d3fc <__sfvwrite_r+0x304>
   1d4bc:	412989b3          	sub	s3,s3,s2
   1d4c0:	e31ff06f          	j	1d2f0 <__sfvwrite_r+0x1f8>
   1d4c4:	00070913          	mv	s2,a4
   1d4c8:	00e9f463          	bgeu	s3,a4,1d4d0 <__sfvwrite_r+0x3d8>
   1d4cc:	00098913          	mv	s2,s3
   1d4d0:	00078513          	mv	a0,a5
   1d4d4:	00090613          	mv	a2,s2
   1d4d8:	000b8593          	mv	a1,s7
   1d4dc:	494000ef          	jal	ra,1d970 <memmove>
   1d4e0:	00842703          	lw	a4,8(s0)
   1d4e4:	00042783          	lw	a5,0(s0)
   1d4e8:	41270733          	sub	a4,a4,s2
   1d4ec:	012787b3          	add	a5,a5,s2
   1d4f0:	00e42423          	sw	a4,8(s0)
   1d4f4:	00f42023          	sw	a5,0(s0)
   1d4f8:	fc0712e3          	bnez	a4,1d4bc <__sfvwrite_r+0x3c4>
   1d4fc:	00040593          	mv	a1,s0
   1d500:	000a0513          	mv	a0,s4
   1d504:	d7df50ef          	jal	ra,13280 <_fflush_r>
   1d508:	ee051ae3          	bnez	a0,1d3fc <__sfvwrite_r+0x304>
   1d50c:	412989b3          	sub	s3,s3,s2
   1d510:	de1ff06f          	j	1d2f0 <__sfvwrite_r+0x1f8>
   1d514:	00098c13          	mv	s8,s3
   1d518:	00098c93          	mv	s9,s3
   1d51c:	da9ff06f          	j	1d2c4 <__sfvwrite_r+0x1cc>
   1d520:	000b8613          	mv	a2,s7
   1d524:	000c0593          	mv	a1,s8
   1d528:	448000ef          	jal	ra,1d970 <memmove>
   1d52c:	00842703          	lw	a4,8(s0)
   1d530:	00042783          	lw	a5,0(s0)
   1d534:	000b8913          	mv	s2,s7
   1d538:	41770733          	sub	a4,a4,s7
   1d53c:	017787b3          	add	a5,a5,s7
   1d540:	00e42423          	sw	a4,8(s0)
   1d544:	00f42023          	sw	a5,0(s0)
   1d548:	e49ff06f          	j	1d390 <__sfvwrite_r+0x298>
   1d54c:	000a0513          	mv	a0,s4
   1d550:	5a4000ef          	jal	ra,1daf4 <_realloc_r>
   1d554:	00050c93          	mv	s9,a0
   1d558:	d40516e3          	bnez	a0,1d2a4 <__sfvwrite_r+0x1ac>
   1d55c:	01042583          	lw	a1,16(s0)
   1d560:	000a0513          	mv	a0,s4
   1d564:	b18f60ef          	jal	ra,1387c <_free_r>
   1d568:	00c41783          	lh	a5,12(s0)
   1d56c:	00c00713          	li	a4,12
   1d570:	00ea2023          	sw	a4,0(s4)
   1d574:	f7f7f793          	andi	a5,a5,-129
   1d578:	e89ff06f          	j	1d400 <__sfvwrite_r+0x308>
   1d57c:	00198793          	addi	a5,s3,1
   1d580:	00078a93          	mv	s5,a5
   1d584:	dc5ff06f          	j	1d348 <__sfvwrite_r+0x250>
   1d588:	00c00713          	li	a4,12
   1d58c:	00c41783          	lh	a5,12(s0)
   1d590:	00ea2023          	sw	a4,0(s4)
   1d594:	e6dff06f          	j	1d400 <__sfvwrite_r+0x308>

0001d598 <_isatty_r>:
   1d598:	ff010113          	addi	sp,sp,-16
   1d59c:	00812423          	sw	s0,8(sp)
   1d5a0:	00912223          	sw	s1,4(sp)
   1d5a4:	00050413          	mv	s0,a0
   1d5a8:	00058513          	mv	a0,a1
   1d5ac:	00112623          	sw	ra,12(sp)
   1d5b0:	1c01ae23          	sw	zero,476(gp) # 26a9c <errno>
   1d5b4:	1b9020ef          	jal	ra,1ff6c <_isatty>
   1d5b8:	fff00793          	li	a5,-1
   1d5bc:	00f50c63          	beq	a0,a5,1d5d4 <_isatty_r+0x3c>
   1d5c0:	00c12083          	lw	ra,12(sp)
   1d5c4:	00812403          	lw	s0,8(sp)
   1d5c8:	00412483          	lw	s1,4(sp)
   1d5cc:	01010113          	addi	sp,sp,16
   1d5d0:	00008067          	ret
   1d5d4:	1dc1a783          	lw	a5,476(gp) # 26a9c <errno>
   1d5d8:	fe0784e3          	beqz	a5,1d5c0 <_isatty_r+0x28>
   1d5dc:	00c12083          	lw	ra,12(sp)
   1d5e0:	00f42023          	sw	a5,0(s0)
   1d5e4:	00812403          	lw	s0,8(sp)
   1d5e8:	00412483          	lw	s1,4(sp)
   1d5ec:	01010113          	addi	sp,sp,16
   1d5f0:	00008067          	ret

0001d5f4 <_setlocale_r>:
   1d5f4:	ff010113          	addi	sp,sp,-16
   1d5f8:	00112623          	sw	ra,12(sp)
   1d5fc:	00812423          	sw	s0,8(sp)
   1d600:	00912223          	sw	s1,4(sp)
   1d604:	02060c63          	beqz	a2,1d63c <_setlocale_r+0x48>
   1d608:	000265b7          	lui	a1,0x26
   1d60c:	b9c58593          	addi	a1,a1,-1124 # 25b9c <blanks.1+0x54>
   1d610:	00060513          	mv	a0,a2
   1d614:	00060413          	mv	s0,a2
   1d618:	3e1000ef          	jal	ra,1e1f8 <strcmp>
   1d61c:	000264b7          	lui	s1,0x26
   1d620:	02051263          	bnez	a0,1d644 <_setlocale_r+0x50>
   1d624:	b9848513          	addi	a0,s1,-1128 # 25b98 <blanks.1+0x50>
   1d628:	00c12083          	lw	ra,12(sp)
   1d62c:	00812403          	lw	s0,8(sp)
   1d630:	00412483          	lw	s1,4(sp)
   1d634:	01010113          	addi	sp,sp,16
   1d638:	00008067          	ret
   1d63c:	000264b7          	lui	s1,0x26
   1d640:	fe5ff06f          	j	1d624 <_setlocale_r+0x30>
   1d644:	b9848593          	addi	a1,s1,-1128 # 25b98 <blanks.1+0x50>
   1d648:	00040513          	mv	a0,s0
   1d64c:	3ad000ef          	jal	ra,1e1f8 <strcmp>
   1d650:	fc050ae3          	beqz	a0,1d624 <_setlocale_r+0x30>
   1d654:	000255b7          	lui	a1,0x25
   1d658:	0fc58593          	addi	a1,a1,252 # 250fc <__clzsi2+0xec>
   1d65c:	00040513          	mv	a0,s0
   1d660:	399000ef          	jal	ra,1e1f8 <strcmp>
   1d664:	fc0500e3          	beqz	a0,1d624 <_setlocale_r+0x30>
   1d668:	00000513          	li	a0,0
   1d66c:	fbdff06f          	j	1d628 <_setlocale_r+0x34>

0001d670 <__locale_mb_cur_max>:
   1d670:	1581c503          	lbu	a0,344(gp) # 26a18 <__global_locale+0x128>
   1d674:	00008067          	ret

0001d678 <setlocale>:
   1d678:	ff010113          	addi	sp,sp,-16
   1d67c:	00112623          	sw	ra,12(sp)
   1d680:	00812423          	sw	s0,8(sp)
   1d684:	00912223          	sw	s1,4(sp)
   1d688:	02058c63          	beqz	a1,1d6c0 <setlocale+0x48>
   1d68c:	00058413          	mv	s0,a1
   1d690:	000265b7          	lui	a1,0x26
   1d694:	b9c58593          	addi	a1,a1,-1124 # 25b9c <blanks.1+0x54>
   1d698:	00040513          	mv	a0,s0
   1d69c:	35d000ef          	jal	ra,1e1f8 <strcmp>
   1d6a0:	000264b7          	lui	s1,0x26
   1d6a4:	02051263          	bnez	a0,1d6c8 <setlocale+0x50>
   1d6a8:	b9848513          	addi	a0,s1,-1128 # 25b98 <blanks.1+0x50>
   1d6ac:	00c12083          	lw	ra,12(sp)
   1d6b0:	00812403          	lw	s0,8(sp)
   1d6b4:	00412483          	lw	s1,4(sp)
   1d6b8:	01010113          	addi	sp,sp,16
   1d6bc:	00008067          	ret
   1d6c0:	000264b7          	lui	s1,0x26
   1d6c4:	fe5ff06f          	j	1d6a8 <setlocale+0x30>
   1d6c8:	b9848593          	addi	a1,s1,-1128 # 25b98 <blanks.1+0x50>
   1d6cc:	00040513          	mv	a0,s0
   1d6d0:	329000ef          	jal	ra,1e1f8 <strcmp>
   1d6d4:	fc050ae3          	beqz	a0,1d6a8 <setlocale+0x30>
   1d6d8:	000255b7          	lui	a1,0x25
   1d6dc:	0fc58593          	addi	a1,a1,252 # 250fc <__clzsi2+0xec>
   1d6e0:	00040513          	mv	a0,s0
   1d6e4:	315000ef          	jal	ra,1e1f8 <strcmp>
   1d6e8:	fc0500e3          	beqz	a0,1d6a8 <setlocale+0x30>
   1d6ec:	00000513          	li	a0,0
   1d6f0:	fbdff06f          	j	1d6ac <setlocale+0x34>

0001d6f4 <_lseek_r>:
   1d6f4:	ff010113          	addi	sp,sp,-16
   1d6f8:	00058713          	mv	a4,a1
   1d6fc:	00812423          	sw	s0,8(sp)
   1d700:	00912223          	sw	s1,4(sp)
   1d704:	00060593          	mv	a1,a2
   1d708:	00050413          	mv	s0,a0
   1d70c:	00068613          	mv	a2,a3
   1d710:	00070513          	mv	a0,a4
   1d714:	00112623          	sw	ra,12(sp)
   1d718:	1c01ae23          	sw	zero,476(gp) # 26a9c <errno>
   1d71c:	0b5020ef          	jal	ra,1ffd0 <_lseek>
   1d720:	fff00793          	li	a5,-1
   1d724:	00f50c63          	beq	a0,a5,1d73c <_lseek_r+0x48>
   1d728:	00c12083          	lw	ra,12(sp)
   1d72c:	00812403          	lw	s0,8(sp)
   1d730:	00412483          	lw	s1,4(sp)
   1d734:	01010113          	addi	sp,sp,16
   1d738:	00008067          	ret
   1d73c:	1dc1a783          	lw	a5,476(gp) # 26a9c <errno>
   1d740:	fe0784e3          	beqz	a5,1d728 <_lseek_r+0x34>
   1d744:	00c12083          	lw	ra,12(sp)
   1d748:	00f42023          	sw	a5,0(s0)
   1d74c:	00812403          	lw	s0,8(sp)
   1d750:	00412483          	lw	s1,4(sp)
   1d754:	01010113          	addi	sp,sp,16
   1d758:	00008067          	ret

0001d75c <_mbtowc_r>:
   1d75c:	1141a783          	lw	a5,276(gp) # 269d4 <__global_locale+0xe4>
   1d760:	00078067          	jr	a5

0001d764 <__ascii_mbtowc>:
   1d764:	02058063          	beqz	a1,1d784 <__ascii_mbtowc+0x20>
   1d768:	04060263          	beqz	a2,1d7ac <__ascii_mbtowc+0x48>
   1d76c:	04068863          	beqz	a3,1d7bc <__ascii_mbtowc+0x58>
   1d770:	00064783          	lbu	a5,0(a2)
   1d774:	00f5a023          	sw	a5,0(a1)
   1d778:	00064503          	lbu	a0,0(a2)
   1d77c:	00a03533          	snez	a0,a0
   1d780:	00008067          	ret
   1d784:	ff010113          	addi	sp,sp,-16
   1d788:	00c10593          	addi	a1,sp,12
   1d78c:	02060463          	beqz	a2,1d7b4 <__ascii_mbtowc+0x50>
   1d790:	02068a63          	beqz	a3,1d7c4 <__ascii_mbtowc+0x60>
   1d794:	00064783          	lbu	a5,0(a2)
   1d798:	00f5a023          	sw	a5,0(a1)
   1d79c:	00064503          	lbu	a0,0(a2)
   1d7a0:	00a03533          	snez	a0,a0
   1d7a4:	01010113          	addi	sp,sp,16
   1d7a8:	00008067          	ret
   1d7ac:	00000513          	li	a0,0
   1d7b0:	00008067          	ret
   1d7b4:	00000513          	li	a0,0
   1d7b8:	fedff06f          	j	1d7a4 <__ascii_mbtowc+0x40>
   1d7bc:	ffe00513          	li	a0,-2
   1d7c0:	00008067          	ret
   1d7c4:	ffe00513          	li	a0,-2
   1d7c8:	fddff06f          	j	1d7a4 <__ascii_mbtowc+0x40>

0001d7cc <memcpy>:
   1d7cc:	00b547b3          	xor	a5,a0,a1
   1d7d0:	0037f793          	andi	a5,a5,3
   1d7d4:	00c508b3          	add	a7,a0,a2
   1d7d8:	06079463          	bnez	a5,1d840 <memcpy+0x74>
   1d7dc:	00300793          	li	a5,3
   1d7e0:	06c7f063          	bgeu	a5,a2,1d840 <memcpy+0x74>
   1d7e4:	00357793          	andi	a5,a0,3
   1d7e8:	00050713          	mv	a4,a0
   1d7ec:	06079a63          	bnez	a5,1d860 <memcpy+0x94>
   1d7f0:	ffc8f613          	andi	a2,a7,-4
   1d7f4:	40e606b3          	sub	a3,a2,a4
   1d7f8:	02000793          	li	a5,32
   1d7fc:	08d7ce63          	blt	a5,a3,1d898 <memcpy+0xcc>
   1d800:	00058693          	mv	a3,a1
   1d804:	00070793          	mv	a5,a4
   1d808:	02c77863          	bgeu	a4,a2,1d838 <memcpy+0x6c>
   1d80c:	0006a803          	lw	a6,0(a3) # 2000 <exit-0xe094>
   1d810:	00478793          	addi	a5,a5,4
   1d814:	00468693          	addi	a3,a3,4
   1d818:	ff07ae23          	sw	a6,-4(a5)
   1d81c:	fec7e8e3          	bltu	a5,a2,1d80c <memcpy+0x40>
   1d820:	fff60793          	addi	a5,a2,-1
   1d824:	40e787b3          	sub	a5,a5,a4
   1d828:	ffc7f793          	andi	a5,a5,-4
   1d82c:	00478793          	addi	a5,a5,4
   1d830:	00f70733          	add	a4,a4,a5
   1d834:	00f585b3          	add	a1,a1,a5
   1d838:	01176863          	bltu	a4,a7,1d848 <memcpy+0x7c>
   1d83c:	00008067          	ret
   1d840:	00050713          	mv	a4,a0
   1d844:	05157863          	bgeu	a0,a7,1d894 <memcpy+0xc8>
   1d848:	0005c783          	lbu	a5,0(a1)
   1d84c:	00170713          	addi	a4,a4,1
   1d850:	00158593          	addi	a1,a1,1
   1d854:	fef70fa3          	sb	a5,-1(a4)
   1d858:	fee898e3          	bne	a7,a4,1d848 <memcpy+0x7c>
   1d85c:	00008067          	ret
   1d860:	0005c683          	lbu	a3,0(a1)
   1d864:	00170713          	addi	a4,a4,1
   1d868:	00377793          	andi	a5,a4,3
   1d86c:	fed70fa3          	sb	a3,-1(a4)
   1d870:	00158593          	addi	a1,a1,1
   1d874:	f6078ee3          	beqz	a5,1d7f0 <memcpy+0x24>
   1d878:	0005c683          	lbu	a3,0(a1)
   1d87c:	00170713          	addi	a4,a4,1
   1d880:	00377793          	andi	a5,a4,3
   1d884:	fed70fa3          	sb	a3,-1(a4)
   1d888:	00158593          	addi	a1,a1,1
   1d88c:	fc079ae3          	bnez	a5,1d860 <memcpy+0x94>
   1d890:	f61ff06f          	j	1d7f0 <memcpy+0x24>
   1d894:	00008067          	ret
   1d898:	ff010113          	addi	sp,sp,-16
   1d89c:	00812623          	sw	s0,12(sp)
   1d8a0:	02000413          	li	s0,32
   1d8a4:	0005a383          	lw	t2,0(a1)
   1d8a8:	0045a283          	lw	t0,4(a1)
   1d8ac:	0085af83          	lw	t6,8(a1)
   1d8b0:	00c5af03          	lw	t5,12(a1)
   1d8b4:	0105ae83          	lw	t4,16(a1)
   1d8b8:	0145ae03          	lw	t3,20(a1)
   1d8bc:	0185a303          	lw	t1,24(a1)
   1d8c0:	01c5a803          	lw	a6,28(a1)
   1d8c4:	0205a683          	lw	a3,32(a1)
   1d8c8:	02470713          	addi	a4,a4,36
   1d8cc:	40e607b3          	sub	a5,a2,a4
   1d8d0:	fc772e23          	sw	t2,-36(a4)
   1d8d4:	fe572023          	sw	t0,-32(a4)
   1d8d8:	fff72223          	sw	t6,-28(a4)
   1d8dc:	ffe72423          	sw	t5,-24(a4)
   1d8e0:	ffd72623          	sw	t4,-20(a4)
   1d8e4:	ffc72823          	sw	t3,-16(a4)
   1d8e8:	fe672a23          	sw	t1,-12(a4)
   1d8ec:	ff072c23          	sw	a6,-8(a4)
   1d8f0:	fed72e23          	sw	a3,-4(a4)
   1d8f4:	02458593          	addi	a1,a1,36
   1d8f8:	faf446e3          	blt	s0,a5,1d8a4 <memcpy+0xd8>
   1d8fc:	00058693          	mv	a3,a1
   1d900:	00070793          	mv	a5,a4
   1d904:	02c77863          	bgeu	a4,a2,1d934 <memcpy+0x168>
   1d908:	0006a803          	lw	a6,0(a3)
   1d90c:	00478793          	addi	a5,a5,4
   1d910:	00468693          	addi	a3,a3,4
   1d914:	ff07ae23          	sw	a6,-4(a5)
   1d918:	fec7e8e3          	bltu	a5,a2,1d908 <memcpy+0x13c>
   1d91c:	fff60793          	addi	a5,a2,-1
   1d920:	40e787b3          	sub	a5,a5,a4
   1d924:	ffc7f793          	andi	a5,a5,-4
   1d928:	00478793          	addi	a5,a5,4
   1d92c:	00f70733          	add	a4,a4,a5
   1d930:	00f585b3          	add	a1,a1,a5
   1d934:	01176863          	bltu	a4,a7,1d944 <memcpy+0x178>
   1d938:	00c12403          	lw	s0,12(sp)
   1d93c:	01010113          	addi	sp,sp,16
   1d940:	00008067          	ret
   1d944:	0005c783          	lbu	a5,0(a1)
   1d948:	00170713          	addi	a4,a4,1
   1d94c:	00158593          	addi	a1,a1,1
   1d950:	fef70fa3          	sb	a5,-1(a4)
   1d954:	fee882e3          	beq	a7,a4,1d938 <memcpy+0x16c>
   1d958:	0005c783          	lbu	a5,0(a1)
   1d95c:	00170713          	addi	a4,a4,1
   1d960:	00158593          	addi	a1,a1,1
   1d964:	fef70fa3          	sb	a5,-1(a4)
   1d968:	fce89ee3          	bne	a7,a4,1d944 <memcpy+0x178>
   1d96c:	fcdff06f          	j	1d938 <memcpy+0x16c>

0001d970 <memmove>:
   1d970:	02a5f663          	bgeu	a1,a0,1d99c <memmove+0x2c>
   1d974:	00c58733          	add	a4,a1,a2
   1d978:	02e57263          	bgeu	a0,a4,1d99c <memmove+0x2c>
   1d97c:	00c507b3          	add	a5,a0,a2
   1d980:	04060663          	beqz	a2,1d9cc <memmove+0x5c>
   1d984:	fff74683          	lbu	a3,-1(a4)
   1d988:	fff78793          	addi	a5,a5,-1
   1d98c:	fff70713          	addi	a4,a4,-1
   1d990:	00d78023          	sb	a3,0(a5)
   1d994:	fef518e3          	bne	a0,a5,1d984 <memmove+0x14>
   1d998:	00008067          	ret
   1d99c:	00f00793          	li	a5,15
   1d9a0:	02c7e863          	bltu	a5,a2,1d9d0 <memmove+0x60>
   1d9a4:	00050793          	mv	a5,a0
   1d9a8:	fff60693          	addi	a3,a2,-1
   1d9ac:	0c060a63          	beqz	a2,1da80 <memmove+0x110>
   1d9b0:	00168693          	addi	a3,a3,1
   1d9b4:	00d786b3          	add	a3,a5,a3
   1d9b8:	0005c703          	lbu	a4,0(a1)
   1d9bc:	00178793          	addi	a5,a5,1
   1d9c0:	00158593          	addi	a1,a1,1
   1d9c4:	fee78fa3          	sb	a4,-1(a5)
   1d9c8:	fed798e3          	bne	a5,a3,1d9b8 <memmove+0x48>
   1d9cc:	00008067          	ret
   1d9d0:	00b567b3          	or	a5,a0,a1
   1d9d4:	0037f793          	andi	a5,a5,3
   1d9d8:	08079e63          	bnez	a5,1da74 <memmove+0x104>
   1d9dc:	ff060893          	addi	a7,a2,-16
   1d9e0:	ff08f893          	andi	a7,a7,-16
   1d9e4:	01088893          	addi	a7,a7,16
   1d9e8:	011507b3          	add	a5,a0,a7
   1d9ec:	00058693          	mv	a3,a1
   1d9f0:	00050713          	mv	a4,a0
   1d9f4:	0006a803          	lw	a6,0(a3)
   1d9f8:	01068693          	addi	a3,a3,16
   1d9fc:	01070713          	addi	a4,a4,16
   1da00:	ff072823          	sw	a6,-16(a4)
   1da04:	ff46a803          	lw	a6,-12(a3)
   1da08:	ff072a23          	sw	a6,-12(a4)
   1da0c:	ff86a803          	lw	a6,-8(a3)
   1da10:	ff072c23          	sw	a6,-8(a4)
   1da14:	ffc6a803          	lw	a6,-4(a3)
   1da18:	ff072e23          	sw	a6,-4(a4)
   1da1c:	fcf71ce3          	bne	a4,a5,1d9f4 <memmove+0x84>
   1da20:	00c67713          	andi	a4,a2,12
   1da24:	011585b3          	add	a1,a1,a7
   1da28:	00f67813          	andi	a6,a2,15
   1da2c:	04070c63          	beqz	a4,1da84 <memmove+0x114>
   1da30:	00058693          	mv	a3,a1
   1da34:	00078713          	mv	a4,a5
   1da38:	01078eb3          	add	t4,a5,a6
   1da3c:	00300e13          	li	t3,3
   1da40:	0006a303          	lw	t1,0(a3)
   1da44:	00470713          	addi	a4,a4,4
   1da48:	40ee88b3          	sub	a7,t4,a4
   1da4c:	fe672e23          	sw	t1,-4(a4)
   1da50:	00468693          	addi	a3,a3,4
   1da54:	ff1e66e3          	bltu	t3,a7,1da40 <memmove+0xd0>
   1da58:	ffc80713          	addi	a4,a6,-4
   1da5c:	ffc77713          	andi	a4,a4,-4
   1da60:	00470713          	addi	a4,a4,4
   1da64:	00367613          	andi	a2,a2,3
   1da68:	00e787b3          	add	a5,a5,a4
   1da6c:	00e585b3          	add	a1,a1,a4
   1da70:	f39ff06f          	j	1d9a8 <memmove+0x38>
   1da74:	fff60693          	addi	a3,a2,-1
   1da78:	00050793          	mv	a5,a0
   1da7c:	f35ff06f          	j	1d9b0 <memmove+0x40>
   1da80:	00008067          	ret
   1da84:	00080613          	mv	a2,a6
   1da88:	f21ff06f          	j	1d9a8 <memmove+0x38>

0001da8c <_read_r>:
   1da8c:	ff010113          	addi	sp,sp,-16
   1da90:	00058713          	mv	a4,a1
   1da94:	00812423          	sw	s0,8(sp)
   1da98:	00912223          	sw	s1,4(sp)
   1da9c:	00060593          	mv	a1,a2
   1daa0:	00050413          	mv	s0,a0
   1daa4:	00068613          	mv	a2,a3
   1daa8:	00070513          	mv	a0,a4
   1daac:	00112623          	sw	ra,12(sp)
   1dab0:	1c01ae23          	sw	zero,476(gp) # 26a9c <errno>
   1dab4:	560020ef          	jal	ra,20014 <_read>
   1dab8:	fff00793          	li	a5,-1
   1dabc:	00f50c63          	beq	a0,a5,1dad4 <_read_r+0x48>
   1dac0:	00c12083          	lw	ra,12(sp)
   1dac4:	00812403          	lw	s0,8(sp)
   1dac8:	00412483          	lw	s1,4(sp)
   1dacc:	01010113          	addi	sp,sp,16
   1dad0:	00008067          	ret
   1dad4:	1dc1a783          	lw	a5,476(gp) # 26a9c <errno>
   1dad8:	fe0784e3          	beqz	a5,1dac0 <_read_r+0x34>
   1dadc:	00c12083          	lw	ra,12(sp)
   1dae0:	00f42023          	sw	a5,0(s0)
   1dae4:	00812403          	lw	s0,8(sp)
   1dae8:	00412483          	lw	s1,4(sp)
   1daec:	01010113          	addi	sp,sp,16
   1daf0:	00008067          	ret

0001daf4 <_realloc_r>:
   1daf4:	fd010113          	addi	sp,sp,-48
   1daf8:	02912223          	sw	s1,36(sp)
   1dafc:	02112623          	sw	ra,44(sp)
   1db00:	02812423          	sw	s0,40(sp)
   1db04:	03212023          	sw	s2,32(sp)
   1db08:	01312e23          	sw	s3,28(sp)
   1db0c:	01412c23          	sw	s4,24(sp)
   1db10:	01512a23          	sw	s5,20(sp)
   1db14:	01612823          	sw	s6,16(sp)
   1db18:	01712623          	sw	s7,12(sp)
   1db1c:	01812423          	sw	s8,8(sp)
   1db20:	00060493          	mv	s1,a2
   1db24:	1c058063          	beqz	a1,1dce4 <_realloc_r+0x1f0>
   1db28:	00058413          	mv	s0,a1
   1db2c:	00050913          	mv	s2,a0
   1db30:	911f90ef          	jal	ra,17440 <__malloc_lock>
   1db34:	ffc42703          	lw	a4,-4(s0)
   1db38:	00b48793          	addi	a5,s1,11
   1db3c:	01600693          	li	a3,22
   1db40:	ff840a93          	addi	s5,s0,-8
   1db44:	ffc77993          	andi	s3,a4,-4
   1db48:	0ef6f463          	bgeu	a3,a5,1dc30 <_realloc_r+0x13c>
   1db4c:	ff87fa13          	andi	s4,a5,-8
   1db50:	0e07c463          	bltz	a5,1dc38 <_realloc_r+0x144>
   1db54:	0e9a6263          	bltu	s4,s1,1dc38 <_realloc_r+0x144>
   1db58:	1149d263          	bge	s3,s4,1dc5c <_realloc_r+0x168>
   1db5c:	c2818c13          	addi	s8,gp,-984 # 264e8 <__malloc_av_>
   1db60:	008c2603          	lw	a2,8(s8)
   1db64:	013a86b3          	add	a3,s5,s3
   1db68:	0046a783          	lw	a5,4(a3)
   1db6c:	1cd60e63          	beq	a2,a3,1dd48 <_realloc_r+0x254>
   1db70:	ffe7f613          	andi	a2,a5,-2
   1db74:	00c68633          	add	a2,a3,a2
   1db78:	00462603          	lw	a2,4(a2)
   1db7c:	00167613          	andi	a2,a2,1
   1db80:	14061463          	bnez	a2,1dcc8 <_realloc_r+0x1d4>
   1db84:	ffc7f793          	andi	a5,a5,-4
   1db88:	00f98633          	add	a2,s3,a5
   1db8c:	0b465e63          	bge	a2,s4,1dc48 <_realloc_r+0x154>
   1db90:	00177713          	andi	a4,a4,1
   1db94:	02071463          	bnez	a4,1dbbc <_realloc_r+0xc8>
   1db98:	ff842b83          	lw	s7,-8(s0)
   1db9c:	417a8bb3          	sub	s7,s5,s7
   1dba0:	004ba703          	lw	a4,4(s7)
   1dba4:	ffc77713          	andi	a4,a4,-4
   1dba8:	00e787b3          	add	a5,a5,a4
   1dbac:	01378b33          	add	s6,a5,s3
   1dbb0:	334b5463          	bge	s6,s4,1ded8 <_realloc_r+0x3e4>
   1dbb4:	00e98b33          	add	s6,s3,a4
   1dbb8:	294b5663          	bge	s6,s4,1de44 <_realloc_r+0x350>
   1dbbc:	00048593          	mv	a1,s1
   1dbc0:	00090513          	mv	a0,s2
   1dbc4:	844f90ef          	jal	ra,16c08 <_malloc_r>
   1dbc8:	00050493          	mv	s1,a0
   1dbcc:	40050263          	beqz	a0,1dfd0 <_realloc_r+0x4dc>
   1dbd0:	ffc42783          	lw	a5,-4(s0)
   1dbd4:	ff850713          	addi	a4,a0,-8
   1dbd8:	ffe7f793          	andi	a5,a5,-2
   1dbdc:	00fa87b3          	add	a5,s5,a5
   1dbe0:	24e78a63          	beq	a5,a4,1de34 <_realloc_r+0x340>
   1dbe4:	ffc98613          	addi	a2,s3,-4
   1dbe8:	02400793          	li	a5,36
   1dbec:	2ec7e063          	bltu	a5,a2,1decc <_realloc_r+0x3d8>
   1dbf0:	01300713          	li	a4,19
   1dbf4:	20c76e63          	bltu	a4,a2,1de10 <_realloc_r+0x31c>
   1dbf8:	00050793          	mv	a5,a0
   1dbfc:	00040713          	mv	a4,s0
   1dc00:	00072683          	lw	a3,0(a4)
   1dc04:	00d7a023          	sw	a3,0(a5)
   1dc08:	00472683          	lw	a3,4(a4)
   1dc0c:	00d7a223          	sw	a3,4(a5)
   1dc10:	00872703          	lw	a4,8(a4)
   1dc14:	00e7a423          	sw	a4,8(a5)
   1dc18:	00090513          	mv	a0,s2
   1dc1c:	00040593          	mv	a1,s0
   1dc20:	c5df50ef          	jal	ra,1387c <_free_r>
   1dc24:	00090513          	mv	a0,s2
   1dc28:	81df90ef          	jal	ra,17444 <__malloc_unlock>
   1dc2c:	0680006f          	j	1dc94 <_realloc_r+0x1a0>
   1dc30:	01000a13          	li	s4,16
   1dc34:	f29a72e3          	bgeu	s4,s1,1db58 <_realloc_r+0x64>
   1dc38:	00c00793          	li	a5,12
   1dc3c:	00f92023          	sw	a5,0(s2)
   1dc40:	00000493          	li	s1,0
   1dc44:	0500006f          	j	1dc94 <_realloc_r+0x1a0>
   1dc48:	00c6a783          	lw	a5,12(a3)
   1dc4c:	0086a703          	lw	a4,8(a3)
   1dc50:	00060993          	mv	s3,a2
   1dc54:	00f72623          	sw	a5,12(a4)
   1dc58:	00e7a423          	sw	a4,8(a5)
   1dc5c:	004aa783          	lw	a5,4(s5) # 80000004 <__BSS_END__+0x7ffd951c>
   1dc60:	414986b3          	sub	a3,s3,s4
   1dc64:	00f00613          	li	a2,15
   1dc68:	0017f793          	andi	a5,a5,1
   1dc6c:	013a8733          	add	a4,s5,s3
   1dc70:	0ad66463          	bltu	a2,a3,1dd18 <_realloc_r+0x224>
   1dc74:	0137e7b3          	or	a5,a5,s3
   1dc78:	00faa223          	sw	a5,4(s5)
   1dc7c:	00472783          	lw	a5,4(a4)
   1dc80:	0017e793          	ori	a5,a5,1
   1dc84:	00f72223          	sw	a5,4(a4)
   1dc88:	00090513          	mv	a0,s2
   1dc8c:	fb8f90ef          	jal	ra,17444 <__malloc_unlock>
   1dc90:	00040493          	mv	s1,s0
   1dc94:	02c12083          	lw	ra,44(sp)
   1dc98:	02812403          	lw	s0,40(sp)
   1dc9c:	02012903          	lw	s2,32(sp)
   1dca0:	01c12983          	lw	s3,28(sp)
   1dca4:	01812a03          	lw	s4,24(sp)
   1dca8:	01412a83          	lw	s5,20(sp)
   1dcac:	01012b03          	lw	s6,16(sp)
   1dcb0:	00c12b83          	lw	s7,12(sp)
   1dcb4:	00812c03          	lw	s8,8(sp)
   1dcb8:	00048513          	mv	a0,s1
   1dcbc:	02412483          	lw	s1,36(sp)
   1dcc0:	03010113          	addi	sp,sp,48
   1dcc4:	00008067          	ret
   1dcc8:	00177713          	andi	a4,a4,1
   1dccc:	ee0718e3          	bnez	a4,1dbbc <_realloc_r+0xc8>
   1dcd0:	ff842b83          	lw	s7,-8(s0)
   1dcd4:	417a8bb3          	sub	s7,s5,s7
   1dcd8:	004ba703          	lw	a4,4(s7)
   1dcdc:	ffc77713          	andi	a4,a4,-4
   1dce0:	ed5ff06f          	j	1dbb4 <_realloc_r+0xc0>
   1dce4:	02812403          	lw	s0,40(sp)
   1dce8:	02c12083          	lw	ra,44(sp)
   1dcec:	02412483          	lw	s1,36(sp)
   1dcf0:	02012903          	lw	s2,32(sp)
   1dcf4:	01c12983          	lw	s3,28(sp)
   1dcf8:	01812a03          	lw	s4,24(sp)
   1dcfc:	01412a83          	lw	s5,20(sp)
   1dd00:	01012b03          	lw	s6,16(sp)
   1dd04:	00c12b83          	lw	s7,12(sp)
   1dd08:	00812c03          	lw	s8,8(sp)
   1dd0c:	00060593          	mv	a1,a2
   1dd10:	03010113          	addi	sp,sp,48
   1dd14:	ef5f806f          	j	16c08 <_malloc_r>
   1dd18:	0147e7b3          	or	a5,a5,s4
   1dd1c:	00faa223          	sw	a5,4(s5)
   1dd20:	014a85b3          	add	a1,s5,s4
   1dd24:	0016e693          	ori	a3,a3,1
   1dd28:	00d5a223          	sw	a3,4(a1)
   1dd2c:	00472783          	lw	a5,4(a4)
   1dd30:	00858593          	addi	a1,a1,8
   1dd34:	00090513          	mv	a0,s2
   1dd38:	0017e793          	ori	a5,a5,1
   1dd3c:	00f72223          	sw	a5,4(a4)
   1dd40:	b3df50ef          	jal	ra,1387c <_free_r>
   1dd44:	f45ff06f          	j	1dc88 <_realloc_r+0x194>
   1dd48:	ffc7f793          	andi	a5,a5,-4
   1dd4c:	013786b3          	add	a3,a5,s3
   1dd50:	010a0613          	addi	a2,s4,16
   1dd54:	22c6de63          	bge	a3,a2,1df90 <_realloc_r+0x49c>
   1dd58:	00177713          	andi	a4,a4,1
   1dd5c:	e60710e3          	bnez	a4,1dbbc <_realloc_r+0xc8>
   1dd60:	ff842b83          	lw	s7,-8(s0)
   1dd64:	417a8bb3          	sub	s7,s5,s7
   1dd68:	004ba703          	lw	a4,4(s7)
   1dd6c:	ffc77713          	andi	a4,a4,-4
   1dd70:	00e787b3          	add	a5,a5,a4
   1dd74:	01378b33          	add	s6,a5,s3
   1dd78:	e2cb4ee3          	blt	s6,a2,1dbb4 <_realloc_r+0xc0>
   1dd7c:	00cba783          	lw	a5,12(s7)
   1dd80:	008ba703          	lw	a4,8(s7)
   1dd84:	ffc98613          	addi	a2,s3,-4
   1dd88:	02400693          	li	a3,36
   1dd8c:	00f72623          	sw	a5,12(a4)
   1dd90:	00e7a423          	sw	a4,8(a5)
   1dd94:	008b8493          	addi	s1,s7,8
   1dd98:	26c6e263          	bltu	a3,a2,1dffc <_realloc_r+0x508>
   1dd9c:	01300713          	li	a4,19
   1dda0:	00048793          	mv	a5,s1
   1dda4:	02c77263          	bgeu	a4,a2,1ddc8 <_realloc_r+0x2d4>
   1dda8:	00042703          	lw	a4,0(s0)
   1ddac:	01b00793          	li	a5,27
   1ddb0:	00eba423          	sw	a4,8(s7)
   1ddb4:	00442703          	lw	a4,4(s0)
   1ddb8:	00eba623          	sw	a4,12(s7)
   1ddbc:	24c7e863          	bltu	a5,a2,1e00c <_realloc_r+0x518>
   1ddc0:	00840413          	addi	s0,s0,8
   1ddc4:	010b8793          	addi	a5,s7,16
   1ddc8:	00042703          	lw	a4,0(s0)
   1ddcc:	00e7a023          	sw	a4,0(a5)
   1ddd0:	00442703          	lw	a4,4(s0)
   1ddd4:	00e7a223          	sw	a4,4(a5)
   1ddd8:	00842703          	lw	a4,8(s0)
   1dddc:	00e7a423          	sw	a4,8(a5)
   1dde0:	014b8733          	add	a4,s7,s4
   1dde4:	414b0b33          	sub	s6,s6,s4
   1dde8:	00ec2423          	sw	a4,8(s8)
   1ddec:	001b6793          	ori	a5,s6,1
   1ddf0:	00f72223          	sw	a5,4(a4)
   1ddf4:	004ba783          	lw	a5,4(s7)
   1ddf8:	00090513          	mv	a0,s2
   1ddfc:	0017f793          	andi	a5,a5,1
   1de00:	0147e7b3          	or	a5,a5,s4
   1de04:	00fba223          	sw	a5,4(s7)
   1de08:	e3cf90ef          	jal	ra,17444 <__malloc_unlock>
   1de0c:	e89ff06f          	j	1dc94 <_realloc_r+0x1a0>
   1de10:	00042683          	lw	a3,0(s0)
   1de14:	01b00713          	li	a4,27
   1de18:	00d52023          	sw	a3,0(a0)
   1de1c:	00442683          	lw	a3,4(s0)
   1de20:	00d52223          	sw	a3,4(a0)
   1de24:	14c76663          	bltu	a4,a2,1df70 <_realloc_r+0x47c>
   1de28:	00840713          	addi	a4,s0,8
   1de2c:	00850793          	addi	a5,a0,8
   1de30:	dd1ff06f          	j	1dc00 <_realloc_r+0x10c>
   1de34:	ffc52783          	lw	a5,-4(a0)
   1de38:	ffc7f793          	andi	a5,a5,-4
   1de3c:	00f989b3          	add	s3,s3,a5
   1de40:	e1dff06f          	j	1dc5c <_realloc_r+0x168>
   1de44:	00cba783          	lw	a5,12(s7)
   1de48:	008ba703          	lw	a4,8(s7)
   1de4c:	ffc98613          	addi	a2,s3,-4
   1de50:	02400693          	li	a3,36
   1de54:	00f72623          	sw	a5,12(a4)
   1de58:	00e7a423          	sw	a4,8(a5)
   1de5c:	008b8493          	addi	s1,s7,8
   1de60:	10c6e063          	bltu	a3,a2,1df60 <_realloc_r+0x46c>
   1de64:	01300713          	li	a4,19
   1de68:	00048793          	mv	a5,s1
   1de6c:	02c77c63          	bgeu	a4,a2,1dea4 <_realloc_r+0x3b0>
   1de70:	00042703          	lw	a4,0(s0)
   1de74:	01b00793          	li	a5,27
   1de78:	00eba423          	sw	a4,8(s7)
   1de7c:	00442703          	lw	a4,4(s0)
   1de80:	00eba623          	sw	a4,12(s7)
   1de84:	14c7f063          	bgeu	a5,a2,1dfc4 <_realloc_r+0x4d0>
   1de88:	00842783          	lw	a5,8(s0)
   1de8c:	00fba823          	sw	a5,16(s7)
   1de90:	00c42783          	lw	a5,12(s0)
   1de94:	00fbaa23          	sw	a5,20(s7)
   1de98:	0ad60663          	beq	a2,a3,1df44 <_realloc_r+0x450>
   1de9c:	01040413          	addi	s0,s0,16
   1dea0:	018b8793          	addi	a5,s7,24
   1dea4:	00042703          	lw	a4,0(s0)
   1dea8:	00e7a023          	sw	a4,0(a5)
   1deac:	00442703          	lw	a4,4(s0)
   1deb0:	00e7a223          	sw	a4,4(a5)
   1deb4:	00842703          	lw	a4,8(s0)
   1deb8:	00e7a423          	sw	a4,8(a5)
   1debc:	00048413          	mv	s0,s1
   1dec0:	000b0993          	mv	s3,s6
   1dec4:	000b8a93          	mv	s5,s7
   1dec8:	d95ff06f          	j	1dc5c <_realloc_r+0x168>
   1decc:	00040593          	mv	a1,s0
   1ded0:	aa1ff0ef          	jal	ra,1d970 <memmove>
   1ded4:	d45ff06f          	j	1dc18 <_realloc_r+0x124>
   1ded8:	00c6a783          	lw	a5,12(a3)
   1dedc:	0086a703          	lw	a4,8(a3)
   1dee0:	ffc98613          	addi	a2,s3,-4
   1dee4:	02400693          	li	a3,36
   1dee8:	00f72623          	sw	a5,12(a4)
   1deec:	00e7a423          	sw	a4,8(a5)
   1def0:	008ba703          	lw	a4,8(s7)
   1def4:	00cba783          	lw	a5,12(s7)
   1def8:	008b8493          	addi	s1,s7,8
   1defc:	00f72623          	sw	a5,12(a4)
   1df00:	00e7a423          	sw	a4,8(a5)
   1df04:	04c6ee63          	bltu	a3,a2,1df60 <_realloc_r+0x46c>
   1df08:	01300713          	li	a4,19
   1df0c:	00048793          	mv	a5,s1
   1df10:	f8c77ae3          	bgeu	a4,a2,1dea4 <_realloc_r+0x3b0>
   1df14:	00042703          	lw	a4,0(s0)
   1df18:	01b00793          	li	a5,27
   1df1c:	00eba423          	sw	a4,8(s7)
   1df20:	00442703          	lw	a4,4(s0)
   1df24:	00eba623          	sw	a4,12(s7)
   1df28:	08c7fe63          	bgeu	a5,a2,1dfc4 <_realloc_r+0x4d0>
   1df2c:	00842703          	lw	a4,8(s0)
   1df30:	02400793          	li	a5,36
   1df34:	00eba823          	sw	a4,16(s7)
   1df38:	00c42703          	lw	a4,12(s0)
   1df3c:	00ebaa23          	sw	a4,20(s7)
   1df40:	f4f61ee3          	bne	a2,a5,1de9c <_realloc_r+0x3a8>
   1df44:	01042703          	lw	a4,16(s0)
   1df48:	020b8793          	addi	a5,s7,32
   1df4c:	01840413          	addi	s0,s0,24
   1df50:	00ebac23          	sw	a4,24(s7)
   1df54:	ffc42703          	lw	a4,-4(s0)
   1df58:	00ebae23          	sw	a4,28(s7)
   1df5c:	f49ff06f          	j	1dea4 <_realloc_r+0x3b0>
   1df60:	00040593          	mv	a1,s0
   1df64:	00048513          	mv	a0,s1
   1df68:	a09ff0ef          	jal	ra,1d970 <memmove>
   1df6c:	f51ff06f          	j	1debc <_realloc_r+0x3c8>
   1df70:	00842703          	lw	a4,8(s0)
   1df74:	00e52423          	sw	a4,8(a0)
   1df78:	00c42703          	lw	a4,12(s0)
   1df7c:	00e52623          	sw	a4,12(a0)
   1df80:	06f60063          	beq	a2,a5,1dfe0 <_realloc_r+0x4ec>
   1df84:	01040713          	addi	a4,s0,16
   1df88:	01050793          	addi	a5,a0,16
   1df8c:	c75ff06f          	j	1dc00 <_realloc_r+0x10c>
   1df90:	014a8ab3          	add	s5,s5,s4
   1df94:	414686b3          	sub	a3,a3,s4
   1df98:	015c2423          	sw	s5,8(s8)
   1df9c:	0016e793          	ori	a5,a3,1
   1dfa0:	00faa223          	sw	a5,4(s5)
   1dfa4:	ffc42783          	lw	a5,-4(s0)
   1dfa8:	00090513          	mv	a0,s2
   1dfac:	00040493          	mv	s1,s0
   1dfb0:	0017f793          	andi	a5,a5,1
   1dfb4:	0147e7b3          	or	a5,a5,s4
   1dfb8:	fef42e23          	sw	a5,-4(s0)
   1dfbc:	c88f90ef          	jal	ra,17444 <__malloc_unlock>
   1dfc0:	cd5ff06f          	j	1dc94 <_realloc_r+0x1a0>
   1dfc4:	00840413          	addi	s0,s0,8
   1dfc8:	010b8793          	addi	a5,s7,16
   1dfcc:	ed9ff06f          	j	1dea4 <_realloc_r+0x3b0>
   1dfd0:	00090513          	mv	a0,s2
   1dfd4:	c70f90ef          	jal	ra,17444 <__malloc_unlock>
   1dfd8:	00000493          	li	s1,0
   1dfdc:	cb9ff06f          	j	1dc94 <_realloc_r+0x1a0>
   1dfe0:	01042683          	lw	a3,16(s0)
   1dfe4:	01840713          	addi	a4,s0,24
   1dfe8:	01850793          	addi	a5,a0,24
   1dfec:	00d52823          	sw	a3,16(a0)
   1dff0:	01442683          	lw	a3,20(s0)
   1dff4:	00d52a23          	sw	a3,20(a0)
   1dff8:	c09ff06f          	j	1dc00 <_realloc_r+0x10c>
   1dffc:	00040593          	mv	a1,s0
   1e000:	00048513          	mv	a0,s1
   1e004:	96dff0ef          	jal	ra,1d970 <memmove>
   1e008:	dd9ff06f          	j	1dde0 <_realloc_r+0x2ec>
   1e00c:	00842783          	lw	a5,8(s0)
   1e010:	00fba823          	sw	a5,16(s7)
   1e014:	00c42783          	lw	a5,12(s0)
   1e018:	00fbaa23          	sw	a5,20(s7)
   1e01c:	00d60863          	beq	a2,a3,1e02c <_realloc_r+0x538>
   1e020:	01040413          	addi	s0,s0,16
   1e024:	018b8793          	addi	a5,s7,24
   1e028:	da1ff06f          	j	1ddc8 <_realloc_r+0x2d4>
   1e02c:	01042703          	lw	a4,16(s0)
   1e030:	020b8793          	addi	a5,s7,32
   1e034:	01840413          	addi	s0,s0,24
   1e038:	00ebac23          	sw	a4,24(s7)
   1e03c:	ffc42703          	lw	a4,-4(s0)
   1e040:	00ebae23          	sw	a4,28(s7)
   1e044:	d85ff06f          	j	1ddc8 <_realloc_r+0x2d4>

0001e048 <cleanup_glue>:
   1e048:	fe010113          	addi	sp,sp,-32
   1e04c:	01212823          	sw	s2,16(sp)
   1e050:	0005a903          	lw	s2,0(a1)
   1e054:	00812c23          	sw	s0,24(sp)
   1e058:	00912a23          	sw	s1,20(sp)
   1e05c:	00112e23          	sw	ra,28(sp)
   1e060:	01312623          	sw	s3,12(sp)
   1e064:	01412423          	sw	s4,8(sp)
   1e068:	00058413          	mv	s0,a1
   1e06c:	00050493          	mv	s1,a0
   1e070:	04090263          	beqz	s2,1e0b4 <cleanup_glue+0x6c>
   1e074:	00092983          	lw	s3,0(s2)
   1e078:	02098863          	beqz	s3,1e0a8 <cleanup_glue+0x60>
   1e07c:	0009aa03          	lw	s4,0(s3)
   1e080:	000a0e63          	beqz	s4,1e09c <cleanup_glue+0x54>
   1e084:	000a2583          	lw	a1,0(s4)
   1e088:	00058463          	beqz	a1,1e090 <cleanup_glue+0x48>
   1e08c:	fbdff0ef          	jal	ra,1e048 <cleanup_glue>
   1e090:	000a0593          	mv	a1,s4
   1e094:	00048513          	mv	a0,s1
   1e098:	fe4f50ef          	jal	ra,1387c <_free_r>
   1e09c:	00098593          	mv	a1,s3
   1e0a0:	00048513          	mv	a0,s1
   1e0a4:	fd8f50ef          	jal	ra,1387c <_free_r>
   1e0a8:	00090593          	mv	a1,s2
   1e0ac:	00048513          	mv	a0,s1
   1e0b0:	fccf50ef          	jal	ra,1387c <_free_r>
   1e0b4:	00040593          	mv	a1,s0
   1e0b8:	01812403          	lw	s0,24(sp)
   1e0bc:	01c12083          	lw	ra,28(sp)
   1e0c0:	01012903          	lw	s2,16(sp)
   1e0c4:	00c12983          	lw	s3,12(sp)
   1e0c8:	00812a03          	lw	s4,8(sp)
   1e0cc:	00048513          	mv	a0,s1
   1e0d0:	01412483          	lw	s1,20(sp)
   1e0d4:	02010113          	addi	sp,sp,32
   1e0d8:	fa4f506f          	j	1387c <_free_r>

0001e0dc <_reclaim_reent>:
   1e0dc:	1c01a783          	lw	a5,448(gp) # 26a80 <_impure_ptr>
   1e0e0:	10a78a63          	beq	a5,a0,1e1f4 <_reclaim_reent+0x118>
   1e0e4:	04c52583          	lw	a1,76(a0)
   1e0e8:	fe010113          	addi	sp,sp,-32
   1e0ec:	00912a23          	sw	s1,20(sp)
   1e0f0:	00112e23          	sw	ra,28(sp)
   1e0f4:	00812c23          	sw	s0,24(sp)
   1e0f8:	01212823          	sw	s2,16(sp)
   1e0fc:	01312623          	sw	s3,12(sp)
   1e100:	00050493          	mv	s1,a0
   1e104:	04058063          	beqz	a1,1e144 <_reclaim_reent+0x68>
   1e108:	00000913          	li	s2,0
   1e10c:	08000993          	li	s3,128
   1e110:	012587b3          	add	a5,a1,s2
   1e114:	0007a403          	lw	s0,0(a5)
   1e118:	00040e63          	beqz	s0,1e134 <_reclaim_reent+0x58>
   1e11c:	00040593          	mv	a1,s0
   1e120:	00042403          	lw	s0,0(s0)
   1e124:	00048513          	mv	a0,s1
   1e128:	f54f50ef          	jal	ra,1387c <_free_r>
   1e12c:	fe0418e3          	bnez	s0,1e11c <_reclaim_reent+0x40>
   1e130:	04c4a583          	lw	a1,76(s1)
   1e134:	00490913          	addi	s2,s2,4
   1e138:	fd391ce3          	bne	s2,s3,1e110 <_reclaim_reent+0x34>
   1e13c:	00048513          	mv	a0,s1
   1e140:	f3cf50ef          	jal	ra,1387c <_free_r>
   1e144:	0404a583          	lw	a1,64(s1)
   1e148:	00058663          	beqz	a1,1e154 <_reclaim_reent+0x78>
   1e14c:	00048513          	mv	a0,s1
   1e150:	f2cf50ef          	jal	ra,1387c <_free_r>
   1e154:	1484a403          	lw	s0,328(s1)
   1e158:	02040063          	beqz	s0,1e178 <_reclaim_reent+0x9c>
   1e15c:	14c48913          	addi	s2,s1,332
   1e160:	01240c63          	beq	s0,s2,1e178 <_reclaim_reent+0x9c>
   1e164:	00040593          	mv	a1,s0
   1e168:	00042403          	lw	s0,0(s0)
   1e16c:	00048513          	mv	a0,s1
   1e170:	f0cf50ef          	jal	ra,1387c <_free_r>
   1e174:	fe8918e3          	bne	s2,s0,1e164 <_reclaim_reent+0x88>
   1e178:	0544a583          	lw	a1,84(s1)
   1e17c:	00058663          	beqz	a1,1e188 <_reclaim_reent+0xac>
   1e180:	00048513          	mv	a0,s1
   1e184:	ef8f50ef          	jal	ra,1387c <_free_r>
   1e188:	0384a783          	lw	a5,56(s1)
   1e18c:	04078663          	beqz	a5,1e1d8 <_reclaim_reent+0xfc>
   1e190:	03c4a783          	lw	a5,60(s1)
   1e194:	00048513          	mv	a0,s1
   1e198:	000780e7          	jalr	a5
   1e19c:	2e04a403          	lw	s0,736(s1)
   1e1a0:	02040c63          	beqz	s0,1e1d8 <_reclaim_reent+0xfc>
   1e1a4:	00042583          	lw	a1,0(s0)
   1e1a8:	00058663          	beqz	a1,1e1b4 <_reclaim_reent+0xd8>
   1e1ac:	00048513          	mv	a0,s1
   1e1b0:	e99ff0ef          	jal	ra,1e048 <cleanup_glue>
   1e1b4:	00040593          	mv	a1,s0
   1e1b8:	01812403          	lw	s0,24(sp)
   1e1bc:	01c12083          	lw	ra,28(sp)
   1e1c0:	01012903          	lw	s2,16(sp)
   1e1c4:	00c12983          	lw	s3,12(sp)
   1e1c8:	00048513          	mv	a0,s1
   1e1cc:	01412483          	lw	s1,20(sp)
   1e1d0:	02010113          	addi	sp,sp,32
   1e1d4:	ea8f506f          	j	1387c <_free_r>
   1e1d8:	01c12083          	lw	ra,28(sp)
   1e1dc:	01812403          	lw	s0,24(sp)
   1e1e0:	01412483          	lw	s1,20(sp)
   1e1e4:	01012903          	lw	s2,16(sp)
   1e1e8:	00c12983          	lw	s3,12(sp)
   1e1ec:	02010113          	addi	sp,sp,32
   1e1f0:	00008067          	ret
   1e1f4:	00008067          	ret

0001e1f8 <strcmp>:
   1e1f8:	00b56733          	or	a4,a0,a1
   1e1fc:	fff00393          	li	t2,-1
   1e200:	00377713          	andi	a4,a4,3
   1e204:	10071063          	bnez	a4,1e304 <strcmp+0x10c>
   1e208:	7f7f87b7          	lui	a5,0x7f7f8
   1e20c:	f7f78793          	addi	a5,a5,-129 # 7f7f7f7f <__BSS_END__+0x7f7d1497>
   1e210:	00052603          	lw	a2,0(a0)
   1e214:	0005a683          	lw	a3,0(a1)
   1e218:	00f672b3          	and	t0,a2,a5
   1e21c:	00f66333          	or	t1,a2,a5
   1e220:	00f282b3          	add	t0,t0,a5
   1e224:	0062e2b3          	or	t0,t0,t1
   1e228:	10729263          	bne	t0,t2,1e32c <strcmp+0x134>
   1e22c:	08d61663          	bne	a2,a3,1e2b8 <strcmp+0xc0>
   1e230:	00452603          	lw	a2,4(a0)
   1e234:	0045a683          	lw	a3,4(a1)
   1e238:	00f672b3          	and	t0,a2,a5
   1e23c:	00f66333          	or	t1,a2,a5
   1e240:	00f282b3          	add	t0,t0,a5
   1e244:	0062e2b3          	or	t0,t0,t1
   1e248:	0c729e63          	bne	t0,t2,1e324 <strcmp+0x12c>
   1e24c:	06d61663          	bne	a2,a3,1e2b8 <strcmp+0xc0>
   1e250:	00852603          	lw	a2,8(a0)
   1e254:	0085a683          	lw	a3,8(a1)
   1e258:	00f672b3          	and	t0,a2,a5
   1e25c:	00f66333          	or	t1,a2,a5
   1e260:	00f282b3          	add	t0,t0,a5
   1e264:	0062e2b3          	or	t0,t0,t1
   1e268:	0c729863          	bne	t0,t2,1e338 <strcmp+0x140>
   1e26c:	04d61663          	bne	a2,a3,1e2b8 <strcmp+0xc0>
   1e270:	00c52603          	lw	a2,12(a0)
   1e274:	00c5a683          	lw	a3,12(a1)
   1e278:	00f672b3          	and	t0,a2,a5
   1e27c:	00f66333          	or	t1,a2,a5
   1e280:	00f282b3          	add	t0,t0,a5
   1e284:	0062e2b3          	or	t0,t0,t1
   1e288:	0c729263          	bne	t0,t2,1e34c <strcmp+0x154>
   1e28c:	02d61663          	bne	a2,a3,1e2b8 <strcmp+0xc0>
   1e290:	01052603          	lw	a2,16(a0)
   1e294:	0105a683          	lw	a3,16(a1)
   1e298:	00f672b3          	and	t0,a2,a5
   1e29c:	00f66333          	or	t1,a2,a5
   1e2a0:	00f282b3          	add	t0,t0,a5
   1e2a4:	0062e2b3          	or	t0,t0,t1
   1e2a8:	0a729c63          	bne	t0,t2,1e360 <strcmp+0x168>
   1e2ac:	01450513          	addi	a0,a0,20
   1e2b0:	01458593          	addi	a1,a1,20
   1e2b4:	f4d60ee3          	beq	a2,a3,1e210 <strcmp+0x18>
   1e2b8:	01061713          	slli	a4,a2,0x10
   1e2bc:	01069793          	slli	a5,a3,0x10
   1e2c0:	00f71e63          	bne	a4,a5,1e2dc <strcmp+0xe4>
   1e2c4:	01065713          	srli	a4,a2,0x10
   1e2c8:	0106d793          	srli	a5,a3,0x10
   1e2cc:	40f70533          	sub	a0,a4,a5
   1e2d0:	0ff57593          	zext.b	a1,a0
   1e2d4:	02059063          	bnez	a1,1e2f4 <strcmp+0xfc>
   1e2d8:	00008067          	ret
   1e2dc:	01075713          	srli	a4,a4,0x10
   1e2e0:	0107d793          	srli	a5,a5,0x10
   1e2e4:	40f70533          	sub	a0,a4,a5
   1e2e8:	0ff57593          	zext.b	a1,a0
   1e2ec:	00059463          	bnez	a1,1e2f4 <strcmp+0xfc>
   1e2f0:	00008067          	ret
   1e2f4:	0ff77713          	zext.b	a4,a4
   1e2f8:	0ff7f793          	zext.b	a5,a5
   1e2fc:	40f70533          	sub	a0,a4,a5
   1e300:	00008067          	ret
   1e304:	00054603          	lbu	a2,0(a0)
   1e308:	0005c683          	lbu	a3,0(a1)
   1e30c:	00150513          	addi	a0,a0,1
   1e310:	00158593          	addi	a1,a1,1
   1e314:	00d61463          	bne	a2,a3,1e31c <strcmp+0x124>
   1e318:	fe0616e3          	bnez	a2,1e304 <strcmp+0x10c>
   1e31c:	40d60533          	sub	a0,a2,a3
   1e320:	00008067          	ret
   1e324:	00450513          	addi	a0,a0,4
   1e328:	00458593          	addi	a1,a1,4
   1e32c:	fcd61ce3          	bne	a2,a3,1e304 <strcmp+0x10c>
   1e330:	00000513          	li	a0,0
   1e334:	00008067          	ret
   1e338:	00850513          	addi	a0,a0,8
   1e33c:	00858593          	addi	a1,a1,8
   1e340:	fcd612e3          	bne	a2,a3,1e304 <strcmp+0x10c>
   1e344:	00000513          	li	a0,0
   1e348:	00008067          	ret
   1e34c:	00c50513          	addi	a0,a0,12
   1e350:	00c58593          	addi	a1,a1,12
   1e354:	fad618e3          	bne	a2,a3,1e304 <strcmp+0x10c>
   1e358:	00000513          	li	a0,0
   1e35c:	00008067          	ret
   1e360:	01050513          	addi	a0,a0,16
   1e364:	01058593          	addi	a1,a1,16
   1e368:	f8d61ee3          	bne	a2,a3,1e304 <strcmp+0x10c>
   1e36c:	00000513          	li	a0,0
   1e370:	00008067          	ret

0001e374 <__ssprint_r>:
   1e374:	00862783          	lw	a5,8(a2)
   1e378:	fd010113          	addi	sp,sp,-48
   1e37c:	01312e23          	sw	s3,28(sp)
   1e380:	01412c23          	sw	s4,24(sp)
   1e384:	02112623          	sw	ra,44(sp)
   1e388:	02812423          	sw	s0,40(sp)
   1e38c:	02912223          	sw	s1,36(sp)
   1e390:	03212023          	sw	s2,32(sp)
   1e394:	01512a23          	sw	s5,20(sp)
   1e398:	01612823          	sw	s6,16(sp)
   1e39c:	01712623          	sw	s7,12(sp)
   1e3a0:	01812423          	sw	s8,8(sp)
   1e3a4:	00062983          	lw	s3,0(a2)
   1e3a8:	00060a13          	mv	s4,a2
   1e3ac:	14078c63          	beqz	a5,1e504 <__ssprint_r+0x190>
   1e3b0:	0085a703          	lw	a4,8(a1)
   1e3b4:	0005a783          	lw	a5,0(a1)
   1e3b8:	00050a93          	mv	s5,a0
   1e3bc:	00058493          	mv	s1,a1
   1e3c0:	00000b93          	li	s7,0
   1e3c4:	00000913          	li	s2,0
   1e3c8:	0e00006f          	j	1e4a8 <__ssprint_r+0x134>
   1e3cc:	00c49703          	lh	a4,12(s1)
   1e3d0:	48077693          	andi	a3,a4,1152
   1e3d4:	08068a63          	beqz	a3,1e468 <__ssprint_r+0xf4>
   1e3d8:	0144a603          	lw	a2,20(s1)
   1e3dc:	0104a583          	lw	a1,16(s1)
   1e3e0:	00161693          	slli	a3,a2,0x1
   1e3e4:	00c686b3          	add	a3,a3,a2
   1e3e8:	40b78433          	sub	s0,a5,a1
   1e3ec:	01f6db13          	srli	s6,a3,0x1f
   1e3f0:	00db0b33          	add	s6,s6,a3
   1e3f4:	00140793          	addi	a5,s0,1
   1e3f8:	401b5b13          	srai	s6,s6,0x1
   1e3fc:	012787b3          	add	a5,a5,s2
   1e400:	000b0613          	mv	a2,s6
   1e404:	00fb7663          	bgeu	s6,a5,1e410 <__ssprint_r+0x9c>
   1e408:	00078b13          	mv	s6,a5
   1e40c:	00078613          	mv	a2,a5
   1e410:	40077713          	andi	a4,a4,1024
   1e414:	0a070a63          	beqz	a4,1e4c8 <__ssprint_r+0x154>
   1e418:	00060593          	mv	a1,a2
   1e41c:	000a8513          	mv	a0,s5
   1e420:	fe8f80ef          	jal	ra,16c08 <_malloc_r>
   1e424:	00050c13          	mv	s8,a0
   1e428:	0a050e63          	beqz	a0,1e4e4 <__ssprint_r+0x170>
   1e42c:	0104a583          	lw	a1,16(s1)
   1e430:	00040613          	mv	a2,s0
   1e434:	b98ff0ef          	jal	ra,1d7cc <memcpy>
   1e438:	00c4d783          	lhu	a5,12(s1)
   1e43c:	b7f7f793          	andi	a5,a5,-1153
   1e440:	0807e793          	ori	a5,a5,128
   1e444:	00f49623          	sh	a5,12(s1)
   1e448:	408b07b3          	sub	a5,s6,s0
   1e44c:	008c0533          	add	a0,s8,s0
   1e450:	0164aa23          	sw	s6,20(s1)
   1e454:	0184a823          	sw	s8,16(s1)
   1e458:	00a4a023          	sw	a0,0(s1)
   1e45c:	00090b13          	mv	s6,s2
   1e460:	00f4a423          	sw	a5,8(s1)
   1e464:	00090413          	mv	s0,s2
   1e468:	00040613          	mv	a2,s0
   1e46c:	000b8593          	mv	a1,s7
   1e470:	d00ff0ef          	jal	ra,1d970 <memmove>
   1e474:	0084a703          	lw	a4,8(s1)
   1e478:	0004a783          	lw	a5,0(s1)
   1e47c:	008a2683          	lw	a3,8(s4)
   1e480:	41670733          	sub	a4,a4,s6
   1e484:	008787b3          	add	a5,a5,s0
   1e488:	00e4a423          	sw	a4,8(s1)
   1e48c:	00f4a023          	sw	a5,0(s1)
   1e490:	412686b3          	sub	a3,a3,s2
   1e494:	00da2423          	sw	a3,8(s4)
   1e498:	06068663          	beqz	a3,1e504 <__ssprint_r+0x190>
   1e49c:	0009ab83          	lw	s7,0(s3)
   1e4a0:	0049a903          	lw	s2,4(s3)
   1e4a4:	00898993          	addi	s3,s3,8
   1e4a8:	00070b13          	mv	s6,a4
   1e4ac:	00078513          	mv	a0,a5
   1e4b0:	fe0906e3          	beqz	s2,1e49c <__ssprint_r+0x128>
   1e4b4:	00070413          	mv	s0,a4
   1e4b8:	f0e97ae3          	bgeu	s2,a4,1e3cc <__ssprint_r+0x58>
   1e4bc:	00090b13          	mv	s6,s2
   1e4c0:	00090413          	mv	s0,s2
   1e4c4:	fa5ff06f          	j	1e468 <__ssprint_r+0xf4>
   1e4c8:	000a8513          	mv	a0,s5
   1e4cc:	e28ff0ef          	jal	ra,1daf4 <_realloc_r>
   1e4d0:	00050c13          	mv	s8,a0
   1e4d4:	f6051ae3          	bnez	a0,1e448 <__ssprint_r+0xd4>
   1e4d8:	0104a583          	lw	a1,16(s1)
   1e4dc:	000a8513          	mv	a0,s5
   1e4e0:	b9cf50ef          	jal	ra,1387c <_free_r>
   1e4e4:	00c4d783          	lhu	a5,12(s1)
   1e4e8:	00c00713          	li	a4,12
   1e4ec:	00eaa023          	sw	a4,0(s5)
   1e4f0:	0407e793          	ori	a5,a5,64
   1e4f4:	00f49623          	sh	a5,12(s1)
   1e4f8:	000a2423          	sw	zero,8(s4)
   1e4fc:	fff00513          	li	a0,-1
   1e500:	0080006f          	j	1e508 <__ssprint_r+0x194>
   1e504:	00000513          	li	a0,0
   1e508:	02c12083          	lw	ra,44(sp)
   1e50c:	02812403          	lw	s0,40(sp)
   1e510:	000a2223          	sw	zero,4(s4)
   1e514:	02412483          	lw	s1,36(sp)
   1e518:	02012903          	lw	s2,32(sp)
   1e51c:	01c12983          	lw	s3,28(sp)
   1e520:	01812a03          	lw	s4,24(sp)
   1e524:	01412a83          	lw	s5,20(sp)
   1e528:	01012b03          	lw	s6,16(sp)
   1e52c:	00c12b83          	lw	s7,12(sp)
   1e530:	00812c03          	lw	s8,8(sp)
   1e534:	03010113          	addi	sp,sp,48
   1e538:	00008067          	ret

0001e53c <_svfiprintf_r>:
   1e53c:	00c5d783          	lhu	a5,12(a1)
   1e540:	ed010113          	addi	sp,sp,-304
   1e544:	12912223          	sw	s1,292(sp)
   1e548:	13212023          	sw	s2,288(sp)
   1e54c:	11412c23          	sw	s4,280(sp)
   1e550:	11812423          	sw	s8,264(sp)
   1e554:	12112623          	sw	ra,300(sp)
   1e558:	12812423          	sw	s0,296(sp)
   1e55c:	11312e23          	sw	s3,284(sp)
   1e560:	11512a23          	sw	s5,276(sp)
   1e564:	11612823          	sw	s6,272(sp)
   1e568:	11712623          	sw	s7,268(sp)
   1e56c:	11912223          	sw	s9,260(sp)
   1e570:	11a12023          	sw	s10,256(sp)
   1e574:	0fb12e23          	sw	s11,252(sp)
   1e578:	0807f793          	andi	a5,a5,128
   1e57c:	00058913          	mv	s2,a1
   1e580:	00050a13          	mv	s4,a0
   1e584:	00060c13          	mv	s8,a2
   1e588:	00068493          	mv	s1,a3
   1e58c:	00078663          	beqz	a5,1e598 <_svfiprintf_r+0x5c>
   1e590:	0105a783          	lw	a5,16(a1)
   1e594:	720782e3          	beqz	a5,1f4b8 <_svfiprintf_r+0xf7c>
   1e598:	000266b7          	lui	a3,0x26
   1e59c:	04c10993          	addi	s3,sp,76
   1e5a0:	00000b13          	li	s6,0
   1e5a4:	ba868693          	addi	a3,a3,-1112 # 25ba8 <blanks.1+0x60>
   1e5a8:	00026ab7          	lui	s5,0x26
   1e5ac:	05312023          	sw	s3,64(sp)
   1e5b0:	04012423          	sw	zero,72(sp)
   1e5b4:	04012223          	sw	zero,68(sp)
   1e5b8:	00000713          	li	a4,0
   1e5bc:	00098793          	mv	a5,s3
   1e5c0:	00012223          	sw	zero,4(sp)
   1e5c4:	00012c23          	sw	zero,24(sp)
   1e5c8:	00012e23          	sw	zero,28(sp)
   1e5cc:	02012023          	sw	zero,32(sp)
   1e5d0:	00d12023          	sw	a3,0(sp)
   1e5d4:	01000413          	li	s0,16
   1e5d8:	d14a8a93          	addi	s5,s5,-748 # 25d14 <zeroes.0>
   1e5dc:	000b0c93          	mv	s9,s6
   1e5e0:	00048813          	mv	a6,s1
   1e5e4:	000c4683          	lbu	a3,0(s8)
   1e5e8:	1e068063          	beqz	a3,1e7c8 <_svfiprintf_r+0x28c>
   1e5ec:	000c0b93          	mv	s7,s8
   1e5f0:	02500613          	li	a2,37
   1e5f4:	22c68063          	beq	a3,a2,1e814 <_svfiprintf_r+0x2d8>
   1e5f8:	001bc683          	lbu	a3,1(s7)
   1e5fc:	001b8b93          	addi	s7,s7,1
   1e600:	fe069ae3          	bnez	a3,1e5f4 <_svfiprintf_r+0xb8>
   1e604:	418b84b3          	sub	s1,s7,s8
   1e608:	1d8b8063          	beq	s7,s8,1e7c8 <_svfiprintf_r+0x28c>
   1e60c:	04412683          	lw	a3,68(sp)
   1e610:	00970733          	add	a4,a4,s1
   1e614:	0187a023          	sw	s8,0(a5)
   1e618:	00168693          	addi	a3,a3,1
   1e61c:	0097a223          	sw	s1,4(a5)
   1e620:	04e12423          	sw	a4,72(sp)
   1e624:	04d12223          	sw	a3,68(sp)
   1e628:	00700613          	li	a2,7
   1e62c:	00878793          	addi	a5,a5,8
   1e630:	1ed64a63          	blt	a2,a3,1e824 <_svfiprintf_r+0x2e8>
   1e634:	000bc683          	lbu	a3,0(s7)
   1e638:	009c8cb3          	add	s9,s9,s1
   1e63c:	18068663          	beqz	a3,1e7c8 <_svfiprintf_r+0x28c>
   1e640:	00000313          	li	t1,0
   1e644:	001bc683          	lbu	a3,1(s7)
   1e648:	001b8c13          	addi	s8,s7,1
   1e64c:	02010da3          	sb	zero,59(sp)
   1e650:	fff00493          	li	s1,-1
   1e654:	00000b13          	li	s6,0
   1e658:	05a00b93          	li	s7,90
   1e65c:	00030d13          	mv	s10,t1
   1e660:	00078d93          	mv	s11,a5
   1e664:	001c0c13          	addi	s8,s8,1
   1e668:	00068593          	mv	a1,a3
   1e66c:	fe058613          	addi	a2,a1,-32
   1e670:	04cbe663          	bltu	s7,a2,1e6bc <_svfiprintf_r+0x180>
   1e674:	00012783          	lw	a5,0(sp)
   1e678:	00261613          	slli	a2,a2,0x2
   1e67c:	00f60633          	add	a2,a2,a5
   1e680:	00062683          	lw	a3,0(a2)
   1e684:	00068067          	jr	a3
   1e688:	00000b13          	li	s6,0
   1e68c:	fd058693          	addi	a3,a1,-48
   1e690:	00900513          	li	a0,9
   1e694:	000c4583          	lbu	a1,0(s8)
   1e698:	002b1613          	slli	a2,s6,0x2
   1e69c:	01660b33          	add	s6,a2,s6
   1e6a0:	001b1b13          	slli	s6,s6,0x1
   1e6a4:	01668b33          	add	s6,a3,s6
   1e6a8:	fd058693          	addi	a3,a1,-48
   1e6ac:	001c0c13          	addi	s8,s8,1
   1e6b0:	fed572e3          	bgeu	a0,a3,1e694 <_svfiprintf_r+0x158>
   1e6b4:	fe058613          	addi	a2,a1,-32
   1e6b8:	facbfee3          	bgeu	s7,a2,1e674 <_svfiprintf_r+0x138>
   1e6bc:	000d0313          	mv	t1,s10
   1e6c0:	000d8793          	mv	a5,s11
   1e6c4:	10058263          	beqz	a1,1e7c8 <_svfiprintf_r+0x28c>
   1e6c8:	08b10623          	sb	a1,140(sp)
   1e6cc:	02010da3          	sb	zero,59(sp)
   1e6d0:	00100d93          	li	s11,1
   1e6d4:	00100f13          	li	t5,1
   1e6d8:	08c10b93          	addi	s7,sp,140
   1e6dc:	00000493          	li	s1,0
   1e6e0:	00237293          	andi	t0,t1,2
   1e6e4:	00028463          	beqz	t0,1e6ec <_svfiprintf_r+0x1b0>
   1e6e8:	002d8d93          	addi	s11,s11,2
   1e6ec:	08437f93          	andi	t6,t1,132
   1e6f0:	04412683          	lw	a3,68(sp)
   1e6f4:	000f9663          	bnez	t6,1e700 <_svfiprintf_r+0x1c4>
   1e6f8:	41bb0d33          	sub	s10,s6,s11
   1e6fc:	2ba046e3          	bgtz	s10,1f1a8 <_svfiprintf_r+0xc6c>
   1e700:	03b14603          	lbu	a2,59(sp)
   1e704:	02060863          	beqz	a2,1e734 <_svfiprintf_r+0x1f8>
   1e708:	03b10613          	addi	a2,sp,59
   1e70c:	00c7a023          	sw	a2,0(a5)
   1e710:	00168693          	addi	a3,a3,1
   1e714:	00100613          	li	a2,1
   1e718:	00170713          	addi	a4,a4,1
   1e71c:	00c7a223          	sw	a2,4(a5)
   1e720:	04e12423          	sw	a4,72(sp)
   1e724:	04d12223          	sw	a3,68(sp)
   1e728:	00700613          	li	a2,7
   1e72c:	00878793          	addi	a5,a5,8
   1e730:	16d64663          	blt	a2,a3,1e89c <_svfiprintf_r+0x360>
   1e734:	02028863          	beqz	t0,1e764 <_svfiprintf_r+0x228>
   1e738:	03c10613          	addi	a2,sp,60
   1e73c:	00c7a023          	sw	a2,0(a5)
   1e740:	00168693          	addi	a3,a3,1
   1e744:	00200613          	li	a2,2
   1e748:	00270713          	addi	a4,a4,2
   1e74c:	00c7a223          	sw	a2,4(a5)
   1e750:	04e12423          	sw	a4,72(sp)
   1e754:	04d12223          	sw	a3,68(sp)
   1e758:	00700613          	li	a2,7
   1e75c:	00878793          	addi	a5,a5,8
   1e760:	36d64ae3          	blt	a2,a3,1f2d4 <_svfiprintf_r+0xd98>
   1e764:	08000613          	li	a2,128
   1e768:	68cf8e63          	beq	t6,a2,1ee04 <_svfiprintf_r+0x8c8>
   1e76c:	41e48d33          	sub	s10,s1,t5
   1e770:	7ba04663          	bgtz	s10,1ef1c <_svfiprintf_r+0x9e0>
   1e774:	01e70733          	add	a4,a4,t5
   1e778:	00168693          	addi	a3,a3,1
   1e77c:	0177a023          	sw	s7,0(a5)
   1e780:	01e7a223          	sw	t5,4(a5)
   1e784:	04e12423          	sw	a4,72(sp)
   1e788:	04d12223          	sw	a3,68(sp)
   1e78c:	00700613          	li	a2,7
   1e790:	00878793          	addi	a5,a5,8
   1e794:	06d64ee3          	blt	a2,a3,1f010 <_svfiprintf_r+0xad4>
   1e798:	00437313          	andi	t1,t1,4
   1e79c:	00030663          	beqz	t1,1e7a8 <_svfiprintf_r+0x26c>
   1e7a0:	41bb04b3          	sub	s1,s6,s11
   1e7a4:	14904263          	bgtz	s1,1e8e8 <_svfiprintf_r+0x3ac>
   1e7a8:	01bb5463          	bge	s6,s11,1e7b0 <_svfiprintf_r+0x274>
   1e7ac:	000d8b13          	mv	s6,s11
   1e7b0:	016c8cb3          	add	s9,s9,s6
   1e7b4:	080716e3          	bnez	a4,1f040 <_svfiprintf_r+0xb04>
   1e7b8:	000c4683          	lbu	a3,0(s8)
   1e7bc:	04012223          	sw	zero,68(sp)
   1e7c0:	00098793          	mv	a5,s3
   1e7c4:	e20694e3          	bnez	a3,1e5ec <_svfiprintf_r+0xb0>
   1e7c8:	000c8b13          	mv	s6,s9
   1e7cc:	08070263          	beqz	a4,1e850 <_svfiprintf_r+0x314>
   1e7d0:	04010613          	addi	a2,sp,64
   1e7d4:	00090593          	mv	a1,s2
   1e7d8:	000a0513          	mv	a0,s4
   1e7dc:	b99ff0ef          	jal	ra,1e374 <__ssprint_r>
   1e7e0:	0700006f          	j	1e850 <_svfiprintf_r+0x314>
   1e7e4:	00082b03          	lw	s6,0(a6)
   1e7e8:	00480813          	addi	a6,a6,4
   1e7ec:	000b4c63          	bltz	s6,1e804 <_svfiprintf_r+0x2c8>
   1e7f0:	000c4683          	lbu	a3,0(s8)
   1e7f4:	e71ff06f          	j	1e664 <_svfiprintf_r+0x128>
   1e7f8:	000c4683          	lbu	a3,0(s8)
   1e7fc:	020d6d13          	ori	s10,s10,32
   1e800:	e65ff06f          	j	1e664 <_svfiprintf_r+0x128>
   1e804:	41600b33          	neg	s6,s6
   1e808:	000c4683          	lbu	a3,0(s8)
   1e80c:	004d6d13          	ori	s10,s10,4
   1e810:	e55ff06f          	j	1e664 <_svfiprintf_r+0x128>
   1e814:	418b84b3          	sub	s1,s7,s8
   1e818:	df8b9ae3          	bne	s7,s8,1e60c <_svfiprintf_r+0xd0>
   1e81c:	000bc683          	lbu	a3,0(s7)
   1e820:	e1dff06f          	j	1e63c <_svfiprintf_r+0x100>
   1e824:	04010613          	addi	a2,sp,64
   1e828:	00090593          	mv	a1,s2
   1e82c:	000a0513          	mv	a0,s4
   1e830:	01012423          	sw	a6,8(sp)
   1e834:	b41ff0ef          	jal	ra,1e374 <__ssprint_r>
   1e838:	00051a63          	bnez	a0,1e84c <_svfiprintf_r+0x310>
   1e83c:	04812703          	lw	a4,72(sp)
   1e840:	00812803          	lw	a6,8(sp)
   1e844:	00098793          	mv	a5,s3
   1e848:	dedff06f          	j	1e634 <_svfiprintf_r+0xf8>
   1e84c:	000c8b13          	mv	s6,s9
   1e850:	00c95783          	lhu	a5,12(s2)
   1e854:	0407f793          	andi	a5,a5,64
   1e858:	5a079ce3          	bnez	a5,1f610 <_svfiprintf_r+0x10d4>
   1e85c:	12c12083          	lw	ra,300(sp)
   1e860:	12812403          	lw	s0,296(sp)
   1e864:	12412483          	lw	s1,292(sp)
   1e868:	12012903          	lw	s2,288(sp)
   1e86c:	11c12983          	lw	s3,284(sp)
   1e870:	11812a03          	lw	s4,280(sp)
   1e874:	11412a83          	lw	s5,276(sp)
   1e878:	10c12b83          	lw	s7,268(sp)
   1e87c:	10812c03          	lw	s8,264(sp)
   1e880:	10412c83          	lw	s9,260(sp)
   1e884:	10012d03          	lw	s10,256(sp)
   1e888:	0fc12d83          	lw	s11,252(sp)
   1e88c:	000b0513          	mv	a0,s6
   1e890:	11012b03          	lw	s6,272(sp)
   1e894:	13010113          	addi	sp,sp,304
   1e898:	00008067          	ret
   1e89c:	04010613          	addi	a2,sp,64
   1e8a0:	00090593          	mv	a1,s2
   1e8a4:	000a0513          	mv	a0,s4
   1e8a8:	03012223          	sw	a6,36(sp)
   1e8ac:	01e12a23          	sw	t5,20(sp)
   1e8b0:	00612823          	sw	t1,16(sp)
   1e8b4:	01f12623          	sw	t6,12(sp)
   1e8b8:	00512423          	sw	t0,8(sp)
   1e8bc:	ab9ff0ef          	jal	ra,1e374 <__ssprint_r>
   1e8c0:	f80516e3          	bnez	a0,1e84c <_svfiprintf_r+0x310>
   1e8c4:	04812703          	lw	a4,72(sp)
   1e8c8:	04412683          	lw	a3,68(sp)
   1e8cc:	02412803          	lw	a6,36(sp)
   1e8d0:	01412f03          	lw	t5,20(sp)
   1e8d4:	01012303          	lw	t1,16(sp)
   1e8d8:	00c12f83          	lw	t6,12(sp)
   1e8dc:	00812283          	lw	t0,8(sp)
   1e8e0:	00098793          	mv	a5,s3
   1e8e4:	e51ff06f          	j	1e734 <_svfiprintf_r+0x1f8>
   1e8e8:	00026eb7          	lui	t4,0x26
   1e8ec:	01000613          	li	a2,16
   1e8f0:	04412683          	lw	a3,68(sp)
   1e8f4:	d24e8e93          	addi	t4,t4,-732 # 25d24 <blanks.1>
   1e8f8:	06965c63          	bge	a2,s1,1e970 <_svfiprintf_r+0x434>
   1e8fc:	01612423          	sw	s6,8(sp)
   1e900:	01000b93          	li	s7,16
   1e904:	00700d13          	li	s10,7
   1e908:	01012623          	sw	a6,12(sp)
   1e90c:	000e8b13          	mv	s6,t4
   1e910:	00c0006f          	j	1e91c <_svfiprintf_r+0x3e0>
   1e914:	ff048493          	addi	s1,s1,-16
   1e918:	049bd663          	bge	s7,s1,1e964 <_svfiprintf_r+0x428>
   1e91c:	01070713          	addi	a4,a4,16
   1e920:	00168693          	addi	a3,a3,1
   1e924:	0167a023          	sw	s6,0(a5)
   1e928:	0177a223          	sw	s7,4(a5)
   1e92c:	04e12423          	sw	a4,72(sp)
   1e930:	04d12223          	sw	a3,68(sp)
   1e934:	00878793          	addi	a5,a5,8
   1e938:	fcdd5ee3          	bge	s10,a3,1e914 <_svfiprintf_r+0x3d8>
   1e93c:	04010613          	addi	a2,sp,64
   1e940:	00090593          	mv	a1,s2
   1e944:	000a0513          	mv	a0,s4
   1e948:	a2dff0ef          	jal	ra,1e374 <__ssprint_r>
   1e94c:	f00510e3          	bnez	a0,1e84c <_svfiprintf_r+0x310>
   1e950:	ff048493          	addi	s1,s1,-16
   1e954:	04812703          	lw	a4,72(sp)
   1e958:	04412683          	lw	a3,68(sp)
   1e95c:	00098793          	mv	a5,s3
   1e960:	fa9bcee3          	blt	s7,s1,1e91c <_svfiprintf_r+0x3e0>
   1e964:	000b0e93          	mv	t4,s6
   1e968:	00c12803          	lw	a6,12(sp)
   1e96c:	00812b03          	lw	s6,8(sp)
   1e970:	00970733          	add	a4,a4,s1
   1e974:	00168693          	addi	a3,a3,1
   1e978:	01d7a023          	sw	t4,0(a5)
   1e97c:	0097a223          	sw	s1,4(a5)
   1e980:	04e12423          	sw	a4,72(sp)
   1e984:	04d12223          	sw	a3,68(sp)
   1e988:	00700793          	li	a5,7
   1e98c:	e0d7dee3          	bge	a5,a3,1e7a8 <_svfiprintf_r+0x26c>
   1e990:	04010613          	addi	a2,sp,64
   1e994:	00090593          	mv	a1,s2
   1e998:	000a0513          	mv	a0,s4
   1e99c:	01012423          	sw	a6,8(sp)
   1e9a0:	9d5ff0ef          	jal	ra,1e374 <__ssprint_r>
   1e9a4:	ea0514e3          	bnez	a0,1e84c <_svfiprintf_r+0x310>
   1e9a8:	04812703          	lw	a4,72(sp)
   1e9ac:	00812803          	lw	a6,8(sp)
   1e9b0:	df9ff06f          	j	1e7a8 <_svfiprintf_r+0x26c>
   1e9b4:	00082b83          	lw	s7,0(a6)
   1e9b8:	02010da3          	sb	zero,59(sp)
   1e9bc:	000d0313          	mv	t1,s10
   1e9c0:	000d8793          	mv	a5,s11
   1e9c4:	00480d13          	addi	s10,a6,4
   1e9c8:	3a0b80e3          	beqz	s7,1f568 <_svfiprintf_r+0x102c>
   1e9cc:	fff00693          	li	a3,-1
   1e9d0:	00e12823          	sw	a4,16(sp)
   1e9d4:	01b12623          	sw	s11,12(sp)
   1e9d8:	00612423          	sw	t1,8(sp)
   1e9dc:	2ad486e3          	beq	s1,a3,1f488 <_svfiprintf_r+0xf4c>
   1e9e0:	00048613          	mv	a2,s1
   1e9e4:	00000593          	li	a1,0
   1e9e8:	000b8513          	mv	a0,s7
   1e9ec:	991f80ef          	jal	ra,1737c <memchr>
   1e9f0:	00812303          	lw	t1,8(sp)
   1e9f4:	00c12783          	lw	a5,12(sp)
   1e9f8:	01012703          	lw	a4,16(sp)
   1e9fc:	3e050ce3          	beqz	a0,1f5f4 <_svfiprintf_r+0x10b8>
   1ea00:	41750f33          	sub	t5,a0,s7
   1ea04:	ffff4d93          	not	s11,t5
   1ea08:	41fddd93          	srai	s11,s11,0x1f
   1ea0c:	01bf7db3          	and	s11,t5,s11
   1ea10:	000d0813          	mv	a6,s10
   1ea14:	00000493          	li	s1,0
   1ea18:	0ec0006f          	j	1eb04 <_svfiprintf_r+0x5c8>
   1ea1c:	00082683          	lw	a3,0(a6)
   1ea20:	000d8793          	mv	a5,s11
   1ea24:	000d0313          	mv	t1,s10
   1ea28:	02010da3          	sb	zero,59(sp)
   1ea2c:	00480813          	addi	a6,a6,4
   1ea30:	08d10623          	sb	a3,140(sp)
   1ea34:	00100d93          	li	s11,1
   1ea38:	00100f13          	li	t5,1
   1ea3c:	08c10b93          	addi	s7,sp,140
   1ea40:	c9dff06f          	j	1e6dc <_svfiprintf_r+0x1a0>
   1ea44:	000d0313          	mv	t1,s10
   1ea48:	02037693          	andi	a3,t1,32
   1ea4c:	000d8793          	mv	a5,s11
   1ea50:	0c068a63          	beqz	a3,1eb24 <_svfiprintf_r+0x5e8>
   1ea54:	00780813          	addi	a6,a6,7
   1ea58:	ff887813          	andi	a6,a6,-8
   1ea5c:	00482603          	lw	a2,4(a6)
   1ea60:	00082d03          	lw	s10,0(a6)
   1ea64:	00880813          	addi	a6,a6,8
   1ea68:	00060d93          	mv	s11,a2
   1ea6c:	0e064263          	bltz	a2,1eb50 <_svfiprintf_r+0x614>
   1ea70:	fff00613          	li	a2,-1
   1ea74:	10c48063          	beq	s1,a2,1eb74 <_svfiprintf_r+0x638>
   1ea78:	01bd6633          	or	a2,s10,s11
   1ea7c:	f7f37313          	andi	t1,t1,-129
   1ea80:	0e061a63          	bnez	a2,1eb74 <_svfiprintf_r+0x638>
   1ea84:	360494e3          	bnez	s1,1f5ec <_svfiprintf_r+0x10b0>
   1ea88:	00000d93          	li	s11,0
   1ea8c:	00000f13          	li	t5,0
   1ea90:	0f010b93          	addi	s7,sp,240
   1ea94:	0700006f          	j	1eb04 <_svfiprintf_r+0x5c8>
   1ea98:	000d8793          	mv	a5,s11
   1ea9c:	010d6613          	ori	a2,s10,16
   1eaa0:	02067693          	andi	a3,a2,32
   1eaa4:	080686e3          	beqz	a3,1f330 <_svfiprintf_r+0xdf4>
   1eaa8:	00780813          	addi	a6,a6,7
   1eaac:	ff887813          	andi	a6,a6,-8
   1eab0:	00082683          	lw	a3,0(a6)
   1eab4:	00482503          	lw	a0,4(a6)
   1eab8:	00880813          	addi	a6,a6,8
   1eabc:	02010da3          	sb	zero,59(sp)
   1eac0:	fff00593          	li	a1,-1
   1eac4:	bff67313          	andi	t1,a2,-1025
   1eac8:	14b48463          	beq	s1,a1,1ec10 <_svfiprintf_r+0x6d4>
   1eacc:	00a6e5b3          	or	a1,a3,a0
   1ead0:	b7f67613          	andi	a2,a2,-1153
   1ead4:	24059ae3          	bnez	a1,1f528 <_svfiprintf_r+0xfec>
   1ead8:	00030f13          	mv	t5,t1
   1eadc:	00000693          	li	a3,0
   1eae0:	00060313          	mv	t1,a2
   1eae4:	10049a63          	bnez	s1,1ebf8 <_svfiprintf_r+0x6bc>
   1eae8:	fa0690e3          	bnez	a3,1ea88 <_svfiprintf_r+0x54c>
   1eaec:	001f7f13          	andi	t5,t5,1
   1eaf0:	0a0f0ae3          	beqz	t5,1f3a4 <_svfiprintf_r+0xe68>
   1eaf4:	03000693          	li	a3,48
   1eaf8:	0ed107a3          	sb	a3,239(sp)
   1eafc:	000f0d93          	mv	s11,t5
   1eb00:	0ef10b93          	addi	s7,sp,239
   1eb04:	03b14683          	lbu	a3,59(sp)
   1eb08:	00d036b3          	snez	a3,a3
   1eb0c:	00dd8db3          	add	s11,s11,a3
   1eb10:	bd1ff06f          	j	1e6e0 <_svfiprintf_r+0x1a4>
   1eb14:	010d6313          	ori	t1,s10,16
   1eb18:	02037693          	andi	a3,t1,32
   1eb1c:	000d8793          	mv	a5,s11
   1eb20:	f2069ae3          	bnez	a3,1ea54 <_svfiprintf_r+0x518>
   1eb24:	01037613          	andi	a2,t1,16
   1eb28:	00082683          	lw	a3,0(a6)
   1eb2c:	00480813          	addi	a6,a6,4
   1eb30:	7e061863          	bnez	a2,1f320 <_svfiprintf_r+0xde4>
   1eb34:	04037613          	andi	a2,t1,64
   1eb38:	7e060063          	beqz	a2,1f318 <_svfiprintf_r+0xddc>
   1eb3c:	01069d13          	slli	s10,a3,0x10
   1eb40:	410d5d13          	srai	s10,s10,0x10
   1eb44:	41fd5d93          	srai	s11,s10,0x1f
   1eb48:	000d8613          	mv	a2,s11
   1eb4c:	f20652e3          	bgez	a2,1ea70 <_svfiprintf_r+0x534>
   1eb50:	02d00593          	li	a1,45
   1eb54:	01a03633          	snez	a2,s10
   1eb58:	41b00e33          	neg	t3,s11
   1eb5c:	02b10da3          	sb	a1,59(sp)
   1eb60:	fff00593          	li	a1,-1
   1eb64:	40ce0db3          	sub	s11,t3,a2
   1eb68:	41a00d33          	neg	s10,s10
   1eb6c:	00b48463          	beq	s1,a1,1eb74 <_svfiprintf_r+0x638>
   1eb70:	f7f37313          	andi	t1,t1,-129
   1eb74:	540d9463          	bnez	s11,1f0bc <_svfiprintf_r+0xb80>
   1eb78:	00900613          	li	a2,9
   1eb7c:	55a66063          	bltu	a2,s10,1f0bc <_svfiprintf_r+0xb80>
   1eb80:	030d0693          	addi	a3,s10,48
   1eb84:	0ff6f693          	zext.b	a3,a3
   1eb88:	0ed107a3          	sb	a3,239(sp)
   1eb8c:	00048d93          	mv	s11,s1
   1eb90:	00904463          	bgtz	s1,1eb98 <_svfiprintf_r+0x65c>
   1eb94:	00100d93          	li	s11,1
   1eb98:	00100f13          	li	t5,1
   1eb9c:	0ef10b93          	addi	s7,sp,239
   1eba0:	f65ff06f          	j	1eb04 <_svfiprintf_r+0x5c8>
   1eba4:	ffff8637          	lui	a2,0xffff8
   1eba8:	83064613          	xori	a2,a2,-2000
   1ebac:	02c11e23          	sh	a2,60(sp)
   1ebb0:	00025637          	lui	a2,0x25
   1ebb4:	11060613          	addi	a2,a2,272 # 25110 <__clzsi2+0x100>
   1ebb8:	00082683          	lw	a3,0(a6)
   1ebbc:	000d8793          	mv	a5,s11
   1ebc0:	00000513          	li	a0,0
   1ebc4:	002d6313          	ori	t1,s10,2
   1ebc8:	00480813          	addi	a6,a6,4
   1ebcc:	00c12223          	sw	a2,4(sp)
   1ebd0:	02010da3          	sb	zero,59(sp)
   1ebd4:	fff00613          	li	a2,-1
   1ebd8:	48c48c63          	beq	s1,a2,1f070 <_svfiprintf_r+0xb34>
   1ebdc:	00a6e633          	or	a2,a3,a0
   1ebe0:	f7f37593          	andi	a1,t1,-129
   1ebe4:	48061063          	bnez	a2,1f064 <_svfiprintf_r+0xb28>
   1ebe8:	00030f13          	mv	t5,t1
   1ebec:	00200693          	li	a3,2
   1ebf0:	00058313          	mv	t1,a1
   1ebf4:	ee048ae3          	beqz	s1,1eae8 <_svfiprintf_r+0x5ac>
   1ebf8:	00100613          	li	a2,1
   1ebfc:	1ec688e3          	beq	a3,a2,1f5ec <_svfiprintf_r+0x10b0>
   1ec00:	00200613          	li	a2,2
   1ec04:	18c684e3          	beq	a3,a2,1f58c <_svfiprintf_r+0x1050>
   1ec08:	00000693          	li	a3,0
   1ec0c:	00000513          	li	a0,0
   1ec10:	0f010b93          	addi	s7,sp,240
   1ec14:	01d51593          	slli	a1,a0,0x1d
   1ec18:	0076f613          	andi	a2,a3,7
   1ec1c:	0036d693          	srli	a3,a3,0x3
   1ec20:	03060613          	addi	a2,a2,48
   1ec24:	00d5e6b3          	or	a3,a1,a3
   1ec28:	00355513          	srli	a0,a0,0x3
   1ec2c:	fecb8fa3          	sb	a2,-1(s7)
   1ec30:	00a6e5b3          	or	a1,a3,a0
   1ec34:	000b8e13          	mv	t3,s7
   1ec38:	fffb8b93          	addi	s7,s7,-1
   1ec3c:	fc059ce3          	bnez	a1,1ec14 <_svfiprintf_r+0x6d8>
   1ec40:	00137693          	andi	a3,t1,1
   1ec44:	54068663          	beqz	a3,1f190 <_svfiprintf_r+0xc54>
   1ec48:	03000693          	li	a3,48
   1ec4c:	54d60263          	beq	a2,a3,1f190 <_svfiprintf_r+0xc54>
   1ec50:	ffee0e13          	addi	t3,t3,-2
   1ec54:	0f010613          	addi	a2,sp,240
   1ec58:	41c60f33          	sub	t5,a2,t3
   1ec5c:	fedb8fa3          	sb	a3,-1(s7)
   1ec60:	000f0d93          	mv	s11,t5
   1ec64:	769f4263          	blt	t5,s1,1f3c8 <_svfiprintf_r+0xe8c>
   1ec68:	000e0b93          	mv	s7,t3
   1ec6c:	e99ff06f          	j	1eb04 <_svfiprintf_r+0x5c8>
   1ec70:	020d7693          	andi	a3,s10,32
   1ec74:	000d8793          	mv	a5,s11
   1ec78:	72069c63          	bnez	a3,1f3b0 <_svfiprintf_r+0xe74>
   1ec7c:	010d7693          	andi	a3,s10,16
   1ec80:	0c069ce3          	bnez	a3,1f558 <_svfiprintf_r+0x101c>
   1ec84:	040d7693          	andi	a3,s10,64
   1ec88:	10069ee3          	bnez	a3,1f5a4 <_svfiprintf_r+0x1068>
   1ec8c:	200d7313          	andi	t1,s10,512
   1ec90:	0c0304e3          	beqz	t1,1f558 <_svfiprintf_r+0x101c>
   1ec94:	00082683          	lw	a3,0(a6)
   1ec98:	00480813          	addi	a6,a6,4
   1ec9c:	01968023          	sb	s9,0(a3)
   1eca0:	945ff06f          	j	1e5e4 <_svfiprintf_r+0xa8>
   1eca4:	000d8793          	mv	a5,s11
   1eca8:	010d6f13          	ori	t5,s10,16
   1ecac:	020f7693          	andi	a3,t5,32
   1ecb0:	6a068c63          	beqz	a3,1f368 <_svfiprintf_r+0xe2c>
   1ecb4:	00780813          	addi	a6,a6,7
   1ecb8:	ff887813          	andi	a6,a6,-8
   1ecbc:	00082d03          	lw	s10,0(a6)
   1ecc0:	00482d83          	lw	s11,4(a6)
   1ecc4:	00880813          	addi	a6,a6,8
   1ecc8:	02010da3          	sb	zero,59(sp)
   1eccc:	fff00613          	li	a2,-1
   1ecd0:	000f0313          	mv	t1,t5
   1ecd4:	eac480e3          	beq	s1,a2,1eb74 <_svfiprintf_r+0x638>
   1ecd8:	01bd6633          	or	a2,s10,s11
   1ecdc:	f7ff7313          	andi	t1,t5,-129
   1ece0:	e8061ae3          	bnez	a2,1eb74 <_svfiprintf_r+0x638>
   1ece4:	00100693          	li	a3,1
   1ece8:	dfdff06f          	j	1eae4 <_svfiprintf_r+0x5a8>
   1ecec:	000c4683          	lbu	a3,0(s8)
   1ecf0:	080d6d13          	ori	s10,s10,128
   1ecf4:	971ff06f          	j	1e664 <_svfiprintf_r+0x128>
   1ecf8:	000c4583          	lbu	a1,0(s8)
   1ecfc:	02a00693          	li	a3,42
   1ed00:	001c0613          	addi	a2,s8,1
   1ed04:	10d58ae3          	beq	a1,a3,1f618 <_svfiprintf_r+0x10dc>
   1ed08:	fd058693          	addi	a3,a1,-48
   1ed0c:	00900893          	li	a7,9
   1ed10:	00060c13          	mv	s8,a2
   1ed14:	00000493          	li	s1,0
   1ed18:	00900513          	li	a0,9
   1ed1c:	94d8e8e3          	bltu	a7,a3,1e66c <_svfiprintf_r+0x130>
   1ed20:	000c4583          	lbu	a1,0(s8)
   1ed24:	00249613          	slli	a2,s1,0x2
   1ed28:	009604b3          	add	s1,a2,s1
   1ed2c:	00149493          	slli	s1,s1,0x1
   1ed30:	00d484b3          	add	s1,s1,a3
   1ed34:	fd058693          	addi	a3,a1,-48
   1ed38:	001c0c13          	addi	s8,s8,1
   1ed3c:	fed572e3          	bgeu	a0,a3,1ed20 <_svfiprintf_r+0x7e4>
   1ed40:	92dff06f          	j	1e66c <_svfiprintf_r+0x130>
   1ed44:	02b00613          	li	a2,43
   1ed48:	000c4683          	lbu	a3,0(s8)
   1ed4c:	02c10da3          	sb	a2,59(sp)
   1ed50:	915ff06f          	j	1e664 <_svfiprintf_r+0x128>
   1ed54:	000a0513          	mv	a0,s4
   1ed58:	01012623          	sw	a6,12(sp)
   1ed5c:	00e12423          	sw	a4,8(sp)
   1ed60:	c31f70ef          	jal	ra,16990 <_localeconv_r>
   1ed64:	00452783          	lw	a5,4(a0)
   1ed68:	00078513          	mv	a0,a5
   1ed6c:	02f12023          	sw	a5,32(sp)
   1ed70:	d81f90ef          	jal	ra,18af0 <strlen>
   1ed74:	00050693          	mv	a3,a0
   1ed78:	000a0513          	mv	a0,s4
   1ed7c:	00d12e23          	sw	a3,28(sp)
   1ed80:	c11f70ef          	jal	ra,16990 <_localeconv_r>
   1ed84:	00852703          	lw	a4,8(a0)
   1ed88:	01c12783          	lw	a5,28(sp)
   1ed8c:	00c12803          	lw	a6,12(sp)
   1ed90:	00e12c23          	sw	a4,24(sp)
   1ed94:	00812703          	lw	a4,8(sp)
   1ed98:	a4078ce3          	beqz	a5,1e7f0 <_svfiprintf_r+0x2b4>
   1ed9c:	01812783          	lw	a5,24(sp)
   1eda0:	000c4683          	lbu	a3,0(s8)
   1eda4:	8c0780e3          	beqz	a5,1e664 <_svfiprintf_r+0x128>
   1eda8:	0007c603          	lbu	a2,0(a5)
   1edac:	8a060ce3          	beqz	a2,1e664 <_svfiprintf_r+0x128>
   1edb0:	400d6d13          	ori	s10,s10,1024
   1edb4:	8b1ff06f          	j	1e664 <_svfiprintf_r+0x128>
   1edb8:	000c4683          	lbu	a3,0(s8)
   1edbc:	001d6d13          	ori	s10,s10,1
   1edc0:	8a5ff06f          	j	1e664 <_svfiprintf_r+0x128>
   1edc4:	03b14603          	lbu	a2,59(sp)
   1edc8:	000c4683          	lbu	a3,0(s8)
   1edcc:	88061ce3          	bnez	a2,1e664 <_svfiprintf_r+0x128>
   1edd0:	02000613          	li	a2,32
   1edd4:	02c10da3          	sb	a2,59(sp)
   1edd8:	88dff06f          	j	1e664 <_svfiprintf_r+0x128>
   1eddc:	000c4683          	lbu	a3,0(s8)
   1ede0:	06c00613          	li	a2,108
   1ede4:	74c68a63          	beq	a3,a2,1f538 <_svfiprintf_r+0xffc>
   1ede8:	010d6d13          	ori	s10,s10,16
   1edec:	879ff06f          	j	1e664 <_svfiprintf_r+0x128>
   1edf0:	000c4683          	lbu	a3,0(s8)
   1edf4:	06800613          	li	a2,104
   1edf8:	74c68863          	beq	a3,a2,1f548 <_svfiprintf_r+0x100c>
   1edfc:	040d6d13          	ori	s10,s10,64
   1ee00:	865ff06f          	j	1e664 <_svfiprintf_r+0x128>
   1ee04:	41bb0d33          	sub	s10,s6,s11
   1ee08:	97a052e3          	blez	s10,1e76c <_svfiprintf_r+0x230>
   1ee0c:	00026eb7          	lui	t4,0x26
   1ee10:	01000613          	li	a2,16
   1ee14:	d14e8e93          	addi	t4,t4,-748 # 25d14 <zeroes.0>
   1ee18:	0ba65063          	bge	a2,s10,1eeb8 <_svfiprintf_r+0x97c>
   1ee1c:	01612623          	sw	s6,12(sp)
   1ee20:	00912823          	sw	s1,16(sp)
   1ee24:	01000e13          	li	t3,16
   1ee28:	000d0493          	mv	s1,s10
   1ee2c:	00700f93          	li	t6,7
   1ee30:	00612423          	sw	t1,8(sp)
   1ee34:	01e12a23          	sw	t5,20(sp)
   1ee38:	00080d13          	mv	s10,a6
   1ee3c:	000e8b13          	mv	s6,t4
   1ee40:	00c0006f          	j	1ee4c <_svfiprintf_r+0x910>
   1ee44:	ff048493          	addi	s1,s1,-16
   1ee48:	049e5a63          	bge	t3,s1,1ee9c <_svfiprintf_r+0x960>
   1ee4c:	01070713          	addi	a4,a4,16
   1ee50:	00168693          	addi	a3,a3,1
   1ee54:	0167a023          	sw	s6,0(a5)
   1ee58:	01c7a223          	sw	t3,4(a5)
   1ee5c:	04e12423          	sw	a4,72(sp)
   1ee60:	04d12223          	sw	a3,68(sp)
   1ee64:	00878793          	addi	a5,a5,8
   1ee68:	fcdfdee3          	bge	t6,a3,1ee44 <_svfiprintf_r+0x908>
   1ee6c:	04010613          	addi	a2,sp,64
   1ee70:	00090593          	mv	a1,s2
   1ee74:	000a0513          	mv	a0,s4
   1ee78:	cfcff0ef          	jal	ra,1e374 <__ssprint_r>
   1ee7c:	9c0518e3          	bnez	a0,1e84c <_svfiprintf_r+0x310>
   1ee80:	01000e13          	li	t3,16
   1ee84:	ff048493          	addi	s1,s1,-16
   1ee88:	04812703          	lw	a4,72(sp)
   1ee8c:	04412683          	lw	a3,68(sp)
   1ee90:	00098793          	mv	a5,s3
   1ee94:	00700f93          	li	t6,7
   1ee98:	fa9e4ae3          	blt	t3,s1,1ee4c <_svfiprintf_r+0x910>
   1ee9c:	000d0813          	mv	a6,s10
   1eea0:	000b0e93          	mv	t4,s6
   1eea4:	00048d13          	mv	s10,s1
   1eea8:	00812303          	lw	t1,8(sp)
   1eeac:	01412f03          	lw	t5,20(sp)
   1eeb0:	01012483          	lw	s1,16(sp)
   1eeb4:	00c12b03          	lw	s6,12(sp)
   1eeb8:	01a70733          	add	a4,a4,s10
   1eebc:	00168693          	addi	a3,a3,1
   1eec0:	01d7a023          	sw	t4,0(a5)
   1eec4:	01a7a223          	sw	s10,4(a5)
   1eec8:	04e12423          	sw	a4,72(sp)
   1eecc:	04d12223          	sw	a3,68(sp)
   1eed0:	00700613          	li	a2,7
   1eed4:	00878793          	addi	a5,a5,8
   1eed8:	88d65ae3          	bge	a2,a3,1e76c <_svfiprintf_r+0x230>
   1eedc:	04010613          	addi	a2,sp,64
   1eee0:	00090593          	mv	a1,s2
   1eee4:	000a0513          	mv	a0,s4
   1eee8:	01012823          	sw	a6,16(sp)
   1eeec:	01e12623          	sw	t5,12(sp)
   1eef0:	00612423          	sw	t1,8(sp)
   1eef4:	c80ff0ef          	jal	ra,1e374 <__ssprint_r>
   1eef8:	94051ae3          	bnez	a0,1e84c <_svfiprintf_r+0x310>
   1eefc:	00c12f03          	lw	t5,12(sp)
   1ef00:	04812703          	lw	a4,72(sp)
   1ef04:	04412683          	lw	a3,68(sp)
   1ef08:	41e48d33          	sub	s10,s1,t5
   1ef0c:	01012803          	lw	a6,16(sp)
   1ef10:	00812303          	lw	t1,8(sp)
   1ef14:	00098793          	mv	a5,s3
   1ef18:	85a05ee3          	blez	s10,1e774 <_svfiprintf_r+0x238>
   1ef1c:	00026eb7          	lui	t4,0x26
   1ef20:	d14e8e93          	addi	t4,t4,-748 # 25d14 <zeroes.0>
   1ef24:	09a45663          	bge	s0,s10,1efb0 <_svfiprintf_r+0xa74>
   1ef28:	01612623          	sw	s6,12(sp)
   1ef2c:	00700493          	li	s1,7
   1ef30:	000d0b13          	mv	s6,s10
   1ef34:	00612423          	sw	t1,8(sp)
   1ef38:	01e12823          	sw	t5,16(sp)
   1ef3c:	01012a23          	sw	a6,20(sp)
   1ef40:	000a8d13          	mv	s10,s5
   1ef44:	00c0006f          	j	1ef50 <_svfiprintf_r+0xa14>
   1ef48:	ff0b0b13          	addi	s6,s6,-16
   1ef4c:	05645663          	bge	s0,s6,1ef98 <_svfiprintf_r+0xa5c>
   1ef50:	01070713          	addi	a4,a4,16
   1ef54:	00168693          	addi	a3,a3,1
   1ef58:	0157a023          	sw	s5,0(a5)
   1ef5c:	0087a223          	sw	s0,4(a5)
   1ef60:	04e12423          	sw	a4,72(sp)
   1ef64:	04d12223          	sw	a3,68(sp)
   1ef68:	00878793          	addi	a5,a5,8
   1ef6c:	fcd4dee3          	bge	s1,a3,1ef48 <_svfiprintf_r+0xa0c>
   1ef70:	04010613          	addi	a2,sp,64
   1ef74:	00090593          	mv	a1,s2
   1ef78:	000a0513          	mv	a0,s4
   1ef7c:	bf8ff0ef          	jal	ra,1e374 <__ssprint_r>
   1ef80:	8c0516e3          	bnez	a0,1e84c <_svfiprintf_r+0x310>
   1ef84:	ff0b0b13          	addi	s6,s6,-16
   1ef88:	04812703          	lw	a4,72(sp)
   1ef8c:	04412683          	lw	a3,68(sp)
   1ef90:	00098793          	mv	a5,s3
   1ef94:	fb644ee3          	blt	s0,s6,1ef50 <_svfiprintf_r+0xa14>
   1ef98:	000d0e93          	mv	t4,s10
   1ef9c:	00812303          	lw	t1,8(sp)
   1efa0:	000b0d13          	mv	s10,s6
   1efa4:	01012f03          	lw	t5,16(sp)
   1efa8:	01412803          	lw	a6,20(sp)
   1efac:	00c12b03          	lw	s6,12(sp)
   1efb0:	01a70733          	add	a4,a4,s10
   1efb4:	00168693          	addi	a3,a3,1
   1efb8:	01d7a023          	sw	t4,0(a5)
   1efbc:	01a7a223          	sw	s10,4(a5)
   1efc0:	04e12423          	sw	a4,72(sp)
   1efc4:	04d12223          	sw	a3,68(sp)
   1efc8:	00700613          	li	a2,7
   1efcc:	00878793          	addi	a5,a5,8
   1efd0:	fad65263          	bge	a2,a3,1e774 <_svfiprintf_r+0x238>
   1efd4:	04010613          	addi	a2,sp,64
   1efd8:	00090593          	mv	a1,s2
   1efdc:	000a0513          	mv	a0,s4
   1efe0:	01012823          	sw	a6,16(sp)
   1efe4:	01e12623          	sw	t5,12(sp)
   1efe8:	00612423          	sw	t1,8(sp)
   1efec:	b88ff0ef          	jal	ra,1e374 <__ssprint_r>
   1eff0:	84051ee3          	bnez	a0,1e84c <_svfiprintf_r+0x310>
   1eff4:	04812703          	lw	a4,72(sp)
   1eff8:	04412683          	lw	a3,68(sp)
   1effc:	01012803          	lw	a6,16(sp)
   1f000:	00c12f03          	lw	t5,12(sp)
   1f004:	00812303          	lw	t1,8(sp)
   1f008:	00098793          	mv	a5,s3
   1f00c:	f68ff06f          	j	1e774 <_svfiprintf_r+0x238>
   1f010:	04010613          	addi	a2,sp,64
   1f014:	00090593          	mv	a1,s2
   1f018:	000a0513          	mv	a0,s4
   1f01c:	01012623          	sw	a6,12(sp)
   1f020:	00612423          	sw	t1,8(sp)
   1f024:	b50ff0ef          	jal	ra,1e374 <__ssprint_r>
   1f028:	820512e3          	bnez	a0,1e84c <_svfiprintf_r+0x310>
   1f02c:	04812703          	lw	a4,72(sp)
   1f030:	00c12803          	lw	a6,12(sp)
   1f034:	00812303          	lw	t1,8(sp)
   1f038:	00098793          	mv	a5,s3
   1f03c:	f5cff06f          	j	1e798 <_svfiprintf_r+0x25c>
   1f040:	04010613          	addi	a2,sp,64
   1f044:	00090593          	mv	a1,s2
   1f048:	000a0513          	mv	a0,s4
   1f04c:	01012423          	sw	a6,8(sp)
   1f050:	b24ff0ef          	jal	ra,1e374 <__ssprint_r>
   1f054:	fe051c63          	bnez	a0,1e84c <_svfiprintf_r+0x310>
   1f058:	04812703          	lw	a4,72(sp)
   1f05c:	00812803          	lw	a6,8(sp)
   1f060:	f58ff06f          	j	1e7b8 <_svfiprintf_r+0x27c>
   1f064:	00200613          	li	a2,2
   1f068:	00058313          	mv	t1,a1
   1f06c:	ba0602e3          	beqz	a2,1ec10 <_svfiprintf_r+0x6d4>
   1f070:	00412883          	lw	a7,4(sp)
   1f074:	0f010b93          	addi	s7,sp,240
   1f078:	00f6f613          	andi	a2,a3,15
   1f07c:	00c88633          	add	a2,a7,a2
   1f080:	00064583          	lbu	a1,0(a2)
   1f084:	0046d693          	srli	a3,a3,0x4
   1f088:	01c51613          	slli	a2,a0,0x1c
   1f08c:	00d666b3          	or	a3,a2,a3
   1f090:	00455513          	srli	a0,a0,0x4
   1f094:	febb8fa3          	sb	a1,-1(s7)
   1f098:	00a6e633          	or	a2,a3,a0
   1f09c:	fffb8b93          	addi	s7,s7,-1
   1f0a0:	fc061ce3          	bnez	a2,1f078 <_svfiprintf_r+0xb3c>
   1f0a4:	0f010693          	addi	a3,sp,240
   1f0a8:	41768f33          	sub	t5,a3,s7
   1f0ac:	00048d93          	mv	s11,s1
   1f0b0:	a5e4dae3          	bge	s1,t5,1eb04 <_svfiprintf_r+0x5c8>
   1f0b4:	000f0d93          	mv	s11,t5
   1f0b8:	a4dff06f          	j	1eb04 <_svfiprintf_r+0x5c8>
   1f0bc:	0f010b93          	addi	s7,sp,240
   1f0c0:	40037693          	andi	a3,t1,1024
   1f0c4:	00000613          	li	a2,0
   1f0c8:	01612623          	sw	s6,12(sp)
   1f0cc:	00912823          	sw	s1,16(sp)
   1f0d0:	03412423          	sw	s4,40(sp)
   1f0d4:	00612423          	sw	t1,8(sp)
   1f0d8:	000b8a13          	mv	s4,s7
   1f0dc:	00068b13          	mv	s6,a3
   1f0e0:	000c0b93          	mv	s7,s8
   1f0e4:	00f12a23          	sw	a5,20(sp)
   1f0e8:	00090c13          	mv	s8,s2
   1f0ec:	00060493          	mv	s1,a2
   1f0f0:	01812903          	lw	s2,24(sp)
   1f0f4:	02e12223          	sw	a4,36(sp)
   1f0f8:	03012623          	sw	a6,44(sp)
   1f0fc:	0240006f          	j	1f120 <_svfiprintf_r+0xbe4>
   1f100:	00a00613          	li	a2,10
   1f104:	00000693          	li	a3,0
   1f108:	000d0513          	mv	a0,s10
   1f10c:	000d8593          	mv	a1,s11
   1f110:	0ac010ef          	jal	ra,201bc <__udivdi3>
   1f114:	480d8263          	beqz	s11,1f598 <_svfiprintf_r+0x105c>
   1f118:	00050d13          	mv	s10,a0
   1f11c:	00058d93          	mv	s11,a1
   1f120:	00a00613          	li	a2,10
   1f124:	00000693          	li	a3,0
   1f128:	000d0513          	mv	a0,s10
   1f12c:	000d8593          	mv	a1,s11
   1f130:	650010ef          	jal	ra,20780 <__umoddi3>
   1f134:	03050513          	addi	a0,a0,48
   1f138:	feaa0fa3          	sb	a0,-1(s4)
   1f13c:	00148493          	addi	s1,s1,1
   1f140:	fffa0a13          	addi	s4,s4,-1
   1f144:	fa0b0ee3          	beqz	s6,1f100 <_svfiprintf_r+0xbc4>
   1f148:	00094703          	lbu	a4,0(s2)
   1f14c:	fa971ae3          	bne	a4,s1,1f100 <_svfiprintf_r+0xbc4>
   1f150:	0ff00793          	li	a5,255
   1f154:	faf486e3          	beq	s1,a5,1f100 <_svfiprintf_r+0xbc4>
   1f158:	380d9063          	bnez	s11,1f4d8 <_svfiprintf_r+0xf9c>
   1f15c:	00900713          	li	a4,9
   1f160:	37a76c63          	bltu	a4,s10,1f4d8 <_svfiprintf_r+0xf9c>
   1f164:	01212c23          	sw	s2,24(sp)
   1f168:	00812303          	lw	t1,8(sp)
   1f16c:	000c0913          	mv	s2,s8
   1f170:	00c12b03          	lw	s6,12(sp)
   1f174:	000b8c13          	mv	s8,s7
   1f178:	01012483          	lw	s1,16(sp)
   1f17c:	000a0b93          	mv	s7,s4
   1f180:	01412783          	lw	a5,20(sp)
   1f184:	02412703          	lw	a4,36(sp)
   1f188:	02812a03          	lw	s4,40(sp)
   1f18c:	02c12803          	lw	a6,44(sp)
   1f190:	0f010693          	addi	a3,sp,240
   1f194:	41768f33          	sub	t5,a3,s7
   1f198:	000f0d93          	mv	s11,t5
   1f19c:	969f54e3          	bge	t5,s1,1eb04 <_svfiprintf_r+0x5c8>
   1f1a0:	00048d93          	mv	s11,s1
   1f1a4:	961ff06f          	j	1eb04 <_svfiprintf_r+0x5c8>
   1f1a8:	00026eb7          	lui	t4,0x26
   1f1ac:	01000613          	li	a2,16
   1f1b0:	d24e8e93          	addi	t4,t4,-732 # 25d24 <blanks.1>
   1f1b4:	0ba65863          	bge	a2,s10,1f264 <_svfiprintf_r+0xd28>
   1f1b8:	01612a23          	sw	s6,20(sp)
   1f1bc:	02912223          	sw	s1,36(sp)
   1f1c0:	01000e13          	li	t3,16
   1f1c4:	000d0493          	mv	s1,s10
   1f1c8:	00700393          	li	t2,7
   1f1cc:	00512423          	sw	t0,8(sp)
   1f1d0:	01f12623          	sw	t6,12(sp)
   1f1d4:	00612823          	sw	t1,16(sp)
   1f1d8:	03e12423          	sw	t5,40(sp)
   1f1dc:	00080d13          	mv	s10,a6
   1f1e0:	000e8b13          	mv	s6,t4
   1f1e4:	00c0006f          	j	1f1f0 <_svfiprintf_r+0xcb4>
   1f1e8:	ff048493          	addi	s1,s1,-16
   1f1ec:	049e5a63          	bge	t3,s1,1f240 <_svfiprintf_r+0xd04>
   1f1f0:	01070713          	addi	a4,a4,16
   1f1f4:	00168693          	addi	a3,a3,1
   1f1f8:	0167a023          	sw	s6,0(a5)
   1f1fc:	01c7a223          	sw	t3,4(a5)
   1f200:	04e12423          	sw	a4,72(sp)
   1f204:	04d12223          	sw	a3,68(sp)
   1f208:	00878793          	addi	a5,a5,8
   1f20c:	fcd3dee3          	bge	t2,a3,1f1e8 <_svfiprintf_r+0xcac>
   1f210:	04010613          	addi	a2,sp,64
   1f214:	00090593          	mv	a1,s2
   1f218:	000a0513          	mv	a0,s4
   1f21c:	958ff0ef          	jal	ra,1e374 <__ssprint_r>
   1f220:	e2051663          	bnez	a0,1e84c <_svfiprintf_r+0x310>
   1f224:	01000e13          	li	t3,16
   1f228:	ff048493          	addi	s1,s1,-16
   1f22c:	04812703          	lw	a4,72(sp)
   1f230:	04412683          	lw	a3,68(sp)
   1f234:	00098793          	mv	a5,s3
   1f238:	00700393          	li	t2,7
   1f23c:	fa9e4ae3          	blt	t3,s1,1f1f0 <_svfiprintf_r+0xcb4>
   1f240:	000d0813          	mv	a6,s10
   1f244:	000b0e93          	mv	t4,s6
   1f248:	00048d13          	mv	s10,s1
   1f24c:	00812283          	lw	t0,8(sp)
   1f250:	00c12f83          	lw	t6,12(sp)
   1f254:	01012303          	lw	t1,16(sp)
   1f258:	02812f03          	lw	t5,40(sp)
   1f25c:	02412483          	lw	s1,36(sp)
   1f260:	01412b03          	lw	s6,20(sp)
   1f264:	01a70733          	add	a4,a4,s10
   1f268:	00168693          	addi	a3,a3,1
   1f26c:	01d7a023          	sw	t4,0(a5)
   1f270:	01a7a223          	sw	s10,4(a5)
   1f274:	04e12423          	sw	a4,72(sp)
   1f278:	04d12223          	sw	a3,68(sp)
   1f27c:	00700613          	li	a2,7
   1f280:	00878793          	addi	a5,a5,8
   1f284:	c6d65e63          	bge	a2,a3,1e700 <_svfiprintf_r+0x1c4>
   1f288:	04010613          	addi	a2,sp,64
   1f28c:	00090593          	mv	a1,s2
   1f290:	000a0513          	mv	a0,s4
   1f294:	03012223          	sw	a6,36(sp)
   1f298:	01e12a23          	sw	t5,20(sp)
   1f29c:	00612823          	sw	t1,16(sp)
   1f2a0:	01f12623          	sw	t6,12(sp)
   1f2a4:	00512423          	sw	t0,8(sp)
   1f2a8:	8ccff0ef          	jal	ra,1e374 <__ssprint_r>
   1f2ac:	da051063          	bnez	a0,1e84c <_svfiprintf_r+0x310>
   1f2b0:	04812703          	lw	a4,72(sp)
   1f2b4:	04412683          	lw	a3,68(sp)
   1f2b8:	02412803          	lw	a6,36(sp)
   1f2bc:	01412f03          	lw	t5,20(sp)
   1f2c0:	01012303          	lw	t1,16(sp)
   1f2c4:	00c12f83          	lw	t6,12(sp)
   1f2c8:	00812283          	lw	t0,8(sp)
   1f2cc:	00098793          	mv	a5,s3
   1f2d0:	c30ff06f          	j	1e700 <_svfiprintf_r+0x1c4>
   1f2d4:	04010613          	addi	a2,sp,64
   1f2d8:	00090593          	mv	a1,s2
   1f2dc:	000a0513          	mv	a0,s4
   1f2e0:	01012a23          	sw	a6,20(sp)
   1f2e4:	01e12823          	sw	t5,16(sp)
   1f2e8:	00612623          	sw	t1,12(sp)
   1f2ec:	01f12423          	sw	t6,8(sp)
   1f2f0:	884ff0ef          	jal	ra,1e374 <__ssprint_r>
   1f2f4:	d4051c63          	bnez	a0,1e84c <_svfiprintf_r+0x310>
   1f2f8:	04812703          	lw	a4,72(sp)
   1f2fc:	04412683          	lw	a3,68(sp)
   1f300:	01412803          	lw	a6,20(sp)
   1f304:	01012f03          	lw	t5,16(sp)
   1f308:	00c12303          	lw	t1,12(sp)
   1f30c:	00812f83          	lw	t6,8(sp)
   1f310:	00098793          	mv	a5,s3
   1f314:	c50ff06f          	j	1e764 <_svfiprintf_r+0x228>
   1f318:	20037613          	andi	a2,t1,512
   1f31c:	28061c63          	bnez	a2,1f5b4 <_svfiprintf_r+0x1078>
   1f320:	41f6dd93          	srai	s11,a3,0x1f
   1f324:	00068d13          	mv	s10,a3
   1f328:	000d8613          	mv	a2,s11
   1f32c:	f40ff06f          	j	1ea6c <_svfiprintf_r+0x530>
   1f330:	01067593          	andi	a1,a2,16
   1f334:	00082683          	lw	a3,0(a6)
   1f338:	00480813          	addi	a6,a6,4
   1f33c:	02059263          	bnez	a1,1f360 <_svfiprintf_r+0xe24>
   1f340:	04067593          	andi	a1,a2,64
   1f344:	00058a63          	beqz	a1,1f358 <_svfiprintf_r+0xe1c>
   1f348:	01069693          	slli	a3,a3,0x10
   1f34c:	0106d693          	srli	a3,a3,0x10
   1f350:	00000513          	li	a0,0
   1f354:	f68ff06f          	j	1eabc <_svfiprintf_r+0x580>
   1f358:	20067593          	andi	a1,a2,512
   1f35c:	28059263          	bnez	a1,1f5e0 <_svfiprintf_r+0x10a4>
   1f360:	00000513          	li	a0,0
   1f364:	f58ff06f          	j	1eabc <_svfiprintf_r+0x580>
   1f368:	010f7613          	andi	a2,t5,16
   1f36c:	00082683          	lw	a3,0(a6)
   1f370:	00480813          	addi	a6,a6,4
   1f374:	02061263          	bnez	a2,1f398 <_svfiprintf_r+0xe5c>
   1f378:	040f7613          	andi	a2,t5,64
   1f37c:	00060a63          	beqz	a2,1f390 <_svfiprintf_r+0xe54>
   1f380:	01069d13          	slli	s10,a3,0x10
   1f384:	010d5d13          	srli	s10,s10,0x10
   1f388:	00000d93          	li	s11,0
   1f38c:	93dff06f          	j	1ecc8 <_svfiprintf_r+0x78c>
   1f390:	200f7613          	andi	a2,t5,512
   1f394:	22061a63          	bnez	a2,1f5c8 <_svfiprintf_r+0x108c>
   1f398:	00068d13          	mv	s10,a3
   1f39c:	00000d93          	li	s11,0
   1f3a0:	929ff06f          	j	1ecc8 <_svfiprintf_r+0x78c>
   1f3a4:	00000d93          	li	s11,0
   1f3a8:	0f010b93          	addi	s7,sp,240
   1f3ac:	f58ff06f          	j	1eb04 <_svfiprintf_r+0x5c8>
   1f3b0:	00082683          	lw	a3,0(a6)
   1f3b4:	41fcd613          	srai	a2,s9,0x1f
   1f3b8:	00480813          	addi	a6,a6,4
   1f3bc:	0196a023          	sw	s9,0(a3)
   1f3c0:	00c6a223          	sw	a2,4(a3)
   1f3c4:	a20ff06f          	j	1e5e4 <_svfiprintf_r+0xa8>
   1f3c8:	00048d93          	mv	s11,s1
   1f3cc:	000e0b93          	mv	s7,t3
   1f3d0:	f34ff06f          	j	1eb04 <_svfiprintf_r+0x5c8>
   1f3d4:	000256b7          	lui	a3,0x25
   1f3d8:	12468693          	addi	a3,a3,292 # 25124 <__clzsi2+0x114>
   1f3dc:	000d0313          	mv	t1,s10
   1f3e0:	00d12223          	sw	a3,4(sp)
   1f3e4:	02037693          	andi	a3,t1,32
   1f3e8:	000d8793          	mv	a5,s11
   1f3ec:	06068a63          	beqz	a3,1f460 <_svfiprintf_r+0xf24>
   1f3f0:	00780813          	addi	a6,a6,7
   1f3f4:	ff887813          	andi	a6,a6,-8
   1f3f8:	00082683          	lw	a3,0(a6)
   1f3fc:	00482503          	lw	a0,4(a6)
   1f400:	00880813          	addi	a6,a6,8
   1f404:	00137613          	andi	a2,t1,1
   1f408:	00060e63          	beqz	a2,1f424 <_svfiprintf_r+0xee8>
   1f40c:	00a6e633          	or	a2,a3,a0
   1f410:	00060a63          	beqz	a2,1f424 <_svfiprintf_r+0xee8>
   1f414:	03000613          	li	a2,48
   1f418:	02c10e23          	sb	a2,60(sp)
   1f41c:	02b10ea3          	sb	a1,61(sp)
   1f420:	00236313          	ori	t1,t1,2
   1f424:	bff37313          	andi	t1,t1,-1025
   1f428:	fa8ff06f          	j	1ebd0 <_svfiprintf_r+0x694>
   1f42c:	000d8793          	mv	a5,s11
   1f430:	000d0613          	mv	a2,s10
   1f434:	e6cff06f          	j	1eaa0 <_svfiprintf_r+0x564>
   1f438:	000d8793          	mv	a5,s11
   1f43c:	000d0f13          	mv	t5,s10
   1f440:	86dff06f          	j	1ecac <_svfiprintf_r+0x770>
   1f444:	000256b7          	lui	a3,0x25
   1f448:	11068693          	addi	a3,a3,272 # 25110 <__clzsi2+0x100>
   1f44c:	000d0313          	mv	t1,s10
   1f450:	00d12223          	sw	a3,4(sp)
   1f454:	02037693          	andi	a3,t1,32
   1f458:	000d8793          	mv	a5,s11
   1f45c:	f8069ae3          	bnez	a3,1f3f0 <_svfiprintf_r+0xeb4>
   1f460:	01037613          	andi	a2,t1,16
   1f464:	00082683          	lw	a3,0(a6)
   1f468:	00480813          	addi	a6,a6,4
   1f46c:	0a061a63          	bnez	a2,1f520 <_svfiprintf_r+0xfe4>
   1f470:	04037613          	andi	a2,t1,64
   1f474:	0a060263          	beqz	a2,1f518 <_svfiprintf_r+0xfdc>
   1f478:	01069693          	slli	a3,a3,0x10
   1f47c:	0106d693          	srli	a3,a3,0x10
   1f480:	00000513          	li	a0,0
   1f484:	f81ff06f          	j	1f404 <_svfiprintf_r+0xec8>
   1f488:	000b8513          	mv	a0,s7
   1f48c:	e64f90ef          	jal	ra,18af0 <strlen>
   1f490:	fff54d93          	not	s11,a0
   1f494:	41fddd93          	srai	s11,s11,0x1f
   1f498:	00812303          	lw	t1,8(sp)
   1f49c:	00c12783          	lw	a5,12(sp)
   1f4a0:	01012703          	lw	a4,16(sp)
   1f4a4:	00050f13          	mv	t5,a0
   1f4a8:	01b57db3          	and	s11,a0,s11
   1f4ac:	000d0813          	mv	a6,s10
   1f4b0:	00000493          	li	s1,0
   1f4b4:	e50ff06f          	j	1eb04 <_svfiprintf_r+0x5c8>
   1f4b8:	04000593          	li	a1,64
   1f4bc:	f4cf70ef          	jal	ra,16c08 <_malloc_r>
   1f4c0:	00a92023          	sw	a0,0(s2)
   1f4c4:	00a92823          	sw	a0,16(s2)
   1f4c8:	14050063          	beqz	a0,1f608 <_svfiprintf_r+0x10cc>
   1f4cc:	04000793          	li	a5,64
   1f4d0:	00f92a23          	sw	a5,20(s2)
   1f4d4:	8c4ff06f          	j	1e598 <_svfiprintf_r+0x5c>
   1f4d8:	01c12783          	lw	a5,28(sp)
   1f4dc:	02012583          	lw	a1,32(sp)
   1f4e0:	00000493          	li	s1,0
   1f4e4:	40fa0a33          	sub	s4,s4,a5
   1f4e8:	00078613          	mv	a2,a5
   1f4ec:	000a0513          	mv	a0,s4
   1f4f0:	e8cf90ef          	jal	ra,18b7c <strncpy>
   1f4f4:	00194703          	lbu	a4,1(s2)
   1f4f8:	00a00613          	li	a2,10
   1f4fc:	00000693          	li	a3,0
   1f500:	00e03733          	snez	a4,a4
   1f504:	000d0513          	mv	a0,s10
   1f508:	000d8593          	mv	a1,s11
   1f50c:	00e90933          	add	s2,s2,a4
   1f510:	4ad000ef          	jal	ra,201bc <__udivdi3>
   1f514:	c05ff06f          	j	1f118 <_svfiprintf_r+0xbdc>
   1f518:	20037613          	andi	a2,t1,512
   1f51c:	0a061c63          	bnez	a2,1f5d4 <_svfiprintf_r+0x1098>
   1f520:	00000513          	li	a0,0
   1f524:	ee1ff06f          	j	1f404 <_svfiprintf_r+0xec8>
   1f528:	00060313          	mv	t1,a2
   1f52c:	00000613          	li	a2,0
   1f530:	ee060063          	beqz	a2,1ec10 <_svfiprintf_r+0x6d4>
   1f534:	b3dff06f          	j	1f070 <_svfiprintf_r+0xb34>
   1f538:	001c4683          	lbu	a3,1(s8)
   1f53c:	020d6d13          	ori	s10,s10,32
   1f540:	001c0c13          	addi	s8,s8,1
   1f544:	920ff06f          	j	1e664 <_svfiprintf_r+0x128>
   1f548:	001c4683          	lbu	a3,1(s8)
   1f54c:	200d6d13          	ori	s10,s10,512
   1f550:	001c0c13          	addi	s8,s8,1
   1f554:	910ff06f          	j	1e664 <_svfiprintf_r+0x128>
   1f558:	00082683          	lw	a3,0(a6)
   1f55c:	00480813          	addi	a6,a6,4
   1f560:	0196a023          	sw	s9,0(a3)
   1f564:	880ff06f          	j	1e5e4 <_svfiprintf_r+0xa8>
   1f568:	00600693          	li	a3,6
   1f56c:	00048f13          	mv	t5,s1
   1f570:	0096f463          	bgeu	a3,s1,1f578 <_svfiprintf_r+0x103c>
   1f574:	00600f13          	li	t5,6
   1f578:	00025bb7          	lui	s7,0x25
   1f57c:	000f0d93          	mv	s11,t5
   1f580:	000d0813          	mv	a6,s10
   1f584:	138b8b93          	addi	s7,s7,312 # 25138 <__clzsi2+0x128>
   1f588:	954ff06f          	j	1e6dc <_svfiprintf_r+0x1a0>
   1f58c:	00000693          	li	a3,0
   1f590:	00000513          	li	a0,0
   1f594:	addff06f          	j	1f070 <_svfiprintf_r+0xb34>
   1f598:	00900713          	li	a4,9
   1f59c:	b7a76ee3          	bltu	a4,s10,1f118 <_svfiprintf_r+0xbdc>
   1f5a0:	bc5ff06f          	j	1f164 <_svfiprintf_r+0xc28>
   1f5a4:	00082683          	lw	a3,0(a6)
   1f5a8:	00480813          	addi	a6,a6,4
   1f5ac:	01969023          	sh	s9,0(a3)
   1f5b0:	834ff06f          	j	1e5e4 <_svfiprintf_r+0xa8>
   1f5b4:	01869d13          	slli	s10,a3,0x18
   1f5b8:	418d5d13          	srai	s10,s10,0x18
   1f5bc:	41fd5d93          	srai	s11,s10,0x1f
   1f5c0:	000d8613          	mv	a2,s11
   1f5c4:	ca8ff06f          	j	1ea6c <_svfiprintf_r+0x530>
   1f5c8:	0ff6fd13          	zext.b	s10,a3
   1f5cc:	00000d93          	li	s11,0
   1f5d0:	ef8ff06f          	j	1ecc8 <_svfiprintf_r+0x78c>
   1f5d4:	0ff6f693          	zext.b	a3,a3
   1f5d8:	00000513          	li	a0,0
   1f5dc:	e29ff06f          	j	1f404 <_svfiprintf_r+0xec8>
   1f5e0:	0ff6f693          	zext.b	a3,a3
   1f5e4:	00000513          	li	a0,0
   1f5e8:	cd4ff06f          	j	1eabc <_svfiprintf_r+0x580>
   1f5ec:	03000693          	li	a3,48
   1f5f0:	d98ff06f          	j	1eb88 <_svfiprintf_r+0x64c>
   1f5f4:	00048d93          	mv	s11,s1
   1f5f8:	00048f13          	mv	t5,s1
   1f5fc:	000d0813          	mv	a6,s10
   1f600:	00000493          	li	s1,0
   1f604:	d00ff06f          	j	1eb04 <_svfiprintf_r+0x5c8>
   1f608:	00c00793          	li	a5,12
   1f60c:	00fa2023          	sw	a5,0(s4)
   1f610:	fff00b13          	li	s6,-1
   1f614:	a48ff06f          	j	1e85c <_svfiprintf_r+0x320>
   1f618:	00082483          	lw	s1,0(a6)
   1f61c:	00480813          	addi	a6,a6,4
   1f620:	0004d463          	bgez	s1,1f628 <_svfiprintf_r+0x10ec>
   1f624:	fff00493          	li	s1,-1
   1f628:	001c4683          	lbu	a3,1(s8)
   1f62c:	00060c13          	mv	s8,a2
   1f630:	834ff06f          	j	1e664 <_svfiprintf_r+0x128>

0001f634 <__swbuf_r>:
   1f634:	fe010113          	addi	sp,sp,-32
   1f638:	00812c23          	sw	s0,24(sp)
   1f63c:	00912a23          	sw	s1,20(sp)
   1f640:	01212823          	sw	s2,16(sp)
   1f644:	00112e23          	sw	ra,28(sp)
   1f648:	01312623          	sw	s3,12(sp)
   1f64c:	00050913          	mv	s2,a0
   1f650:	00058493          	mv	s1,a1
   1f654:	00060413          	mv	s0,a2
   1f658:	00050663          	beqz	a0,1f664 <__swbuf_r+0x30>
   1f65c:	03852783          	lw	a5,56(a0)
   1f660:	14078063          	beqz	a5,1f7a0 <__swbuf_r+0x16c>
   1f664:	01842783          	lw	a5,24(s0)
   1f668:	00c41703          	lh	a4,12(s0)
   1f66c:	00f42423          	sw	a5,8(s0)
   1f670:	00877793          	andi	a5,a4,8
   1f674:	08078263          	beqz	a5,1f6f8 <__swbuf_r+0xc4>
   1f678:	01042783          	lw	a5,16(s0)
   1f67c:	06078e63          	beqz	a5,1f6f8 <__swbuf_r+0xc4>
   1f680:	01271693          	slli	a3,a4,0x12
   1f684:	0ff4f993          	zext.b	s3,s1
   1f688:	0ff4f493          	zext.b	s1,s1
   1f68c:	0806da63          	bgez	a3,1f720 <__swbuf_r+0xec>
   1f690:	00042703          	lw	a4,0(s0)
   1f694:	01442683          	lw	a3,20(s0)
   1f698:	40f707b3          	sub	a5,a4,a5
   1f69c:	0ad7da63          	bge	a5,a3,1f750 <__swbuf_r+0x11c>
   1f6a0:	00842683          	lw	a3,8(s0)
   1f6a4:	00170613          	addi	a2,a4,1
   1f6a8:	00c42023          	sw	a2,0(s0)
   1f6ac:	fff68693          	addi	a3,a3,-1
   1f6b0:	00d42423          	sw	a3,8(s0)
   1f6b4:	01370023          	sb	s3,0(a4)
   1f6b8:	01442703          	lw	a4,20(s0)
   1f6bc:	00178793          	addi	a5,a5,1
   1f6c0:	0cf70463          	beq	a4,a5,1f788 <__swbuf_r+0x154>
   1f6c4:	00c45783          	lhu	a5,12(s0)
   1f6c8:	0017f793          	andi	a5,a5,1
   1f6cc:	00078663          	beqz	a5,1f6d8 <__swbuf_r+0xa4>
   1f6d0:	00a00793          	li	a5,10
   1f6d4:	0af48a63          	beq	s1,a5,1f788 <__swbuf_r+0x154>
   1f6d8:	01c12083          	lw	ra,28(sp)
   1f6dc:	01812403          	lw	s0,24(sp)
   1f6e0:	01012903          	lw	s2,16(sp)
   1f6e4:	00c12983          	lw	s3,12(sp)
   1f6e8:	00048513          	mv	a0,s1
   1f6ec:	01412483          	lw	s1,20(sp)
   1f6f0:	02010113          	addi	sp,sp,32
   1f6f4:	00008067          	ret
   1f6f8:	00040593          	mv	a1,s0
   1f6fc:	00090513          	mv	a0,s2
   1f700:	ec0f30ef          	jal	ra,12dc0 <__swsetup_r>
   1f704:	08051a63          	bnez	a0,1f798 <__swbuf_r+0x164>
   1f708:	00c41703          	lh	a4,12(s0)
   1f70c:	0ff4f993          	zext.b	s3,s1
   1f710:	01042783          	lw	a5,16(s0)
   1f714:	01271693          	slli	a3,a4,0x12
   1f718:	0ff4f493          	zext.b	s1,s1
   1f71c:	f606cae3          	bltz	a3,1f690 <__swbuf_r+0x5c>
   1f720:	06442683          	lw	a3,100(s0)
   1f724:	00002637          	lui	a2,0x2
   1f728:	00c76733          	or	a4,a4,a2
   1f72c:	ffffe637          	lui	a2,0xffffe
   1f730:	fff60613          	addi	a2,a2,-1 # ffffdfff <__BSS_END__+0xfffd7517>
   1f734:	00c6f6b3          	and	a3,a3,a2
   1f738:	00e41623          	sh	a4,12(s0)
   1f73c:	00042703          	lw	a4,0(s0)
   1f740:	06d42223          	sw	a3,100(s0)
   1f744:	01442683          	lw	a3,20(s0)
   1f748:	40f707b3          	sub	a5,a4,a5
   1f74c:	f4d7cae3          	blt	a5,a3,1f6a0 <__swbuf_r+0x6c>
   1f750:	00040593          	mv	a1,s0
   1f754:	00090513          	mv	a0,s2
   1f758:	b29f30ef          	jal	ra,13280 <_fflush_r>
   1f75c:	02051e63          	bnez	a0,1f798 <__swbuf_r+0x164>
   1f760:	00042703          	lw	a4,0(s0)
   1f764:	00842683          	lw	a3,8(s0)
   1f768:	00100793          	li	a5,1
   1f76c:	00170613          	addi	a2,a4,1
   1f770:	fff68693          	addi	a3,a3,-1
   1f774:	00c42023          	sw	a2,0(s0)
   1f778:	00d42423          	sw	a3,8(s0)
   1f77c:	01370023          	sb	s3,0(a4)
   1f780:	01442703          	lw	a4,20(s0)
   1f784:	f4f710e3          	bne	a4,a5,1f6c4 <__swbuf_r+0x90>
   1f788:	00040593          	mv	a1,s0
   1f78c:	00090513          	mv	a0,s2
   1f790:	af1f30ef          	jal	ra,13280 <_fflush_r>
   1f794:	f40502e3          	beqz	a0,1f6d8 <__swbuf_r+0xa4>
   1f798:	fff00493          	li	s1,-1
   1f79c:	f3dff06f          	j	1f6d8 <__swbuf_r+0xa4>
   1f7a0:	f11f30ef          	jal	ra,136b0 <__sinit>
   1f7a4:	ec1ff06f          	j	1f664 <__swbuf_r+0x30>

0001f7a8 <__swbuf>:
   1f7a8:	00050793          	mv	a5,a0
   1f7ac:	1c01a503          	lw	a0,448(gp) # 26a80 <_impure_ptr>
   1f7b0:	00058613          	mv	a2,a1
   1f7b4:	00078593          	mv	a1,a5
   1f7b8:	e7dff06f          	j	1f634 <__swbuf_r>

0001f7bc <_wcrtomb_r>:
   1f7bc:	fe010113          	addi	sp,sp,-32
   1f7c0:	00812c23          	sw	s0,24(sp)
   1f7c4:	00912a23          	sw	s1,20(sp)
   1f7c8:	00112e23          	sw	ra,28(sp)
   1f7cc:	1101a783          	lw	a5,272(gp) # 269d0 <__global_locale+0xe0>
   1f7d0:	00050413          	mv	s0,a0
   1f7d4:	00068493          	mv	s1,a3
   1f7d8:	02058263          	beqz	a1,1f7fc <_wcrtomb_r+0x40>
   1f7dc:	000780e7          	jalr	a5
   1f7e0:	fff00793          	li	a5,-1
   1f7e4:	02f50663          	beq	a0,a5,1f810 <_wcrtomb_r+0x54>
   1f7e8:	01c12083          	lw	ra,28(sp)
   1f7ec:	01812403          	lw	s0,24(sp)
   1f7f0:	01412483          	lw	s1,20(sp)
   1f7f4:	02010113          	addi	sp,sp,32
   1f7f8:	00008067          	ret
   1f7fc:	00000613          	li	a2,0
   1f800:	00410593          	addi	a1,sp,4
   1f804:	000780e7          	jalr	a5
   1f808:	fff00793          	li	a5,-1
   1f80c:	fcf51ee3          	bne	a0,a5,1f7e8 <_wcrtomb_r+0x2c>
   1f810:	0004a023          	sw	zero,0(s1)
   1f814:	08a00793          	li	a5,138
   1f818:	01c12083          	lw	ra,28(sp)
   1f81c:	00f42023          	sw	a5,0(s0)
   1f820:	01812403          	lw	s0,24(sp)
   1f824:	01412483          	lw	s1,20(sp)
   1f828:	02010113          	addi	sp,sp,32
   1f82c:	00008067          	ret

0001f830 <wcrtomb>:
   1f830:	fe010113          	addi	sp,sp,-32
   1f834:	00812c23          	sw	s0,24(sp)
   1f838:	00912a23          	sw	s1,20(sp)
   1f83c:	00112e23          	sw	ra,28(sp)
   1f840:	1c01a483          	lw	s1,448(gp) # 26a80 <_impure_ptr>
   1f844:	1101a783          	lw	a5,272(gp) # 269d0 <__global_locale+0xe0>
   1f848:	00060413          	mv	s0,a2
   1f84c:	02050a63          	beqz	a0,1f880 <wcrtomb+0x50>
   1f850:	00058613          	mv	a2,a1
   1f854:	00040693          	mv	a3,s0
   1f858:	00050593          	mv	a1,a0
   1f85c:	00048513          	mv	a0,s1
   1f860:	000780e7          	jalr	a5
   1f864:	fff00793          	li	a5,-1
   1f868:	02f50a63          	beq	a0,a5,1f89c <wcrtomb+0x6c>
   1f86c:	01c12083          	lw	ra,28(sp)
   1f870:	01812403          	lw	s0,24(sp)
   1f874:	01412483          	lw	s1,20(sp)
   1f878:	02010113          	addi	sp,sp,32
   1f87c:	00008067          	ret
   1f880:	00060693          	mv	a3,a2
   1f884:	00410593          	addi	a1,sp,4
   1f888:	00000613          	li	a2,0
   1f88c:	00048513          	mv	a0,s1
   1f890:	000780e7          	jalr	a5
   1f894:	fff00793          	li	a5,-1
   1f898:	fcf51ae3          	bne	a0,a5,1f86c <wcrtomb+0x3c>
   1f89c:	00042023          	sw	zero,0(s0)
   1f8a0:	01c12083          	lw	ra,28(sp)
   1f8a4:	01812403          	lw	s0,24(sp)
   1f8a8:	08a00793          	li	a5,138
   1f8ac:	00f4a023          	sw	a5,0(s1)
   1f8b0:	01412483          	lw	s1,20(sp)
   1f8b4:	02010113          	addi	sp,sp,32
   1f8b8:	00008067          	ret

0001f8bc <_wctomb_r>:
   1f8bc:	1101a783          	lw	a5,272(gp) # 269d0 <__global_locale+0xe0>
   1f8c0:	00078067          	jr	a5

0001f8c4 <__ascii_wctomb>:
   1f8c4:	02058463          	beqz	a1,1f8ec <__ascii_wctomb+0x28>
   1f8c8:	0ff00793          	li	a5,255
   1f8cc:	00c7e863          	bltu	a5,a2,1f8dc <__ascii_wctomb+0x18>
   1f8d0:	00c58023          	sb	a2,0(a1)
   1f8d4:	00100513          	li	a0,1
   1f8d8:	00008067          	ret
   1f8dc:	08a00793          	li	a5,138
   1f8e0:	00f52023          	sw	a5,0(a0)
   1f8e4:	fff00513          	li	a0,-1
   1f8e8:	00008067          	ret
   1f8ec:	00000513          	li	a0,0
   1f8f0:	00008067          	ret

0001f8f4 <abort>:
   1f8f4:	ff010113          	addi	sp,sp,-16
   1f8f8:	00600513          	li	a0,6
   1f8fc:	00112623          	sw	ra,12(sp)
   1f900:	29c000ef          	jal	ra,1fb9c <raise>
   1f904:	00100513          	li	a0,1
   1f908:	5cc000ef          	jal	ra,1fed4 <_exit>

0001f90c <_init_signal_r>:
   1f90c:	2dc52783          	lw	a5,732(a0)
   1f910:	00078663          	beqz	a5,1f91c <_init_signal_r+0x10>
   1f914:	00000513          	li	a0,0
   1f918:	00008067          	ret
   1f91c:	ff010113          	addi	sp,sp,-16
   1f920:	08000593          	li	a1,128
   1f924:	00812423          	sw	s0,8(sp)
   1f928:	00112623          	sw	ra,12(sp)
   1f92c:	00050413          	mv	s0,a0
   1f930:	ad8f70ef          	jal	ra,16c08 <_malloc_r>
   1f934:	2ca42e23          	sw	a0,732(s0)
   1f938:	02050463          	beqz	a0,1f960 <_init_signal_r+0x54>
   1f93c:	08050793          	addi	a5,a0,128
   1f940:	00052023          	sw	zero,0(a0)
   1f944:	00450513          	addi	a0,a0,4
   1f948:	fef51ce3          	bne	a0,a5,1f940 <_init_signal_r+0x34>
   1f94c:	00000513          	li	a0,0
   1f950:	00c12083          	lw	ra,12(sp)
   1f954:	00812403          	lw	s0,8(sp)
   1f958:	01010113          	addi	sp,sp,16
   1f95c:	00008067          	ret
   1f960:	fff00513          	li	a0,-1
   1f964:	fedff06f          	j	1f950 <_init_signal_r+0x44>

0001f968 <_signal_r>:
   1f968:	fe010113          	addi	sp,sp,-32
   1f96c:	00912a23          	sw	s1,20(sp)
   1f970:	00112e23          	sw	ra,28(sp)
   1f974:	00812c23          	sw	s0,24(sp)
   1f978:	01f00793          	li	a5,31
   1f97c:	00050493          	mv	s1,a0
   1f980:	02b7ea63          	bltu	a5,a1,1f9b4 <_signal_r+0x4c>
   1f984:	2dc52783          	lw	a5,732(a0)
   1f988:	00058413          	mv	s0,a1
   1f98c:	02078c63          	beqz	a5,1f9c4 <_signal_r+0x5c>
   1f990:	00241413          	slli	s0,s0,0x2
   1f994:	008787b3          	add	a5,a5,s0
   1f998:	0007a503          	lw	a0,0(a5)
   1f99c:	00c7a023          	sw	a2,0(a5)
   1f9a0:	01c12083          	lw	ra,28(sp)
   1f9a4:	01812403          	lw	s0,24(sp)
   1f9a8:	01412483          	lw	s1,20(sp)
   1f9ac:	02010113          	addi	sp,sp,32
   1f9b0:	00008067          	ret
   1f9b4:	01600793          	li	a5,22
   1f9b8:	00f52023          	sw	a5,0(a0)
   1f9bc:	fff00513          	li	a0,-1
   1f9c0:	fe1ff06f          	j	1f9a0 <_signal_r+0x38>
   1f9c4:	08000593          	li	a1,128
   1f9c8:	00c12623          	sw	a2,12(sp)
   1f9cc:	a3cf70ef          	jal	ra,16c08 <_malloc_r>
   1f9d0:	2ca4ae23          	sw	a0,732(s1)
   1f9d4:	00c12603          	lw	a2,12(sp)
   1f9d8:	00050793          	mv	a5,a0
   1f9dc:	00050713          	mv	a4,a0
   1f9e0:	08050693          	addi	a3,a0,128
   1f9e4:	fc050ce3          	beqz	a0,1f9bc <_signal_r+0x54>
   1f9e8:	00072023          	sw	zero,0(a4)
   1f9ec:	00470713          	addi	a4,a4,4
   1f9f0:	fed71ce3          	bne	a4,a3,1f9e8 <_signal_r+0x80>
   1f9f4:	f9dff06f          	j	1f990 <_signal_r+0x28>

0001f9f8 <_raise_r>:
   1f9f8:	ff010113          	addi	sp,sp,-16
   1f9fc:	00912223          	sw	s1,4(sp)
   1fa00:	00112623          	sw	ra,12(sp)
   1fa04:	00812423          	sw	s0,8(sp)
   1fa08:	01f00793          	li	a5,31
   1fa0c:	00050493          	mv	s1,a0
   1fa10:	08b7ee63          	bltu	a5,a1,1faac <_raise_r+0xb4>
   1fa14:	2dc52783          	lw	a5,732(a0)
   1fa18:	00058413          	mv	s0,a1
   1fa1c:	04078463          	beqz	a5,1fa64 <_raise_r+0x6c>
   1fa20:	00259713          	slli	a4,a1,0x2
   1fa24:	00e787b3          	add	a5,a5,a4
   1fa28:	0007a703          	lw	a4,0(a5)
   1fa2c:	02070c63          	beqz	a4,1fa64 <_raise_r+0x6c>
   1fa30:	00100693          	li	a3,1
   1fa34:	00d70c63          	beq	a4,a3,1fa4c <_raise_r+0x54>
   1fa38:	fff00693          	li	a3,-1
   1fa3c:	04d70863          	beq	a4,a3,1fa8c <_raise_r+0x94>
   1fa40:	0007a023          	sw	zero,0(a5)
   1fa44:	00058513          	mv	a0,a1
   1fa48:	000700e7          	jalr	a4
   1fa4c:	00000513          	li	a0,0
   1fa50:	00c12083          	lw	ra,12(sp)
   1fa54:	00812403          	lw	s0,8(sp)
   1fa58:	00412483          	lw	s1,4(sp)
   1fa5c:	01010113          	addi	sp,sp,16
   1fa60:	00008067          	ret
   1fa64:	00048513          	mv	a0,s1
   1fa68:	424000ef          	jal	ra,1fe8c <_getpid_r>
   1fa6c:	00040613          	mv	a2,s0
   1fa70:	00812403          	lw	s0,8(sp)
   1fa74:	00c12083          	lw	ra,12(sp)
   1fa78:	00050593          	mv	a1,a0
   1fa7c:	00048513          	mv	a0,s1
   1fa80:	00412483          	lw	s1,4(sp)
   1fa84:	01010113          	addi	sp,sp,16
   1fa88:	3a00006f          	j	1fe28 <_kill_r>
   1fa8c:	00c12083          	lw	ra,12(sp)
   1fa90:	00812403          	lw	s0,8(sp)
   1fa94:	01600793          	li	a5,22
   1fa98:	00f52023          	sw	a5,0(a0)
   1fa9c:	00412483          	lw	s1,4(sp)
   1faa0:	00100513          	li	a0,1
   1faa4:	01010113          	addi	sp,sp,16
   1faa8:	00008067          	ret
   1faac:	01600793          	li	a5,22
   1fab0:	00f52023          	sw	a5,0(a0)
   1fab4:	fff00513          	li	a0,-1
   1fab8:	f99ff06f          	j	1fa50 <_raise_r+0x58>

0001fabc <__sigtramp_r>:
   1fabc:	01f00793          	li	a5,31
   1fac0:	0cb7ea63          	bltu	a5,a1,1fb94 <__sigtramp_r+0xd8>
   1fac4:	2dc52783          	lw	a5,732(a0)
   1fac8:	ff010113          	addi	sp,sp,-16
   1facc:	00812423          	sw	s0,8(sp)
   1fad0:	00912223          	sw	s1,4(sp)
   1fad4:	00112623          	sw	ra,12(sp)
   1fad8:	00058413          	mv	s0,a1
   1fadc:	00050493          	mv	s1,a0
   1fae0:	08078063          	beqz	a5,1fb60 <__sigtramp_r+0xa4>
   1fae4:	00241713          	slli	a4,s0,0x2
   1fae8:	00e787b3          	add	a5,a5,a4
   1faec:	0007a703          	lw	a4,0(a5)
   1faf0:	02070c63          	beqz	a4,1fb28 <__sigtramp_r+0x6c>
   1faf4:	fff00693          	li	a3,-1
   1faf8:	06d70063          	beq	a4,a3,1fb58 <__sigtramp_r+0x9c>
   1fafc:	00100693          	li	a3,1
   1fb00:	04d70063          	beq	a4,a3,1fb40 <__sigtramp_r+0x84>
   1fb04:	00040513          	mv	a0,s0
   1fb08:	0007a023          	sw	zero,0(a5)
   1fb0c:	000700e7          	jalr	a4
   1fb10:	00000513          	li	a0,0
   1fb14:	00c12083          	lw	ra,12(sp)
   1fb18:	00812403          	lw	s0,8(sp)
   1fb1c:	00412483          	lw	s1,4(sp)
   1fb20:	01010113          	addi	sp,sp,16
   1fb24:	00008067          	ret
   1fb28:	00c12083          	lw	ra,12(sp)
   1fb2c:	00812403          	lw	s0,8(sp)
   1fb30:	00412483          	lw	s1,4(sp)
   1fb34:	00100513          	li	a0,1
   1fb38:	01010113          	addi	sp,sp,16
   1fb3c:	00008067          	ret
   1fb40:	00c12083          	lw	ra,12(sp)
   1fb44:	00812403          	lw	s0,8(sp)
   1fb48:	00412483          	lw	s1,4(sp)
   1fb4c:	00300513          	li	a0,3
   1fb50:	01010113          	addi	sp,sp,16
   1fb54:	00008067          	ret
   1fb58:	00200513          	li	a0,2
   1fb5c:	fb9ff06f          	j	1fb14 <__sigtramp_r+0x58>
   1fb60:	08000593          	li	a1,128
   1fb64:	8a4f70ef          	jal	ra,16c08 <_malloc_r>
   1fb68:	2ca4ae23          	sw	a0,732(s1)
   1fb6c:	00050793          	mv	a5,a0
   1fb70:	00050e63          	beqz	a0,1fb8c <__sigtramp_r+0xd0>
   1fb74:	00050713          	mv	a4,a0
   1fb78:	08050693          	addi	a3,a0,128
   1fb7c:	00072023          	sw	zero,0(a4)
   1fb80:	00470713          	addi	a4,a4,4
   1fb84:	fee69ce3          	bne	a3,a4,1fb7c <__sigtramp_r+0xc0>
   1fb88:	f5dff06f          	j	1fae4 <__sigtramp_r+0x28>
   1fb8c:	fff00513          	li	a0,-1
   1fb90:	f85ff06f          	j	1fb14 <__sigtramp_r+0x58>
   1fb94:	fff00513          	li	a0,-1
   1fb98:	00008067          	ret

0001fb9c <raise>:
   1fb9c:	ff010113          	addi	sp,sp,-16
   1fba0:	00912223          	sw	s1,4(sp)
   1fba4:	00112623          	sw	ra,12(sp)
   1fba8:	00812423          	sw	s0,8(sp)
   1fbac:	01f00793          	li	a5,31
   1fbb0:	1c01a483          	lw	s1,448(gp) # 26a80 <_impure_ptr>
   1fbb4:	08a7ec63          	bltu	a5,a0,1fc4c <raise+0xb0>
   1fbb8:	2dc4a783          	lw	a5,732(s1)
   1fbbc:	00050413          	mv	s0,a0
   1fbc0:	04078263          	beqz	a5,1fc04 <raise+0x68>
   1fbc4:	00251713          	slli	a4,a0,0x2
   1fbc8:	00e787b3          	add	a5,a5,a4
   1fbcc:	0007a703          	lw	a4,0(a5)
   1fbd0:	02070a63          	beqz	a4,1fc04 <raise+0x68>
   1fbd4:	00100693          	li	a3,1
   1fbd8:	00d70a63          	beq	a4,a3,1fbec <raise+0x50>
   1fbdc:	fff00693          	li	a3,-1
   1fbe0:	04d70663          	beq	a4,a3,1fc2c <raise+0x90>
   1fbe4:	0007a023          	sw	zero,0(a5)
   1fbe8:	000700e7          	jalr	a4
   1fbec:	00000513          	li	a0,0
   1fbf0:	00c12083          	lw	ra,12(sp)
   1fbf4:	00812403          	lw	s0,8(sp)
   1fbf8:	00412483          	lw	s1,4(sp)
   1fbfc:	01010113          	addi	sp,sp,16
   1fc00:	00008067          	ret
   1fc04:	00048513          	mv	a0,s1
   1fc08:	284000ef          	jal	ra,1fe8c <_getpid_r>
   1fc0c:	00040613          	mv	a2,s0
   1fc10:	00812403          	lw	s0,8(sp)
   1fc14:	00c12083          	lw	ra,12(sp)
   1fc18:	00050593          	mv	a1,a0
   1fc1c:	00048513          	mv	a0,s1
   1fc20:	00412483          	lw	s1,4(sp)
   1fc24:	01010113          	addi	sp,sp,16
   1fc28:	2000006f          	j	1fe28 <_kill_r>
   1fc2c:	00c12083          	lw	ra,12(sp)
   1fc30:	00812403          	lw	s0,8(sp)
   1fc34:	01600793          	li	a5,22
   1fc38:	00f4a023          	sw	a5,0(s1)
   1fc3c:	00100513          	li	a0,1
   1fc40:	00412483          	lw	s1,4(sp)
   1fc44:	01010113          	addi	sp,sp,16
   1fc48:	00008067          	ret
   1fc4c:	01600793          	li	a5,22
   1fc50:	00f4a023          	sw	a5,0(s1)
   1fc54:	fff00513          	li	a0,-1
   1fc58:	f99ff06f          	j	1fbf0 <raise+0x54>

0001fc5c <signal>:
   1fc5c:	ff010113          	addi	sp,sp,-16
   1fc60:	01212023          	sw	s2,0(sp)
   1fc64:	00112623          	sw	ra,12(sp)
   1fc68:	00812423          	sw	s0,8(sp)
   1fc6c:	00912223          	sw	s1,4(sp)
   1fc70:	01f00793          	li	a5,31
   1fc74:	1c01a903          	lw	s2,448(gp) # 26a80 <_impure_ptr>
   1fc78:	02a7ee63          	bltu	a5,a0,1fcb4 <signal+0x58>
   1fc7c:	00050413          	mv	s0,a0
   1fc80:	2dc92503          	lw	a0,732(s2)
   1fc84:	00058493          	mv	s1,a1
   1fc88:	02050e63          	beqz	a0,1fcc4 <signal+0x68>
   1fc8c:	00241413          	slli	s0,s0,0x2
   1fc90:	008507b3          	add	a5,a0,s0
   1fc94:	0007a503          	lw	a0,0(a5)
   1fc98:	0097a023          	sw	s1,0(a5)
   1fc9c:	00c12083          	lw	ra,12(sp)
   1fca0:	00812403          	lw	s0,8(sp)
   1fca4:	00412483          	lw	s1,4(sp)
   1fca8:	00012903          	lw	s2,0(sp)
   1fcac:	01010113          	addi	sp,sp,16
   1fcb0:	00008067          	ret
   1fcb4:	01600793          	li	a5,22
   1fcb8:	00f92023          	sw	a5,0(s2)
   1fcbc:	fff00513          	li	a0,-1
   1fcc0:	fddff06f          	j	1fc9c <signal+0x40>
   1fcc4:	08000593          	li	a1,128
   1fcc8:	00090513          	mv	a0,s2
   1fccc:	f3df60ef          	jal	ra,16c08 <_malloc_r>
   1fcd0:	2ca92e23          	sw	a0,732(s2)
   1fcd4:	00050793          	mv	a5,a0
   1fcd8:	08050713          	addi	a4,a0,128
   1fcdc:	fe0500e3          	beqz	a0,1fcbc <signal+0x60>
   1fce0:	0007a023          	sw	zero,0(a5)
   1fce4:	00478793          	addi	a5,a5,4
   1fce8:	fee79ce3          	bne	a5,a4,1fce0 <signal+0x84>
   1fcec:	fa1ff06f          	j	1fc8c <signal+0x30>

0001fcf0 <_init_signal>:
   1fcf0:	ff010113          	addi	sp,sp,-16
   1fcf4:	00812423          	sw	s0,8(sp)
   1fcf8:	1c01a403          	lw	s0,448(gp) # 26a80 <_impure_ptr>
   1fcfc:	00112623          	sw	ra,12(sp)
   1fd00:	2dc42783          	lw	a5,732(s0)
   1fd04:	00078c63          	beqz	a5,1fd1c <_init_signal+0x2c>
   1fd08:	00000513          	li	a0,0
   1fd0c:	00c12083          	lw	ra,12(sp)
   1fd10:	00812403          	lw	s0,8(sp)
   1fd14:	01010113          	addi	sp,sp,16
   1fd18:	00008067          	ret
   1fd1c:	08000593          	li	a1,128
   1fd20:	00040513          	mv	a0,s0
   1fd24:	ee5f60ef          	jal	ra,16c08 <_malloc_r>
   1fd28:	2ca42e23          	sw	a0,732(s0)
   1fd2c:	00050c63          	beqz	a0,1fd44 <_init_signal+0x54>
   1fd30:	08050793          	addi	a5,a0,128
   1fd34:	00052023          	sw	zero,0(a0)
   1fd38:	00450513          	addi	a0,a0,4
   1fd3c:	fef51ce3          	bne	a0,a5,1fd34 <_init_signal+0x44>
   1fd40:	fc9ff06f          	j	1fd08 <_init_signal+0x18>
   1fd44:	fff00513          	li	a0,-1
   1fd48:	fc5ff06f          	j	1fd0c <_init_signal+0x1c>

0001fd4c <__sigtramp>:
   1fd4c:	ff010113          	addi	sp,sp,-16
   1fd50:	00912223          	sw	s1,4(sp)
   1fd54:	00112623          	sw	ra,12(sp)
   1fd58:	00812423          	sw	s0,8(sp)
   1fd5c:	01f00793          	li	a5,31
   1fd60:	1c01a483          	lw	s1,448(gp) # 26a80 <_impure_ptr>
   1fd64:	0aa7ee63          	bltu	a5,a0,1fe20 <__sigtramp+0xd4>
   1fd68:	2dc4a783          	lw	a5,732(s1)
   1fd6c:	00050413          	mv	s0,a0
   1fd70:	08078063          	beqz	a5,1fdf0 <__sigtramp+0xa4>
   1fd74:	00241713          	slli	a4,s0,0x2
   1fd78:	00e787b3          	add	a5,a5,a4
   1fd7c:	0007a703          	lw	a4,0(a5)
   1fd80:	02070c63          	beqz	a4,1fdb8 <__sigtramp+0x6c>
   1fd84:	fff00693          	li	a3,-1
   1fd88:	06d70063          	beq	a4,a3,1fde8 <__sigtramp+0x9c>
   1fd8c:	00100693          	li	a3,1
   1fd90:	04d70063          	beq	a4,a3,1fdd0 <__sigtramp+0x84>
   1fd94:	00040513          	mv	a0,s0
   1fd98:	0007a023          	sw	zero,0(a5)
   1fd9c:	000700e7          	jalr	a4
   1fda0:	00000513          	li	a0,0
   1fda4:	00c12083          	lw	ra,12(sp)
   1fda8:	00812403          	lw	s0,8(sp)
   1fdac:	00412483          	lw	s1,4(sp)
   1fdb0:	01010113          	addi	sp,sp,16
   1fdb4:	00008067          	ret
   1fdb8:	00c12083          	lw	ra,12(sp)
   1fdbc:	00812403          	lw	s0,8(sp)
   1fdc0:	00412483          	lw	s1,4(sp)
   1fdc4:	00100513          	li	a0,1
   1fdc8:	01010113          	addi	sp,sp,16
   1fdcc:	00008067          	ret
   1fdd0:	00c12083          	lw	ra,12(sp)
   1fdd4:	00812403          	lw	s0,8(sp)
   1fdd8:	00412483          	lw	s1,4(sp)
   1fddc:	00300513          	li	a0,3
   1fde0:	01010113          	addi	sp,sp,16
   1fde4:	00008067          	ret
   1fde8:	00200513          	li	a0,2
   1fdec:	fb9ff06f          	j	1fda4 <__sigtramp+0x58>
   1fdf0:	08000593          	li	a1,128
   1fdf4:	00048513          	mv	a0,s1
   1fdf8:	e11f60ef          	jal	ra,16c08 <_malloc_r>
   1fdfc:	2ca4ae23          	sw	a0,732(s1)
   1fe00:	00050793          	mv	a5,a0
   1fe04:	00050e63          	beqz	a0,1fe20 <__sigtramp+0xd4>
   1fe08:	00050713          	mv	a4,a0
   1fe0c:	08050693          	addi	a3,a0,128
   1fe10:	00072023          	sw	zero,0(a4)
   1fe14:	00470713          	addi	a4,a4,4
   1fe18:	fee69ce3          	bne	a3,a4,1fe10 <__sigtramp+0xc4>
   1fe1c:	f59ff06f          	j	1fd74 <__sigtramp+0x28>
   1fe20:	fff00513          	li	a0,-1
   1fe24:	f81ff06f          	j	1fda4 <__sigtramp+0x58>

0001fe28 <_kill_r>:
   1fe28:	ff010113          	addi	sp,sp,-16
   1fe2c:	00058713          	mv	a4,a1
   1fe30:	00812423          	sw	s0,8(sp)
   1fe34:	00912223          	sw	s1,4(sp)
   1fe38:	00050413          	mv	s0,a0
   1fe3c:	00060593          	mv	a1,a2
   1fe40:	00070513          	mv	a0,a4
   1fe44:	00112623          	sw	ra,12(sp)
   1fe48:	1c01ae23          	sw	zero,476(gp) # 26a9c <errno>
   1fe4c:	160000ef          	jal	ra,1ffac <_kill>
   1fe50:	fff00793          	li	a5,-1
   1fe54:	00f50c63          	beq	a0,a5,1fe6c <_kill_r+0x44>
   1fe58:	00c12083          	lw	ra,12(sp)
   1fe5c:	00812403          	lw	s0,8(sp)
   1fe60:	00412483          	lw	s1,4(sp)
   1fe64:	01010113          	addi	sp,sp,16
   1fe68:	00008067          	ret
   1fe6c:	1dc1a783          	lw	a5,476(gp) # 26a9c <errno>
   1fe70:	fe0784e3          	beqz	a5,1fe58 <_kill_r+0x30>
   1fe74:	00c12083          	lw	ra,12(sp)
   1fe78:	00f42023          	sw	a5,0(s0)
   1fe7c:	00812403          	lw	s0,8(sp)
   1fe80:	00412483          	lw	s1,4(sp)
   1fe84:	01010113          	addi	sp,sp,16
   1fe88:	00008067          	ret

0001fe8c <_getpid_r>:
   1fe8c:	0d80006f          	j	1ff64 <_getpid>

0001fe90 <_close>:
   1fe90:	ff010113          	addi	sp,sp,-16
   1fe94:	00112623          	sw	ra,12(sp)
   1fe98:	00812423          	sw	s0,8(sp)
   1fe9c:	03900893          	li	a7,57
   1fea0:	00000073          	ecall
   1fea4:	00050413          	mv	s0,a0
   1fea8:	00054c63          	bltz	a0,1fec0 <_close+0x30>
   1feac:	00c12083          	lw	ra,12(sp)
   1feb0:	00040513          	mv	a0,s0
   1feb4:	00812403          	lw	s0,8(sp)
   1feb8:	01010113          	addi	sp,sp,16
   1febc:	00008067          	ret
   1fec0:	40800433          	neg	s0,s0
   1fec4:	e8dfc0ef          	jal	ra,1cd50 <__errno>
   1fec8:	00852023          	sw	s0,0(a0)
   1fecc:	fff00413          	li	s0,-1
   1fed0:	fddff06f          	j	1feac <_close+0x1c>

0001fed4 <_exit>:
   1fed4:	05d00893          	li	a7,93
   1fed8:	00000073          	ecall
   1fedc:	00054463          	bltz	a0,1fee4 <_exit+0x10>
   1fee0:	0000006f          	j	1fee0 <_exit+0xc>
   1fee4:	ff010113          	addi	sp,sp,-16
   1fee8:	00812423          	sw	s0,8(sp)
   1feec:	00050413          	mv	s0,a0
   1fef0:	00112623          	sw	ra,12(sp)
   1fef4:	40800433          	neg	s0,s0
   1fef8:	e59fc0ef          	jal	ra,1cd50 <__errno>
   1fefc:	00852023          	sw	s0,0(a0)
   1ff00:	0000006f          	j	1ff00 <_exit+0x2c>

0001ff04 <_fstat>:
   1ff04:	f7010113          	addi	sp,sp,-144
   1ff08:	08912223          	sw	s1,132(sp)
   1ff0c:	08112623          	sw	ra,140(sp)
   1ff10:	00058493          	mv	s1,a1
   1ff14:	08812423          	sw	s0,136(sp)
   1ff18:	05000893          	li	a7,80
   1ff1c:	00010593          	mv	a1,sp
   1ff20:	00000073          	ecall
   1ff24:	00050413          	mv	s0,a0
   1ff28:	02054463          	bltz	a0,1ff50 <_fstat+0x4c>
   1ff2c:	00048513          	mv	a0,s1
   1ff30:	00010593          	mv	a1,sp
   1ff34:	1e0000ef          	jal	ra,20114 <_conv_stat>
   1ff38:	08c12083          	lw	ra,140(sp)
   1ff3c:	00040513          	mv	a0,s0
   1ff40:	08812403          	lw	s0,136(sp)
   1ff44:	08412483          	lw	s1,132(sp)
   1ff48:	09010113          	addi	sp,sp,144
   1ff4c:	00008067          	ret
   1ff50:	40800433          	neg	s0,s0
   1ff54:	dfdfc0ef          	jal	ra,1cd50 <__errno>
   1ff58:	00852023          	sw	s0,0(a0)
   1ff5c:	fff00413          	li	s0,-1
   1ff60:	fcdff06f          	j	1ff2c <_fstat+0x28>

0001ff64 <_getpid>:
   1ff64:	00100513          	li	a0,1
   1ff68:	00008067          	ret

0001ff6c <_isatty>:
   1ff6c:	f9010113          	addi	sp,sp,-112
   1ff70:	00810593          	addi	a1,sp,8
   1ff74:	06112623          	sw	ra,108(sp)
   1ff78:	f8dff0ef          	jal	ra,1ff04 <_fstat>
   1ff7c:	fff00793          	li	a5,-1
   1ff80:	00f50e63          	beq	a0,a5,1ff9c <_isatty+0x30>
   1ff84:	00c12503          	lw	a0,12(sp)
   1ff88:	06c12083          	lw	ra,108(sp)
   1ff8c:	00d55513          	srli	a0,a0,0xd
   1ff90:	00157513          	andi	a0,a0,1
   1ff94:	07010113          	addi	sp,sp,112
   1ff98:	00008067          	ret
   1ff9c:	06c12083          	lw	ra,108(sp)
   1ffa0:	00000513          	li	a0,0
   1ffa4:	07010113          	addi	sp,sp,112
   1ffa8:	00008067          	ret

0001ffac <_kill>:
   1ffac:	ff010113          	addi	sp,sp,-16
   1ffb0:	00112623          	sw	ra,12(sp)
   1ffb4:	d9dfc0ef          	jal	ra,1cd50 <__errno>
   1ffb8:	00c12083          	lw	ra,12(sp)
   1ffbc:	01600793          	li	a5,22
   1ffc0:	00f52023          	sw	a5,0(a0)
   1ffc4:	fff00513          	li	a0,-1
   1ffc8:	01010113          	addi	sp,sp,16
   1ffcc:	00008067          	ret

0001ffd0 <_lseek>:
   1ffd0:	ff010113          	addi	sp,sp,-16
   1ffd4:	00112623          	sw	ra,12(sp)
   1ffd8:	00812423          	sw	s0,8(sp)
   1ffdc:	03e00893          	li	a7,62
   1ffe0:	00000073          	ecall
   1ffe4:	00050413          	mv	s0,a0
   1ffe8:	00054c63          	bltz	a0,20000 <_lseek+0x30>
   1ffec:	00c12083          	lw	ra,12(sp)
   1fff0:	00040513          	mv	a0,s0
   1fff4:	00812403          	lw	s0,8(sp)
   1fff8:	01010113          	addi	sp,sp,16
   1fffc:	00008067          	ret
   20000:	40800433          	neg	s0,s0
   20004:	d4dfc0ef          	jal	ra,1cd50 <__errno>
   20008:	00852023          	sw	s0,0(a0)
   2000c:	fff00413          	li	s0,-1
   20010:	fddff06f          	j	1ffec <_lseek+0x1c>

00020014 <_read>:
   20014:	ff010113          	addi	sp,sp,-16
   20018:	00112623          	sw	ra,12(sp)
   2001c:	00812423          	sw	s0,8(sp)
   20020:	03f00893          	li	a7,63
   20024:	00000073          	ecall
   20028:	00050413          	mv	s0,a0
   2002c:	00054c63          	bltz	a0,20044 <_read+0x30>
   20030:	00c12083          	lw	ra,12(sp)
   20034:	00040513          	mv	a0,s0
   20038:	00812403          	lw	s0,8(sp)
   2003c:	01010113          	addi	sp,sp,16
   20040:	00008067          	ret
   20044:	40800433          	neg	s0,s0
   20048:	d09fc0ef          	jal	ra,1cd50 <__errno>
   2004c:	00852023          	sw	s0,0(a0)
   20050:	fff00413          	li	s0,-1
   20054:	fddff06f          	j	20030 <_read+0x1c>

00020058 <_sbrk>:
   20058:	1e01a703          	lw	a4,480(gp) # 26aa0 <heap_end.0>
   2005c:	ff010113          	addi	sp,sp,-16
   20060:	00112623          	sw	ra,12(sp)
   20064:	00050793          	mv	a5,a0
   20068:	02071063          	bnez	a4,20088 <_sbrk+0x30>
   2006c:	0d600893          	li	a7,214
   20070:	00000513          	li	a0,0
   20074:	00000073          	ecall
   20078:	fff00613          	li	a2,-1
   2007c:	00050713          	mv	a4,a0
   20080:	02c50a63          	beq	a0,a2,200b4 <_sbrk+0x5c>
   20084:	1ea1a023          	sw	a0,480(gp) # 26aa0 <heap_end.0>
   20088:	0d600893          	li	a7,214
   2008c:	00e78533          	add	a0,a5,a4
   20090:	00000073          	ecall
   20094:	1e01a703          	lw	a4,480(gp) # 26aa0 <heap_end.0>
   20098:	00e787b3          	add	a5,a5,a4
   2009c:	00f51c63          	bne	a0,a5,200b4 <_sbrk+0x5c>
   200a0:	00c12083          	lw	ra,12(sp)
   200a4:	1ea1a023          	sw	a0,480(gp) # 26aa0 <heap_end.0>
   200a8:	00070513          	mv	a0,a4
   200ac:	01010113          	addi	sp,sp,16
   200b0:	00008067          	ret
   200b4:	c9dfc0ef          	jal	ra,1cd50 <__errno>
   200b8:	00c12083          	lw	ra,12(sp)
   200bc:	00c00793          	li	a5,12
   200c0:	00f52023          	sw	a5,0(a0)
   200c4:	fff00513          	li	a0,-1
   200c8:	01010113          	addi	sp,sp,16
   200cc:	00008067          	ret

000200d0 <_write>:
   200d0:	ff010113          	addi	sp,sp,-16
   200d4:	00112623          	sw	ra,12(sp)
   200d8:	00812423          	sw	s0,8(sp)
   200dc:	04000893          	li	a7,64
   200e0:	00000073          	ecall
   200e4:	00050413          	mv	s0,a0
   200e8:	00054c63          	bltz	a0,20100 <_write+0x30>
   200ec:	00c12083          	lw	ra,12(sp)
   200f0:	00040513          	mv	a0,s0
   200f4:	00812403          	lw	s0,8(sp)
   200f8:	01010113          	addi	sp,sp,16
   200fc:	00008067          	ret
   20100:	40800433          	neg	s0,s0
   20104:	c4dfc0ef          	jal	ra,1cd50 <__errno>
   20108:	00852023          	sw	s0,0(a0)
   2010c:	fff00413          	li	s0,-1
   20110:	fddff06f          	j	200ec <_write+0x1c>

00020114 <_conv_stat>:
   20114:	0185d703          	lhu	a4,24(a1)
   20118:	0145d783          	lhu	a5,20(a1)
   2011c:	ff010113          	addi	sp,sp,-16
   20120:	01c5a283          	lw	t0,28(a1)
   20124:	0205af83          	lw	t6,32(a1)
   20128:	0305af03          	lw	t5,48(a1)
   2012c:	0405ae83          	lw	t4,64(a1)
   20130:	0385ae03          	lw	t3,56(a1)
   20134:	0485a303          	lw	t1,72(a1)
   20138:	04c5a383          	lw	t2,76(a1)
   2013c:	0585a803          	lw	a6,88(a1)
   20140:	05c5a883          	lw	a7,92(a1)
   20144:	00812623          	sw	s0,12(sp)
   20148:	00912423          	sw	s1,8(sp)
   2014c:	0105a403          	lw	s0,16(a1)
   20150:	0085a483          	lw	s1,8(a1)
   20154:	01212223          	sw	s2,4(sp)
   20158:	0005a903          	lw	s2,0(a1)
   2015c:	0685a603          	lw	a2,104(a1)
   20160:	01071713          	slli	a4,a4,0x10
   20164:	00e7e7b3          	or	a5,a5,a4
   20168:	06c5a683          	lw	a3,108(a1)
   2016c:	01251023          	sh	s2,0(a0)
   20170:	00951123          	sh	s1,2(a0)
   20174:	00852223          	sw	s0,4(a0)
   20178:	00f52423          	sw	a5,8(a0)
   2017c:	00551623          	sh	t0,12(a0)
   20180:	01f51723          	sh	t6,14(a0)
   20184:	01e52823          	sw	t5,16(a0)
   20188:	05d52623          	sw	t4,76(a0)
   2018c:	05c52423          	sw	t3,72(a0)
   20190:	00652c23          	sw	t1,24(a0)
   20194:	00752e23          	sw	t2,28(a0)
   20198:	03052423          	sw	a6,40(a0)
   2019c:	03152623          	sw	a7,44(a0)
   201a0:	02c52c23          	sw	a2,56(a0)
   201a4:	00c12403          	lw	s0,12(sp)
   201a8:	02d52e23          	sw	a3,60(a0)
   201ac:	00812483          	lw	s1,8(sp)
   201b0:	00412903          	lw	s2,4(sp)
   201b4:	01010113          	addi	sp,sp,16
   201b8:	00008067          	ret

000201bc <__udivdi3>:
   201bc:	fd010113          	addi	sp,sp,-48
   201c0:	01412c23          	sw	s4,24(sp)
   201c4:	02112623          	sw	ra,44(sp)
   201c8:	02812423          	sw	s0,40(sp)
   201cc:	02912223          	sw	s1,36(sp)
   201d0:	03212023          	sw	s2,32(sp)
   201d4:	01312e23          	sw	s3,28(sp)
   201d8:	01512a23          	sw	s5,20(sp)
   201dc:	01612823          	sw	s6,16(sp)
   201e0:	01712623          	sw	s7,12(sp)
   201e4:	01812423          	sw	s8,8(sp)
   201e8:	01912223          	sw	s9,4(sp)
   201ec:	00050a13          	mv	s4,a0
   201f0:	38069463          	bnez	a3,20578 <__udivdi3+0x3bc>
   201f4:	000267b7          	lui	a5,0x26
   201f8:	00060993          	mv	s3,a2
   201fc:	00050493          	mv	s1,a0
   20200:	e7478793          	addi	a5,a5,-396 # 25e74 <__clz_tab>
   20204:	12c5f863          	bgeu	a1,a2,20334 <__udivdi3+0x178>
   20208:	00010737          	lui	a4,0x10
   2020c:	00058913          	mv	s2,a1
   20210:	10e67863          	bgeu	a2,a4,20320 <__udivdi3+0x164>
   20214:	10063713          	sltiu	a4,a2,256
   20218:	00174713          	xori	a4,a4,1
   2021c:	00371713          	slli	a4,a4,0x3
   20220:	00e656b3          	srl	a3,a2,a4
   20224:	00d787b3          	add	a5,a5,a3
   20228:	0007c783          	lbu	a5,0(a5)
   2022c:	02000693          	li	a3,32
   20230:	00e787b3          	add	a5,a5,a4
   20234:	40f68733          	sub	a4,a3,a5
   20238:	00f68c63          	beq	a3,a5,20250 <__udivdi3+0x94>
   2023c:	00e59933          	sll	s2,a1,a4
   20240:	00fa57b3          	srl	a5,s4,a5
   20244:	00e619b3          	sll	s3,a2,a4
   20248:	0127e933          	or	s2,a5,s2
   2024c:	00ea14b3          	sll	s1,s4,a4
   20250:	0109da93          	srli	s5,s3,0x10
   20254:	000a8593          	mv	a1,s5
   20258:	00090513          	mv	a0,s2
   2025c:	01099b13          	slli	s6,s3,0x10
   20260:	505040ef          	jal	ra,24f64 <__hidden___udivsi3>
   20264:	010b5b13          	srli	s6,s6,0x10
   20268:	00050593          	mv	a1,a0
   2026c:	00050a13          	mv	s4,a0
   20270:	000b0513          	mv	a0,s6
   20274:	4c5040ef          	jal	ra,24f38 <__mulsi3>
   20278:	00050413          	mv	s0,a0
   2027c:	000a8593          	mv	a1,s5
   20280:	00090513          	mv	a0,s2
   20284:	529040ef          	jal	ra,24fac <__umodsi3>
   20288:	01051513          	slli	a0,a0,0x10
   2028c:	0104d713          	srli	a4,s1,0x10
   20290:	00a76733          	or	a4,a4,a0
   20294:	000a0913          	mv	s2,s4
   20298:	00877e63          	bgeu	a4,s0,202b4 <__udivdi3+0xf8>
   2029c:	00e98733          	add	a4,s3,a4
   202a0:	fffa0913          	addi	s2,s4,-1
   202a4:	01376863          	bltu	a4,s3,202b4 <__udivdi3+0xf8>
   202a8:	00877663          	bgeu	a4,s0,202b4 <__udivdi3+0xf8>
   202ac:	ffea0913          	addi	s2,s4,-2
   202b0:	01370733          	add	a4,a4,s3
   202b4:	40870433          	sub	s0,a4,s0
   202b8:	000a8593          	mv	a1,s5
   202bc:	00040513          	mv	a0,s0
   202c0:	4a5040ef          	jal	ra,24f64 <__hidden___udivsi3>
   202c4:	00050593          	mv	a1,a0
   202c8:	00050a13          	mv	s4,a0
   202cc:	000b0513          	mv	a0,s6
   202d0:	469040ef          	jal	ra,24f38 <__mulsi3>
   202d4:	00050b13          	mv	s6,a0
   202d8:	000a8593          	mv	a1,s5
   202dc:	00040513          	mv	a0,s0
   202e0:	4cd040ef          	jal	ra,24fac <__umodsi3>
   202e4:	01049493          	slli	s1,s1,0x10
   202e8:	01051513          	slli	a0,a0,0x10
   202ec:	0104d493          	srli	s1,s1,0x10
   202f0:	00a4e4b3          	or	s1,s1,a0
   202f4:	000a0713          	mv	a4,s4
   202f8:	0164fc63          	bgeu	s1,s6,20310 <__udivdi3+0x154>
   202fc:	009984b3          	add	s1,s3,s1
   20300:	fffa0713          	addi	a4,s4,-1
   20304:	0134e663          	bltu	s1,s3,20310 <__udivdi3+0x154>
   20308:	0164f463          	bgeu	s1,s6,20310 <__udivdi3+0x154>
   2030c:	ffea0713          	addi	a4,s4,-2
   20310:	01091793          	slli	a5,s2,0x10
   20314:	00e7e7b3          	or	a5,a5,a4
   20318:	00000913          	li	s2,0
   2031c:	1200006f          	j	2043c <__udivdi3+0x280>
   20320:	010006b7          	lui	a3,0x1000
   20324:	01000713          	li	a4,16
   20328:	eed66ce3          	bltu	a2,a3,20220 <__udivdi3+0x64>
   2032c:	01800713          	li	a4,24
   20330:	ef1ff06f          	j	20220 <__udivdi3+0x64>
   20334:	00000713          	li	a4,0
   20338:	00060c63          	beqz	a2,20350 <__udivdi3+0x194>
   2033c:	00010737          	lui	a4,0x10
   20340:	12e67c63          	bgeu	a2,a4,20478 <__udivdi3+0x2bc>
   20344:	10063713          	sltiu	a4,a2,256
   20348:	00174713          	xori	a4,a4,1
   2034c:	00371713          	slli	a4,a4,0x3
   20350:	00e656b3          	srl	a3,a2,a4
   20354:	00d787b3          	add	a5,a5,a3
   20358:	0007c783          	lbu	a5,0(a5)
   2035c:	02000693          	li	a3,32
   20360:	00e787b3          	add	a5,a5,a4
   20364:	40f68733          	sub	a4,a3,a5
   20368:	12f69263          	bne	a3,a5,2048c <__udivdi3+0x2d0>
   2036c:	40c58a33          	sub	s4,a1,a2
   20370:	00100913          	li	s2,1
   20374:	0109db13          	srli	s6,s3,0x10
   20378:	000b0593          	mv	a1,s6
   2037c:	000a0513          	mv	a0,s4
   20380:	01099b93          	slli	s7,s3,0x10
   20384:	3e1040ef          	jal	ra,24f64 <__hidden___udivsi3>
   20388:	010bdb93          	srli	s7,s7,0x10
   2038c:	00050593          	mv	a1,a0
   20390:	00050c13          	mv	s8,a0
   20394:	000b8513          	mv	a0,s7
   20398:	3a1040ef          	jal	ra,24f38 <__mulsi3>
   2039c:	00050a93          	mv	s5,a0
   203a0:	000b0593          	mv	a1,s6
   203a4:	000a0513          	mv	a0,s4
   203a8:	405040ef          	jal	ra,24fac <__umodsi3>
   203ac:	01051513          	slli	a0,a0,0x10
   203b0:	0104d713          	srli	a4,s1,0x10
   203b4:	00a76733          	or	a4,a4,a0
   203b8:	000c0a13          	mv	s4,s8
   203bc:	01577e63          	bgeu	a4,s5,203d8 <__udivdi3+0x21c>
   203c0:	00e98733          	add	a4,s3,a4
   203c4:	fffc0a13          	addi	s4,s8,-1
   203c8:	01376863          	bltu	a4,s3,203d8 <__udivdi3+0x21c>
   203cc:	01577663          	bgeu	a4,s5,203d8 <__udivdi3+0x21c>
   203d0:	ffec0a13          	addi	s4,s8,-2
   203d4:	01370733          	add	a4,a4,s3
   203d8:	41570433          	sub	s0,a4,s5
   203dc:	000b0593          	mv	a1,s6
   203e0:	00040513          	mv	a0,s0
   203e4:	381040ef          	jal	ra,24f64 <__hidden___udivsi3>
   203e8:	00050593          	mv	a1,a0
   203ec:	00050a93          	mv	s5,a0
   203f0:	000b8513          	mv	a0,s7
   203f4:	345040ef          	jal	ra,24f38 <__mulsi3>
   203f8:	00050b93          	mv	s7,a0
   203fc:	000b0593          	mv	a1,s6
   20400:	00040513          	mv	a0,s0
   20404:	3a9040ef          	jal	ra,24fac <__umodsi3>
   20408:	01049493          	slli	s1,s1,0x10
   2040c:	01051513          	slli	a0,a0,0x10
   20410:	0104d493          	srli	s1,s1,0x10
   20414:	00a4e4b3          	or	s1,s1,a0
   20418:	000a8713          	mv	a4,s5
   2041c:	0174fc63          	bgeu	s1,s7,20434 <__udivdi3+0x278>
   20420:	009984b3          	add	s1,s3,s1
   20424:	fffa8713          	addi	a4,s5,-1
   20428:	0134e663          	bltu	s1,s3,20434 <__udivdi3+0x278>
   2042c:	0174f463          	bgeu	s1,s7,20434 <__udivdi3+0x278>
   20430:	ffea8713          	addi	a4,s5,-2
   20434:	010a1793          	slli	a5,s4,0x10
   20438:	00e7e7b3          	or	a5,a5,a4
   2043c:	02c12083          	lw	ra,44(sp)
   20440:	02812403          	lw	s0,40(sp)
   20444:	02412483          	lw	s1,36(sp)
   20448:	01c12983          	lw	s3,28(sp)
   2044c:	01812a03          	lw	s4,24(sp)
   20450:	01412a83          	lw	s5,20(sp)
   20454:	01012b03          	lw	s6,16(sp)
   20458:	00c12b83          	lw	s7,12(sp)
   2045c:	00812c03          	lw	s8,8(sp)
   20460:	00412c83          	lw	s9,4(sp)
   20464:	00090593          	mv	a1,s2
   20468:	00078513          	mv	a0,a5
   2046c:	02012903          	lw	s2,32(sp)
   20470:	03010113          	addi	sp,sp,48
   20474:	00008067          	ret
   20478:	010006b7          	lui	a3,0x1000
   2047c:	01000713          	li	a4,16
   20480:	ecd668e3          	bltu	a2,a3,20350 <__udivdi3+0x194>
   20484:	01800713          	li	a4,24
   20488:	ec9ff06f          	j	20350 <__udivdi3+0x194>
   2048c:	00e619b3          	sll	s3,a2,a4
   20490:	00f5d933          	srl	s2,a1,a5
   20494:	0109db93          	srli	s7,s3,0x10
   20498:	00e595b3          	sll	a1,a1,a4
   2049c:	00fa57b3          	srl	a5,s4,a5
   204a0:	00b7eab3          	or	s5,a5,a1
   204a4:	00ea14b3          	sll	s1,s4,a4
   204a8:	000b8593          	mv	a1,s7
   204ac:	00090513          	mv	a0,s2
   204b0:	01099a13          	slli	s4,s3,0x10
   204b4:	2b1040ef          	jal	ra,24f64 <__hidden___udivsi3>
   204b8:	010a5a13          	srli	s4,s4,0x10
   204bc:	00050593          	mv	a1,a0
   204c0:	00050b13          	mv	s6,a0
   204c4:	000a0513          	mv	a0,s4
   204c8:	271040ef          	jal	ra,24f38 <__mulsi3>
   204cc:	00050413          	mv	s0,a0
   204d0:	000b8593          	mv	a1,s7
   204d4:	00090513          	mv	a0,s2
   204d8:	2d5040ef          	jal	ra,24fac <__umodsi3>
   204dc:	01051513          	slli	a0,a0,0x10
   204e0:	010ad713          	srli	a4,s5,0x10
   204e4:	00a76733          	or	a4,a4,a0
   204e8:	000b0913          	mv	s2,s6
   204ec:	00877e63          	bgeu	a4,s0,20508 <__udivdi3+0x34c>
   204f0:	00e98733          	add	a4,s3,a4
   204f4:	fffb0913          	addi	s2,s6,-1
   204f8:	01376863          	bltu	a4,s3,20508 <__udivdi3+0x34c>
   204fc:	00877663          	bgeu	a4,s0,20508 <__udivdi3+0x34c>
   20500:	ffeb0913          	addi	s2,s6,-2
   20504:	01370733          	add	a4,a4,s3
   20508:	40870433          	sub	s0,a4,s0
   2050c:	000b8593          	mv	a1,s7
   20510:	00040513          	mv	a0,s0
   20514:	251040ef          	jal	ra,24f64 <__hidden___udivsi3>
   20518:	00050593          	mv	a1,a0
   2051c:	00050b13          	mv	s6,a0
   20520:	000a0513          	mv	a0,s4
   20524:	215040ef          	jal	ra,24f38 <__mulsi3>
   20528:	00050a13          	mv	s4,a0
   2052c:	000b8593          	mv	a1,s7
   20530:	00040513          	mv	a0,s0
   20534:	279040ef          	jal	ra,24fac <__umodsi3>
   20538:	010a9793          	slli	a5,s5,0x10
   2053c:	01051513          	slli	a0,a0,0x10
   20540:	0107d793          	srli	a5,a5,0x10
   20544:	00a7e7b3          	or	a5,a5,a0
   20548:	000b0713          	mv	a4,s6
   2054c:	0147fe63          	bgeu	a5,s4,20568 <__udivdi3+0x3ac>
   20550:	00f987b3          	add	a5,s3,a5
   20554:	fffb0713          	addi	a4,s6,-1
   20558:	0137e863          	bltu	a5,s3,20568 <__udivdi3+0x3ac>
   2055c:	0147f663          	bgeu	a5,s4,20568 <__udivdi3+0x3ac>
   20560:	ffeb0713          	addi	a4,s6,-2
   20564:	013787b3          	add	a5,a5,s3
   20568:	01091913          	slli	s2,s2,0x10
   2056c:	41478a33          	sub	s4,a5,s4
   20570:	00e96933          	or	s2,s2,a4
   20574:	e01ff06f          	j	20374 <__udivdi3+0x1b8>
   20578:	1ed5ee63          	bltu	a1,a3,20774 <__udivdi3+0x5b8>
   2057c:	000107b7          	lui	a5,0x10
   20580:	04f6f463          	bgeu	a3,a5,205c8 <__udivdi3+0x40c>
   20584:	1006b713          	sltiu	a4,a3,256
   20588:	00174713          	xori	a4,a4,1
   2058c:	00371713          	slli	a4,a4,0x3
   20590:	000267b7          	lui	a5,0x26
   20594:	00e6d533          	srl	a0,a3,a4
   20598:	e7478793          	addi	a5,a5,-396 # 25e74 <__clz_tab>
   2059c:	00a787b3          	add	a5,a5,a0
   205a0:	0007c803          	lbu	a6,0(a5)
   205a4:	02000793          	li	a5,32
   205a8:	00e80833          	add	a6,a6,a4
   205ac:	41078933          	sub	s2,a5,a6
   205b0:	03079663          	bne	a5,a6,205dc <__udivdi3+0x420>
   205b4:	00100793          	li	a5,1
   205b8:	e8b6e2e3          	bltu	a3,a1,2043c <__udivdi3+0x280>
   205bc:	00ca37b3          	sltu	a5,s4,a2
   205c0:	0017c793          	xori	a5,a5,1
   205c4:	e79ff06f          	j	2043c <__udivdi3+0x280>
   205c8:	010007b7          	lui	a5,0x1000
   205cc:	01000713          	li	a4,16
   205d0:	fcf6e0e3          	bltu	a3,a5,20590 <__udivdi3+0x3d4>
   205d4:	01800713          	li	a4,24
   205d8:	fb9ff06f          	j	20590 <__udivdi3+0x3d4>
   205dc:	012696b3          	sll	a3,a3,s2
   205e0:	01065b33          	srl	s6,a2,a6
   205e4:	00db6b33          	or	s6,s6,a3
   205e8:	0105d4b3          	srl	s1,a1,a6
   205ec:	010b5c13          	srli	s8,s6,0x10
   205f0:	010a5833          	srl	a6,s4,a6
   205f4:	012595b3          	sll	a1,a1,s2
   205f8:	00b869b3          	or	s3,a6,a1
   205fc:	00048513          	mv	a0,s1
   20600:	000c0593          	mv	a1,s8
   20604:	010b1b93          	slli	s7,s6,0x10
   20608:	01261433          	sll	s0,a2,s2
   2060c:	010bdb93          	srli	s7,s7,0x10
   20610:	155040ef          	jal	ra,24f64 <__hidden___udivsi3>
   20614:	00050593          	mv	a1,a0
   20618:	00050c93          	mv	s9,a0
   2061c:	000b8513          	mv	a0,s7
   20620:	119040ef          	jal	ra,24f38 <__mulsi3>
   20624:	00050a93          	mv	s5,a0
   20628:	000c0593          	mv	a1,s8
   2062c:	00048513          	mv	a0,s1
   20630:	17d040ef          	jal	ra,24fac <__umodsi3>
   20634:	01051513          	slli	a0,a0,0x10
   20638:	0109d693          	srli	a3,s3,0x10
   2063c:	00a6e6b3          	or	a3,a3,a0
   20640:	000c8493          	mv	s1,s9
   20644:	0156fe63          	bgeu	a3,s5,20660 <__udivdi3+0x4a4>
   20648:	00db06b3          	add	a3,s6,a3
   2064c:	fffc8493          	addi	s1,s9,-1
   20650:	0166e863          	bltu	a3,s6,20660 <__udivdi3+0x4a4>
   20654:	0156f663          	bgeu	a3,s5,20660 <__udivdi3+0x4a4>
   20658:	ffec8493          	addi	s1,s9,-2
   2065c:	016686b3          	add	a3,a3,s6
   20660:	41568ab3          	sub	s5,a3,s5
   20664:	000c0593          	mv	a1,s8
   20668:	000a8513          	mv	a0,s5
   2066c:	0f9040ef          	jal	ra,24f64 <__hidden___udivsi3>
   20670:	00050593          	mv	a1,a0
   20674:	00050c93          	mv	s9,a0
   20678:	000b8513          	mv	a0,s7
   2067c:	0bd040ef          	jal	ra,24f38 <__mulsi3>
   20680:	00050b93          	mv	s7,a0
   20684:	000c0593          	mv	a1,s8
   20688:	000a8513          	mv	a0,s5
   2068c:	121040ef          	jal	ra,24fac <__umodsi3>
   20690:	01099713          	slli	a4,s3,0x10
   20694:	01051513          	slli	a0,a0,0x10
   20698:	01075713          	srli	a4,a4,0x10
   2069c:	00a76733          	or	a4,a4,a0
   206a0:	000c8693          	mv	a3,s9
   206a4:	01777e63          	bgeu	a4,s7,206c0 <__udivdi3+0x504>
   206a8:	00eb0733          	add	a4,s6,a4
   206ac:	fffc8693          	addi	a3,s9,-1
   206b0:	01676863          	bltu	a4,s6,206c0 <__udivdi3+0x504>
   206b4:	01777663          	bgeu	a4,s7,206c0 <__udivdi3+0x504>
   206b8:	ffec8693          	addi	a3,s9,-2
   206bc:	01670733          	add	a4,a4,s6
   206c0:	01049793          	slli	a5,s1,0x10
   206c4:	00010e37          	lui	t3,0x10
   206c8:	00d7e7b3          	or	a5,a5,a3
   206cc:	fffe0313          	addi	t1,t3,-1 # ffff <exit-0x95>
   206d0:	0067f8b3          	and	a7,a5,t1
   206d4:	00647333          	and	t1,s0,t1
   206d8:	41770733          	sub	a4,a4,s7
   206dc:	0107de93          	srli	t4,a5,0x10
   206e0:	01045413          	srli	s0,s0,0x10
   206e4:	00088513          	mv	a0,a7
   206e8:	00030593          	mv	a1,t1
   206ec:	04d040ef          	jal	ra,24f38 <__mulsi3>
   206f0:	00050813          	mv	a6,a0
   206f4:	00040593          	mv	a1,s0
   206f8:	00088513          	mv	a0,a7
   206fc:	03d040ef          	jal	ra,24f38 <__mulsi3>
   20700:	00050893          	mv	a7,a0
   20704:	00030593          	mv	a1,t1
   20708:	000e8513          	mv	a0,t4
   2070c:	02d040ef          	jal	ra,24f38 <__mulsi3>
   20710:	00050313          	mv	t1,a0
   20714:	00040593          	mv	a1,s0
   20718:	000e8513          	mv	a0,t4
   2071c:	01d040ef          	jal	ra,24f38 <__mulsi3>
   20720:	01085693          	srli	a3,a6,0x10
   20724:	006888b3          	add	a7,a7,t1
   20728:	011686b3          	add	a3,a3,a7
   2072c:	00050613          	mv	a2,a0
   20730:	0066f463          	bgeu	a3,t1,20738 <__udivdi3+0x57c>
   20734:	01c50633          	add	a2,a0,t3
   20738:	0106d593          	srli	a1,a3,0x10
   2073c:	00c58633          	add	a2,a1,a2
   20740:	02c76663          	bltu	a4,a2,2076c <__udivdi3+0x5b0>
   20744:	bcc71ae3          	bne	a4,a2,20318 <__udivdi3+0x15c>
   20748:	00010637          	lui	a2,0x10
   2074c:	fff60613          	addi	a2,a2,-1 # ffff <exit-0x95>
   20750:	00c6f6b3          	and	a3,a3,a2
   20754:	01069693          	slli	a3,a3,0x10
   20758:	00c87833          	and	a6,a6,a2
   2075c:	012a1733          	sll	a4,s4,s2
   20760:	010686b3          	add	a3,a3,a6
   20764:	00000913          	li	s2,0
   20768:	ccd77ae3          	bgeu	a4,a3,2043c <__udivdi3+0x280>
   2076c:	fff78793          	addi	a5,a5,-1 # ffffff <__BSS_END__+0xfd9517>
   20770:	ba9ff06f          	j	20318 <__udivdi3+0x15c>
   20774:	00000913          	li	s2,0
   20778:	00000793          	li	a5,0
   2077c:	cc1ff06f          	j	2043c <__udivdi3+0x280>

00020780 <__umoddi3>:
   20780:	fd010113          	addi	sp,sp,-48
   20784:	02812423          	sw	s0,40(sp)
   20788:	02912223          	sw	s1,36(sp)
   2078c:	02112623          	sw	ra,44(sp)
   20790:	03212023          	sw	s2,32(sp)
   20794:	01312e23          	sw	s3,28(sp)
   20798:	01412c23          	sw	s4,24(sp)
   2079c:	01512a23          	sw	s5,20(sp)
   207a0:	01612823          	sw	s6,16(sp)
   207a4:	01712623          	sw	s7,12(sp)
   207a8:	01812423          	sw	s8,8(sp)
   207ac:	01912223          	sw	s9,4(sp)
   207b0:	01a12023          	sw	s10,0(sp)
   207b4:	00050413          	mv	s0,a0
   207b8:	00058493          	mv	s1,a1
   207bc:	24069c63          	bnez	a3,20a14 <__umoddi3+0x294>
   207c0:	000267b7          	lui	a5,0x26
   207c4:	00060993          	mv	s3,a2
   207c8:	e7478793          	addi	a5,a5,-396 # 25e74 <__clz_tab>
   207cc:	12c5fe63          	bgeu	a1,a2,20908 <__umoddi3+0x188>
   207d0:	00010737          	lui	a4,0x10
   207d4:	12e67063          	bgeu	a2,a4,208f4 <__umoddi3+0x174>
   207d8:	10063713          	sltiu	a4,a2,256
   207dc:	00174713          	xori	a4,a4,1
   207e0:	00371713          	slli	a4,a4,0x3
   207e4:	00e656b3          	srl	a3,a2,a4
   207e8:	00d787b3          	add	a5,a5,a3
   207ec:	0007c783          	lbu	a5,0(a5)
   207f0:	00e787b3          	add	a5,a5,a4
   207f4:	02000713          	li	a4,32
   207f8:	40f70933          	sub	s2,a4,a5
   207fc:	00f70c63          	beq	a4,a5,20814 <__umoddi3+0x94>
   20800:	012594b3          	sll	s1,a1,s2
   20804:	00f557b3          	srl	a5,a0,a5
   20808:	012619b3          	sll	s3,a2,s2
   2080c:	0097e4b3          	or	s1,a5,s1
   20810:	01251433          	sll	s0,a0,s2
   20814:	0109da93          	srli	s5,s3,0x10
   20818:	000a8593          	mv	a1,s5
   2081c:	01099b13          	slli	s6,s3,0x10
   20820:	00048513          	mv	a0,s1
   20824:	740040ef          	jal	ra,24f64 <__hidden___udivsi3>
   20828:	010b5b13          	srli	s6,s6,0x10
   2082c:	000b0593          	mv	a1,s6
   20830:	708040ef          	jal	ra,24f38 <__mulsi3>
   20834:	00050a13          	mv	s4,a0
   20838:	000a8593          	mv	a1,s5
   2083c:	00048513          	mv	a0,s1
   20840:	76c040ef          	jal	ra,24fac <__umodsi3>
   20844:	01051513          	slli	a0,a0,0x10
   20848:	01045793          	srli	a5,s0,0x10
   2084c:	00a7e7b3          	or	a5,a5,a0
   20850:	0147fa63          	bgeu	a5,s4,20864 <__umoddi3+0xe4>
   20854:	00f987b3          	add	a5,s3,a5
   20858:	0137e663          	bltu	a5,s3,20864 <__umoddi3+0xe4>
   2085c:	0147f463          	bgeu	a5,s4,20864 <__umoddi3+0xe4>
   20860:	013787b3          	add	a5,a5,s3
   20864:	414784b3          	sub	s1,a5,s4
   20868:	000a8593          	mv	a1,s5
   2086c:	00048513          	mv	a0,s1
   20870:	6f4040ef          	jal	ra,24f64 <__hidden___udivsi3>
   20874:	000b0593          	mv	a1,s6
   20878:	6c0040ef          	jal	ra,24f38 <__mulsi3>
   2087c:	00050a13          	mv	s4,a0
   20880:	000a8593          	mv	a1,s5
   20884:	00048513          	mv	a0,s1
   20888:	724040ef          	jal	ra,24fac <__umodsi3>
   2088c:	01041413          	slli	s0,s0,0x10
   20890:	01051513          	slli	a0,a0,0x10
   20894:	01045413          	srli	s0,s0,0x10
   20898:	00a46433          	or	s0,s0,a0
   2089c:	01447a63          	bgeu	s0,s4,208b0 <__umoddi3+0x130>
   208a0:	00898433          	add	s0,s3,s0
   208a4:	01346663          	bltu	s0,s3,208b0 <__umoddi3+0x130>
   208a8:	01447463          	bgeu	s0,s4,208b0 <__umoddi3+0x130>
   208ac:	01340433          	add	s0,s0,s3
   208b0:	41440433          	sub	s0,s0,s4
   208b4:	01245533          	srl	a0,s0,s2
   208b8:	00000593          	li	a1,0
   208bc:	02c12083          	lw	ra,44(sp)
   208c0:	02812403          	lw	s0,40(sp)
   208c4:	02412483          	lw	s1,36(sp)
   208c8:	02012903          	lw	s2,32(sp)
   208cc:	01c12983          	lw	s3,28(sp)
   208d0:	01812a03          	lw	s4,24(sp)
   208d4:	01412a83          	lw	s5,20(sp)
   208d8:	01012b03          	lw	s6,16(sp)
   208dc:	00c12b83          	lw	s7,12(sp)
   208e0:	00812c03          	lw	s8,8(sp)
   208e4:	00412c83          	lw	s9,4(sp)
   208e8:	00012d03          	lw	s10,0(sp)
   208ec:	03010113          	addi	sp,sp,48
   208f0:	00008067          	ret
   208f4:	010006b7          	lui	a3,0x1000
   208f8:	01000713          	li	a4,16
   208fc:	eed664e3          	bltu	a2,a3,207e4 <__umoddi3+0x64>
   20900:	01800713          	li	a4,24
   20904:	ee1ff06f          	j	207e4 <__umoddi3+0x64>
   20908:	00000713          	li	a4,0
   2090c:	00060c63          	beqz	a2,20924 <__umoddi3+0x1a4>
   20910:	00010737          	lui	a4,0x10
   20914:	0ee67663          	bgeu	a2,a4,20a00 <__umoddi3+0x280>
   20918:	10063713          	sltiu	a4,a2,256
   2091c:	00174713          	xori	a4,a4,1
   20920:	00371713          	slli	a4,a4,0x3
   20924:	00e656b3          	srl	a3,a2,a4
   20928:	00d787b3          	add	a5,a5,a3
   2092c:	0007c783          	lbu	a5,0(a5)
   20930:	40c584b3          	sub	s1,a1,a2
   20934:	00e787b3          	add	a5,a5,a4
   20938:	02000713          	li	a4,32
   2093c:	40f70933          	sub	s2,a4,a5
   20940:	ecf70ae3          	beq	a4,a5,20814 <__umoddi3+0x94>
   20944:	012619b3          	sll	s3,a2,s2
   20948:	00f5dbb3          	srl	s7,a1,a5
   2094c:	0109db13          	srli	s6,s3,0x10
   20950:	00f557b3          	srl	a5,a0,a5
   20954:	012595b3          	sll	a1,a1,s2
   20958:	00b7ea33          	or	s4,a5,a1
   2095c:	01251433          	sll	s0,a0,s2
   20960:	000b0593          	mv	a1,s6
   20964:	01099a93          	slli	s5,s3,0x10
   20968:	000b8513          	mv	a0,s7
   2096c:	5f8040ef          	jal	ra,24f64 <__hidden___udivsi3>
   20970:	010ada93          	srli	s5,s5,0x10
   20974:	000a8593          	mv	a1,s5
   20978:	5c0040ef          	jal	ra,24f38 <__mulsi3>
   2097c:	00050493          	mv	s1,a0
   20980:	000b0593          	mv	a1,s6
   20984:	000b8513          	mv	a0,s7
   20988:	624040ef          	jal	ra,24fac <__umodsi3>
   2098c:	01051513          	slli	a0,a0,0x10
   20990:	010a5713          	srli	a4,s4,0x10
   20994:	00a76733          	or	a4,a4,a0
   20998:	00977a63          	bgeu	a4,s1,209ac <__umoddi3+0x22c>
   2099c:	00e98733          	add	a4,s3,a4
   209a0:	01376663          	bltu	a4,s3,209ac <__umoddi3+0x22c>
   209a4:	00977463          	bgeu	a4,s1,209ac <__umoddi3+0x22c>
   209a8:	01370733          	add	a4,a4,s3
   209ac:	409704b3          	sub	s1,a4,s1
   209b0:	000b0593          	mv	a1,s6
   209b4:	00048513          	mv	a0,s1
   209b8:	5ac040ef          	jal	ra,24f64 <__hidden___udivsi3>
   209bc:	000a8593          	mv	a1,s5
   209c0:	578040ef          	jal	ra,24f38 <__mulsi3>
   209c4:	00050a93          	mv	s5,a0
   209c8:	000b0593          	mv	a1,s6
   209cc:	00048513          	mv	a0,s1
   209d0:	5dc040ef          	jal	ra,24fac <__umodsi3>
   209d4:	010a1793          	slli	a5,s4,0x10
   209d8:	01051513          	slli	a0,a0,0x10
   209dc:	0107d793          	srli	a5,a5,0x10
   209e0:	00a7e7b3          	or	a5,a5,a0
   209e4:	0157fa63          	bgeu	a5,s5,209f8 <__umoddi3+0x278>
   209e8:	00f987b3          	add	a5,s3,a5
   209ec:	0137e663          	bltu	a5,s3,209f8 <__umoddi3+0x278>
   209f0:	0157f463          	bgeu	a5,s5,209f8 <__umoddi3+0x278>
   209f4:	013787b3          	add	a5,a5,s3
   209f8:	415784b3          	sub	s1,a5,s5
   209fc:	e19ff06f          	j	20814 <__umoddi3+0x94>
   20a00:	010006b7          	lui	a3,0x1000
   20a04:	01000713          	li	a4,16
   20a08:	f0d66ee3          	bltu	a2,a3,20924 <__umoddi3+0x1a4>
   20a0c:	01800713          	li	a4,24
   20a10:	f15ff06f          	j	20924 <__umoddi3+0x1a4>
   20a14:	ead5e4e3          	bltu	a1,a3,208bc <__umoddi3+0x13c>
   20a18:	000107b7          	lui	a5,0x10
   20a1c:	04f6fe63          	bgeu	a3,a5,20a78 <__umoddi3+0x2f8>
   20a20:	1006b793          	sltiu	a5,a3,256
   20a24:	0017c793          	xori	a5,a5,1
   20a28:	00379793          	slli	a5,a5,0x3
   20a2c:	00026737          	lui	a4,0x26
   20a30:	00f6d833          	srl	a6,a3,a5
   20a34:	e7470713          	addi	a4,a4,-396 # 25e74 <__clz_tab>
   20a38:	01070733          	add	a4,a4,a6
   20a3c:	00074a83          	lbu	s5,0(a4)
   20a40:	00fa8ab3          	add	s5,s5,a5
   20a44:	02000793          	li	a5,32
   20a48:	41578a33          	sub	s4,a5,s5
   20a4c:	05579063          	bne	a5,s5,20a8c <__umoddi3+0x30c>
   20a50:	00b6e463          	bltu	a3,a1,20a58 <__umoddi3+0x2d8>
   20a54:	00c56c63          	bltu	a0,a2,20a6c <__umoddi3+0x2ec>
   20a58:	40c50933          	sub	s2,a0,a2
   20a5c:	40d586b3          	sub	a3,a1,a3
   20a60:	012534b3          	sltu	s1,a0,s2
   20a64:	00090413          	mv	s0,s2
   20a68:	409684b3          	sub	s1,a3,s1
   20a6c:	00040513          	mv	a0,s0
   20a70:	00048593          	mv	a1,s1
   20a74:	e49ff06f          	j	208bc <__umoddi3+0x13c>
   20a78:	01000737          	lui	a4,0x1000
   20a7c:	01000793          	li	a5,16
   20a80:	fae6e6e3          	bltu	a3,a4,20a2c <__umoddi3+0x2ac>
   20a84:	01800793          	li	a5,24
   20a88:	fa5ff06f          	j	20a2c <__umoddi3+0x2ac>
   20a8c:	014696b3          	sll	a3,a3,s4
   20a90:	01565bb3          	srl	s7,a2,s5
   20a94:	00dbebb3          	or	s7,s7,a3
   20a98:	0155d9b3          	srl	s3,a1,s5
   20a9c:	01555433          	srl	s0,a0,s5
   20aa0:	014595b3          	sll	a1,a1,s4
   20aa4:	010bd493          	srli	s1,s7,0x10
   20aa8:	00b46433          	or	s0,s0,a1
   20aac:	01451b33          	sll	s6,a0,s4
   20ab0:	00048593          	mv	a1,s1
   20ab4:	00098513          	mv	a0,s3
   20ab8:	010b9c13          	slli	s8,s7,0x10
   20abc:	01461933          	sll	s2,a2,s4
   20ac0:	010c5c13          	srli	s8,s8,0x10
   20ac4:	4a0040ef          	jal	ra,24f64 <__hidden___udivsi3>
   20ac8:	00050593          	mv	a1,a0
   20acc:	00050d13          	mv	s10,a0
   20ad0:	000c0513          	mv	a0,s8
   20ad4:	464040ef          	jal	ra,24f38 <__mulsi3>
   20ad8:	00050c93          	mv	s9,a0
   20adc:	00048593          	mv	a1,s1
   20ae0:	00098513          	mv	a0,s3
   20ae4:	4c8040ef          	jal	ra,24fac <__umodsi3>
   20ae8:	01051513          	slli	a0,a0,0x10
   20aec:	01045793          	srli	a5,s0,0x10
   20af0:	00a7e7b3          	or	a5,a5,a0
   20af4:	000d0993          	mv	s3,s10
   20af8:	0197fe63          	bgeu	a5,s9,20b14 <__umoddi3+0x394>
   20afc:	00fb87b3          	add	a5,s7,a5
   20b00:	fffd0993          	addi	s3,s10,-1
   20b04:	0177e863          	bltu	a5,s7,20b14 <__umoddi3+0x394>
   20b08:	0197f663          	bgeu	a5,s9,20b14 <__umoddi3+0x394>
   20b0c:	ffed0993          	addi	s3,s10,-2
   20b10:	017787b3          	add	a5,a5,s7
   20b14:	41978cb3          	sub	s9,a5,s9
   20b18:	00048593          	mv	a1,s1
   20b1c:	000c8513          	mv	a0,s9
   20b20:	444040ef          	jal	ra,24f64 <__hidden___udivsi3>
   20b24:	00050593          	mv	a1,a0
   20b28:	00050d13          	mv	s10,a0
   20b2c:	000c0513          	mv	a0,s8
   20b30:	408040ef          	jal	ra,24f38 <__mulsi3>
   20b34:	00048593          	mv	a1,s1
   20b38:	00050c13          	mv	s8,a0
   20b3c:	000c8513          	mv	a0,s9
   20b40:	46c040ef          	jal	ra,24fac <__umodsi3>
   20b44:	01041593          	slli	a1,s0,0x10
   20b48:	01051513          	slli	a0,a0,0x10
   20b4c:	0105d593          	srli	a1,a1,0x10
   20b50:	00a5e5b3          	or	a1,a1,a0
   20b54:	000d0793          	mv	a5,s10
   20b58:	0185fe63          	bgeu	a1,s8,20b74 <__umoddi3+0x3f4>
   20b5c:	00bb85b3          	add	a1,s7,a1
   20b60:	fffd0793          	addi	a5,s10,-1
   20b64:	0175e863          	bltu	a1,s7,20b74 <__umoddi3+0x3f4>
   20b68:	0185f663          	bgeu	a1,s8,20b74 <__umoddi3+0x3f4>
   20b6c:	ffed0793          	addi	a5,s10,-2
   20b70:	017585b3          	add	a1,a1,s7
   20b74:	00010e37          	lui	t3,0x10
   20b78:	01099993          	slli	s3,s3,0x10
   20b7c:	00f9e9b3          	or	s3,s3,a5
   20b80:	fffe0793          	addi	a5,t3,-1 # ffff <exit-0x95>
   20b84:	00f9f733          	and	a4,s3,a5
   20b88:	00f977b3          	and	a5,s2,a5
   20b8c:	418584b3          	sub	s1,a1,s8
   20b90:	0109d993          	srli	s3,s3,0x10
   20b94:	01095313          	srli	t1,s2,0x10
   20b98:	00070513          	mv	a0,a4
   20b9c:	00078593          	mv	a1,a5
   20ba0:	398040ef          	jal	ra,24f38 <__mulsi3>
   20ba4:	00050813          	mv	a6,a0
   20ba8:	00030593          	mv	a1,t1
   20bac:	00070513          	mv	a0,a4
   20bb0:	388040ef          	jal	ra,24f38 <__mulsi3>
   20bb4:	00050713          	mv	a4,a0
   20bb8:	00078593          	mv	a1,a5
   20bbc:	00098513          	mv	a0,s3
   20bc0:	378040ef          	jal	ra,24f38 <__mulsi3>
   20bc4:	00050893          	mv	a7,a0
   20bc8:	00030593          	mv	a1,t1
   20bcc:	00098513          	mv	a0,s3
   20bd0:	368040ef          	jal	ra,24f38 <__mulsi3>
   20bd4:	01085793          	srli	a5,a6,0x10
   20bd8:	01170733          	add	a4,a4,a7
   20bdc:	00e787b3          	add	a5,a5,a4
   20be0:	00050693          	mv	a3,a0
   20be4:	0117f463          	bgeu	a5,a7,20bec <__umoddi3+0x46c>
   20be8:	01c506b3          	add	a3,a0,t3
   20bec:	0107d713          	srli	a4,a5,0x10
   20bf0:	00d70733          	add	a4,a4,a3
   20bf4:	000106b7          	lui	a3,0x10
   20bf8:	fff68693          	addi	a3,a3,-1 # ffff <exit-0x95>
   20bfc:	00d7f7b3          	and	a5,a5,a3
   20c00:	01079793          	slli	a5,a5,0x10
   20c04:	00d87833          	and	a6,a6,a3
   20c08:	010787b3          	add	a5,a5,a6
   20c0c:	00e4e663          	bltu	s1,a4,20c18 <__umoddi3+0x498>
   20c10:	00e49e63          	bne	s1,a4,20c2c <__umoddi3+0x4ac>
   20c14:	00fb7c63          	bgeu	s6,a5,20c2c <__umoddi3+0x4ac>
   20c18:	41278933          	sub	s2,a5,s2
   20c1c:	0127b6b3          	sltu	a3,a5,s2
   20c20:	017686b3          	add	a3,a3,s7
   20c24:	00090793          	mv	a5,s2
   20c28:	40d70733          	sub	a4,a4,a3
   20c2c:	40fb07b3          	sub	a5,s6,a5
   20c30:	00fb3b33          	sltu	s6,s6,a5
   20c34:	40e485b3          	sub	a1,s1,a4
   20c38:	416585b3          	sub	a1,a1,s6
   20c3c:	01559ab3          	sll	s5,a1,s5
   20c40:	0147d7b3          	srl	a5,a5,s4
   20c44:	00fae533          	or	a0,s5,a5
   20c48:	0145d5b3          	srl	a1,a1,s4
   20c4c:	c71ff06f          	j	208bc <__umoddi3+0x13c>

00020c50 <__divdf3>:
   20c50:	fb010113          	addi	sp,sp,-80
   20c54:	05212023          	sw	s2,64(sp)
   20c58:	0145d913          	srli	s2,a1,0x14
   20c5c:	04812423          	sw	s0,72(sp)
   20c60:	03312e23          	sw	s3,60(sp)
   20c64:	03412c23          	sw	s4,56(sp)
   20c68:	03512a23          	sw	s5,52(sp)
   20c6c:	03812423          	sw	s8,40(sp)
   20c70:	00c59413          	slli	s0,a1,0xc
   20c74:	04112623          	sw	ra,76(sp)
   20c78:	04912223          	sw	s1,68(sp)
   20c7c:	03612823          	sw	s6,48(sp)
   20c80:	03712623          	sw	s7,44(sp)
   20c84:	03912223          	sw	s9,36(sp)
   20c88:	03a12023          	sw	s10,32(sp)
   20c8c:	01b12e23          	sw	s11,28(sp)
   20c90:	7ff97913          	andi	s2,s2,2047
   20c94:	00050993          	mv	s3,a0
   20c98:	00060c13          	mv	s8,a2
   20c9c:	00068a13          	mv	s4,a3
   20ca0:	00c45413          	srli	s0,s0,0xc
   20ca4:	01f5da93          	srli	s5,a1,0x1f
   20ca8:	0a090063          	beqz	s2,20d48 <__divdf3+0xf8>
   20cac:	7ff00793          	li	a5,2047
   20cb0:	10f90063          	beq	s2,a5,20db0 <__divdf3+0x160>
   20cb4:	01d55b13          	srli	s6,a0,0x1d
   20cb8:	00341413          	slli	s0,s0,0x3
   20cbc:	008b6b33          	or	s6,s6,s0
   20cc0:	008007b7          	lui	a5,0x800
   20cc4:	00fb6b33          	or	s6,s6,a5
   20cc8:	00351493          	slli	s1,a0,0x3
   20ccc:	c0190913          	addi	s2,s2,-1023
   20cd0:	00000b93          	li	s7,0
   20cd4:	014a5713          	srli	a4,s4,0x14
   20cd8:	00ca1413          	slli	s0,s4,0xc
   20cdc:	7ff77713          	andi	a4,a4,2047
   20ce0:	00c45413          	srli	s0,s0,0xc
   20ce4:	01fa5a13          	srli	s4,s4,0x1f
   20ce8:	10070263          	beqz	a4,20dec <__divdf3+0x19c>
   20cec:	7ff00793          	li	a5,2047
   20cf0:	16f70663          	beq	a4,a5,20e5c <__divdf3+0x20c>
   20cf4:	00341413          	slli	s0,s0,0x3
   20cf8:	01dc5793          	srli	a5,s8,0x1d
   20cfc:	0087e7b3          	or	a5,a5,s0
   20d00:	00800437          	lui	s0,0x800
   20d04:	0087e433          	or	s0,a5,s0
   20d08:	003c1693          	slli	a3,s8,0x3
   20d0c:	c0170713          	addi	a4,a4,-1023 # fffc01 <__BSS_END__+0xfd9119>
   20d10:	00000613          	li	a2,0
   20d14:	002b9793          	slli	a5,s7,0x2
   20d18:	00c7e7b3          	or	a5,a5,a2
   20d1c:	40e90933          	sub	s2,s2,a4
   20d20:	fff78793          	addi	a5,a5,-1 # 7fffff <__BSS_END__+0x7d9517>
   20d24:	00e00713          	li	a4,14
   20d28:	014ac9b3          	xor	s3,s5,s4
   20d2c:	18f76c63          	bltu	a4,a5,20ec4 <__divdf3+0x274>
   20d30:	00026737          	lui	a4,0x26
   20d34:	00279793          	slli	a5,a5,0x2
   20d38:	e3870713          	addi	a4,a4,-456 # 25e38 <_ctype_+0x104>
   20d3c:	00e787b3          	add	a5,a5,a4
   20d40:	0007a783          	lw	a5,0(a5)
   20d44:	00078067          	jr	a5
   20d48:	00a46b33          	or	s6,s0,a0
   20d4c:	080b0063          	beqz	s6,20dcc <__divdf3+0x17c>
   20d50:	02040e63          	beqz	s0,20d8c <__divdf3+0x13c>
   20d54:	00040513          	mv	a0,s0
   20d58:	2b8040ef          	jal	ra,25010 <__clzsi2>
   20d5c:	ff550793          	addi	a5,a0,-11
   20d60:	01d00b13          	li	s6,29
   20d64:	ff850713          	addi	a4,a0,-8
   20d68:	40fb0b33          	sub	s6,s6,a5
   20d6c:	00e41433          	sll	s0,s0,a4
   20d70:	0169db33          	srl	s6,s3,s6
   20d74:	008b6b33          	or	s6,s6,s0
   20d78:	00e99433          	sll	s0,s3,a4
   20d7c:	c0d00913          	li	s2,-1011
   20d80:	40a90933          	sub	s2,s2,a0
   20d84:	00040493          	mv	s1,s0
   20d88:	f49ff06f          	j	20cd0 <__divdf3+0x80>
   20d8c:	284040ef          	jal	ra,25010 <__clzsi2>
   20d90:	00050b13          	mv	s6,a0
   20d94:	015b0793          	addi	a5,s6,21
   20d98:	01c00713          	li	a4,28
   20d9c:	02050513          	addi	a0,a0,32
   20da0:	fcf750e3          	bge	a4,a5,20d60 <__divdf3+0x110>
   20da4:	ff8b0b13          	addi	s6,s6,-8
   20da8:	01699b33          	sll	s6,s3,s6
   20dac:	fd1ff06f          	j	20d7c <__divdf3+0x12c>
   20db0:	00a46b33          	or	s6,s0,a0
   20db4:	020b0463          	beqz	s6,20ddc <__divdf3+0x18c>
   20db8:	00050493          	mv	s1,a0
   20dbc:	00040b13          	mv	s6,s0
   20dc0:	7ff00913          	li	s2,2047
   20dc4:	00300b93          	li	s7,3
   20dc8:	f0dff06f          	j	20cd4 <__divdf3+0x84>
   20dcc:	00000493          	li	s1,0
   20dd0:	00000913          	li	s2,0
   20dd4:	00100b93          	li	s7,1
   20dd8:	efdff06f          	j	20cd4 <__divdf3+0x84>
   20ddc:	00000493          	li	s1,0
   20de0:	7ff00913          	li	s2,2047
   20de4:	00200b93          	li	s7,2
   20de8:	eedff06f          	j	20cd4 <__divdf3+0x84>
   20dec:	018466b3          	or	a3,s0,s8
   20df0:	08068263          	beqz	a3,20e74 <__divdf3+0x224>
   20df4:	04040063          	beqz	s0,20e34 <__divdf3+0x1e4>
   20df8:	00040513          	mv	a0,s0
   20dfc:	214040ef          	jal	ra,25010 <__clzsi2>
   20e00:	ff550713          	addi	a4,a0,-11
   20e04:	01d00793          	li	a5,29
   20e08:	ff850693          	addi	a3,a0,-8
   20e0c:	40e787b3          	sub	a5,a5,a4
   20e10:	00d41433          	sll	s0,s0,a3
   20e14:	00fc57b3          	srl	a5,s8,a5
   20e18:	0087e7b3          	or	a5,a5,s0
   20e1c:	00dc1433          	sll	s0,s8,a3
   20e20:	c0d00713          	li	a4,-1011
   20e24:	00040693          	mv	a3,s0
   20e28:	40a70733          	sub	a4,a4,a0
   20e2c:	00078413          	mv	s0,a5
   20e30:	ee1ff06f          	j	20d10 <__divdf3+0xc0>
   20e34:	000c0513          	mv	a0,s8
   20e38:	1d8040ef          	jal	ra,25010 <__clzsi2>
   20e3c:	00050793          	mv	a5,a0
   20e40:	01578713          	addi	a4,a5,21
   20e44:	01c00693          	li	a3,28
   20e48:	02050513          	addi	a0,a0,32
   20e4c:	fae6dce3          	bge	a3,a4,20e04 <__divdf3+0x1b4>
   20e50:	ff878793          	addi	a5,a5,-8
   20e54:	00fc17b3          	sll	a5,s8,a5
   20e58:	fc9ff06f          	j	20e20 <__divdf3+0x1d0>
   20e5c:	018466b3          	or	a3,s0,s8
   20e60:	02068263          	beqz	a3,20e84 <__divdf3+0x234>
   20e64:	000c0693          	mv	a3,s8
   20e68:	7ff00713          	li	a4,2047
   20e6c:	00300613          	li	a2,3
   20e70:	ea5ff06f          	j	20d14 <__divdf3+0xc4>
   20e74:	00000413          	li	s0,0
   20e78:	00000713          	li	a4,0
   20e7c:	00100613          	li	a2,1
   20e80:	e95ff06f          	j	20d14 <__divdf3+0xc4>
   20e84:	00000413          	li	s0,0
   20e88:	7ff00713          	li	a4,2047
   20e8c:	00200613          	li	a2,2
   20e90:	e85ff06f          	j	20d14 <__divdf3+0xc4>
   20e94:	000a8993          	mv	s3,s5
   20e98:	000b0413          	mv	s0,s6
   20e9c:	00048693          	mv	a3,s1
   20ea0:	00200793          	li	a5,2
   20ea4:	54fb8c63          	beq	s7,a5,213fc <__divdf3+0x7ac>
   20ea8:	00300793          	li	a5,3
   20eac:	52fb8e63          	beq	s7,a5,213e8 <__divdf3+0x798>
   20eb0:	00100793          	li	a5,1
   20eb4:	3afb9463          	bne	s7,a5,2125c <__divdf3+0x60c>
   20eb8:	00000413          	li	s0,0
   20ebc:	00000713          	li	a4,0
   20ec0:	4ec0006f          	j	213ac <__divdf3+0x75c>
   20ec4:	01646663          	bltu	s0,s6,20ed0 <__divdf3+0x280>
   20ec8:	448b1863          	bne	s6,s0,21318 <__divdf3+0x6c8>
   20ecc:	44d4e663          	bltu	s1,a3,21318 <__divdf3+0x6c8>
   20ed0:	01fb1713          	slli	a4,s6,0x1f
   20ed4:	0014d793          	srli	a5,s1,0x1
   20ed8:	01f49d13          	slli	s10,s1,0x1f
   20edc:	001b5b13          	srli	s6,s6,0x1
   20ee0:	00f764b3          	or	s1,a4,a5
   20ee4:	0186dc13          	srli	s8,a3,0x18
   20ee8:	00841413          	slli	s0,s0,0x8
   20eec:	01045793          	srli	a5,s0,0x10
   20ef0:	008c6c33          	or	s8,s8,s0
   20ef4:	00078593          	mv	a1,a5
   20ef8:	000b0513          	mv	a0,s6
   20efc:	010c1a93          	slli	s5,s8,0x10
   20f00:	00f12623          	sw	a5,12(sp)
   20f04:	00869c93          	slli	s9,a3,0x8
   20f08:	010ada93          	srli	s5,s5,0x10
   20f0c:	058040ef          	jal	ra,24f64 <__hidden___udivsi3>
   20f10:	00050593          	mv	a1,a0
   20f14:	00050b93          	mv	s7,a0
   20f18:	000a8513          	mv	a0,s5
   20f1c:	01c040ef          	jal	ra,24f38 <__mulsi3>
   20f20:	00c12583          	lw	a1,12(sp)
   20f24:	00050413          	mv	s0,a0
   20f28:	000b0513          	mv	a0,s6
   20f2c:	080040ef          	jal	ra,24fac <__umodsi3>
   20f30:	01051513          	slli	a0,a0,0x10
   20f34:	0104d793          	srli	a5,s1,0x10
   20f38:	00a7e7b3          	or	a5,a5,a0
   20f3c:	000b8b13          	mv	s6,s7
   20f40:	0087fe63          	bgeu	a5,s0,20f5c <__divdf3+0x30c>
   20f44:	00fc07b3          	add	a5,s8,a5
   20f48:	fffb8b13          	addi	s6,s7,-1
   20f4c:	0187e863          	bltu	a5,s8,20f5c <__divdf3+0x30c>
   20f50:	0087f663          	bgeu	a5,s0,20f5c <__divdf3+0x30c>
   20f54:	ffeb8b13          	addi	s6,s7,-2
   20f58:	018787b3          	add	a5,a5,s8
   20f5c:	00c12583          	lw	a1,12(sp)
   20f60:	40878433          	sub	s0,a5,s0
   20f64:	00040513          	mv	a0,s0
   20f68:	7fd030ef          	jal	ra,24f64 <__hidden___udivsi3>
   20f6c:	00050593          	mv	a1,a0
   20f70:	00050d93          	mv	s11,a0
   20f74:	000a8513          	mv	a0,s5
   20f78:	7c1030ef          	jal	ra,24f38 <__mulsi3>
   20f7c:	00c12583          	lw	a1,12(sp)
   20f80:	00050b93          	mv	s7,a0
   20f84:	00040513          	mv	a0,s0
   20f88:	024040ef          	jal	ra,24fac <__umodsi3>
   20f8c:	01049793          	slli	a5,s1,0x10
   20f90:	01051513          	slli	a0,a0,0x10
   20f94:	0107d793          	srli	a5,a5,0x10
   20f98:	00a7e7b3          	or	a5,a5,a0
   20f9c:	000d8713          	mv	a4,s11
   20fa0:	0177fe63          	bgeu	a5,s7,20fbc <__divdf3+0x36c>
   20fa4:	00fc07b3          	add	a5,s8,a5
   20fa8:	fffd8713          	addi	a4,s11,-1
   20fac:	0187e863          	bltu	a5,s8,20fbc <__divdf3+0x36c>
   20fb0:	0177f663          	bgeu	a5,s7,20fbc <__divdf3+0x36c>
   20fb4:	ffed8713          	addi	a4,s11,-2
   20fb8:	018787b3          	add	a5,a5,s8
   20fbc:	010b1813          	slli	a6,s6,0x10
   20fc0:	00010eb7          	lui	t4,0x10
   20fc4:	00e86833          	or	a6,a6,a4
   20fc8:	fffe8b13          	addi	s6,t4,-1 # ffff <exit-0x95>
   20fcc:	016878b3          	and	a7,a6,s6
   20fd0:	016cfb33          	and	s6,s9,s6
   20fd4:	417787b3          	sub	a5,a5,s7
   20fd8:	01085713          	srli	a4,a6,0x10
   20fdc:	010cdb93          	srli	s7,s9,0x10
   20fe0:	00088513          	mv	a0,a7
   20fe4:	000b0593          	mv	a1,s6
   20fe8:	751030ef          	jal	ra,24f38 <__mulsi3>
   20fec:	00050313          	mv	t1,a0
   20ff0:	000b8593          	mv	a1,s7
   20ff4:	00088513          	mv	a0,a7
   20ff8:	741030ef          	jal	ra,24f38 <__mulsi3>
   20ffc:	00050893          	mv	a7,a0
   21000:	000b0593          	mv	a1,s6
   21004:	00070513          	mv	a0,a4
   21008:	731030ef          	jal	ra,24f38 <__mulsi3>
   2100c:	00050e13          	mv	t3,a0
   21010:	000b8593          	mv	a1,s7
   21014:	00070513          	mv	a0,a4
   21018:	721030ef          	jal	ra,24f38 <__mulsi3>
   2101c:	01035713          	srli	a4,t1,0x10
   21020:	01c888b3          	add	a7,a7,t3
   21024:	01170733          	add	a4,a4,a7
   21028:	00050613          	mv	a2,a0
   2102c:	01c77463          	bgeu	a4,t3,21034 <__divdf3+0x3e4>
   21030:	01d50633          	add	a2,a0,t4
   21034:	01075693          	srli	a3,a4,0x10
   21038:	00c686b3          	add	a3,a3,a2
   2103c:	00010637          	lui	a2,0x10
   21040:	fff60613          	addi	a2,a2,-1 # ffff <exit-0x95>
   21044:	00c77733          	and	a4,a4,a2
   21048:	01071713          	slli	a4,a4,0x10
   2104c:	00c37333          	and	t1,t1,a2
   21050:	00670733          	add	a4,a4,t1
   21054:	00d7e863          	bltu	a5,a3,21064 <__divdf3+0x414>
   21058:	00080413          	mv	s0,a6
   2105c:	04d79863          	bne	a5,a3,210ac <__divdf3+0x45c>
   21060:	04ed7663          	bgeu	s10,a4,210ac <__divdf3+0x45c>
   21064:	019d0633          	add	a2,s10,s9
   21068:	01a635b3          	sltu	a1,a2,s10
   2106c:	01858533          	add	a0,a1,s8
   21070:	00a787b3          	add	a5,a5,a0
   21074:	fff80413          	addi	s0,a6,-1
   21078:	00060d13          	mv	s10,a2
   2107c:	00fc6663          	bltu	s8,a5,21088 <__divdf3+0x438>
   21080:	02fc1663          	bne	s8,a5,210ac <__divdf3+0x45c>
   21084:	02059463          	bnez	a1,210ac <__divdf3+0x45c>
   21088:	00d7e663          	bltu	a5,a3,21094 <__divdf3+0x444>
   2108c:	02f69063          	bne	a3,a5,210ac <__divdf3+0x45c>
   21090:	00e67e63          	bgeu	a2,a4,210ac <__divdf3+0x45c>
   21094:	00cc8633          	add	a2,s9,a2
   21098:	00060d13          	mv	s10,a2
   2109c:	01963633          	sltu	a2,a2,s9
   210a0:	01860633          	add	a2,a2,s8
   210a4:	ffe80413          	addi	s0,a6,-2
   210a8:	00c787b3          	add	a5,a5,a2
   210ac:	40ed0db3          	sub	s11,s10,a4
   210b0:	40d787b3          	sub	a5,a5,a3
   210b4:	01bd3d33          	sltu	s10,s10,s11
   210b8:	41a784b3          	sub	s1,a5,s10
   210bc:	fff00693          	li	a3,-1
   210c0:	189c0e63          	beq	s8,s1,2125c <__divdf3+0x60c>
   210c4:	00c12583          	lw	a1,12(sp)
   210c8:	00048513          	mv	a0,s1
   210cc:	699030ef          	jal	ra,24f64 <__hidden___udivsi3>
   210d0:	00050593          	mv	a1,a0
   210d4:	00050a13          	mv	s4,a0
   210d8:	000a8513          	mv	a0,s5
   210dc:	65d030ef          	jal	ra,24f38 <__mulsi3>
   210e0:	00c12583          	lw	a1,12(sp)
   210e4:	00050d13          	mv	s10,a0
   210e8:	00048513          	mv	a0,s1
   210ec:	6c1030ef          	jal	ra,24fac <__umodsi3>
   210f0:	01051513          	slli	a0,a0,0x10
   210f4:	010dd693          	srli	a3,s11,0x10
   210f8:	00a6e6b3          	or	a3,a3,a0
   210fc:	000a0493          	mv	s1,s4
   21100:	01a6fe63          	bgeu	a3,s10,2111c <__divdf3+0x4cc>
   21104:	00dc06b3          	add	a3,s8,a3
   21108:	fffa0493          	addi	s1,s4,-1
   2110c:	0186e863          	bltu	a3,s8,2111c <__divdf3+0x4cc>
   21110:	01a6f663          	bgeu	a3,s10,2111c <__divdf3+0x4cc>
   21114:	ffea0493          	addi	s1,s4,-2
   21118:	018686b3          	add	a3,a3,s8
   2111c:	00c12583          	lw	a1,12(sp)
   21120:	41a68a33          	sub	s4,a3,s10
   21124:	000a0513          	mv	a0,s4
   21128:	63d030ef          	jal	ra,24f64 <__hidden___udivsi3>
   2112c:	00050593          	mv	a1,a0
   21130:	00050d13          	mv	s10,a0
   21134:	000a8513          	mv	a0,s5
   21138:	601030ef          	jal	ra,24f38 <__mulsi3>
   2113c:	00c12583          	lw	a1,12(sp)
   21140:	00050a93          	mv	s5,a0
   21144:	000a0513          	mv	a0,s4
   21148:	665030ef          	jal	ra,24fac <__umodsi3>
   2114c:	010d9793          	slli	a5,s11,0x10
   21150:	01051513          	slli	a0,a0,0x10
   21154:	0107d793          	srli	a5,a5,0x10
   21158:	00a7e7b3          	or	a5,a5,a0
   2115c:	000d0713          	mv	a4,s10
   21160:	0157fe63          	bgeu	a5,s5,2117c <__divdf3+0x52c>
   21164:	00fc07b3          	add	a5,s8,a5
   21168:	fffd0713          	addi	a4,s10,-1
   2116c:	0187e863          	bltu	a5,s8,2117c <__divdf3+0x52c>
   21170:	0157f663          	bgeu	a5,s5,2117c <__divdf3+0x52c>
   21174:	ffed0713          	addi	a4,s10,-2
   21178:	018787b3          	add	a5,a5,s8
   2117c:	01049813          	slli	a6,s1,0x10
   21180:	00e86833          	or	a6,a6,a4
   21184:	01081893          	slli	a7,a6,0x10
   21188:	0108d893          	srli	a7,a7,0x10
   2118c:	415787b3          	sub	a5,a5,s5
   21190:	01085713          	srli	a4,a6,0x10
   21194:	00088513          	mv	a0,a7
   21198:	000b0593          	mv	a1,s6
   2119c:	59d030ef          	jal	ra,24f38 <__mulsi3>
   211a0:	00050313          	mv	t1,a0
   211a4:	000b8593          	mv	a1,s7
   211a8:	00088513          	mv	a0,a7
   211ac:	58d030ef          	jal	ra,24f38 <__mulsi3>
   211b0:	00050893          	mv	a7,a0
   211b4:	000b0593          	mv	a1,s6
   211b8:	00070513          	mv	a0,a4
   211bc:	57d030ef          	jal	ra,24f38 <__mulsi3>
   211c0:	00050e13          	mv	t3,a0
   211c4:	000b8593          	mv	a1,s7
   211c8:	00070513          	mv	a0,a4
   211cc:	56d030ef          	jal	ra,24f38 <__mulsi3>
   211d0:	01035713          	srli	a4,t1,0x10
   211d4:	01c888b3          	add	a7,a7,t3
   211d8:	01170733          	add	a4,a4,a7
   211dc:	00050693          	mv	a3,a0
   211e0:	01c77663          	bgeu	a4,t3,211ec <__divdf3+0x59c>
   211e4:	00010637          	lui	a2,0x10
   211e8:	00c506b3          	add	a3,a0,a2
   211ec:	01075613          	srli	a2,a4,0x10
   211f0:	00d60633          	add	a2,a2,a3
   211f4:	000106b7          	lui	a3,0x10
   211f8:	fff68693          	addi	a3,a3,-1 # ffff <exit-0x95>
   211fc:	00d77733          	and	a4,a4,a3
   21200:	01071713          	slli	a4,a4,0x10
   21204:	00d37333          	and	t1,t1,a3
   21208:	00670733          	add	a4,a4,t1
   2120c:	00c7e863          	bltu	a5,a2,2121c <__divdf3+0x5cc>
   21210:	00080693          	mv	a3,a6
   21214:	04c79263          	bne	a5,a2,21258 <__divdf3+0x608>
   21218:	04070263          	beqz	a4,2125c <__divdf3+0x60c>
   2121c:	00fc07b3          	add	a5,s8,a5
   21220:	fff80693          	addi	a3,a6,-1
   21224:	00078593          	mv	a1,a5
   21228:	0387e463          	bltu	a5,s8,21250 <__divdf3+0x600>
   2122c:	00c7e663          	bltu	a5,a2,21238 <__divdf3+0x5e8>
   21230:	02c79463          	bne	a5,a2,21258 <__divdf3+0x608>
   21234:	02ecf063          	bgeu	s9,a4,21254 <__divdf3+0x604>
   21238:	001c9513          	slli	a0,s9,0x1
   2123c:	019535b3          	sltu	a1,a0,s9
   21240:	018585b3          	add	a1,a1,s8
   21244:	ffe80693          	addi	a3,a6,-2
   21248:	00b785b3          	add	a1,a5,a1
   2124c:	00050c93          	mv	s9,a0
   21250:	00c59463          	bne	a1,a2,21258 <__divdf3+0x608>
   21254:	01970463          	beq	a4,s9,2125c <__divdf3+0x60c>
   21258:	0016e693          	ori	a3,a3,1
   2125c:	3ff90793          	addi	a5,s2,1023
   21260:	0cf05863          	blez	a5,21330 <__divdf3+0x6e0>
   21264:	0076f713          	andi	a4,a3,7
   21268:	02070063          	beqz	a4,21288 <__divdf3+0x638>
   2126c:	00f6f713          	andi	a4,a3,15
   21270:	00400613          	li	a2,4
   21274:	00c70a63          	beq	a4,a2,21288 <__divdf3+0x638>
   21278:	00468713          	addi	a4,a3,4
   2127c:	00d73633          	sltu	a2,a4,a3
   21280:	00c40433          	add	s0,s0,a2
   21284:	00070693          	mv	a3,a4
   21288:	01000737          	lui	a4,0x1000
   2128c:	00e47733          	and	a4,s0,a4
   21290:	00070a63          	beqz	a4,212a4 <__divdf3+0x654>
   21294:	ff0007b7          	lui	a5,0xff000
   21298:	fff78793          	addi	a5,a5,-1 # feffffff <__BSS_END__+0xfefd9517>
   2129c:	00f47433          	and	s0,s0,a5
   212a0:	40090793          	addi	a5,s2,1024
   212a4:	7fe00713          	li	a4,2046
   212a8:	14f74a63          	blt	a4,a5,213fc <__divdf3+0x7ac>
   212ac:	01d41713          	slli	a4,s0,0x1d
   212b0:	0036d693          	srli	a3,a3,0x3
   212b4:	00d76733          	or	a4,a4,a3
   212b8:	00345413          	srli	s0,s0,0x3
   212bc:	00c41413          	slli	s0,s0,0xc
   212c0:	00c45413          	srli	s0,s0,0xc
   212c4:	01479793          	slli	a5,a5,0x14
   212c8:	04c12083          	lw	ra,76(sp)
   212cc:	0087e7b3          	or	a5,a5,s0
   212d0:	04812403          	lw	s0,72(sp)
   212d4:	01f99993          	slli	s3,s3,0x1f
   212d8:	0137e6b3          	or	a3,a5,s3
   212dc:	04412483          	lw	s1,68(sp)
   212e0:	04012903          	lw	s2,64(sp)
   212e4:	03c12983          	lw	s3,60(sp)
   212e8:	03812a03          	lw	s4,56(sp)
   212ec:	03412a83          	lw	s5,52(sp)
   212f0:	03012b03          	lw	s6,48(sp)
   212f4:	02c12b83          	lw	s7,44(sp)
   212f8:	02812c03          	lw	s8,40(sp)
   212fc:	02412c83          	lw	s9,36(sp)
   21300:	02012d03          	lw	s10,32(sp)
   21304:	01c12d83          	lw	s11,28(sp)
   21308:	00070513          	mv	a0,a4
   2130c:	00068593          	mv	a1,a3
   21310:	05010113          	addi	sp,sp,80
   21314:	00008067          	ret
   21318:	fff90913          	addi	s2,s2,-1
   2131c:	00000d13          	li	s10,0
   21320:	bc5ff06f          	j	20ee4 <__divdf3+0x294>
   21324:	000a0993          	mv	s3,s4
   21328:	00060b93          	mv	s7,a2
   2132c:	b75ff06f          	j	20ea0 <__divdf3+0x250>
   21330:	00100613          	li	a2,1
   21334:	00078c63          	beqz	a5,2134c <__divdf3+0x6fc>
   21338:	40f60633          	sub	a2,a2,a5
   2133c:	03800713          	li	a4,56
   21340:	b6c74ce3          	blt	a4,a2,20eb8 <__divdf3+0x268>
   21344:	01f00713          	li	a4,31
   21348:	06c74663          	blt	a4,a2,213b4 <__divdf3+0x764>
   2134c:	41e90913          	addi	s2,s2,1054
   21350:	00c6d7b3          	srl	a5,a3,a2
   21354:	012696b3          	sll	a3,a3,s2
   21358:	00d036b3          	snez	a3,a3
   2135c:	01241933          	sll	s2,s0,s2
   21360:	0126e6b3          	or	a3,a3,s2
   21364:	00d7e7b3          	or	a5,a5,a3
   21368:	00c45433          	srl	s0,s0,a2
   2136c:	0077f713          	andi	a4,a5,7
   21370:	02070063          	beqz	a4,21390 <__divdf3+0x740>
   21374:	00f7f713          	andi	a4,a5,15
   21378:	00400693          	li	a3,4
   2137c:	00d70a63          	beq	a4,a3,21390 <__divdf3+0x740>
   21380:	00478713          	addi	a4,a5,4
   21384:	00f736b3          	sltu	a3,a4,a5
   21388:	00d40433          	add	s0,s0,a3
   2138c:	00070793          	mv	a5,a4
   21390:	00800737          	lui	a4,0x800
   21394:	00e47733          	and	a4,s0,a4
   21398:	06071a63          	bnez	a4,2140c <__divdf3+0x7bc>
   2139c:	01d41713          	slli	a4,s0,0x1d
   213a0:	0037d793          	srli	a5,a5,0x3
   213a4:	00f76733          	or	a4,a4,a5
   213a8:	00345413          	srli	s0,s0,0x3
   213ac:	00000793          	li	a5,0
   213b0:	f0dff06f          	j	212bc <__divdf3+0x66c>
   213b4:	fe100713          	li	a4,-31
   213b8:	40f707b3          	sub	a5,a4,a5
   213bc:	02000593          	li	a1,32
   213c0:	00f457b3          	srl	a5,s0,a5
   213c4:	00000713          	li	a4,0
   213c8:	00b60663          	beq	a2,a1,213d4 <__divdf3+0x784>
   213cc:	43e90913          	addi	s2,s2,1086
   213d0:	01241733          	sll	a4,s0,s2
   213d4:	00d76733          	or	a4,a4,a3
   213d8:	00e03733          	snez	a4,a4
   213dc:	00e7e7b3          	or	a5,a5,a4
   213e0:	00000413          	li	s0,0
   213e4:	f89ff06f          	j	2136c <__divdf3+0x71c>
   213e8:	00080437          	lui	s0,0x80
   213ec:	00000713          	li	a4,0
   213f0:	7ff00793          	li	a5,2047
   213f4:	00000993          	li	s3,0
   213f8:	ec5ff06f          	j	212bc <__divdf3+0x66c>
   213fc:	00000413          	li	s0,0
   21400:	00000713          	li	a4,0
   21404:	7ff00793          	li	a5,2047
   21408:	eb5ff06f          	j	212bc <__divdf3+0x66c>
   2140c:	00000413          	li	s0,0
   21410:	00000713          	li	a4,0
   21414:	00100793          	li	a5,1
   21418:	ea5ff06f          	j	212bc <__divdf3+0x66c>

0002141c <__muldf3>:
   2141c:	fd010113          	addi	sp,sp,-48
   21420:	01512a23          	sw	s5,20(sp)
   21424:	0145da93          	srli	s5,a1,0x14
   21428:	02812423          	sw	s0,40(sp)
   2142c:	02912223          	sw	s1,36(sp)
   21430:	03212023          	sw	s2,32(sp)
   21434:	01312e23          	sw	s3,28(sp)
   21438:	01612823          	sw	s6,16(sp)
   2143c:	00c59493          	slli	s1,a1,0xc
   21440:	02112623          	sw	ra,44(sp)
   21444:	01412c23          	sw	s4,24(sp)
   21448:	01712623          	sw	s7,12(sp)
   2144c:	7ffafa93          	andi	s5,s5,2047
   21450:	00050413          	mv	s0,a0
   21454:	00060b13          	mv	s6,a2
   21458:	00068913          	mv	s2,a3
   2145c:	00c4d493          	srli	s1,s1,0xc
   21460:	01f5d993          	srli	s3,a1,0x1f
   21464:	3c0a8063          	beqz	s5,21824 <__muldf3+0x408>
   21468:	7ff00793          	li	a5,2047
   2146c:	42fa8263          	beq	s5,a5,21890 <__muldf3+0x474>
   21470:	00349493          	slli	s1,s1,0x3
   21474:	01d55793          	srli	a5,a0,0x1d
   21478:	0097e7b3          	or	a5,a5,s1
   2147c:	008004b7          	lui	s1,0x800
   21480:	0097e4b3          	or	s1,a5,s1
   21484:	00351a13          	slli	s4,a0,0x3
   21488:	c01a8a93          	addi	s5,s5,-1023
   2148c:	00000b93          	li	s7,0
   21490:	01495713          	srli	a4,s2,0x14
   21494:	00c91413          	slli	s0,s2,0xc
   21498:	7ff77713          	andi	a4,a4,2047
   2149c:	00c45413          	srli	s0,s0,0xc
   214a0:	01f95913          	srli	s2,s2,0x1f
   214a4:	42070263          	beqz	a4,218c8 <__muldf3+0x4ac>
   214a8:	7ff00793          	li	a5,2047
   214ac:	48f70663          	beq	a4,a5,21938 <__muldf3+0x51c>
   214b0:	00341413          	slli	s0,s0,0x3
   214b4:	01db5793          	srli	a5,s6,0x1d
   214b8:	0087e7b3          	or	a5,a5,s0
   214bc:	00800437          	lui	s0,0x800
   214c0:	0087e433          	or	s0,a5,s0
   214c4:	c0170693          	addi	a3,a4,-1023 # 7ffc01 <__BSS_END__+0x7d9119>
   214c8:	003b1793          	slli	a5,s6,0x3
   214cc:	00000613          	li	a2,0
   214d0:	002b9713          	slli	a4,s7,0x2
   214d4:	00da8ab3          	add	s5,s5,a3
   214d8:	00c76733          	or	a4,a4,a2
   214dc:	00a00693          	li	a3,10
   214e0:	0129c833          	xor	a6,s3,s2
   214e4:	001a8893          	addi	a7,s5,1
   214e8:	4ce6c863          	blt	a3,a4,219b8 <__muldf3+0x59c>
   214ec:	00200693          	li	a3,2
   214f0:	48e6c063          	blt	a3,a4,21970 <__muldf3+0x554>
   214f4:	fff70713          	addi	a4,a4,-1
   214f8:	00100693          	li	a3,1
   214fc:	48e6fc63          	bgeu	a3,a4,21994 <__muldf3+0x578>
   21500:	00010937          	lui	s2,0x10
   21504:	fff90e13          	addi	t3,s2,-1 # ffff <exit-0x95>
   21508:	010a5293          	srli	t0,s4,0x10
   2150c:	01c7ffb3          	and	t6,a5,t3
   21510:	01ca7a33          	and	s4,s4,t3
   21514:	0107df13          	srli	t5,a5,0x10
   21518:	000a0513          	mv	a0,s4
   2151c:	000f8593          	mv	a1,t6
   21520:	219030ef          	jal	ra,24f38 <__mulsi3>
   21524:	00050793          	mv	a5,a0
   21528:	000f0593          	mv	a1,t5
   2152c:	000a0513          	mv	a0,s4
   21530:	209030ef          	jal	ra,24f38 <__mulsi3>
   21534:	00050e93          	mv	t4,a0
   21538:	000f8593          	mv	a1,t6
   2153c:	00028513          	mv	a0,t0
   21540:	1f9030ef          	jal	ra,24f38 <__mulsi3>
   21544:	00050393          	mv	t2,a0
   21548:	000f0593          	mv	a1,t5
   2154c:	00028513          	mv	a0,t0
   21550:	1e9030ef          	jal	ra,24f38 <__mulsi3>
   21554:	0107d313          	srli	t1,a5,0x10
   21558:	007e8eb3          	add	t4,t4,t2
   2155c:	01d30333          	add	t1,t1,t4
   21560:	00050713          	mv	a4,a0
   21564:	00737463          	bgeu	t1,t2,2156c <__muldf3+0x150>
   21568:	01250733          	add	a4,a0,s2
   2156c:	01035993          	srli	s3,t1,0x10
   21570:	01c37333          	and	t1,t1,t3
   21574:	01c7f7b3          	and	a5,a5,t3
   21578:	01031313          	slli	t1,t1,0x10
   2157c:	01c47e33          	and	t3,s0,t3
   21580:	00f30333          	add	t1,t1,a5
   21584:	01045913          	srli	s2,s0,0x10
   21588:	000a0513          	mv	a0,s4
   2158c:	000e0593          	mv	a1,t3
   21590:	1a9030ef          	jal	ra,24f38 <__mulsi3>
   21594:	00050393          	mv	t2,a0
   21598:	00090593          	mv	a1,s2
   2159c:	000a0513          	mv	a0,s4
   215a0:	199030ef          	jal	ra,24f38 <__mulsi3>
   215a4:	00050e93          	mv	t4,a0
   215a8:	000e0593          	mv	a1,t3
   215ac:	00028513          	mv	a0,t0
   215b0:	189030ef          	jal	ra,24f38 <__mulsi3>
   215b4:	00050413          	mv	s0,a0
   215b8:	00090593          	mv	a1,s2
   215bc:	00028513          	mv	a0,t0
   215c0:	179030ef          	jal	ra,24f38 <__mulsi3>
   215c4:	0103d693          	srli	a3,t2,0x10
   215c8:	008e8eb3          	add	t4,t4,s0
   215cc:	01d686b3          	add	a3,a3,t4
   215d0:	00050793          	mv	a5,a0
   215d4:	0086f663          	bgeu	a3,s0,215e0 <__muldf3+0x1c4>
   215d8:	00010637          	lui	a2,0x10
   215dc:	00c507b3          	add	a5,a0,a2
   215e0:	00010a37          	lui	s4,0x10
   215e4:	fffa0e93          	addi	t4,s4,-1 # ffff <exit-0x95>
   215e8:	0106d293          	srli	t0,a3,0x10
   215ec:	00f282b3          	add	t0,t0,a5
   215f0:	01d6f7b3          	and	a5,a3,t4
   215f4:	01d3f3b3          	and	t2,t2,t4
   215f8:	01079793          	slli	a5,a5,0x10
   215fc:	007787b3          	add	a5,a5,t2
   21600:	01d4feb3          	and	t4,s1,t4
   21604:	00f98433          	add	s0,s3,a5
   21608:	000e8513          	mv	a0,t4
   2160c:	0104d993          	srli	s3,s1,0x10
   21610:	000f8593          	mv	a1,t6
   21614:	125030ef          	jal	ra,24f38 <__mulsi3>
   21618:	00050493          	mv	s1,a0
   2161c:	000f0593          	mv	a1,t5
   21620:	000e8513          	mv	a0,t4
   21624:	115030ef          	jal	ra,24f38 <__mulsi3>
   21628:	00050393          	mv	t2,a0
   2162c:	000f8593          	mv	a1,t6
   21630:	00098513          	mv	a0,s3
   21634:	105030ef          	jal	ra,24f38 <__mulsi3>
   21638:	00050f93          	mv	t6,a0
   2163c:	000f0593          	mv	a1,t5
   21640:	00098513          	mv	a0,s3
   21644:	0f5030ef          	jal	ra,24f38 <__mulsi3>
   21648:	0104d693          	srli	a3,s1,0x10
   2164c:	01f383b3          	add	t2,t2,t6
   21650:	007686b3          	add	a3,a3,t2
   21654:	00050613          	mv	a2,a0
   21658:	01f6f463          	bgeu	a3,t6,21660 <__muldf3+0x244>
   2165c:	01450633          	add	a2,a0,s4
   21660:	00010a37          	lui	s4,0x10
   21664:	fffa0393          	addi	t2,s4,-1 # ffff <exit-0x95>
   21668:	0106df93          	srli	t6,a3,0x10
   2166c:	0076f6b3          	and	a3,a3,t2
   21670:	01069693          	slli	a3,a3,0x10
   21674:	0074f4b3          	and	s1,s1,t2
   21678:	00cf8fb3          	add	t6,t6,a2
   2167c:	00968f33          	add	t5,a3,s1
   21680:	000e8513          	mv	a0,t4
   21684:	000e0593          	mv	a1,t3
   21688:	0b1030ef          	jal	ra,24f38 <__mulsi3>
   2168c:	00050493          	mv	s1,a0
   21690:	00090593          	mv	a1,s2
   21694:	000e8513          	mv	a0,t4
   21698:	0a1030ef          	jal	ra,24f38 <__mulsi3>
   2169c:	00050e93          	mv	t4,a0
   216a0:	000e0593          	mv	a1,t3
   216a4:	00098513          	mv	a0,s3
   216a8:	091030ef          	jal	ra,24f38 <__mulsi3>
   216ac:	00050e13          	mv	t3,a0
   216b0:	00090593          	mv	a1,s2
   216b4:	00098513          	mv	a0,s3
   216b8:	081030ef          	jal	ra,24f38 <__mulsi3>
   216bc:	0104d613          	srli	a2,s1,0x10
   216c0:	01ce8eb3          	add	t4,t4,t3
   216c4:	01d60633          	add	a2,a2,t4
   216c8:	00050593          	mv	a1,a0
   216cc:	01c67463          	bgeu	a2,t3,216d4 <__muldf3+0x2b8>
   216d0:	014505b3          	add	a1,a0,s4
   216d4:	007676b3          	and	a3,a2,t2
   216d8:	01069693          	slli	a3,a3,0x10
   216dc:	0074f4b3          	and	s1,s1,t2
   216e0:	00870733          	add	a4,a4,s0
   216e4:	009686b3          	add	a3,a3,s1
   216e8:	005682b3          	add	t0,a3,t0
   216ec:	00f737b3          	sltu	a5,a4,a5
   216f0:	00f287b3          	add	a5,t0,a5
   216f4:	00d2b6b3          	sltu	a3,t0,a3
   216f8:	0057b2b3          	sltu	t0,a5,t0
   216fc:	01065613          	srli	a2,a2,0x10
   21700:	0056e6b3          	or	a3,a3,t0
   21704:	00c686b3          	add	a3,a3,a2
   21708:	01e70633          	add	a2,a4,t5
   2170c:	01f78fb3          	add	t6,a5,t6
   21710:	00e63733          	sltu	a4,a2,a4
   21714:	00ef8733          	add	a4,t6,a4
   21718:	00ffb433          	sltu	s0,t6,a5
   2171c:	01f73fb3          	sltu	t6,a4,t6
   21720:	01f46433          	or	s0,s0,t6
   21724:	00d40433          	add	s0,s0,a3
   21728:	00b40433          	add	s0,s0,a1
   2172c:	01775793          	srli	a5,a4,0x17
   21730:	00941413          	slli	s0,s0,0x9
   21734:	00f46433          	or	s0,s0,a5
   21738:	00961793          	slli	a5,a2,0x9
   2173c:	0067e7b3          	or	a5,a5,t1
   21740:	00f037b3          	snez	a5,a5
   21744:	01765613          	srli	a2,a2,0x17
   21748:	00971713          	slli	a4,a4,0x9
   2174c:	00c7e7b3          	or	a5,a5,a2
   21750:	00e7e7b3          	or	a5,a5,a4
   21754:	01000737          	lui	a4,0x1000
   21758:	00e47733          	and	a4,s0,a4
   2175c:	28070063          	beqz	a4,219dc <__muldf3+0x5c0>
   21760:	0017d713          	srli	a4,a5,0x1
   21764:	0017f793          	andi	a5,a5,1
   21768:	00f76733          	or	a4,a4,a5
   2176c:	01f41793          	slli	a5,s0,0x1f
   21770:	00f767b3          	or	a5,a4,a5
   21774:	00145413          	srli	s0,s0,0x1
   21778:	3ff88693          	addi	a3,a7,1023
   2177c:	26d05463          	blez	a3,219e4 <__muldf3+0x5c8>
   21780:	0077f713          	andi	a4,a5,7
   21784:	02070063          	beqz	a4,217a4 <__muldf3+0x388>
   21788:	00f7f713          	andi	a4,a5,15
   2178c:	00400613          	li	a2,4
   21790:	00c70a63          	beq	a4,a2,217a4 <__muldf3+0x388>
   21794:	00478713          	addi	a4,a5,4
   21798:	00f73633          	sltu	a2,a4,a5
   2179c:	00c40433          	add	s0,s0,a2
   217a0:	00070793          	mv	a5,a4
   217a4:	01000737          	lui	a4,0x1000
   217a8:	00e47733          	and	a4,s0,a4
   217ac:	00070a63          	beqz	a4,217c0 <__muldf3+0x3a4>
   217b0:	ff000737          	lui	a4,0xff000
   217b4:	fff70713          	addi	a4,a4,-1 # feffffff <__BSS_END__+0xfefd9517>
   217b8:	00e47433          	and	s0,s0,a4
   217bc:	40088693          	addi	a3,a7,1024
   217c0:	7fe00713          	li	a4,2046
   217c4:	2ed74a63          	blt	a4,a3,21ab8 <__muldf3+0x69c>
   217c8:	01d41713          	slli	a4,s0,0x1d
   217cc:	0037d793          	srli	a5,a5,0x3
   217d0:	00f76733          	or	a4,a4,a5
   217d4:	00345413          	srli	s0,s0,0x3
   217d8:	00c41413          	slli	s0,s0,0xc
   217dc:	00c45413          	srli	s0,s0,0xc
   217e0:	01469693          	slli	a3,a3,0x14
   217e4:	02c12083          	lw	ra,44(sp)
   217e8:	0086e6b3          	or	a3,a3,s0
   217ec:	02812403          	lw	s0,40(sp)
   217f0:	01f81813          	slli	a6,a6,0x1f
   217f4:	0106e7b3          	or	a5,a3,a6
   217f8:	02412483          	lw	s1,36(sp)
   217fc:	02012903          	lw	s2,32(sp)
   21800:	01c12983          	lw	s3,28(sp)
   21804:	01812a03          	lw	s4,24(sp)
   21808:	01412a83          	lw	s5,20(sp)
   2180c:	01012b03          	lw	s6,16(sp)
   21810:	00c12b83          	lw	s7,12(sp)
   21814:	00070513          	mv	a0,a4
   21818:	00078593          	mv	a1,a5
   2181c:	03010113          	addi	sp,sp,48
   21820:	00008067          	ret
   21824:	00a4ea33          	or	s4,s1,a0
   21828:	080a0063          	beqz	s4,218a8 <__muldf3+0x48c>
   2182c:	04048063          	beqz	s1,2186c <__muldf3+0x450>
   21830:	00048513          	mv	a0,s1
   21834:	7dc030ef          	jal	ra,25010 <__clzsi2>
   21838:	ff550713          	addi	a4,a0,-11
   2183c:	01d00793          	li	a5,29
   21840:	ff850693          	addi	a3,a0,-8
   21844:	40e787b3          	sub	a5,a5,a4
   21848:	00d494b3          	sll	s1,s1,a3
   2184c:	00f457b3          	srl	a5,s0,a5
   21850:	0097e7b3          	or	a5,a5,s1
   21854:	00d414b3          	sll	s1,s0,a3
   21858:	c0d00a93          	li	s5,-1011
   2185c:	00048a13          	mv	s4,s1
   21860:	40aa8ab3          	sub	s5,s5,a0
   21864:	00078493          	mv	s1,a5
   21868:	c25ff06f          	j	2148c <__muldf3+0x70>
   2186c:	7a4030ef          	jal	ra,25010 <__clzsi2>
   21870:	00050793          	mv	a5,a0
   21874:	01578713          	addi	a4,a5,21
   21878:	01c00693          	li	a3,28
   2187c:	02050513          	addi	a0,a0,32
   21880:	fae6dee3          	bge	a3,a4,2183c <__muldf3+0x420>
   21884:	ff878793          	addi	a5,a5,-8
   21888:	00f417b3          	sll	a5,s0,a5
   2188c:	fcdff06f          	j	21858 <__muldf3+0x43c>
   21890:	00a4ea33          	or	s4,s1,a0
   21894:	020a0263          	beqz	s4,218b8 <__muldf3+0x49c>
   21898:	00050a13          	mv	s4,a0
   2189c:	7ff00a93          	li	s5,2047
   218a0:	00300b93          	li	s7,3
   218a4:	bedff06f          	j	21490 <__muldf3+0x74>
   218a8:	00000493          	li	s1,0
   218ac:	00000a93          	li	s5,0
   218b0:	00100b93          	li	s7,1
   218b4:	bddff06f          	j	21490 <__muldf3+0x74>
   218b8:	00000493          	li	s1,0
   218bc:	7ff00a93          	li	s5,2047
   218c0:	00200b93          	li	s7,2
   218c4:	bcdff06f          	j	21490 <__muldf3+0x74>
   218c8:	016467b3          	or	a5,s0,s6
   218cc:	08078263          	beqz	a5,21950 <__muldf3+0x534>
   218d0:	04040063          	beqz	s0,21910 <__muldf3+0x4f4>
   218d4:	00040513          	mv	a0,s0
   218d8:	738030ef          	jal	ra,25010 <__clzsi2>
   218dc:	ff550693          	addi	a3,a0,-11
   218e0:	01d00713          	li	a4,29
   218e4:	ff850793          	addi	a5,a0,-8
   218e8:	40d70733          	sub	a4,a4,a3
   218ec:	00f41433          	sll	s0,s0,a5
   218f0:	00eb5733          	srl	a4,s6,a4
   218f4:	00876733          	or	a4,a4,s0
   218f8:	00fb1433          	sll	s0,s6,a5
   218fc:	c0d00693          	li	a3,-1011
   21900:	00040793          	mv	a5,s0
   21904:	40a686b3          	sub	a3,a3,a0
   21908:	00070413          	mv	s0,a4
   2190c:	bc1ff06f          	j	214cc <__muldf3+0xb0>
   21910:	000b0513          	mv	a0,s6
   21914:	6fc030ef          	jal	ra,25010 <__clzsi2>
   21918:	00050793          	mv	a5,a0
   2191c:	01578693          	addi	a3,a5,21
   21920:	01c00713          	li	a4,28
   21924:	02050513          	addi	a0,a0,32
   21928:	fad75ce3          	bge	a4,a3,218e0 <__muldf3+0x4c4>
   2192c:	ff878793          	addi	a5,a5,-8
   21930:	00fb1733          	sll	a4,s6,a5
   21934:	fc9ff06f          	j	218fc <__muldf3+0x4e0>
   21938:	016467b3          	or	a5,s0,s6
   2193c:	02078263          	beqz	a5,21960 <__muldf3+0x544>
   21940:	000b0793          	mv	a5,s6
   21944:	7ff00693          	li	a3,2047
   21948:	00300613          	li	a2,3
   2194c:	b85ff06f          	j	214d0 <__muldf3+0xb4>
   21950:	00000413          	li	s0,0
   21954:	00000693          	li	a3,0
   21958:	00100613          	li	a2,1
   2195c:	b75ff06f          	j	214d0 <__muldf3+0xb4>
   21960:	00000413          	li	s0,0
   21964:	7ff00693          	li	a3,2047
   21968:	00200613          	li	a2,2
   2196c:	b65ff06f          	j	214d0 <__muldf3+0xb4>
   21970:	00100693          	li	a3,1
   21974:	00e696b3          	sll	a3,a3,a4
   21978:	5306f713          	andi	a4,a3,1328
   2197c:	04071863          	bnez	a4,219cc <__muldf3+0x5b0>
   21980:	2406f593          	andi	a1,a3,576
   21984:	10059c63          	bnez	a1,21a9c <__muldf3+0x680>
   21988:	0886f693          	andi	a3,a3,136
   2198c:	b6068ae3          	beqz	a3,21500 <__muldf3+0xe4>
   21990:	00090813          	mv	a6,s2
   21994:	00200713          	li	a4,2
   21998:	12e60063          	beq	a2,a4,21ab8 <__muldf3+0x69c>
   2199c:	00300713          	li	a4,3
   219a0:	10e60663          	beq	a2,a4,21aac <__muldf3+0x690>
   219a4:	00100713          	li	a4,1
   219a8:	dce618e3          	bne	a2,a4,21778 <__muldf3+0x35c>
   219ac:	00000413          	li	s0,0
   219b0:	00000713          	li	a4,0
   219b4:	0ac0006f          	j	21a60 <__muldf3+0x644>
   219b8:	00f00693          	li	a3,15
   219bc:	0ed70863          	beq	a4,a3,21aac <__muldf3+0x690>
   219c0:	00b00693          	li	a3,11
   219c4:	00098813          	mv	a6,s3
   219c8:	fcd704e3          	beq	a4,a3,21990 <__muldf3+0x574>
   219cc:	00048413          	mv	s0,s1
   219d0:	000a0793          	mv	a5,s4
   219d4:	000b8613          	mv	a2,s7
   219d8:	fbdff06f          	j	21994 <__muldf3+0x578>
   219dc:	000a8893          	mv	a7,s5
   219e0:	d99ff06f          	j	21778 <__muldf3+0x35c>
   219e4:	00100613          	li	a2,1
   219e8:	00068c63          	beqz	a3,21a00 <__muldf3+0x5e4>
   219ec:	40d60633          	sub	a2,a2,a3
   219f0:	03800713          	li	a4,56
   219f4:	fac74ce3          	blt	a4,a2,219ac <__muldf3+0x590>
   219f8:	01f00713          	li	a4,31
   219fc:	06c74663          	blt	a4,a2,21a68 <__muldf3+0x64c>
   21a00:	41e88893          	addi	a7,a7,1054
   21a04:	00c7d733          	srl	a4,a5,a2
   21a08:	011797b3          	sll	a5,a5,a7
   21a0c:	00f037b3          	snez	a5,a5
   21a10:	011418b3          	sll	a7,s0,a7
   21a14:	0117e7b3          	or	a5,a5,a7
   21a18:	00e7e7b3          	or	a5,a5,a4
   21a1c:	00c45433          	srl	s0,s0,a2
   21a20:	0077f713          	andi	a4,a5,7
   21a24:	02070063          	beqz	a4,21a44 <__muldf3+0x628>
   21a28:	00f7f713          	andi	a4,a5,15
   21a2c:	00400693          	li	a3,4
   21a30:	00d70a63          	beq	a4,a3,21a44 <__muldf3+0x628>
   21a34:	00478713          	addi	a4,a5,4
   21a38:	00f736b3          	sltu	a3,a4,a5
   21a3c:	00d40433          	add	s0,s0,a3
   21a40:	00070793          	mv	a5,a4
   21a44:	00800737          	lui	a4,0x800
   21a48:	00e47733          	and	a4,s0,a4
   21a4c:	06071e63          	bnez	a4,21ac8 <__muldf3+0x6ac>
   21a50:	01d41713          	slli	a4,s0,0x1d
   21a54:	0037d793          	srli	a5,a5,0x3
   21a58:	00f76733          	or	a4,a4,a5
   21a5c:	00345413          	srli	s0,s0,0x3
   21a60:	00000693          	li	a3,0
   21a64:	d75ff06f          	j	217d8 <__muldf3+0x3bc>
   21a68:	fe100713          	li	a4,-31
   21a6c:	40d70733          	sub	a4,a4,a3
   21a70:	02000593          	li	a1,32
   21a74:	00e45733          	srl	a4,s0,a4
   21a78:	00000693          	li	a3,0
   21a7c:	00b60663          	beq	a2,a1,21a88 <__muldf3+0x66c>
   21a80:	43e88893          	addi	a7,a7,1086
   21a84:	011416b3          	sll	a3,s0,a7
   21a88:	00f6e6b3          	or	a3,a3,a5
   21a8c:	00d036b3          	snez	a3,a3
   21a90:	00d767b3          	or	a5,a4,a3
   21a94:	00000413          	li	s0,0
   21a98:	f89ff06f          	j	21a20 <__muldf3+0x604>
   21a9c:	00080437          	lui	s0,0x80
   21aa0:	7ff00693          	li	a3,2047
   21aa4:	00000813          	li	a6,0
   21aa8:	d31ff06f          	j	217d8 <__muldf3+0x3bc>
   21aac:	00080437          	lui	s0,0x80
   21ab0:	00000713          	li	a4,0
   21ab4:	fedff06f          	j	21aa0 <__muldf3+0x684>
   21ab8:	00000413          	li	s0,0
   21abc:	00000713          	li	a4,0
   21ac0:	7ff00693          	li	a3,2047
   21ac4:	d15ff06f          	j	217d8 <__muldf3+0x3bc>
   21ac8:	00000413          	li	s0,0
   21acc:	00000713          	li	a4,0
   21ad0:	00100693          	li	a3,1
   21ad4:	d05ff06f          	j	217d8 <__muldf3+0x3bc>

00021ad8 <__eqtf2>:
   21ad8:	00c52703          	lw	a4,12(a0)
   21adc:	00c5a603          	lw	a2,12(a1)
   21ae0:	0005a283          	lw	t0,0(a1)
   21ae4:	0045af83          	lw	t6,4(a1)
   21ae8:	0085af03          	lw	t5,8(a1)
   21aec:	000085b7          	lui	a1,0x8
   21af0:	01075813          	srli	a6,a4,0x10
   21af4:	fff58593          	addi	a1,a1,-1 # 7fff <exit-0x8095>
   21af8:	01071893          	slli	a7,a4,0x10
   21afc:	01061e93          	slli	t4,a2,0x10
   21b00:	01065693          	srli	a3,a2,0x10
   21b04:	00b87833          	and	a6,a6,a1
   21b08:	00052783          	lw	a5,0(a0)
   21b0c:	00452e03          	lw	t3,4(a0)
   21b10:	00852303          	lw	t1,8(a0)
   21b14:	ff010113          	addi	sp,sp,-16
   21b18:	0108d893          	srli	a7,a7,0x10
   21b1c:	01f75713          	srli	a4,a4,0x1f
   21b20:	010ede93          	srli	t4,t4,0x10
   21b24:	00b6f6b3          	and	a3,a3,a1
   21b28:	01f65613          	srli	a2,a2,0x1f
   21b2c:	00100513          	li	a0,1
   21b30:	00b80863          	beq	a6,a1,21b40 <__eqtf2+0x68>
   21b34:	02b69e63          	bne	a3,a1,21b70 <__eqtf2+0x98>
   21b38:	01010113          	addi	sp,sp,16
   21b3c:	00008067          	ret
   21b40:	ff069ce3          	bne	a3,a6,21b38 <__eqtf2+0x60>
   21b44:	01c7e7b3          	or	a5,a5,t3
   21b48:	0067e7b3          	or	a5,a5,t1
   21b4c:	0117e7b3          	or	a5,a5,a7
   21b50:	0057e7b3          	or	a5,a5,t0
   21b54:	01f7e7b3          	or	a5,a5,t6
   21b58:	01e7e7b3          	or	a5,a5,t5
   21b5c:	01d7e7b3          	or	a5,a5,t4
   21b60:	fc079ce3          	bnez	a5,21b38 <__eqtf2+0x60>
   21b64:	40c70733          	sub	a4,a4,a2
   21b68:	00e03533          	snez	a0,a4
   21b6c:	fcdff06f          	j	21b38 <__eqtf2+0x60>
   21b70:	00100513          	li	a0,1
   21b74:	fd0692e3          	bne	a3,a6,21b38 <__eqtf2+0x60>
   21b78:	fc5790e3          	bne	a5,t0,21b38 <__eqtf2+0x60>
   21b7c:	fbfe1ee3          	bne	t3,t6,21b38 <__eqtf2+0x60>
   21b80:	fbe31ce3          	bne	t1,t5,21b38 <__eqtf2+0x60>
   21b84:	fbd89ae3          	bne	a7,t4,21b38 <__eqtf2+0x60>
   21b88:	00c70e63          	beq	a4,a2,21ba4 <__eqtf2+0xcc>
   21b8c:	fa0696e3          	bnez	a3,21b38 <__eqtf2+0x60>
   21b90:	01c7e533          	or	a0,a5,t3
   21b94:	00656533          	or	a0,a0,t1
   21b98:	01156533          	or	a0,a0,a7
   21b9c:	00a03533          	snez	a0,a0
   21ba0:	f99ff06f          	j	21b38 <__eqtf2+0x60>
   21ba4:	00000513          	li	a0,0
   21ba8:	f91ff06f          	j	21b38 <__eqtf2+0x60>

00021bac <__getf2>:
   21bac:	00052883          	lw	a7,0(a0)
   21bb0:	00452303          	lw	t1,4(a0)
   21bb4:	00852e03          	lw	t3,8(a0)
   21bb8:	00c52503          	lw	a0,12(a0)
   21bbc:	00c5a803          	lw	a6,12(a1)
   21bc0:	00008737          	lui	a4,0x8
   21bc4:	01055693          	srli	a3,a0,0x10
   21bc8:	fff70713          	addi	a4,a4,-1 # 7fff <exit-0x8095>
   21bcc:	01051613          	slli	a2,a0,0x10
   21bd0:	01081f13          	slli	t5,a6,0x10
   21bd4:	0005a783          	lw	a5,0(a1)
   21bd8:	0045af83          	lw	t6,4(a1)
   21bdc:	0085ae83          	lw	t4,8(a1)
   21be0:	00e6f6b3          	and	a3,a3,a4
   21be4:	01f55593          	srli	a1,a0,0x1f
   21be8:	01085513          	srli	a0,a6,0x10
   21bec:	ff010113          	addi	sp,sp,-16
   21bf0:	01065613          	srli	a2,a2,0x10
   21bf4:	010f5f13          	srli	t5,t5,0x10
   21bf8:	00e57533          	and	a0,a0,a4
   21bfc:	01f85813          	srli	a6,a6,0x1f
   21c00:	04e69663          	bne	a3,a4,21c4c <__getf2+0xa0>
   21c04:	011368b3          	or	a7,t1,a7
   21c08:	01c8e8b3          	or	a7,a7,t3
   21c0c:	00c8e8b3          	or	a7,a7,a2
   21c10:	0e089c63          	bnez	a7,21d08 <__getf2+0x15c>
   21c14:	00d50a63          	beq	a0,a3,21c28 <__getf2+0x7c>
   21c18:	00100513          	li	a0,1
   21c1c:	02058463          	beqz	a1,21c44 <__getf2+0x98>
   21c20:	fff00513          	li	a0,-1
   21c24:	0200006f          	j	21c44 <__getf2+0x98>
   21c28:	01f7e7b3          	or	a5,a5,t6
   21c2c:	01d7e7b3          	or	a5,a5,t4
   21c30:	01e7e7b3          	or	a5,a5,t5
   21c34:	ffe00513          	li	a0,-2
   21c38:	00079663          	bnez	a5,21c44 <__getf2+0x98>
   21c3c:	00000513          	li	a0,0
   21c40:	fcb81ce3          	bne	a6,a1,21c18 <__getf2+0x6c>
   21c44:	01010113          	addi	sp,sp,16
   21c48:	00008067          	ret
   21c4c:	02e51663          	bne	a0,a4,21c78 <__getf2+0xcc>
   21c50:	01f7e733          	or	a4,a5,t6
   21c54:	01d76733          	or	a4,a4,t4
   21c58:	01e76733          	or	a4,a4,t5
   21c5c:	0a071663          	bnez	a4,21d08 <__getf2+0x15c>
   21c60:	02068863          	beqz	a3,21c90 <__getf2+0xe4>
   21c64:	fab81ae3          	bne	a6,a1,21c18 <__getf2+0x6c>
   21c68:	fff00513          	li	a0,-1
   21c6c:	fc058ce3          	beqz	a1,21c44 <__getf2+0x98>
   21c70:	00058513          	mv	a0,a1
   21c74:	fd1ff06f          	j	21c44 <__getf2+0x98>
   21c78:	02068c63          	beqz	a3,21cb0 <__getf2+0x104>
   21c7c:	f8050ee3          	beqz	a0,21c18 <__getf2+0x6c>
   21c80:	f8b81ce3          	bne	a6,a1,21c18 <__getf2+0x6c>
   21c84:	f8d54ae3          	blt	a0,a3,21c18 <__getf2+0x6c>
   21c88:	04a6d863          	bge	a3,a0,21cd8 <__getf2+0x12c>
   21c8c:	fddff06f          	j	21c68 <__getf2+0xbc>
   21c90:	01136733          	or	a4,t1,a7
   21c94:	01c76733          	or	a4,a4,t3
   21c98:	00c76733          	or	a4,a4,a2
   21c9c:	fe0712e3          	bnez	a4,21c80 <__getf2+0xd4>
   21ca0:	fff00513          	li	a0,-1
   21ca4:	fa0800e3          	beqz	a6,21c44 <__getf2+0x98>
   21ca8:	00080513          	mv	a0,a6
   21cac:	f99ff06f          	j	21c44 <__getf2+0x98>
   21cb0:	01136733          	or	a4,t1,a7
   21cb4:	01c76733          	or	a4,a4,t3
   21cb8:	00c76733          	or	a4,a4,a2
   21cbc:	fe0510e3          	bnez	a0,21c9c <__getf2+0xf0>
   21cc0:	01f7e6b3          	or	a3,a5,t6
   21cc4:	01d6e6b3          	or	a3,a3,t4
   21cc8:	01e6e6b3          	or	a3,a3,t5
   21ccc:	02068a63          	beqz	a3,21d00 <__getf2+0x154>
   21cd0:	fc0708e3          	beqz	a4,21ca0 <__getf2+0xf4>
   21cd4:	f4b812e3          	bne	a6,a1,21c18 <__getf2+0x6c>
   21cd8:	f4cf60e3          	bltu	t5,a2,21c18 <__getf2+0x6c>
   21cdc:	f9e616e3          	bne	a2,t5,21c68 <__getf2+0xbc>
   21ce0:	f3ceece3          	bltu	t4,t3,21c18 <__getf2+0x6c>
   21ce4:	f9de12e3          	bne	t3,t4,21c68 <__getf2+0xbc>
   21ce8:	f26fe8e3          	bltu	t6,t1,21c18 <__getf2+0x6c>
   21cec:	f7f31ee3          	bne	t1,t6,21c68 <__getf2+0xbc>
   21cf0:	f317e4e3          	bltu	a5,a7,21c18 <__getf2+0x6c>
   21cf4:	00000513          	li	a0,0
   21cf8:	f6f8e8e3          	bltu	a7,a5,21c68 <__getf2+0xbc>
   21cfc:	f49ff06f          	j	21c44 <__getf2+0x98>
   21d00:	f40702e3          	beqz	a4,21c44 <__getf2+0x98>
   21d04:	f15ff06f          	j	21c18 <__getf2+0x6c>
   21d08:	ffe00513          	li	a0,-2
   21d0c:	f39ff06f          	j	21c44 <__getf2+0x98>

00021d10 <__letf2>:
   21d10:	00052883          	lw	a7,0(a0)
   21d14:	00452303          	lw	t1,4(a0)
   21d18:	00852e03          	lw	t3,8(a0)
   21d1c:	00c52503          	lw	a0,12(a0)
   21d20:	00c5a803          	lw	a6,12(a1)
   21d24:	00008737          	lui	a4,0x8
   21d28:	01055693          	srli	a3,a0,0x10
   21d2c:	fff70713          	addi	a4,a4,-1 # 7fff <exit-0x8095>
   21d30:	01051613          	slli	a2,a0,0x10
   21d34:	01081f13          	slli	t5,a6,0x10
   21d38:	0005a783          	lw	a5,0(a1)
   21d3c:	0045af83          	lw	t6,4(a1)
   21d40:	0085ae83          	lw	t4,8(a1)
   21d44:	00e6f6b3          	and	a3,a3,a4
   21d48:	01f55593          	srli	a1,a0,0x1f
   21d4c:	01085513          	srli	a0,a6,0x10
   21d50:	ff010113          	addi	sp,sp,-16
   21d54:	01065613          	srli	a2,a2,0x10
   21d58:	010f5f13          	srli	t5,t5,0x10
   21d5c:	00e57533          	and	a0,a0,a4
   21d60:	01f85813          	srli	a6,a6,0x1f
   21d64:	04e69663          	bne	a3,a4,21db0 <__letf2+0xa0>
   21d68:	011368b3          	or	a7,t1,a7
   21d6c:	01c8e8b3          	or	a7,a7,t3
   21d70:	00c8e8b3          	or	a7,a7,a2
   21d74:	0e089c63          	bnez	a7,21e6c <__letf2+0x15c>
   21d78:	00d50a63          	beq	a0,a3,21d8c <__letf2+0x7c>
   21d7c:	00100513          	li	a0,1
   21d80:	02058463          	beqz	a1,21da8 <__letf2+0x98>
   21d84:	fff00513          	li	a0,-1
   21d88:	0200006f          	j	21da8 <__letf2+0x98>
   21d8c:	01f7e7b3          	or	a5,a5,t6
   21d90:	01d7e7b3          	or	a5,a5,t4
   21d94:	01e7e7b3          	or	a5,a5,t5
   21d98:	00200513          	li	a0,2
   21d9c:	00079663          	bnez	a5,21da8 <__letf2+0x98>
   21da0:	00000513          	li	a0,0
   21da4:	fcb81ce3          	bne	a6,a1,21d7c <__letf2+0x6c>
   21da8:	01010113          	addi	sp,sp,16
   21dac:	00008067          	ret
   21db0:	02e51663          	bne	a0,a4,21ddc <__letf2+0xcc>
   21db4:	01f7e733          	or	a4,a5,t6
   21db8:	01d76733          	or	a4,a4,t4
   21dbc:	01e76733          	or	a4,a4,t5
   21dc0:	0a071663          	bnez	a4,21e6c <__letf2+0x15c>
   21dc4:	02068863          	beqz	a3,21df4 <__letf2+0xe4>
   21dc8:	fab81ae3          	bne	a6,a1,21d7c <__letf2+0x6c>
   21dcc:	fff00513          	li	a0,-1
   21dd0:	fc058ce3          	beqz	a1,21da8 <__letf2+0x98>
   21dd4:	00058513          	mv	a0,a1
   21dd8:	fd1ff06f          	j	21da8 <__letf2+0x98>
   21ddc:	02068c63          	beqz	a3,21e14 <__letf2+0x104>
   21de0:	f8050ee3          	beqz	a0,21d7c <__letf2+0x6c>
   21de4:	f8b81ce3          	bne	a6,a1,21d7c <__letf2+0x6c>
   21de8:	f8d54ae3          	blt	a0,a3,21d7c <__letf2+0x6c>
   21dec:	04a6d863          	bge	a3,a0,21e3c <__letf2+0x12c>
   21df0:	fddff06f          	j	21dcc <__letf2+0xbc>
   21df4:	01136733          	or	a4,t1,a7
   21df8:	01c76733          	or	a4,a4,t3
   21dfc:	00c76733          	or	a4,a4,a2
   21e00:	fe0712e3          	bnez	a4,21de4 <__letf2+0xd4>
   21e04:	fff00513          	li	a0,-1
   21e08:	fa0800e3          	beqz	a6,21da8 <__letf2+0x98>
   21e0c:	00080513          	mv	a0,a6
   21e10:	f99ff06f          	j	21da8 <__letf2+0x98>
   21e14:	01136733          	or	a4,t1,a7
   21e18:	01c76733          	or	a4,a4,t3
   21e1c:	00c76733          	or	a4,a4,a2
   21e20:	fe0510e3          	bnez	a0,21e00 <__letf2+0xf0>
   21e24:	01f7e6b3          	or	a3,a5,t6
   21e28:	01d6e6b3          	or	a3,a3,t4
   21e2c:	01e6e6b3          	or	a3,a3,t5
   21e30:	02068a63          	beqz	a3,21e64 <__letf2+0x154>
   21e34:	fc0708e3          	beqz	a4,21e04 <__letf2+0xf4>
   21e38:	f4b812e3          	bne	a6,a1,21d7c <__letf2+0x6c>
   21e3c:	f4cf60e3          	bltu	t5,a2,21d7c <__letf2+0x6c>
   21e40:	f9e616e3          	bne	a2,t5,21dcc <__letf2+0xbc>
   21e44:	f3ceece3          	bltu	t4,t3,21d7c <__letf2+0x6c>
   21e48:	f9de12e3          	bne	t3,t4,21dcc <__letf2+0xbc>
   21e4c:	f26fe8e3          	bltu	t6,t1,21d7c <__letf2+0x6c>
   21e50:	f7f31ee3          	bne	t1,t6,21dcc <__letf2+0xbc>
   21e54:	f317e4e3          	bltu	a5,a7,21d7c <__letf2+0x6c>
   21e58:	00000513          	li	a0,0
   21e5c:	f6f8e8e3          	bltu	a7,a5,21dcc <__letf2+0xbc>
   21e60:	f49ff06f          	j	21da8 <__letf2+0x98>
   21e64:	f40702e3          	beqz	a4,21da8 <__letf2+0x98>
   21e68:	f15ff06f          	j	21d7c <__letf2+0x6c>
   21e6c:	00200513          	li	a0,2
   21e70:	f39ff06f          	j	21da8 <__letf2+0x98>

00021e74 <__multf3>:
   21e74:	f6010113          	addi	sp,sp,-160
   21e78:	09312623          	sw	s3,140(sp)
   21e7c:	00c5a983          	lw	s3,12(a1)
   21e80:	0005a783          	lw	a5,0(a1)
   21e84:	0085a683          	lw	a3,8(a1)
   21e88:	08812c23          	sw	s0,152(sp)
   21e8c:	00050413          	mv	s0,a0
   21e90:	0045a503          	lw	a0,4(a1)
   21e94:	01099713          	slli	a4,s3,0x10
   21e98:	09212823          	sw	s2,144(sp)
   21e9c:	09412423          	sw	s4,136(sp)
   21ea0:	00062903          	lw	s2,0(a2) # 10000 <exit-0x94>
   21ea4:	00c62a03          	lw	s4,12(a2)
   21ea8:	09512223          	sw	s5,132(sp)
   21eac:	09612023          	sw	s6,128(sp)
   21eb0:	00862a83          	lw	s5,8(a2)
   21eb4:	00462b03          	lw	s6,4(a2)
   21eb8:	00008637          	lui	a2,0x8
   21ebc:	08912a23          	sw	s1,148(sp)
   21ec0:	01075713          	srli	a4,a4,0x10
   21ec4:	0109d493          	srli	s1,s3,0x10
   21ec8:	fff60613          	addi	a2,a2,-1 # 7fff <exit-0x8095>
   21ecc:	05312623          	sw	s3,76(sp)
   21ed0:	08112e23          	sw	ra,156(sp)
   21ed4:	07712e23          	sw	s7,124(sp)
   21ed8:	07812c23          	sw	s8,120(sp)
   21edc:	07912a23          	sw	s9,116(sp)
   21ee0:	07a12823          	sw	s10,112(sp)
   21ee4:	07b12623          	sw	s11,108(sp)
   21ee8:	04f12023          	sw	a5,64(sp)
   21eec:	04a12223          	sw	a0,68(sp)
   21ef0:	04d12423          	sw	a3,72(sp)
   21ef4:	00f12823          	sw	a5,16(sp)
   21ef8:	00a12a23          	sw	a0,20(sp)
   21efc:	00d12c23          	sw	a3,24(sp)
   21f00:	00e12e23          	sw	a4,28(sp)
   21f04:	00c4f4b3          	and	s1,s1,a2
   21f08:	01f9d993          	srli	s3,s3,0x1f
   21f0c:	58048ce3          	beqz	s1,22ca4 <__multf3+0xe30>
   21f10:	6cc48ee3          	beq	s1,a2,22dec <__multf3+0xf78>
   21f14:	000107b7          	lui	a5,0x10
   21f18:	00f76733          	or	a4,a4,a5
   21f1c:	00e12e23          	sw	a4,28(sp)
   21f20:	01010613          	addi	a2,sp,16
   21f24:	01c10793          	addi	a5,sp,28
   21f28:	0007a703          	lw	a4,0(a5) # 10000 <exit-0x94>
   21f2c:	ffc7a683          	lw	a3,-4(a5)
   21f30:	ffc78793          	addi	a5,a5,-4
   21f34:	00371713          	slli	a4,a4,0x3
   21f38:	01d6d693          	srli	a3,a3,0x1d
   21f3c:	00d76733          	or	a4,a4,a3
   21f40:	00e7a223          	sw	a4,4(a5)
   21f44:	fef612e3          	bne	a2,a5,21f28 <__multf3+0xb4>
   21f48:	01012783          	lw	a5,16(sp)
   21f4c:	00379793          	slli	a5,a5,0x3
   21f50:	00f12823          	sw	a5,16(sp)
   21f54:	ffffc7b7          	lui	a5,0xffffc
   21f58:	00178793          	addi	a5,a5,1 # ffffc001 <__BSS_END__+0xfffd5519>
   21f5c:	00f484b3          	add	s1,s1,a5
   21f60:	00000b93          	li	s7,0
   21f64:	010a1513          	slli	a0,s4,0x10
   21f68:	000087b7          	lui	a5,0x8
   21f6c:	010a5813          	srli	a6,s4,0x10
   21f70:	01055513          	srli	a0,a0,0x10
   21f74:	fff78793          	addi	a5,a5,-1 # 7fff <exit-0x8095>
   21f78:	05412623          	sw	s4,76(sp)
   21f7c:	05212023          	sw	s2,64(sp)
   21f80:	05612223          	sw	s6,68(sp)
   21f84:	05512423          	sw	s5,72(sp)
   21f88:	03212023          	sw	s2,32(sp)
   21f8c:	03612223          	sw	s6,36(sp)
   21f90:	03512423          	sw	s5,40(sp)
   21f94:	02a12623          	sw	a0,44(sp)
   21f98:	00f87833          	and	a6,a6,a5
   21f9c:	01fa5a13          	srli	s4,s4,0x1f
   21fa0:	66080ae3          	beqz	a6,22e14 <__multf3+0xfa0>
   21fa4:	00f81463          	bne	a6,a5,21fac <__multf3+0x138>
   21fa8:	7b50006f          	j	22f5c <__multf3+0x10e8>
   21fac:	000107b7          	lui	a5,0x10
   21fb0:	00f56533          	or	a0,a0,a5
   21fb4:	02a12623          	sw	a0,44(sp)
   21fb8:	02010613          	addi	a2,sp,32
   21fbc:	02c10793          	addi	a5,sp,44
   21fc0:	0007a703          	lw	a4,0(a5) # 10000 <exit-0x94>
   21fc4:	ffc7a683          	lw	a3,-4(a5)
   21fc8:	ffc78793          	addi	a5,a5,-4
   21fcc:	00371713          	slli	a4,a4,0x3
   21fd0:	01d6d693          	srli	a3,a3,0x1d
   21fd4:	00d76733          	or	a4,a4,a3
   21fd8:	00e7a223          	sw	a4,4(a5)
   21fdc:	fef612e3          	bne	a2,a5,21fc0 <__multf3+0x14c>
   21fe0:	02012783          	lw	a5,32(sp)
   21fe4:	00379793          	slli	a5,a5,0x3
   21fe8:	02f12023          	sw	a5,32(sp)
   21fec:	ffffc7b7          	lui	a5,0xffffc
   21ff0:	00178793          	addi	a5,a5,1 # ffffc001 <__BSS_END__+0xfffd5519>
   21ff4:	00f80833          	add	a6,a6,a5
   21ff8:	00000693          	li	a3,0
   21ffc:	002b9793          	slli	a5,s7,0x2
   22000:	00980833          	add	a6,a6,s1
   22004:	00d7e7b3          	or	a5,a5,a3
   22008:	00a00713          	li	a4,10
   2200c:	0149c933          	xor	s2,s3,s4
   22010:	00180c93          	addi	s9,a6,1
   22014:	00f75463          	bge	a4,a5,2201c <__multf3+0x1a8>
   22018:	7b50006f          	j	22fcc <__multf3+0x1158>
   2201c:	00200713          	li	a4,2
   22020:	00f75463          	bge	a4,a5,22028 <__multf3+0x1b4>
   22024:	7650006f          	j	22f88 <__multf3+0x1114>
   22028:	fff78793          	addi	a5,a5,-1
   2202c:	00100713          	li	a4,1
   22030:	00f76463          	bltu	a4,a5,22038 <__multf3+0x1c4>
   22034:	7fd0006f          	j	23030 <__multf3+0x11bc>
   22038:	01012e03          	lw	t3,16(sp)
   2203c:	02012303          	lw	t1,32(sp)
   22040:	00010fb7          	lui	t6,0x10
   22044:	ffff8793          	addi	a5,t6,-1 # ffff <exit-0x95>
   22048:	00fe78b3          	and	a7,t3,a5
   2204c:	00f377b3          	and	a5,t1,a5
   22050:	010e5293          	srli	t0,t3,0x10
   22054:	01035713          	srli	a4,t1,0x10
   22058:	00088513          	mv	a0,a7
   2205c:	00078593          	mv	a1,a5
   22060:	6d9020ef          	jal	ra,24f38 <__mulsi3>
   22064:	00050e93          	mv	t4,a0
   22068:	00070593          	mv	a1,a4
   2206c:	00088513          	mv	a0,a7
   22070:	6c9020ef          	jal	ra,24f38 <__mulsi3>
   22074:	00050893          	mv	a7,a0
   22078:	00078593          	mv	a1,a5
   2207c:	00028513          	mv	a0,t0
   22080:	6b9020ef          	jal	ra,24f38 <__mulsi3>
   22084:	00050f13          	mv	t5,a0
   22088:	00070593          	mv	a1,a4
   2208c:	00028513          	mv	a0,t0
   22090:	6a9020ef          	jal	ra,24f38 <__mulsi3>
   22094:	010ed713          	srli	a4,t4,0x10
   22098:	01e888b3          	add	a7,a7,t5
   2209c:	01170733          	add	a4,a4,a7
   220a0:	00050793          	mv	a5,a0
   220a4:	01e77463          	bgeu	a4,t5,220ac <__multf3+0x238>
   220a8:	01f507b3          	add	a5,a0,t6
   220ac:	01075693          	srli	a3,a4,0x10
   220b0:	00f687b3          	add	a5,a3,a5
   220b4:	000102b7          	lui	t0,0x10
   220b8:	02412f03          	lw	t5,36(sp)
   220bc:	04f12223          	sw	a5,68(sp)
   220c0:	fff28793          	addi	a5,t0,-1 # ffff <exit-0x95>
   220c4:	00f77733          	and	a4,a4,a5
   220c8:	01071713          	slli	a4,a4,0x10
   220cc:	00fefeb3          	and	t4,t4,a5
   220d0:	01d70533          	add	a0,a4,t4
   220d4:	00ff7fb3          	and	t6,t5,a5
   220d8:	00fe7733          	and	a4,t3,a5
   220dc:	04a12023          	sw	a0,64(sp)
   220e0:	010e5893          	srli	a7,t3,0x10
   220e4:	010f5393          	srli	t2,t5,0x10
   220e8:	00070513          	mv	a0,a4
   220ec:	000f8593          	mv	a1,t6
   220f0:	649020ef          	jal	ra,24f38 <__mulsi3>
   220f4:	00050e93          	mv	t4,a0
   220f8:	00038593          	mv	a1,t2
   220fc:	00070513          	mv	a0,a4
   22100:	639020ef          	jal	ra,24f38 <__mulsi3>
   22104:	00050713          	mv	a4,a0
   22108:	000f8593          	mv	a1,t6
   2210c:	00088513          	mv	a0,a7
   22110:	629020ef          	jal	ra,24f38 <__mulsi3>
   22114:	00050f93          	mv	t6,a0
   22118:	00038593          	mv	a1,t2
   2211c:	00088513          	mv	a0,a7
   22120:	619020ef          	jal	ra,24f38 <__mulsi3>
   22124:	010ed893          	srli	a7,t4,0x10
   22128:	01f70733          	add	a4,a4,t6
   2212c:	00e888b3          	add	a7,a7,a4
   22130:	00050b13          	mv	s6,a0
   22134:	01f8f463          	bgeu	a7,t6,2213c <__multf3+0x2c8>
   22138:	00550b33          	add	s6,a0,t0
   2213c:	01412f83          	lw	t6,20(sp)
   22140:	0108d393          	srli	t2,a7,0x10
   22144:	00f8f8b3          	and	a7,a7,a5
   22148:	00fefeb3          	and	t4,t4,a5
   2214c:	00fff2b3          	and	t0,t6,a5
   22150:	01089893          	slli	a7,a7,0x10
   22154:	00f377b3          	and	a5,t1,a5
   22158:	01d888b3          	add	a7,a7,t4
   2215c:	010fd993          	srli	s3,t6,0x10
   22160:	01035713          	srli	a4,t1,0x10
   22164:	00028513          	mv	a0,t0
   22168:	00078593          	mv	a1,a5
   2216c:	5cd020ef          	jal	ra,24f38 <__mulsi3>
   22170:	00050e93          	mv	t4,a0
   22174:	00070593          	mv	a1,a4
   22178:	00028513          	mv	a0,t0
   2217c:	5bd020ef          	jal	ra,24f38 <__mulsi3>
   22180:	00050293          	mv	t0,a0
   22184:	00078593          	mv	a1,a5
   22188:	00098513          	mv	a0,s3
   2218c:	5ad020ef          	jal	ra,24f38 <__mulsi3>
   22190:	00050493          	mv	s1,a0
   22194:	00070593          	mv	a1,a4
   22198:	00098513          	mv	a0,s3
   2219c:	59d020ef          	jal	ra,24f38 <__mulsi3>
   221a0:	010ed713          	srli	a4,t4,0x10
   221a4:	009282b3          	add	t0,t0,s1
   221a8:	00570733          	add	a4,a4,t0
   221ac:	00050793          	mv	a5,a0
   221b0:	00977663          	bgeu	a4,s1,221bc <__multf3+0x348>
   221b4:	000106b7          	lui	a3,0x10
   221b8:	00d507b3          	add	a5,a0,a3
   221bc:	000102b7          	lui	t0,0x10
   221c0:	fff28593          	addi	a1,t0,-1 # ffff <exit-0x95>
   221c4:	01075493          	srli	s1,a4,0x10
   221c8:	00b77733          	and	a4,a4,a1
   221cc:	00befeb3          	and	t4,t4,a1
   221d0:	00f484b3          	add	s1,s1,a5
   221d4:	00bf7ab3          	and	s5,t5,a1
   221d8:	00bff7b3          	and	a5,t6,a1
   221dc:	01071713          	slli	a4,a4,0x10
   221e0:	01d70733          	add	a4,a4,t4
   221e4:	010fda13          	srli	s4,t6,0x10
   221e8:	010f5993          	srli	s3,t5,0x10
   221ec:	00078513          	mv	a0,a5
   221f0:	000a8593          	mv	a1,s5
   221f4:	545020ef          	jal	ra,24f38 <__mulsi3>
   221f8:	00050e93          	mv	t4,a0
   221fc:	00098593          	mv	a1,s3
   22200:	00078513          	mv	a0,a5
   22204:	535020ef          	jal	ra,24f38 <__mulsi3>
   22208:	00050793          	mv	a5,a0
   2220c:	000a8593          	mv	a1,s5
   22210:	000a0513          	mv	a0,s4
   22214:	525020ef          	jal	ra,24f38 <__mulsi3>
   22218:	00050a93          	mv	s5,a0
   2221c:	00098593          	mv	a1,s3
   22220:	000a0513          	mv	a0,s4
   22224:	515020ef          	jal	ra,24f38 <__mulsi3>
   22228:	015787b3          	add	a5,a5,s5
   2222c:	010ed693          	srli	a3,t4,0x10
   22230:	00d787b3          	add	a5,a5,a3
   22234:	0157f463          	bgeu	a5,s5,2223c <__multf3+0x3c8>
   22238:	00550533          	add	a0,a0,t0
   2223c:	02812983          	lw	s3,40(sp)
   22240:	00010a37          	lui	s4,0x10
   22244:	fffa0593          	addi	a1,s4,-1 # ffff <exit-0x95>
   22248:	0107d293          	srli	t0,a5,0x10
   2224c:	00b7f7b3          	and	a5,a5,a1
   22250:	00befeb3          	and	t4,t4,a1
   22254:	00be7bb3          	and	s7,t3,a1
   22258:	00b9fab3          	and	s5,s3,a1
   2225c:	01079793          	slli	a5,a5,0x10
   22260:	00a282b3          	add	t0,t0,a0
   22264:	01d787b3          	add	a5,a5,t4
   22268:	010e5d13          	srli	s10,t3,0x10
   2226c:	0109dc13          	srli	s8,s3,0x10
   22270:	000b8513          	mv	a0,s7
   22274:	000a8593          	mv	a1,s5
   22278:	4c1020ef          	jal	ra,24f38 <__mulsi3>
   2227c:	00050e93          	mv	t4,a0
   22280:	000c0593          	mv	a1,s8
   22284:	000b8513          	mv	a0,s7
   22288:	4b1020ef          	jal	ra,24f38 <__mulsi3>
   2228c:	00050b93          	mv	s7,a0
   22290:	000a8593          	mv	a1,s5
   22294:	000d0513          	mv	a0,s10
   22298:	4a1020ef          	jal	ra,24f38 <__mulsi3>
   2229c:	00050a93          	mv	s5,a0
   222a0:	000c0593          	mv	a1,s8
   222a4:	000d0513          	mv	a0,s10
   222a8:	491020ef          	jal	ra,24f38 <__mulsi3>
   222ac:	010ed693          	srli	a3,t4,0x10
   222b0:	015b8633          	add	a2,s7,s5
   222b4:	00c686b3          	add	a3,a3,a2
   222b8:	0156f463          	bgeu	a3,s5,222c0 <__multf3+0x44c>
   222bc:	01450533          	add	a0,a0,s4
   222c0:	00010d37          	lui	s10,0x10
   222c4:	fffd0a13          	addi	s4,s10,-1 # ffff <exit-0x95>
   222c8:	0106d613          	srli	a2,a3,0x10
   222cc:	0146f6b3          	and	a3,a3,s4
   222d0:	014efeb3          	and	t4,t4,s4
   222d4:	01069693          	slli	a3,a3,0x10
   222d8:	01d686b3          	add	a3,a3,t4
   222dc:	01812e83          	lw	t4,24(sp)
   222e0:	00a60db3          	add	s11,a2,a0
   222e4:	00d12623          	sw	a3,12(sp)
   222e8:	014efbb3          	and	s7,t4,s4
   222ec:	01437a33          	and	s4,t1,s4
   222f0:	01035c13          	srli	s8,t1,0x10
   222f4:	000b8513          	mv	a0,s7
   222f8:	000a0593          	mv	a1,s4
   222fc:	43d020ef          	jal	ra,24f38 <__mulsi3>
   22300:	00050a93          	mv	s5,a0
   22304:	000c0593          	mv	a1,s8
   22308:	000b8513          	mv	a0,s7
   2230c:	42d020ef          	jal	ra,24f38 <__mulsi3>
   22310:	00050b93          	mv	s7,a0
   22314:	000a0593          	mv	a1,s4
   22318:	010ed513          	srli	a0,t4,0x10
   2231c:	41d020ef          	jal	ra,24f38 <__mulsi3>
   22320:	00050a13          	mv	s4,a0
   22324:	000c0593          	mv	a1,s8
   22328:	010ed513          	srli	a0,t4,0x10
   2232c:	40d020ef          	jal	ra,24f38 <__mulsi3>
   22330:	010ad693          	srli	a3,s5,0x10
   22334:	014b8bb3          	add	s7,s7,s4
   22338:	01768bb3          	add	s7,a3,s7
   2233c:	014bf463          	bgeu	s7,s4,22344 <__multf3+0x4d0>
   22340:	01a50533          	add	a0,a0,s10
   22344:	04412583          	lw	a1,68(sp)
   22348:	010bd693          	srli	a3,s7,0x10
   2234c:	00010a37          	lui	s4,0x10
   22350:	011588b3          	add	a7,a1,a7
   22354:	00b8b5b3          	sltu	a1,a7,a1
   22358:	00b383b3          	add	t2,t2,a1
   2235c:	016383b3          	add	t2,t2,s6
   22360:	00e88733          	add	a4,a7,a4
   22364:	009384b3          	add	s1,t2,s1
   22368:	04e12223          	sw	a4,68(sp)
   2236c:	01173733          	sltu	a4,a4,a7
   22370:	00e48733          	add	a4,s1,a4
   22374:	0074b633          	sltu	a2,s1,t2
   22378:	009734b3          	sltu	s1,a4,s1
   2237c:	00b3b3b3          	sltu	t2,t2,a1
   22380:	00966633          	or	a2,a2,s1
   22384:	00c12583          	lw	a1,12(sp)
   22388:	00760633          	add	a2,a2,t2
   2238c:	00f707b3          	add	a5,a4,a5
   22390:	00a68533          	add	a0,a3,a0
   22394:	fffa0693          	addi	a3,s4,-1 # ffff <exit-0x95>
   22398:	005602b3          	add	t0,a2,t0
   2239c:	00dbfbb3          	and	s7,s7,a3
   223a0:	00e7b733          	sltu	a4,a5,a4
   223a4:	00b788b3          	add	a7,a5,a1
   223a8:	00e28733          	add	a4,t0,a4
   223ac:	010b9b93          	slli	s7,s7,0x10
   223b0:	00dafab3          	and	s5,s5,a3
   223b4:	01b705b3          	add	a1,a4,s11
   223b8:	015b8ab3          	add	s5,s7,s5
   223bc:	00f8b7b3          	sltu	a5,a7,a5
   223c0:	00f587b3          	add	a5,a1,a5
   223c4:	01588ab3          	add	s5,a7,s5
   223c8:	00a78533          	add	a0,a5,a0
   223cc:	05512423          	sw	s5,72(sp)
   223d0:	011abab3          	sltu	s5,s5,a7
   223d4:	01550ab3          	add	s5,a0,s5
   223d8:	00c2b633          	sltu	a2,t0,a2
   223dc:	005732b3          	sltu	t0,a4,t0
   223e0:	00e5b733          	sltu	a4,a1,a4
   223e4:	00b7b5b3          	sltu	a1,a5,a1
   223e8:	02c12883          	lw	a7,44(sp)
   223ec:	00b76733          	or	a4,a4,a1
   223f0:	00566633          	or	a2,a2,t0
   223f4:	05512623          	sw	s5,76(sp)
   223f8:	00f537b3          	sltu	a5,a0,a5
   223fc:	00aabab3          	sltu	s5,s5,a0
   22400:	00e60633          	add	a2,a2,a4
   22404:	0157e7b3          	or	a5,a5,s5
   22408:	00c787b3          	add	a5,a5,a2
   2240c:	04f12823          	sw	a5,80(sp)
   22410:	010e5493          	srli	s1,t3,0x10
   22414:	00d8f7b3          	and	a5,a7,a3
   22418:	00de7e33          	and	t3,t3,a3
   2241c:	0108d713          	srli	a4,a7,0x10
   22420:	000e0513          	mv	a0,t3
   22424:	00078593          	mv	a1,a5
   22428:	311020ef          	jal	ra,24f38 <__mulsi3>
   2242c:	00050293          	mv	t0,a0
   22430:	00070593          	mv	a1,a4
   22434:	000e0513          	mv	a0,t3
   22438:	301020ef          	jal	ra,24f38 <__mulsi3>
   2243c:	00050e13          	mv	t3,a0
   22440:	00078593          	mv	a1,a5
   22444:	00048513          	mv	a0,s1
   22448:	2f1020ef          	jal	ra,24f38 <__mulsi3>
   2244c:	00050393          	mv	t2,a0
   22450:	00070593          	mv	a1,a4
   22454:	00048513          	mv	a0,s1
   22458:	2e1020ef          	jal	ra,24f38 <__mulsi3>
   2245c:	0102d713          	srli	a4,t0,0x10
   22460:	007e0e33          	add	t3,t3,t2
   22464:	01c70733          	add	a4,a4,t3
   22468:	00050793          	mv	a5,a0
   2246c:	00777463          	bgeu	a4,t2,22474 <__multf3+0x600>
   22470:	014507b3          	add	a5,a0,s4
   22474:	01075493          	srli	s1,a4,0x10
   22478:	000103b7          	lui	t2,0x10
   2247c:	00f484b3          	add	s1,s1,a5
   22480:	fff38793          	addi	a5,t2,-1 # ffff <exit-0x95>
   22484:	00f77733          	and	a4,a4,a5
   22488:	00f2f2b3          	and	t0,t0,a5
   2248c:	01071713          	slli	a4,a4,0x10
   22490:	00570733          	add	a4,a4,t0
   22494:	01c12283          	lw	t0,28(sp)
   22498:	01035a93          	srli	s5,t1,0x10
   2249c:	00f37333          	and	t1,t1,a5
   224a0:	00f2fa33          	and	s4,t0,a5
   224a4:	0102db13          	srli	s6,t0,0x10
   224a8:	000a0513          	mv	a0,s4
   224ac:	00030593          	mv	a1,t1
   224b0:	289020ef          	jal	ra,24f38 <__mulsi3>
   224b4:	00050e13          	mv	t3,a0
   224b8:	000a8593          	mv	a1,s5
   224bc:	000a0513          	mv	a0,s4
   224c0:	279020ef          	jal	ra,24f38 <__mulsi3>
   224c4:	00050a13          	mv	s4,a0
   224c8:	00030593          	mv	a1,t1
   224cc:	000b0513          	mv	a0,s6
   224d0:	269020ef          	jal	ra,24f38 <__mulsi3>
   224d4:	00050313          	mv	t1,a0
   224d8:	000a8593          	mv	a1,s5
   224dc:	000b0513          	mv	a0,s6
   224e0:	259020ef          	jal	ra,24f38 <__mulsi3>
   224e4:	010e5793          	srli	a5,t3,0x10
   224e8:	006a0a33          	add	s4,s4,t1
   224ec:	014787b3          	add	a5,a5,s4
   224f0:	00050693          	mv	a3,a0
   224f4:	0067f463          	bgeu	a5,t1,224fc <__multf3+0x688>
   224f8:	007506b3          	add	a3,a0,t2
   224fc:	0107d393          	srli	t2,a5,0x10
   22500:	00010a37          	lui	s4,0x10
   22504:	00d383b3          	add	t2,t2,a3
   22508:	fffa0693          	addi	a3,s4,-1 # ffff <exit-0x95>
   2250c:	00d7f7b3          	and	a5,a5,a3
   22510:	00de7e33          	and	t3,t3,a3
   22514:	01079793          	slli	a5,a5,0x10
   22518:	01c787b3          	add	a5,a5,t3
   2251c:	010fda93          	srli	s5,t6,0x10
   22520:	0109de13          	srli	t3,s3,0x10
   22524:	00dfffb3          	and	t6,t6,a3
   22528:	00d9f9b3          	and	s3,s3,a3
   2252c:	000f8513          	mv	a0,t6
   22530:	00098593          	mv	a1,s3
   22534:	205020ef          	jal	ra,24f38 <__mulsi3>
   22538:	00050313          	mv	t1,a0
   2253c:	000e0593          	mv	a1,t3
   22540:	000f8513          	mv	a0,t6
   22544:	1f5020ef          	jal	ra,24f38 <__mulsi3>
   22548:	00050f93          	mv	t6,a0
   2254c:	00098593          	mv	a1,s3
   22550:	000a8513          	mv	a0,s5
   22554:	1e5020ef          	jal	ra,24f38 <__mulsi3>
   22558:	00050993          	mv	s3,a0
   2255c:	000e0593          	mv	a1,t3
   22560:	000a8513          	mv	a0,s5
   22564:	1d5020ef          	jal	ra,24f38 <__mulsi3>
   22568:	01035e13          	srli	t3,t1,0x10
   2256c:	013f8fb3          	add	t6,t6,s3
   22570:	01fe0e33          	add	t3,t3,t6
   22574:	00050693          	mv	a3,a0
   22578:	013e7463          	bgeu	t3,s3,22580 <__multf3+0x70c>
   2257c:	014506b3          	add	a3,a0,s4
   22580:	010e5f93          	srli	t6,t3,0x10
   22584:	00010a37          	lui	s4,0x10
   22588:	00df8fb3          	add	t6,t6,a3
   2258c:	fffa0693          	addi	a3,s4,-1 # ffff <exit-0x95>
   22590:	00de7e33          	and	t3,t3,a3
   22594:	00d37333          	and	t1,t1,a3
   22598:	010f5b13          	srli	s6,t5,0x10
   2259c:	00defab3          	and	s5,t4,a3
   225a0:	00df7f33          	and	t5,t5,a3
   225a4:	010e1e13          	slli	t3,t3,0x10
   225a8:	006e0e33          	add	t3,t3,t1
   225ac:	000a8513          	mv	a0,s5
   225b0:	010ed313          	srli	t1,t4,0x10
   225b4:	000f0593          	mv	a1,t5
   225b8:	181020ef          	jal	ra,24f38 <__mulsi3>
   225bc:	00050993          	mv	s3,a0
   225c0:	000b0593          	mv	a1,s6
   225c4:	000a8513          	mv	a0,s5
   225c8:	171020ef          	jal	ra,24f38 <__mulsi3>
   225cc:	00050a93          	mv	s5,a0
   225d0:	000f0593          	mv	a1,t5
   225d4:	00030513          	mv	a0,t1
   225d8:	161020ef          	jal	ra,24f38 <__mulsi3>
   225dc:	00050f13          	mv	t5,a0
   225e0:	000b0593          	mv	a1,s6
   225e4:	00030513          	mv	a0,t1
   225e8:	151020ef          	jal	ra,24f38 <__mulsi3>
   225ec:	0109d693          	srli	a3,s3,0x10
   225f0:	01ea8633          	add	a2,s5,t5
   225f4:	00c686b3          	add	a3,a3,a2
   225f8:	01e6f463          	bgeu	a3,t5,22600 <__multf3+0x78c>
   225fc:	01450533          	add	a0,a0,s4
   22600:	00010337          	lui	t1,0x10
   22604:	fff30593          	addi	a1,t1,-1 # ffff <exit-0x95>
   22608:	0106d613          	srli	a2,a3,0x10
   2260c:	00b6f6b3          	and	a3,a3,a1
   22610:	00b9f9b3          	and	s3,s3,a1
   22614:	01069693          	slli	a3,a3,0x10
   22618:	00a60633          	add	a2,a2,a0
   2261c:	01368533          	add	a0,a3,s3
   22620:	04c12683          	lw	a3,76(sp)
   22624:	05012f03          	lw	t5,80(sp)
   22628:	02812983          	lw	s3,40(sp)
   2262c:	00e68733          	add	a4,a3,a4
   22630:	009f04b3          	add	s1,t5,s1
   22634:	00d736b3          	sltu	a3,a4,a3
   22638:	00d486b3          	add	a3,s1,a3
   2263c:	00f707b3          	add	a5,a4,a5
   22640:	007683b3          	add	t2,a3,t2
   22644:	00e7b733          	sltu	a4,a5,a4
   22648:	00e38733          	add	a4,t2,a4
   2264c:	01c78e33          	add	t3,a5,t3
   22650:	01e4bf33          	sltu	t5,s1,t5
   22654:	0096b4b3          	sltu	s1,a3,s1
   22658:	00d3b6b3          	sltu	a3,t2,a3
   2265c:	007733b3          	sltu	t2,a4,t2
   22660:	0076e6b3          	or	a3,a3,t2
   22664:	01f70fb3          	add	t6,a4,t6
   22668:	009f6f33          	or	t5,t5,s1
   2266c:	00fe37b3          	sltu	a5,t3,a5
   22670:	00df0f33          	add	t5,t5,a3
   22674:	00ff87b3          	add	a5,t6,a5
   22678:	00ae06b3          	add	a3,t3,a0
   2267c:	00c78633          	add	a2,a5,a2
   22680:	04d12623          	sw	a3,76(sp)
   22684:	01c6b6b3          	sltu	a3,a3,t3
   22688:	00d606b3          	add	a3,a2,a3
   2268c:	00efb733          	sltu	a4,t6,a4
   22690:	01f7bfb3          	sltu	t6,a5,t6
   22694:	01f76733          	or	a4,a4,t6
   22698:	04d12823          	sw	a3,80(sp)
   2269c:	00f637b3          	sltu	a5,a2,a5
   226a0:	00c6b6b3          	sltu	a3,a3,a2
   226a4:	01e70733          	add	a4,a4,t5
   226a8:	00d7e7b3          	or	a5,a5,a3
   226ac:	00e787b3          	add	a5,a5,a4
   226b0:	04f12a23          	sw	a5,84(sp)
   226b4:	010edf93          	srli	t6,t4,0x10
   226b8:	00b9f7b3          	and	a5,s3,a1
   226bc:	00befeb3          	and	t4,t4,a1
   226c0:	0109d713          	srli	a4,s3,0x10
   226c4:	000e8513          	mv	a0,t4
   226c8:	00078593          	mv	a1,a5
   226cc:	06d020ef          	jal	ra,24f38 <__mulsi3>
   226d0:	00050e13          	mv	t3,a0
   226d4:	00070593          	mv	a1,a4
   226d8:	000e8513          	mv	a0,t4
   226dc:	05d020ef          	jal	ra,24f38 <__mulsi3>
   226e0:	00050e93          	mv	t4,a0
   226e4:	00078593          	mv	a1,a5
   226e8:	000f8513          	mv	a0,t6
   226ec:	04d020ef          	jal	ra,24f38 <__mulsi3>
   226f0:	00050f13          	mv	t5,a0
   226f4:	00070593          	mv	a1,a4
   226f8:	000f8513          	mv	a0,t6
   226fc:	03d020ef          	jal	ra,24f38 <__mulsi3>
   22700:	010e5793          	srli	a5,t3,0x10
   22704:	01ee8eb3          	add	t4,t4,t5
   22708:	01d787b3          	add	a5,a5,t4
   2270c:	00050713          	mv	a4,a0
   22710:	01e7f463          	bgeu	a5,t5,22718 <__multf3+0x8a4>
   22714:	00650733          	add	a4,a0,t1
   22718:	0107d493          	srli	s1,a5,0x10
   2271c:	00010eb7          	lui	t4,0x10
   22720:	00e484b3          	add	s1,s1,a4
   22724:	fffe8713          	addi	a4,t4,-1 # ffff <exit-0x95>
   22728:	00e7f7b3          	and	a5,a5,a4
   2272c:	00ee7e33          	and	t3,t3,a4
   22730:	01079793          	slli	a5,a5,0x10
   22734:	01c787b3          	add	a5,a5,t3
   22738:	01412e03          	lw	t3,20(sp)
   2273c:	0108df13          	srli	t5,a7,0x10
   22740:	010e5393          	srli	t2,t3,0x10
   22744:	00ee7e33          	and	t3,t3,a4
   22748:	00e8f733          	and	a4,a7,a4
   2274c:	000e0513          	mv	a0,t3
   22750:	00070593          	mv	a1,a4
   22754:	7e4020ef          	jal	ra,24f38 <__mulsi3>
   22758:	00050313          	mv	t1,a0
   2275c:	000f0593          	mv	a1,t5
   22760:	000e0513          	mv	a0,t3
   22764:	7d4020ef          	jal	ra,24f38 <__mulsi3>
   22768:	00050e13          	mv	t3,a0
   2276c:	00070593          	mv	a1,a4
   22770:	00038513          	mv	a0,t2
   22774:	7c4020ef          	jal	ra,24f38 <__mulsi3>
   22778:	00050f93          	mv	t6,a0
   2277c:	000f0593          	mv	a1,t5
   22780:	00038513          	mv	a0,t2
   22784:	7b4020ef          	jal	ra,24f38 <__mulsi3>
   22788:	01035f13          	srli	t5,t1,0x10
   2278c:	01fe0e33          	add	t3,t3,t6
   22790:	01cf0f33          	add	t5,t5,t3
   22794:	00050713          	mv	a4,a0
   22798:	01ff7463          	bgeu	t5,t6,227a0 <__multf3+0x92c>
   2279c:	01d50733          	add	a4,a0,t4
   227a0:	010f5393          	srli	t2,t5,0x10
   227a4:	00e383b3          	add	t2,t2,a4
   227a8:	00010eb7          	lui	t4,0x10
   227ac:	02412703          	lw	a4,36(sp)
   227b0:	fffe8693          	addi	a3,t4,-1 # ffff <exit-0x95>
   227b4:	00df7f33          	and	t5,t5,a3
   227b8:	00d37333          	and	t1,t1,a3
   227bc:	01075a93          	srli	s5,a4,0x10
   227c0:	00d2fe33          	and	t3,t0,a3
   227c4:	00d77733          	and	a4,a4,a3
   227c8:	010f1f13          	slli	t5,t5,0x10
   227cc:	006f0f33          	add	t5,t5,t1
   227d0:	0102da13          	srli	s4,t0,0x10
   227d4:	000e0513          	mv	a0,t3
   227d8:	00070593          	mv	a1,a4
   227dc:	75c020ef          	jal	ra,24f38 <__mulsi3>
   227e0:	00050313          	mv	t1,a0
   227e4:	000a8593          	mv	a1,s5
   227e8:	000e0513          	mv	a0,t3
   227ec:	74c020ef          	jal	ra,24f38 <__mulsi3>
   227f0:	00050e13          	mv	t3,a0
   227f4:	00070593          	mv	a1,a4
   227f8:	000a0513          	mv	a0,s4
   227fc:	73c020ef          	jal	ra,24f38 <__mulsi3>
   22800:	00050f93          	mv	t6,a0
   22804:	000a8593          	mv	a1,s5
   22808:	000a0513          	mv	a0,s4
   2280c:	72c020ef          	jal	ra,24f38 <__mulsi3>
   22810:	01035713          	srli	a4,t1,0x10
   22814:	01fe0e33          	add	t3,t3,t6
   22818:	01c70733          	add	a4,a4,t3
   2281c:	00050693          	mv	a3,a0
   22820:	01f77463          	bgeu	a4,t6,22828 <__multf3+0x9b4>
   22824:	01d506b3          	add	a3,a0,t4
   22828:	01075f93          	srli	t6,a4,0x10
   2282c:	00010eb7          	lui	t4,0x10
   22830:	00df8fb3          	add	t6,t6,a3
   22834:	fffe8693          	addi	a3,t4,-1 # ffff <exit-0x95>
   22838:	00d77733          	and	a4,a4,a3
   2283c:	00d37333          	and	t1,t1,a3
   22840:	01071713          	slli	a4,a4,0x10
   22844:	00670733          	add	a4,a4,t1
   22848:	01812303          	lw	t1,24(sp)
   2284c:	0108de13          	srli	t3,a7,0x10
   22850:	00d8f8b3          	and	a7,a7,a3
   22854:	01035a93          	srli	s5,t1,0x10
   22858:	00d37333          	and	t1,t1,a3
   2285c:	00030513          	mv	a0,t1
   22860:	00088593          	mv	a1,a7
   22864:	6d4020ef          	jal	ra,24f38 <__mulsi3>
   22868:	00050a13          	mv	s4,a0
   2286c:	000e0593          	mv	a1,t3
   22870:	00030513          	mv	a0,t1
   22874:	6c4020ef          	jal	ra,24f38 <__mulsi3>
   22878:	00050313          	mv	t1,a0
   2287c:	00088593          	mv	a1,a7
   22880:	000a8513          	mv	a0,s5
   22884:	6b4020ef          	jal	ra,24f38 <__mulsi3>
   22888:	00050893          	mv	a7,a0
   2288c:	000e0593          	mv	a1,t3
   22890:	000a8513          	mv	a0,s5
   22894:	6a4020ef          	jal	ra,24f38 <__mulsi3>
   22898:	010a5e13          	srli	t3,s4,0x10
   2289c:	01130333          	add	t1,t1,a7
   228a0:	006e0e33          	add	t3,t3,t1
   228a4:	00050693          	mv	a3,a0
   228a8:	011e7463          	bgeu	t3,a7,228b0 <__multf3+0xa3c>
   228ac:	01d506b3          	add	a3,a0,t4
   228b0:	010e5e93          	srli	t4,t3,0x10
   228b4:	00010337          	lui	t1,0x10
   228b8:	00de8eb3          	add	t4,t4,a3
   228bc:	fff30693          	addi	a3,t1,-1 # ffff <exit-0x95>
   228c0:	00de7e33          	and	t3,t3,a3
   228c4:	00da7a33          	and	s4,s4,a3
   228c8:	010e1e13          	slli	t3,t3,0x10
   228cc:	014e0e33          	add	t3,t3,s4
   228d0:	0102db13          	srli	s6,t0,0x10
   228d4:	00d9fa33          	and	s4,s3,a3
   228d8:	00d2f2b3          	and	t0,t0,a3
   228dc:	0109da93          	srli	s5,s3,0x10
   228e0:	00028513          	mv	a0,t0
   228e4:	000a0593          	mv	a1,s4
   228e8:	650020ef          	jal	ra,24f38 <__mulsi3>
   228ec:	00050993          	mv	s3,a0
   228f0:	000a8593          	mv	a1,s5
   228f4:	00028513          	mv	a0,t0
   228f8:	640020ef          	jal	ra,24f38 <__mulsi3>
   228fc:	00050893          	mv	a7,a0
   22900:	000a0593          	mv	a1,s4
   22904:	000b0513          	mv	a0,s6
   22908:	630020ef          	jal	ra,24f38 <__mulsi3>
   2290c:	00050293          	mv	t0,a0
   22910:	000a8593          	mv	a1,s5
   22914:	000b0513          	mv	a0,s6
   22918:	620020ef          	jal	ra,24f38 <__mulsi3>
   2291c:	005886b3          	add	a3,a7,t0
   22920:	0109d613          	srli	a2,s3,0x10
   22924:	00c686b3          	add	a3,a3,a2
   22928:	0056f463          	bgeu	a3,t0,22930 <__multf3+0xabc>
   2292c:	00650533          	add	a0,a0,t1
   22930:	05012583          	lw	a1,80(sp)
   22934:	0106d613          	srli	a2,a3,0x10
   22938:	00a60633          	add	a2,a2,a0
   2293c:	05412503          	lw	a0,84(sp)
   22940:	00f587b3          	add	a5,a1,a5
   22944:	00b7b5b3          	sltu	a1,a5,a1
   22948:	009504b3          	add	s1,a0,s1
   2294c:	01e78f33          	add	t5,a5,t5
   22950:	00b485b3          	add	a1,s1,a1
   22954:	007583b3          	add	t2,a1,t2
   22958:	00ff37b3          	sltu	a5,t5,a5
   2295c:	00f387b3          	add	a5,t2,a5
   22960:	00ef0733          	add	a4,t5,a4
   22964:	01f78fb3          	add	t6,a5,t6
   22968:	04e12823          	sw	a4,80(sp)
   2296c:	01e73733          	sltu	a4,a4,t5
   22970:	00ef8733          	add	a4,t6,a4
   22974:	00010337          	lui	t1,0x10
   22978:	00a4b533          	sltu	a0,s1,a0
   2297c:	0095b4b3          	sltu	s1,a1,s1
   22980:	00b3b5b3          	sltu	a1,t2,a1
   22984:	0077b3b3          	sltu	t2,a5,t2
   22988:	fff30893          	addi	a7,t1,-1 # ffff <exit-0x95>
   2298c:	0075e5b3          	or	a1,a1,t2
   22990:	00956533          	or	a0,a0,s1
   22994:	00ffb7b3          	sltu	a5,t6,a5
   22998:	01f73fb3          	sltu	t6,a4,t6
   2299c:	00b50533          	add	a0,a0,a1
   229a0:	0116f6b3          	and	a3,a3,a7
   229a4:	01f7e7b3          	or	a5,a5,t6
   229a8:	01c70e33          	add	t3,a4,t3
   229ac:	00a787b3          	add	a5,a5,a0
   229b0:	0119f9b3          	and	s3,s3,a7
   229b4:	01069693          	slli	a3,a3,0x10
   229b8:	01d78eb3          	add	t4,a5,t4
   229bc:	013686b3          	add	a3,a3,s3
   229c0:	00ee3733          	sltu	a4,t3,a4
   229c4:	00ee8733          	add	a4,t4,a4
   229c8:	00de06b3          	add	a3,t3,a3
   229cc:	00c70633          	add	a2,a4,a2
   229d0:	04d12a23          	sw	a3,84(sp)
   229d4:	01c6b6b3          	sltu	a3,a3,t3
   229d8:	00d606b3          	add	a3,a2,a3
   229dc:	04d12c23          	sw	a3,88(sp)
   229e0:	00feb7b3          	sltu	a5,t4,a5
   229e4:	00c6b6b3          	sltu	a3,a3,a2
   229e8:	01d73eb3          	sltu	t4,a4,t4
   229ec:	00e63733          	sltu	a4,a2,a4
   229f0:	00d76733          	or	a4,a4,a3
   229f4:	01d7e7b3          	or	a5,a5,t4
   229f8:	00e787b3          	add	a5,a5,a4
   229fc:	04f12e23          	sw	a5,92(sp)
   22a00:	01c12703          	lw	a4,28(sp)
   22a04:	02c12783          	lw	a5,44(sp)
   22a08:	01075f93          	srli	t6,a4,0x10
   22a0c:	0107df13          	srli	t5,a5,0x10
   22a10:	01177733          	and	a4,a4,a7
   22a14:	0117f7b3          	and	a5,a5,a7
   22a18:	00070513          	mv	a0,a4
   22a1c:	00078593          	mv	a1,a5
   22a20:	518020ef          	jal	ra,24f38 <__mulsi3>
   22a24:	00050e13          	mv	t3,a0
   22a28:	000f0593          	mv	a1,t5
   22a2c:	00070513          	mv	a0,a4
   22a30:	508020ef          	jal	ra,24f38 <__mulsi3>
   22a34:	00050713          	mv	a4,a0
   22a38:	00078593          	mv	a1,a5
   22a3c:	000f8513          	mv	a0,t6
   22a40:	4f8020ef          	jal	ra,24f38 <__mulsi3>
   22a44:	00050e93          	mv	t4,a0
   22a48:	000f0593          	mv	a1,t5
   22a4c:	000f8513          	mv	a0,t6
   22a50:	4e8020ef          	jal	ra,24f38 <__mulsi3>
   22a54:	010e5793          	srli	a5,t3,0x10
   22a58:	01d70733          	add	a4,a4,t4
   22a5c:	00e787b3          	add	a5,a5,a4
   22a60:	00050693          	mv	a3,a0
   22a64:	01d7f463          	bgeu	a5,t4,22a6c <__multf3+0xbf8>
   22a68:	006506b3          	add	a3,a0,t1
   22a6c:	05812603          	lw	a2,88(sp)
   22a70:	0117f733          	and	a4,a5,a7
   22a74:	05c12583          	lw	a1,92(sp)
   22a78:	01071713          	slli	a4,a4,0x10
   22a7c:	011e7e33          	and	t3,t3,a7
   22a80:	01c70733          	add	a4,a4,t3
   22a84:	00e60733          	add	a4,a2,a4
   22a88:	0107d793          	srli	a5,a5,0x10
   22a8c:	00b787b3          	add	a5,a5,a1
   22a90:	00c73633          	sltu	a2,a4,a2
   22a94:	00c787b3          	add	a5,a5,a2
   22a98:	00d78533          	add	a0,a5,a3
   22a9c:	04e12c23          	sw	a4,88(sp)
   22aa0:	04012783          	lw	a5,64(sp)
   22aa4:	04412703          	lw	a4,68(sp)
   22aa8:	04a12e23          	sw	a0,92(sp)
   22aac:	05010593          	addi	a1,sp,80
   22ab0:	00f76733          	or	a4,a4,a5
   22ab4:	04812783          	lw	a5,72(sp)
   22ab8:	00f76733          	or	a4,a4,a5
   22abc:	04c12783          	lw	a5,76(sp)
   22ac0:	00d79793          	slli	a5,a5,0xd
   22ac4:	00e7e7b3          	or	a5,a5,a4
   22ac8:	04010713          	addi	a4,sp,64
   22acc:	00c72683          	lw	a3,12(a4)
   22ad0:	01072603          	lw	a2,16(a4)
   22ad4:	00470713          	addi	a4,a4,4
   22ad8:	0136d693          	srli	a3,a3,0x13
   22adc:	00d61613          	slli	a2,a2,0xd
   22ae0:	00c6e6b3          	or	a3,a3,a2
   22ae4:	fed72e23          	sw	a3,-4(a4)
   22ae8:	fee592e3          	bne	a1,a4,22acc <__multf3+0xc58>
   22aec:	04812683          	lw	a3,72(sp)
   22af0:	04012703          	lw	a4,64(sp)
   22af4:	00f037b3          	snez	a5,a5
   22af8:	02d12c23          	sw	a3,56(sp)
   22afc:	04412683          	lw	a3,68(sp)
   22b00:	00e7e7b3          	or	a5,a5,a4
   22b04:	04c12703          	lw	a4,76(sp)
   22b08:	02d12a23          	sw	a3,52(sp)
   22b0c:	001006b7          	lui	a3,0x100
   22b10:	02e12e23          	sw	a4,60(sp)
   22b14:	02f12823          	sw	a5,48(sp)
   22b18:	00d77733          	and	a4,a4,a3
   22b1c:	52070c63          	beqz	a4,23054 <__multf3+0x11e0>
   22b20:	01f79793          	slli	a5,a5,0x1f
   22b24:	03010713          	addi	a4,sp,48
   22b28:	03c10593          	addi	a1,sp,60
   22b2c:	00072683          	lw	a3,0(a4)
   22b30:	00472603          	lw	a2,4(a4)
   22b34:	00470713          	addi	a4,a4,4
   22b38:	0016d693          	srli	a3,a3,0x1
   22b3c:	01f61613          	slli	a2,a2,0x1f
   22b40:	00c6e6b3          	or	a3,a3,a2
   22b44:	fed72e23          	sw	a3,-4(a4)
   22b48:	fee592e3          	bne	a1,a4,22b2c <__multf3+0xcb8>
   22b4c:	03c12703          	lw	a4,60(sp)
   22b50:	00f037b3          	snez	a5,a5
   22b54:	00175713          	srli	a4,a4,0x1
   22b58:	02e12e23          	sw	a4,60(sp)
   22b5c:	03012703          	lw	a4,48(sp)
   22b60:	00f767b3          	or	a5,a4,a5
   22b64:	02f12823          	sw	a5,48(sp)
   22b68:	000047b7          	lui	a5,0x4
   22b6c:	fff78793          	addi	a5,a5,-1 # 3fff <exit-0xc095>
   22b70:	00fc87b3          	add	a5,s9,a5
   22b74:	50f05063          	blez	a5,23074 <__multf3+0x1200>
   22b78:	03012703          	lw	a4,48(sp)
   22b7c:	00777693          	andi	a3,a4,7
   22b80:	04068463          	beqz	a3,22bc8 <__multf3+0xd54>
   22b84:	00f77693          	andi	a3,a4,15
   22b88:	00400613          	li	a2,4
   22b8c:	02c68e63          	beq	a3,a2,22bc8 <__multf3+0xd54>
   22b90:	00470713          	addi	a4,a4,4
   22b94:	00473693          	sltiu	a3,a4,4
   22b98:	02e12823          	sw	a4,48(sp)
   22b9c:	03412703          	lw	a4,52(sp)
   22ba0:	00e68733          	add	a4,a3,a4
   22ba4:	02e12a23          	sw	a4,52(sp)
   22ba8:	00d73733          	sltu	a4,a4,a3
   22bac:	03812683          	lw	a3,56(sp)
   22bb0:	00e68733          	add	a4,a3,a4
   22bb4:	02e12c23          	sw	a4,56(sp)
   22bb8:	00d73733          	sltu	a4,a4,a3
   22bbc:	03c12683          	lw	a3,60(sp)
   22bc0:	00d70733          	add	a4,a4,a3
   22bc4:	02e12e23          	sw	a4,60(sp)
   22bc8:	03c12703          	lw	a4,60(sp)
   22bcc:	001006b7          	lui	a3,0x100
   22bd0:	00d776b3          	and	a3,a4,a3
   22bd4:	00068e63          	beqz	a3,22bf0 <__multf3+0xd7c>
   22bd8:	fff007b7          	lui	a5,0xfff00
   22bdc:	fff78793          	addi	a5,a5,-1 # ffefffff <__BSS_END__+0xffed9517>
   22be0:	00f77733          	and	a4,a4,a5
   22be4:	000047b7          	lui	a5,0x4
   22be8:	02e12e23          	sw	a4,60(sp)
   22bec:	00fc87b3          	add	a5,s9,a5
   22bf0:	03010713          	addi	a4,sp,48
   22bf4:	03c10593          	addi	a1,sp,60
   22bf8:	00072683          	lw	a3,0(a4)
   22bfc:	00472603          	lw	a2,4(a4)
   22c00:	00470713          	addi	a4,a4,4
   22c04:	0036d693          	srli	a3,a3,0x3
   22c08:	01d61613          	slli	a2,a2,0x1d
   22c0c:	00c6e6b3          	or	a3,a3,a2
   22c10:	fed72e23          	sw	a3,-4(a4)
   22c14:	feb712e3          	bne	a4,a1,22bf8 <__multf3+0xd84>
   22c18:	000086b7          	lui	a3,0x8
   22c1c:	ffe68613          	addi	a2,a3,-2 # 7ffe <exit-0x8096>
   22c20:	03c12703          	lw	a4,60(sp)
   22c24:	42f64c63          	blt	a2,a5,2305c <__multf3+0x11e8>
   22c28:	00375713          	srli	a4,a4,0x3
   22c2c:	02e12e23          	sw	a4,60(sp)
   22c30:	00f91913          	slli	s2,s2,0xf
   22c34:	00f96933          	or	s2,s2,a5
   22c38:	03012783          	lw	a5,48(sp)
   22c3c:	03c12703          	lw	a4,60(sp)
   22c40:	05211723          	sh	s2,78(sp)
   22c44:	00f42023          	sw	a5,0(s0) # 80000 <__BSS_END__+0x59518>
   22c48:	03412783          	lw	a5,52(sp)
   22c4c:	04e11623          	sh	a4,76(sp)
   22c50:	09c12083          	lw	ra,156(sp)
   22c54:	00f42223          	sw	a5,4(s0)
   22c58:	03812783          	lw	a5,56(sp)
   22c5c:	00040513          	mv	a0,s0
   22c60:	09412483          	lw	s1,148(sp)
   22c64:	00f42423          	sw	a5,8(s0)
   22c68:	04c12783          	lw	a5,76(sp)
   22c6c:	09012903          	lw	s2,144(sp)
   22c70:	08c12983          	lw	s3,140(sp)
   22c74:	00f42623          	sw	a5,12(s0)
   22c78:	09812403          	lw	s0,152(sp)
   22c7c:	08812a03          	lw	s4,136(sp)
   22c80:	08412a83          	lw	s5,132(sp)
   22c84:	08012b03          	lw	s6,128(sp)
   22c88:	07c12b83          	lw	s7,124(sp)
   22c8c:	07812c03          	lw	s8,120(sp)
   22c90:	07412c83          	lw	s9,116(sp)
   22c94:	07012d03          	lw	s10,112(sp)
   22c98:	06c12d83          	lw	s11,108(sp)
   22c9c:	0a010113          	addi	sp,sp,160
   22ca0:	00008067          	ret
   22ca4:	00a7e633          	or	a2,a5,a0
   22ca8:	00d66633          	or	a2,a2,a3
   22cac:	00e66633          	or	a2,a2,a4
   22cb0:	14060c63          	beqz	a2,22e08 <__multf3+0xf94>
   22cb4:	04070e63          	beqz	a4,22d10 <__multf3+0xe9c>
   22cb8:	00070513          	mv	a0,a4
   22cbc:	354020ef          	jal	ra,25010 <__clzsi2>
   22cc0:	ff450693          	addi	a3,a0,-12
   22cc4:	02000613          	li	a2,32
   22cc8:	40d60633          	sub	a2,a2,a3
   22ccc:	00000793          	li	a5,0
   22cd0:	40f005b3          	neg	a1,a5
   22cd4:	00259593          	slli	a1,a1,0x2
   22cd8:	00c58713          	addi	a4,a1,12
   22cdc:	01010313          	addi	t1,sp,16
   22ce0:	00e30733          	add	a4,t1,a4
   22ce4:	40b005b3          	neg	a1,a1
   22ce8:	0ee31063          	bne	t1,a4,22dc8 <__multf3+0xf54>
   22cec:	fff78713          	addi	a4,a5,-1 # 3fff <exit-0xc095>
   22cf0:	00279793          	slli	a5,a5,0x2
   22cf4:	01010613          	addi	a2,sp,16
   22cf8:	05078793          	addi	a5,a5,80
   22cfc:	00c787b3          	add	a5,a5,a2
   22d00:	01012603          	lw	a2,16(sp)
   22d04:	00d616b3          	sll	a3,a2,a3
   22d08:	fad7a823          	sw	a3,-80(a5)
   22d0c:	07c0006f          	j	22d88 <__multf3+0xf14>
   22d10:	02068663          	beqz	a3,22d3c <__multf3+0xec8>
   22d14:	00068513          	mv	a0,a3
   22d18:	2f8020ef          	jal	ra,25010 <__clzsi2>
   22d1c:	02050513          	addi	a0,a0,32
   22d20:	ff450693          	addi	a3,a0,-12
   22d24:	4056d793          	srai	a5,a3,0x5
   22d28:	01f6f693          	andi	a3,a3,31
   22d2c:	02068863          	beqz	a3,22d5c <__multf3+0xee8>
   22d30:	02000613          	li	a2,32
   22d34:	40d60633          	sub	a2,a2,a3
   22d38:	f99ff06f          	j	22cd0 <__multf3+0xe5c>
   22d3c:	00050863          	beqz	a0,22d4c <__multf3+0xed8>
   22d40:	2d0020ef          	jal	ra,25010 <__clzsi2>
   22d44:	04050513          	addi	a0,a0,64
   22d48:	fd9ff06f          	j	22d20 <__multf3+0xeac>
   22d4c:	00078513          	mv	a0,a5
   22d50:	2c0020ef          	jal	ra,25010 <__clzsi2>
   22d54:	06050513          	addi	a0,a0,96
   22d58:	fc9ff06f          	j	22d20 <__multf3+0xeac>
   22d5c:	40f00633          	neg	a2,a5
   22d60:	01c10713          	addi	a4,sp,28
   22d64:	00261613          	slli	a2,a2,0x2
   22d68:	00300693          	li	a3,3
   22d6c:	00c705b3          	add	a1,a4,a2
   22d70:	0005a583          	lw	a1,0(a1)
   22d74:	fff68693          	addi	a3,a3,-1
   22d78:	ffc70713          	addi	a4,a4,-4
   22d7c:	00b72223          	sw	a1,4(a4)
   22d80:	fef6d6e3          	bge	a3,a5,22d6c <__multf3+0xef8>
   22d84:	fff78713          	addi	a4,a5,-1
   22d88:	00170793          	addi	a5,a4,1
   22d8c:	00279793          	slli	a5,a5,0x2
   22d90:	00800693          	li	a3,8
   22d94:	01010713          	addi	a4,sp,16
   22d98:	00d7ea63          	bltu	a5,a3,22dac <__multf3+0xf38>
   22d9c:	00012823          	sw	zero,16(sp)
   22da0:	00072223          	sw	zero,4(a4)
   22da4:	ff878793          	addi	a5,a5,-8
   22da8:	01810713          	addi	a4,sp,24
   22dac:	00400693          	li	a3,4
   22db0:	00d7e463          	bltu	a5,a3,22db8 <__multf3+0xf44>
   22db4:	00072023          	sw	zero,0(a4)
   22db8:	ffffc4b7          	lui	s1,0xffffc
   22dbc:	01148493          	addi	s1,s1,17 # ffffc011 <__BSS_END__+0xfffd5529>
   22dc0:	40a484b3          	sub	s1,s1,a0
   22dc4:	99cff06f          	j	21f60 <__multf3+0xec>
   22dc8:	00072803          	lw	a6,0(a4)
   22dcc:	ffc72883          	lw	a7,-4(a4)
   22dd0:	00b70e33          	add	t3,a4,a1
   22dd4:	00d81833          	sll	a6,a6,a3
   22dd8:	00c8d8b3          	srl	a7,a7,a2
   22ddc:	01186833          	or	a6,a6,a7
   22de0:	010e2023          	sw	a6,0(t3)
   22de4:	ffc70713          	addi	a4,a4,-4
   22de8:	f01ff06f          	j	22ce8 <__multf3+0xe74>
   22dec:	00a7e7b3          	or	a5,a5,a0
   22df0:	00d7e7b3          	or	a5,a5,a3
   22df4:	00e7e7b3          	or	a5,a5,a4
   22df8:	00200b93          	li	s7,2
   22dfc:	96078463          	beqz	a5,21f64 <__multf3+0xf0>
   22e00:	00300b93          	li	s7,3
   22e04:	960ff06f          	j	21f64 <__multf3+0xf0>
   22e08:	00000493          	li	s1,0
   22e0c:	00100b93          	li	s7,1
   22e10:	954ff06f          	j	21f64 <__multf3+0xf0>
   22e14:	016967b3          	or	a5,s2,s6
   22e18:	0157e7b3          	or	a5,a5,s5
   22e1c:	00a7e7b3          	or	a5,a5,a0
   22e20:	14078e63          	beqz	a5,22f7c <__multf3+0x1108>
   22e24:	04050c63          	beqz	a0,22e7c <__multf3+0x1008>
   22e28:	1e8020ef          	jal	ra,25010 <__clzsi2>
   22e2c:	ff450693          	addi	a3,a0,-12
   22e30:	02000593          	li	a1,32
   22e34:	40d585b3          	sub	a1,a1,a3
   22e38:	00000793          	li	a5,0
   22e3c:	40f00633          	neg	a2,a5
   22e40:	00261613          	slli	a2,a2,0x2
   22e44:	00c60713          	addi	a4,a2,12
   22e48:	02010313          	addi	t1,sp,32
   22e4c:	00e30733          	add	a4,t1,a4
   22e50:	40c00633          	neg	a2,a2
   22e54:	0ee31263          	bne	t1,a4,22f38 <__multf3+0x10c4>
   22e58:	fff78713          	addi	a4,a5,-1
   22e5c:	00279793          	slli	a5,a5,0x2
   22e60:	01010613          	addi	a2,sp,16
   22e64:	05078793          	addi	a5,a5,80
   22e68:	00c787b3          	add	a5,a5,a2
   22e6c:	02012603          	lw	a2,32(sp)
   22e70:	00d616b3          	sll	a3,a2,a3
   22e74:	fcd7a023          	sw	a3,-64(a5)
   22e78:	0800006f          	j	22ef8 <__multf3+0x1084>
   22e7c:	020a8663          	beqz	s5,22ea8 <__multf3+0x1034>
   22e80:	000a8513          	mv	a0,s5
   22e84:	18c020ef          	jal	ra,25010 <__clzsi2>
   22e88:	02050513          	addi	a0,a0,32
   22e8c:	ff450693          	addi	a3,a0,-12
   22e90:	4056d793          	srai	a5,a3,0x5
   22e94:	01f6f693          	andi	a3,a3,31
   22e98:	02068a63          	beqz	a3,22ecc <__multf3+0x1058>
   22e9c:	02000593          	li	a1,32
   22ea0:	40d585b3          	sub	a1,a1,a3
   22ea4:	f99ff06f          	j	22e3c <__multf3+0xfc8>
   22ea8:	000b0a63          	beqz	s6,22ebc <__multf3+0x1048>
   22eac:	000b0513          	mv	a0,s6
   22eb0:	160020ef          	jal	ra,25010 <__clzsi2>
   22eb4:	04050513          	addi	a0,a0,64
   22eb8:	fd5ff06f          	j	22e8c <__multf3+0x1018>
   22ebc:	00090513          	mv	a0,s2
   22ec0:	150020ef          	jal	ra,25010 <__clzsi2>
   22ec4:	06050513          	addi	a0,a0,96
   22ec8:	fc5ff06f          	j	22e8c <__multf3+0x1018>
   22ecc:	40f00633          	neg	a2,a5
   22ed0:	02c10713          	addi	a4,sp,44
   22ed4:	00261613          	slli	a2,a2,0x2
   22ed8:	00300693          	li	a3,3
   22edc:	00c705b3          	add	a1,a4,a2
   22ee0:	0005a583          	lw	a1,0(a1)
   22ee4:	fff68693          	addi	a3,a3,-1
   22ee8:	ffc70713          	addi	a4,a4,-4
   22eec:	00b72223          	sw	a1,4(a4)
   22ef0:	fef6d6e3          	bge	a3,a5,22edc <__multf3+0x1068>
   22ef4:	fff78713          	addi	a4,a5,-1
   22ef8:	00170793          	addi	a5,a4,1
   22efc:	00279793          	slli	a5,a5,0x2
   22f00:	00800693          	li	a3,8
   22f04:	02010713          	addi	a4,sp,32
   22f08:	00d7ea63          	bltu	a5,a3,22f1c <__multf3+0x10a8>
   22f0c:	02012023          	sw	zero,32(sp)
   22f10:	00072223          	sw	zero,4(a4)
   22f14:	ff878793          	addi	a5,a5,-8
   22f18:	02810713          	addi	a4,sp,40
   22f1c:	00400693          	li	a3,4
   22f20:	00d7e463          	bltu	a5,a3,22f28 <__multf3+0x10b4>
   22f24:	00072023          	sw	zero,0(a4)
   22f28:	ffffc837          	lui	a6,0xffffc
   22f2c:	01180813          	addi	a6,a6,17 # ffffc011 <__BSS_END__+0xfffd5529>
   22f30:	40a80833          	sub	a6,a6,a0
   22f34:	8c4ff06f          	j	21ff8 <__multf3+0x184>
   22f38:	00072803          	lw	a6,0(a4)
   22f3c:	ffc72883          	lw	a7,-4(a4)
   22f40:	00c70e33          	add	t3,a4,a2
   22f44:	00d81833          	sll	a6,a6,a3
   22f48:	00b8d8b3          	srl	a7,a7,a1
   22f4c:	01186833          	or	a6,a6,a7
   22f50:	010e2023          	sw	a6,0(t3)
   22f54:	ffc70713          	addi	a4,a4,-4
   22f58:	efdff06f          	j	22e54 <__multf3+0xfe0>
   22f5c:	01696933          	or	s2,s2,s6
   22f60:	01596933          	or	s2,s2,s5
   22f64:	00a96933          	or	s2,s2,a0
   22f68:	00200693          	li	a3,2
   22f6c:	00091463          	bnez	s2,22f74 <__multf3+0x1100>
   22f70:	88cff06f          	j	21ffc <__multf3+0x188>
   22f74:	00300693          	li	a3,3
   22f78:	884ff06f          	j	21ffc <__multf3+0x188>
   22f7c:	00000813          	li	a6,0
   22f80:	00100693          	li	a3,1
   22f84:	878ff06f          	j	21ffc <__multf3+0x188>
   22f88:	00100713          	li	a4,1
   22f8c:	00f717b3          	sll	a5,a4,a5
   22f90:	5307f713          	andi	a4,a5,1328
   22f94:	04071663          	bnez	a4,22fe0 <__multf3+0x116c>
   22f98:	0887f713          	andi	a4,a5,136
   22f9c:	08071863          	bnez	a4,2302c <__multf3+0x11b8>
   22fa0:	2407f793          	andi	a5,a5,576
   22fa4:	00079463          	bnez	a5,22fac <__multf3+0x1138>
   22fa8:	890ff06f          	j	22038 <__multf3+0x1c4>
   22fac:	000087b7          	lui	a5,0x8
   22fb0:	02f12e23          	sw	a5,60(sp)
   22fb4:	02012c23          	sw	zero,56(sp)
   22fb8:	02012a23          	sw	zero,52(sp)
   22fbc:	02012823          	sw	zero,48(sp)
   22fc0:	fff78793          	addi	a5,a5,-1 # 7fff <exit-0x8095>
   22fc4:	00000913          	li	s2,0
   22fc8:	c69ff06f          	j	22c30 <__multf3+0xdbc>
   22fcc:	00f00713          	li	a4,15
   22fd0:	fce78ee3          	beq	a5,a4,22fac <__multf3+0x1138>
   22fd4:	00b00713          	li	a4,11
   22fd8:	04e78a63          	beq	a5,a4,2302c <__multf3+0x11b8>
   22fdc:	00098913          	mv	s2,s3
   22fe0:	01012783          	lw	a5,16(sp)
   22fe4:	02f12823          	sw	a5,48(sp)
   22fe8:	01412783          	lw	a5,20(sp)
   22fec:	02f12a23          	sw	a5,52(sp)
   22ff0:	01812783          	lw	a5,24(sp)
   22ff4:	02f12c23          	sw	a5,56(sp)
   22ff8:	01c12783          	lw	a5,28(sp)
   22ffc:	02f12e23          	sw	a5,60(sp)
   23000:	00200793          	li	a5,2
   23004:	28fb8063          	beq	s7,a5,23284 <__multf3+0x1410>
   23008:	00300793          	li	a5,3
   2300c:	fafb80e3          	beq	s7,a5,22fac <__multf3+0x1138>
   23010:	00100793          	li	a5,1
   23014:	b4fb9ae3          	bne	s7,a5,22b68 <__multf3+0xcf4>
   23018:	02012e23          	sw	zero,60(sp)
   2301c:	02012c23          	sw	zero,56(sp)
   23020:	02012a23          	sw	zero,52(sp)
   23024:	02012823          	sw	zero,48(sp)
   23028:	2300006f          	j	23258 <__multf3+0x13e4>
   2302c:	000a0913          	mv	s2,s4
   23030:	02012783          	lw	a5,32(sp)
   23034:	00068b93          	mv	s7,a3
   23038:	02f12823          	sw	a5,48(sp)
   2303c:	02412783          	lw	a5,36(sp)
   23040:	02f12a23          	sw	a5,52(sp)
   23044:	02812783          	lw	a5,40(sp)
   23048:	02f12c23          	sw	a5,56(sp)
   2304c:	02c12783          	lw	a5,44(sp)
   23050:	fadff06f          	j	22ffc <__multf3+0x1188>
   23054:	00080c93          	mv	s9,a6
   23058:	b11ff06f          	j	22b68 <__multf3+0xcf4>
   2305c:	02012e23          	sw	zero,60(sp)
   23060:	02012c23          	sw	zero,56(sp)
   23064:	02012a23          	sw	zero,52(sp)
   23068:	02012823          	sw	zero,48(sp)
   2306c:	fff68793          	addi	a5,a3,-1
   23070:	bc1ff06f          	j	22c30 <__multf3+0xdbc>
   23074:	00100693          	li	a3,1
   23078:	00078863          	beqz	a5,23088 <__multf3+0x1214>
   2307c:	40f686b3          	sub	a3,a3,a5
   23080:	07400793          	li	a5,116
   23084:	1cd7ce63          	blt	a5,a3,23260 <__multf3+0x13ec>
   23088:	03010513          	addi	a0,sp,48
   2308c:	4056d713          	srai	a4,a3,0x5
   23090:	00050593          	mv	a1,a0
   23094:	01f6f693          	andi	a3,a3,31
   23098:	00000793          	li	a5,0
   2309c:	00000613          	li	a2,0
   230a0:	02e61e63          	bne	a2,a4,230dc <__multf3+0x1268>
   230a4:	00300613          	li	a2,3
   230a8:	40e60633          	sub	a2,a2,a4
   230ac:	00271593          	slli	a1,a4,0x2
   230b0:	04069063          	bnez	a3,230f0 <__multf3+0x127c>
   230b4:	00050813          	mv	a6,a0
   230b8:	00b808b3          	add	a7,a6,a1
   230bc:	0008a883          	lw	a7,0(a7)
   230c0:	00168693          	addi	a3,a3,1
   230c4:	00480813          	addi	a6,a6,4
   230c8:	ff182e23          	sw	a7,-4(a6)
   230cc:	fed656e3          	bge	a2,a3,230b8 <__multf3+0x1244>
   230d0:	00400693          	li	a3,4
   230d4:	40e68733          	sub	a4,a3,a4
   230d8:	06c0006f          	j	23144 <__multf3+0x12d0>
   230dc:	0005a803          	lw	a6,0(a1)
   230e0:	00160613          	addi	a2,a2,1
   230e4:	00458593          	addi	a1,a1,4
   230e8:	0107e7b3          	or	a5,a5,a6
   230ec:	fb5ff06f          	j	230a0 <__multf3+0x122c>
   230f0:	05058813          	addi	a6,a1,80
   230f4:	01010313          	addi	t1,sp,16
   230f8:	00680833          	add	a6,a6,t1
   230fc:	fd082803          	lw	a6,-48(a6)
   23100:	02000893          	li	a7,32
   23104:	40d888b3          	sub	a7,a7,a3
   23108:	01181833          	sll	a6,a6,a7
   2310c:	0107e7b3          	or	a5,a5,a6
   23110:	00b505b3          	add	a1,a0,a1
   23114:	00050e13          	mv	t3,a0
   23118:	00000313          	li	t1,0
   2311c:	0ec34263          	blt	t1,a2,23200 <__multf3+0x138c>
   23120:	00400593          	li	a1,4
   23124:	00261613          	slli	a2,a2,0x2
   23128:	40e58733          	sub	a4,a1,a4
   2312c:	05060613          	addi	a2,a2,80
   23130:	01010593          	addi	a1,sp,16
   23134:	00b60633          	add	a2,a2,a1
   23138:	03c12583          	lw	a1,60(sp)
   2313c:	00d5d6b3          	srl	a3,a1,a3
   23140:	fcd62823          	sw	a3,-48(a2)
   23144:	00400693          	li	a3,4
   23148:	40e686b3          	sub	a3,a3,a4
   2314c:	00269693          	slli	a3,a3,0x2
   23150:	00271713          	slli	a4,a4,0x2
   23154:	00800613          	li	a2,8
   23158:	00e50733          	add	a4,a0,a4
   2315c:	00c6ea63          	bltu	a3,a2,23170 <__multf3+0x12fc>
   23160:	00072023          	sw	zero,0(a4)
   23164:	00072223          	sw	zero,4(a4)
   23168:	ff868693          	addi	a3,a3,-8
   2316c:	00870713          	addi	a4,a4,8
   23170:	00400613          	li	a2,4
   23174:	00c6e463          	bltu	a3,a2,2317c <__multf3+0x1308>
   23178:	00072023          	sw	zero,0(a4)
   2317c:	03012703          	lw	a4,48(sp)
   23180:	00f037b3          	snez	a5,a5
   23184:	00e7e7b3          	or	a5,a5,a4
   23188:	02f12823          	sw	a5,48(sp)
   2318c:	0077f713          	andi	a4,a5,7
   23190:	04070463          	beqz	a4,231d8 <__multf3+0x1364>
   23194:	00f7f713          	andi	a4,a5,15
   23198:	00400693          	li	a3,4
   2319c:	02d70e63          	beq	a4,a3,231d8 <__multf3+0x1364>
   231a0:	03412703          	lw	a4,52(sp)
   231a4:	00478793          	addi	a5,a5,4
   231a8:	02f12823          	sw	a5,48(sp)
   231ac:	0047b793          	sltiu	a5,a5,4
   231b0:	00f707b3          	add	a5,a4,a5
   231b4:	02f12a23          	sw	a5,52(sp)
   231b8:	00e7b7b3          	sltu	a5,a5,a4
   231bc:	03812703          	lw	a4,56(sp)
   231c0:	00f707b3          	add	a5,a4,a5
   231c4:	02f12c23          	sw	a5,56(sp)
   231c8:	00e7b7b3          	sltu	a5,a5,a4
   231cc:	03c12703          	lw	a4,60(sp)
   231d0:	00e787b3          	add	a5,a5,a4
   231d4:	02f12e23          	sw	a5,60(sp)
   231d8:	03c12703          	lw	a4,60(sp)
   231dc:	000807b7          	lui	a5,0x80
   231e0:	00e7f7b3          	and	a5,a5,a4
   231e4:	04078263          	beqz	a5,23228 <__multf3+0x13b4>
   231e8:	02012e23          	sw	zero,60(sp)
   231ec:	02012c23          	sw	zero,56(sp)
   231f0:	02012a23          	sw	zero,52(sp)
   231f4:	02012823          	sw	zero,48(sp)
   231f8:	00100793          	li	a5,1
   231fc:	a35ff06f          	j	22c30 <__multf3+0xdbc>
   23200:	0005a803          	lw	a6,0(a1)
   23204:	0045ae83          	lw	t4,4(a1)
   23208:	00458593          	addi	a1,a1,4
   2320c:	00d85833          	srl	a6,a6,a3
   23210:	011e9eb3          	sll	t4,t4,a7
   23214:	01d86833          	or	a6,a6,t4
   23218:	010e2023          	sw	a6,0(t3)
   2321c:	00130313          	addi	t1,t1,1
   23220:	004e0e13          	addi	t3,t3,4
   23224:	ef9ff06f          	j	2311c <__multf3+0x12a8>
   23228:	00c50693          	addi	a3,a0,12
   2322c:	00052783          	lw	a5,0(a0)
   23230:	00452703          	lw	a4,4(a0)
   23234:	00450513          	addi	a0,a0,4
   23238:	0037d793          	srli	a5,a5,0x3
   2323c:	01d71713          	slli	a4,a4,0x1d
   23240:	00e7e7b3          	or	a5,a5,a4
   23244:	fef52e23          	sw	a5,-4(a0)
   23248:	fea692e3          	bne	a3,a0,2322c <__multf3+0x13b8>
   2324c:	03c12783          	lw	a5,60(sp)
   23250:	0037d793          	srli	a5,a5,0x3
   23254:	02f12e23          	sw	a5,60(sp)
   23258:	00000793          	li	a5,0
   2325c:	9d5ff06f          	j	22c30 <__multf3+0xdbc>
   23260:	03412703          	lw	a4,52(sp)
   23264:	03012783          	lw	a5,48(sp)
   23268:	00e7e7b3          	or	a5,a5,a4
   2326c:	03812703          	lw	a4,56(sp)
   23270:	00e7e7b3          	or	a5,a5,a4
   23274:	03c12703          	lw	a4,60(sp)
   23278:	00e7e7b3          	or	a5,a5,a4
   2327c:	fc078ee3          	beqz	a5,23258 <__multf3+0x13e4>
   23280:	d99ff06f          	j	23018 <__multf3+0x11a4>
   23284:	000087b7          	lui	a5,0x8
   23288:	02012e23          	sw	zero,60(sp)
   2328c:	02012c23          	sw	zero,56(sp)
   23290:	02012a23          	sw	zero,52(sp)
   23294:	02012823          	sw	zero,48(sp)
   23298:	fff78793          	addi	a5,a5,-1 # 7fff <exit-0x8095>
   2329c:	995ff06f          	j	22c30 <__multf3+0xdbc>

000232a0 <__subtf3>:
   232a0:	f9010113          	addi	sp,sp,-112
   232a4:	0085a783          	lw	a5,8(a1)
   232a8:	05512a23          	sw	s5,84(sp)
   232ac:	00c5aa83          	lw	s5,12(a1)
   232b0:	0045a703          	lw	a4,4(a1)
   232b4:	05412c23          	sw	s4,88(sp)
   232b8:	00050a13          	mv	s4,a0
   232bc:	0005a503          	lw	a0,0(a1)
   232c0:	02f12c23          	sw	a5,56(sp)
   232c4:	00f12c23          	sw	a5,24(sp)
   232c8:	010a9793          	slli	a5,s5,0x10
   232cc:	06912223          	sw	s1,100(sp)
   232d0:	0107d793          	srli	a5,a5,0x10
   232d4:	001a9493          	slli	s1,s5,0x1
   232d8:	00062803          	lw	a6,0(a2)
   232dc:	00462583          	lw	a1,4(a2)
   232e0:	00862683          	lw	a3,8(a2)
   232e4:	05312e23          	sw	s3,92(sp)
   232e8:	02a12823          	sw	a0,48(sp)
   232ec:	00c62983          	lw	s3,12(a2)
   232f0:	03512e23          	sw	s5,60(sp)
   232f4:	00a12823          	sw	a0,16(sp)
   232f8:	06112623          	sw	ra,108(sp)
   232fc:	06812423          	sw	s0,104(sp)
   23300:	07212023          	sw	s2,96(sp)
   23304:	05612823          	sw	s6,80(sp)
   23308:	05712623          	sw	s7,76(sp)
   2330c:	05812423          	sw	s8,72(sp)
   23310:	02e12a23          	sw	a4,52(sp)
   23314:	00e12a23          	sw	a4,20(sp)
   23318:	00f12e23          	sw	a5,28(sp)
   2331c:	0114d493          	srli	s1,s1,0x11
   23320:	01fada93          	srli	s5,s5,0x1f
   23324:	01010513          	addi	a0,sp,16
   23328:	01c10613          	addi	a2,sp,28
   2332c:	00062783          	lw	a5,0(a2)
   23330:	ffc62703          	lw	a4,-4(a2)
   23334:	ffc60613          	addi	a2,a2,-4
   23338:	00379793          	slli	a5,a5,0x3
   2333c:	01d75713          	srli	a4,a4,0x1d
   23340:	00e7e7b3          	or	a5,a5,a4
   23344:	00f62223          	sw	a5,4(a2)
   23348:	fec512e3          	bne	a0,a2,2332c <__subtf3+0x8c>
   2334c:	01012783          	lw	a5,16(sp)
   23350:	01099713          	slli	a4,s3,0x10
   23354:	00199b93          	slli	s7,s3,0x1
   23358:	00379793          	slli	a5,a5,0x3
   2335c:	01075713          	srli	a4,a4,0x10
   23360:	03012823          	sw	a6,48(sp)
   23364:	03312e23          	sw	s3,60(sp)
   23368:	03012023          	sw	a6,32(sp)
   2336c:	00f12823          	sw	a5,16(sp)
   23370:	02b12a23          	sw	a1,52(sp)
   23374:	02d12c23          	sw	a3,56(sp)
   23378:	02b12223          	sw	a1,36(sp)
   2337c:	02d12423          	sw	a3,40(sp)
   23380:	02e12623          	sw	a4,44(sp)
   23384:	011bdb93          	srli	s7,s7,0x11
   23388:	01f9d993          	srli	s3,s3,0x1f
   2338c:	02010813          	addi	a6,sp,32
   23390:	02c10893          	addi	a7,sp,44
   23394:	0008a703          	lw	a4,0(a7)
   23398:	ffc8a683          	lw	a3,-4(a7)
   2339c:	ffc88893          	addi	a7,a7,-4
   233a0:	00371713          	slli	a4,a4,0x3
   233a4:	01d6d693          	srli	a3,a3,0x1d
   233a8:	00d76733          	or	a4,a4,a3
   233ac:	00e8a223          	sw	a4,4(a7)
   233b0:	ff1812e3          	bne	a6,a7,23394 <__subtf3+0xf4>
   233b4:	02012403          	lw	s0,32(sp)
   233b8:	00008e37          	lui	t3,0x8
   233bc:	fffe0e13          	addi	t3,t3,-1 # 7fff <exit-0x8095>
   233c0:	00341413          	slli	s0,s0,0x3
   233c4:	02812023          	sw	s0,32(sp)
   233c8:	417485b3          	sub	a1,s1,s7
   233cc:	07cb9e63          	bne	s7,t3,23448 <__subtf3+0x1a8>
   233d0:	02812683          	lw	a3,40(sp)
   233d4:	02412703          	lw	a4,36(sp)
   233d8:	00058313          	mv	t1,a1
   233dc:	00d76733          	or	a4,a4,a3
   233e0:	02c12683          	lw	a3,44(sp)
   233e4:	00d76733          	or	a4,a4,a3
   233e8:	00876733          	or	a4,a4,s0
   233ec:	04070a63          	beqz	a4,23440 <__subtf3+0x1a0>
   233f0:	333a9ce3          	bne	s5,s3,23f28 <__subtf3+0xc88>
   233f4:	02412903          	lw	s2,36(sp)
   233f8:	02812983          	lw	s3,40(sp)
   233fc:	02c12b03          	lw	s6,44(sp)
   23400:	6c058663          	beqz	a1,23acc <__subtf3+0x82c>
   23404:	409b85b3          	sub	a1,s7,s1
   23408:	50049463          	bnez	s1,23910 <__subtf3+0x670>
   2340c:	01412683          	lw	a3,20(sp)
   23410:	01812703          	lw	a4,24(sp)
   23414:	01c12883          	lw	a7,28(sp)
   23418:	00e6e833          	or	a6,a3,a4
   2341c:	01186833          	or	a6,a6,a7
   23420:	00f86833          	or	a6,a6,a5
   23424:	46081a63          	bnez	a6,23898 <__subtf3+0x5f8>
   23428:	02812823          	sw	s0,48(sp)
   2342c:	03212a23          	sw	s2,52(sp)
   23430:	03312c23          	sw	s3,56(sp)
   23434:	03612e23          	sw	s6,60(sp)
   23438:	00058493          	mv	s1,a1
   2343c:	0e00006f          	j	2351c <__subtf3+0x27c>
   23440:	0019c993          	xori	s3,s3,1
   23444:	fadff06f          	j	233f0 <__subtf3+0x150>
   23448:	0019c993          	xori	s3,s3,1
   2344c:	00058313          	mv	t1,a1
   23450:	073a96e3          	bne	s5,s3,23cbc <__subtf3+0xa1c>
   23454:	fab050e3          	blez	a1,233f4 <__subtf3+0x154>
   23458:	01412903          	lw	s2,20(sp)
   2345c:	01812983          	lw	s3,24(sp)
   23460:	01c12b03          	lw	s6,28(sp)
   23464:	0a0b9263          	bnez	s7,23508 <__subtf3+0x268>
   23468:	02412683          	lw	a3,36(sp)
   2346c:	02812703          	lw	a4,40(sp)
   23470:	02c12503          	lw	a0,44(sp)
   23474:	00e6e633          	or	a2,a3,a4
   23478:	00a66633          	or	a2,a2,a0
   2347c:	00866633          	or	a2,a2,s0
   23480:	00061663          	bnez	a2,2348c <__subtf3+0x1ec>
   23484:	02f12823          	sw	a5,48(sp)
   23488:	fa5ff06f          	j	2342c <__subtf3+0x18c>
   2348c:	fff58613          	addi	a2,a1,-1
   23490:	04061863          	bnez	a2,234e0 <__subtf3+0x240>
   23494:	00878433          	add	s0,a5,s0
   23498:	01268933          	add	s2,a3,s2
   2349c:	02812823          	sw	s0,48(sp)
   234a0:	00f43433          	sltu	s0,s0,a5
   234a4:	00890433          	add	s0,s2,s0
   234a8:	02812a23          	sw	s0,52(sp)
   234ac:	00d936b3          	sltu	a3,s2,a3
   234b0:	01243433          	sltu	s0,s0,s2
   234b4:	013709b3          	add	s3,a4,s3
   234b8:	0086e6b3          	or	a3,a3,s0
   234bc:	00d986b3          	add	a3,s3,a3
   234c0:	02d12c23          	sw	a3,56(sp)
   234c4:	00e9b7b3          	sltu	a5,s3,a4
   234c8:	0136b6b3          	sltu	a3,a3,s3
   234cc:	00d7e7b3          	or	a5,a5,a3
   234d0:	01650533          	add	a0,a0,s6
   234d4:	00a787b3          	add	a5,a5,a0
   234d8:	00100493          	li	s1,1
   234dc:	3040006f          	j	237e0 <__subtf3+0x540>
   234e0:	01c58463          	beq	a1,t3,234e8 <__subtf3+0x248>
   234e4:	2580106f          	j	2473c <__subtf3+0x149c>
   234e8:	02f12823          	sw	a5,48(sp)
   234ec:	40c0006f          	j	238f8 <__subtf3+0x658>
   234f0:	00040793          	mv	a5,s0
   234f4:	ff5ff06f          	j	234e8 <__subtf3+0x248>
   234f8:	00068913          	mv	s2,a3
   234fc:	00070993          	mv	s3,a4
   23500:	00060b13          	mv	s6,a2
   23504:	fe5ff06f          	j	234e8 <__subtf3+0x248>
   23508:	17c49c63          	bne	s1,t3,23680 <__subtf3+0x3e0>
   2350c:	02f12823          	sw	a5,48(sp)
   23510:	03212a23          	sw	s2,52(sp)
   23514:	03312c23          	sw	s3,56(sp)
   23518:	03612e23          	sw	s6,60(sp)
   2351c:	03012783          	lw	a5,48(sp)
   23520:	0077f713          	andi	a4,a5,7
   23524:	04070463          	beqz	a4,2356c <__subtf3+0x2cc>
   23528:	00f7f713          	andi	a4,a5,15
   2352c:	00400693          	li	a3,4
   23530:	02d70e63          	beq	a4,a3,2356c <__subtf3+0x2cc>
   23534:	03412703          	lw	a4,52(sp)
   23538:	00478793          	addi	a5,a5,4
   2353c:	02f12823          	sw	a5,48(sp)
   23540:	0047b793          	sltiu	a5,a5,4
   23544:	00f707b3          	add	a5,a4,a5
   23548:	02f12a23          	sw	a5,52(sp)
   2354c:	00e7b7b3          	sltu	a5,a5,a4
   23550:	03812703          	lw	a4,56(sp)
   23554:	00f707b3          	add	a5,a4,a5
   23558:	02f12c23          	sw	a5,56(sp)
   2355c:	00e7b7b3          	sltu	a5,a5,a4
   23560:	03c12703          	lw	a4,60(sp)
   23564:	00e787b3          	add	a5,a5,a4
   23568:	02f12e23          	sw	a5,60(sp)
   2356c:	03c12783          	lw	a5,60(sp)
   23570:	00080737          	lui	a4,0x80
   23574:	00e7f733          	and	a4,a5,a4
   23578:	02070463          	beqz	a4,235a0 <__subtf3+0x300>
   2357c:	00008737          	lui	a4,0x8
   23580:	00148493          	addi	s1,s1,1
   23584:	fff70713          	addi	a4,a4,-1 # 7fff <exit-0x8095>
   23588:	00e49463          	bne	s1,a4,23590 <__subtf3+0x2f0>
   2358c:	19c0106f          	j	24728 <__subtf3+0x1488>
   23590:	fff80737          	lui	a4,0xfff80
   23594:	fff70713          	addi	a4,a4,-1 # fff7ffff <__BSS_END__+0xfff59517>
   23598:	00e7f7b3          	and	a5,a5,a4
   2359c:	02f12e23          	sw	a5,60(sp)
   235a0:	03010793          	addi	a5,sp,48
   235a4:	03c10613          	addi	a2,sp,60
   235a8:	0007a703          	lw	a4,0(a5)
   235ac:	0047a683          	lw	a3,4(a5)
   235b0:	00478793          	addi	a5,a5,4
   235b4:	00375713          	srli	a4,a4,0x3
   235b8:	01d69693          	slli	a3,a3,0x1d
   235bc:	00d76733          	or	a4,a4,a3
   235c0:	fee7ae23          	sw	a4,-4(a5)
   235c4:	fef612e3          	bne	a2,a5,235a8 <__subtf3+0x308>
   235c8:	03c12703          	lw	a4,60(sp)
   235cc:	000086b7          	lui	a3,0x8
   235d0:	fff68793          	addi	a5,a3,-1 # 7fff <exit-0x8095>
   235d4:	00375713          	srli	a4,a4,0x3
   235d8:	02e12e23          	sw	a4,60(sp)
   235dc:	02f49a63          	bne	s1,a5,23610 <__subtf3+0x370>
   235e0:	03412603          	lw	a2,52(sp)
   235e4:	03012783          	lw	a5,48(sp)
   235e8:	00c7e7b3          	or	a5,a5,a2
   235ec:	03812603          	lw	a2,56(sp)
   235f0:	00c7e7b3          	or	a5,a5,a2
   235f4:	00e7e7b3          	or	a5,a5,a4
   235f8:	00078c63          	beqz	a5,23610 <__subtf3+0x370>
   235fc:	02d12e23          	sw	a3,60(sp)
   23600:	02012c23          	sw	zero,56(sp)
   23604:	02012a23          	sw	zero,52(sp)
   23608:	02012823          	sw	zero,48(sp)
   2360c:	00000a93          	li	s5,0
   23610:	03c12783          	lw	a5,60(sp)
   23614:	01149493          	slli	s1,s1,0x11
   23618:	0114d493          	srli	s1,s1,0x11
   2361c:	00f11623          	sh	a5,12(sp)
   23620:	03012783          	lw	a5,48(sp)
   23624:	00fa9a93          	slli	s5,s5,0xf
   23628:	009aeab3          	or	s5,s5,s1
   2362c:	00fa2023          	sw	a5,0(s4)
   23630:	03412783          	lw	a5,52(sp)
   23634:	01511723          	sh	s5,14(sp)
   23638:	06c12083          	lw	ra,108(sp)
   2363c:	00fa2223          	sw	a5,4(s4)
   23640:	03812783          	lw	a5,56(sp)
   23644:	06812403          	lw	s0,104(sp)
   23648:	06412483          	lw	s1,100(sp)
   2364c:	00fa2423          	sw	a5,8(s4)
   23650:	00c12783          	lw	a5,12(sp)
   23654:	06012903          	lw	s2,96(sp)
   23658:	05c12983          	lw	s3,92(sp)
   2365c:	00fa2623          	sw	a5,12(s4)
   23660:	05412a83          	lw	s5,84(sp)
   23664:	05012b03          	lw	s6,80(sp)
   23668:	04c12b83          	lw	s7,76(sp)
   2366c:	04812c03          	lw	s8,72(sp)
   23670:	000a0513          	mv	a0,s4
   23674:	05812a03          	lw	s4,88(sp)
   23678:	07010113          	addi	sp,sp,112
   2367c:	00008067          	ret
   23680:	02c12703          	lw	a4,44(sp)
   23684:	000806b7          	lui	a3,0x80
   23688:	00d76733          	or	a4,a4,a3
   2368c:	02e12623          	sw	a4,44(sp)
   23690:	07400713          	li	a4,116
   23694:	00b75463          	bge	a4,a1,2369c <__subtf3+0x3fc>
   23698:	0b00106f          	j	24748 <__subtf3+0x14a8>
   2369c:	00058613          	mv	a2,a1
   236a0:	40565693          	srai	a3,a2,0x5
   236a4:	00088513          	mv	a0,a7
   236a8:	01f67613          	andi	a2,a2,31
   236ac:	00000713          	li	a4,0
   236b0:	00000593          	li	a1,0
   236b4:	02d59c63          	bne	a1,a3,236ec <__subtf3+0x44c>
   236b8:	00300593          	li	a1,3
   236bc:	40d585b3          	sub	a1,a1,a3
   236c0:	00269513          	slli	a0,a3,0x2
   236c4:	02061e63          	bnez	a2,23700 <__subtf3+0x460>
   236c8:	00a88333          	add	t1,a7,a0
   236cc:	00032303          	lw	t1,0(t1)
   236d0:	00160613          	addi	a2,a2,1
   236d4:	00488893          	addi	a7,a7,4
   236d8:	fe68ae23          	sw	t1,-4(a7)
   236dc:	fec5d6e3          	bge	a1,a2,236c8 <__subtf3+0x428>
   236e0:	00400613          	li	a2,4
   236e4:	40d606b3          	sub	a3,a2,a3
   236e8:	0600006f          	j	23748 <__subtf3+0x4a8>
   236ec:	00052303          	lw	t1,0(a0)
   236f0:	00158593          	addi	a1,a1,1
   236f4:	00450513          	addi	a0,a0,4
   236f8:	00676733          	or	a4,a4,t1
   236fc:	fb9ff06f          	j	236b4 <__subtf3+0x414>
   23700:	04050313          	addi	t1,a0,64
   23704:	00230333          	add	t1,t1,sp
   23708:	fe032303          	lw	t1,-32(t1)
   2370c:	02000e13          	li	t3,32
   23710:	40ce0e33          	sub	t3,t3,a2
   23714:	01c31333          	sll	t1,t1,t3
   23718:	00676733          	or	a4,a4,t1
   2371c:	00a80533          	add	a0,a6,a0
   23720:	00000e93          	li	t4,0
   23724:	14bec663          	blt	t4,a1,23870 <__subtf3+0x5d0>
   23728:	00400513          	li	a0,4
   2372c:	40d506b3          	sub	a3,a0,a3
   23730:	02c12503          	lw	a0,44(sp)
   23734:	00259593          	slli	a1,a1,0x2
   23738:	04058593          	addi	a1,a1,64
   2373c:	002585b3          	add	a1,a1,sp
   23740:	00c55633          	srl	a2,a0,a2
   23744:	fec5a023          	sw	a2,-32(a1)
   23748:	00400613          	li	a2,4
   2374c:	40d60633          	sub	a2,a2,a3
   23750:	00261613          	slli	a2,a2,0x2
   23754:	00269693          	slli	a3,a3,0x2
   23758:	00800593          	li	a1,8
   2375c:	00d806b3          	add	a3,a6,a3
   23760:	00b66a63          	bltu	a2,a1,23774 <__subtf3+0x4d4>
   23764:	0006a023          	sw	zero,0(a3) # 80000 <__BSS_END__+0x59518>
   23768:	0006a223          	sw	zero,4(a3)
   2376c:	ff860613          	addi	a2,a2,-8
   23770:	00868693          	addi	a3,a3,8
   23774:	00400593          	li	a1,4
   23778:	00b66463          	bltu	a2,a1,23780 <__subtf3+0x4e0>
   2377c:	0006a023          	sw	zero,0(a3)
   23780:	02012683          	lw	a3,32(sp)
   23784:	00e03733          	snez	a4,a4
   23788:	00d76733          	or	a4,a4,a3
   2378c:	02412683          	lw	a3,36(sp)
   23790:	02e12023          	sw	a4,32(sp)
   23794:	00e78733          	add	a4,a5,a4
   23798:	01268933          	add	s2,a3,s2
   2379c:	02e12823          	sw	a4,48(sp)
   237a0:	00f73733          	sltu	a4,a4,a5
   237a4:	02812783          	lw	a5,40(sp)
   237a8:	00e90733          	add	a4,s2,a4
   237ac:	02e12a23          	sw	a4,52(sp)
   237b0:	00d936b3          	sltu	a3,s2,a3
   237b4:	01273733          	sltu	a4,a4,s2
   237b8:	013789b3          	add	s3,a5,s3
   237bc:	00e6e733          	or	a4,a3,a4
   237c0:	00e98733          	add	a4,s3,a4
   237c4:	02e12c23          	sw	a4,56(sp)
   237c8:	00f9b7b3          	sltu	a5,s3,a5
   237cc:	01373733          	sltu	a4,a4,s3
   237d0:	00e7e7b3          	or	a5,a5,a4
   237d4:	02c12703          	lw	a4,44(sp)
   237d8:	00eb0733          	add	a4,s6,a4
   237dc:	00e787b3          	add	a5,a5,a4
   237e0:	00080737          	lui	a4,0x80
   237e4:	02f12e23          	sw	a5,60(sp)
   237e8:	00e7f733          	and	a4,a5,a4
   237ec:	d20708e3          	beqz	a4,2351c <__subtf3+0x27c>
   237f0:	fff80737          	lui	a4,0xfff80
   237f4:	fff70713          	addi	a4,a4,-1 # fff7ffff <__BSS_END__+0xfff59517>
   237f8:	00e7f7b3          	and	a5,a5,a4
   237fc:	02f12e23          	sw	a5,60(sp)
   23800:	03012783          	lw	a5,48(sp)
   23804:	00148493          	addi	s1,s1,1
   23808:	03c10593          	addi	a1,sp,60
   2380c:	01f79713          	slli	a4,a5,0x1f
   23810:	03010793          	addi	a5,sp,48
   23814:	0007a683          	lw	a3,0(a5)
   23818:	0047a603          	lw	a2,4(a5)
   2381c:	00478793          	addi	a5,a5,4
   23820:	0016d693          	srli	a3,a3,0x1
   23824:	01f61613          	slli	a2,a2,0x1f
   23828:	00c6e6b3          	or	a3,a3,a2
   2382c:	fed7ae23          	sw	a3,-4(a5)
   23830:	fef592e3          	bne	a1,a5,23814 <__subtf3+0x574>
   23834:	03c12783          	lw	a5,60(sp)
   23838:	0017d793          	srli	a5,a5,0x1
   2383c:	02f12e23          	sw	a5,60(sp)
   23840:	00e037b3          	snez	a5,a4
   23844:	03012703          	lw	a4,48(sp)
   23848:	00f767b3          	or	a5,a4,a5
   2384c:	02f12823          	sw	a5,48(sp)
   23850:	000087b7          	lui	a5,0x8
   23854:	fff78793          	addi	a5,a5,-1 # 7fff <exit-0x8095>
   23858:	ccf492e3          	bne	s1,a5,2351c <__subtf3+0x27c>
   2385c:	02012e23          	sw	zero,60(sp)
   23860:	02012c23          	sw	zero,56(sp)
   23864:	02012a23          	sw	zero,52(sp)
   23868:	02012823          	sw	zero,48(sp)
   2386c:	cb1ff06f          	j	2351c <__subtf3+0x27c>
   23870:	00052303          	lw	t1,0(a0)
   23874:	00452f03          	lw	t5,4(a0)
   23878:	00450513          	addi	a0,a0,4
   2387c:	00c35333          	srl	t1,t1,a2
   23880:	01cf1f33          	sll	t5,t5,t3
   23884:	01e36333          	or	t1,t1,t5
   23888:	0068a023          	sw	t1,0(a7)
   2388c:	001e8e93          	addi	t4,t4,1
   23890:	00488893          	addi	a7,a7,4
   23894:	e91ff06f          	j	23724 <__subtf3+0x484>
   23898:	fff58813          	addi	a6,a1,-1
   2389c:	04081663          	bnez	a6,238e8 <__subtf3+0x648>
   238a0:	00878433          	add	s0,a5,s0
   238a4:	01268933          	add	s2,a3,s2
   238a8:	02812823          	sw	s0,48(sp)
   238ac:	00f43433          	sltu	s0,s0,a5
   238b0:	00890433          	add	s0,s2,s0
   238b4:	02812a23          	sw	s0,52(sp)
   238b8:	00d936b3          	sltu	a3,s2,a3
   238bc:	01243433          	sltu	s0,s0,s2
   238c0:	013709b3          	add	s3,a4,s3
   238c4:	0086e6b3          	or	a3,a3,s0
   238c8:	00d986b3          	add	a3,s3,a3
   238cc:	00e9b7b3          	sltu	a5,s3,a4
   238d0:	02d12c23          	sw	a3,56(sp)
   238d4:	0136b6b3          	sltu	a3,a3,s3
   238d8:	00d7e7b3          	or	a5,a5,a3
   238dc:	01688733          	add	a4,a7,s6
   238e0:	00e787b3          	add	a5,a5,a4
   238e4:	bf5ff06f          	j	234d8 <__subtf3+0x238>
   238e8:	000087b7          	lui	a5,0x8
   238ec:	fff78793          	addi	a5,a5,-1 # 7fff <exit-0x8095>
   238f0:	66f596e3          	bne	a1,a5,2475c <__subtf3+0x14bc>
   238f4:	02812823          	sw	s0,48(sp)
   238f8:	03212a23          	sw	s2,52(sp)
   238fc:	03312c23          	sw	s3,56(sp)
   23900:	03612e23          	sw	s6,60(sp)
   23904:	3ac0006f          	j	23cb0 <__subtf3+0xa10>
   23908:	00078413          	mv	s0,a5
   2390c:	fe9ff06f          	j	238f4 <__subtf3+0x654>
   23910:	000087b7          	lui	a5,0x8
   23914:	fff78793          	addi	a5,a5,-1 # 7fff <exit-0x8095>
   23918:	fcfb8ee3          	beq	s7,a5,238f4 <__subtf3+0x654>
   2391c:	01c12783          	lw	a5,28(sp)
   23920:	00080737          	lui	a4,0x80
   23924:	00e7e7b3          	or	a5,a5,a4
   23928:	00f12e23          	sw	a5,28(sp)
   2392c:	07400793          	li	a5,116
   23930:	62b7cae3          	blt	a5,a1,24764 <__subtf3+0x14c4>
   23934:	00058813          	mv	a6,a1
   23938:	41f85713          	srai	a4,a6,0x1f
   2393c:	01f77713          	andi	a4,a4,31
   23940:	01070733          	add	a4,a4,a6
   23944:	40575713          	srai	a4,a4,0x5
   23948:	00060693          	mv	a3,a2
   2394c:	00000493          	li	s1,0
   23950:	00000793          	li	a5,0
   23954:	02e7ce63          	blt	a5,a4,23990 <__subtf3+0x6f0>
   23958:	00300793          	li	a5,3
   2395c:	01f87893          	andi	a7,a6,31
   23960:	40e78333          	sub	t1,a5,a4
   23964:	00271693          	slli	a3,a4,0x2
   23968:	02089e63          	bnez	a7,239a4 <__subtf3+0x704>
   2396c:	00d607b3          	add	a5,a2,a3
   23970:	0007a783          	lw	a5,0(a5)
   23974:	00188893          	addi	a7,a7,1
   23978:	00460613          	addi	a2,a2,4
   2397c:	fef62e23          	sw	a5,-4(a2)
   23980:	ff1356e3          	bge	t1,a7,2396c <__subtf3+0x6cc>
   23984:	00400793          	li	a5,4
   23988:	40e78733          	sub	a4,a5,a4
   2398c:	0900006f          	j	23a1c <__subtf3+0x77c>
   23990:	0006a583          	lw	a1,0(a3)
   23994:	00178793          	addi	a5,a5,1
   23998:	00468693          	addi	a3,a3,4
   2399c:	00b4e4b3          	or	s1,s1,a1
   239a0:	fb5ff06f          	j	23954 <__subtf3+0x6b4>
   239a4:	800007b7          	lui	a5,0x80000
   239a8:	01f78793          	addi	a5,a5,31 # 8000001f <__BSS_END__+0x7ffd9537>
   239ac:	00f877b3          	and	a5,a6,a5
   239b0:	0007d863          	bgez	a5,239c0 <__subtf3+0x720>
   239b4:	fff78793          	addi	a5,a5,-1
   239b8:	fe07e793          	ori	a5,a5,-32
   239bc:	00178793          	addi	a5,a5,1
   239c0:	02000813          	li	a6,32
   239c4:	40f80833          	sub	a6,a6,a5
   239c8:	00070593          	mv	a1,a4
   239cc:	00075463          	bgez	a4,239d4 <__subtf3+0x734>
   239d0:	00000593          	li	a1,0
   239d4:	00259593          	slli	a1,a1,0x2
   239d8:	04058793          	addi	a5,a1,64
   239dc:	002785b3          	add	a1,a5,sp
   239e0:	fd05a783          	lw	a5,-48(a1)
   239e4:	00d506b3          	add	a3,a0,a3
   239e8:	010797b3          	sll	a5,a5,a6
   239ec:	00f4e4b3          	or	s1,s1,a5
   239f0:	00000793          	li	a5,0
   239f4:	00468693          	addi	a3,a3,4
   239f8:	0a67c863          	blt	a5,t1,23aa8 <__subtf3+0x808>
   239fc:	01c12683          	lw	a3,28(sp)
   23a00:	00400793          	li	a5,4
   23a04:	40e78733          	sub	a4,a5,a4
   23a08:	00231793          	slli	a5,t1,0x2
   23a0c:	04078793          	addi	a5,a5,64
   23a10:	002787b3          	add	a5,a5,sp
   23a14:	0116d6b3          	srl	a3,a3,a7
   23a18:	fcd7a823          	sw	a3,-48(a5)
   23a1c:	00400793          	li	a5,4
   23a20:	00000613          	li	a2,0
   23a24:	00e7c663          	blt	a5,a4,23a30 <__subtf3+0x790>
   23a28:	40e787b3          	sub	a5,a5,a4
   23a2c:	00279613          	slli	a2,a5,0x2
   23a30:	00271713          	slli	a4,a4,0x2
   23a34:	00e50533          	add	a0,a0,a4
   23a38:	00000593          	li	a1,0
   23a3c:	855ec0ef          	jal	ra,10290 <memset>
   23a40:	01012703          	lw	a4,16(sp)
   23a44:	009037b3          	snez	a5,s1
   23a48:	00e7e7b3          	or	a5,a5,a4
   23a4c:	01412683          	lw	a3,20(sp)
   23a50:	00f12823          	sw	a5,16(sp)
   23a54:	00f407b3          	add	a5,s0,a5
   23a58:	01268933          	add	s2,a3,s2
   23a5c:	02f12823          	sw	a5,48(sp)
   23a60:	0087b7b3          	sltu	a5,a5,s0
   23a64:	00f90733          	add	a4,s2,a5
   23a68:	01812783          	lw	a5,24(sp)
   23a6c:	02e12a23          	sw	a4,52(sp)
   23a70:	00d936b3          	sltu	a3,s2,a3
   23a74:	01273733          	sltu	a4,a4,s2
   23a78:	013789b3          	add	s3,a5,s3
   23a7c:	00e6e733          	or	a4,a3,a4
   23a80:	00e98733          	add	a4,s3,a4
   23a84:	02e12c23          	sw	a4,56(sp)
   23a88:	00f9b7b3          	sltu	a5,s3,a5
   23a8c:	01373733          	sltu	a4,a4,s3
   23a90:	00e7e7b3          	or	a5,a5,a4
   23a94:	01c12703          	lw	a4,28(sp)
   23a98:	000b8493          	mv	s1,s7
   23a9c:	00eb0733          	add	a4,s6,a4
   23aa0:	00e787b3          	add	a5,a5,a4
   23aa4:	d3dff06f          	j	237e0 <__subtf3+0x540>
   23aa8:	ffc6a583          	lw	a1,-4(a3)
   23aac:	0006ae03          	lw	t3,0(a3)
   23ab0:	00178793          	addi	a5,a5,1
   23ab4:	0115d5b3          	srl	a1,a1,a7
   23ab8:	010e1e33          	sll	t3,t3,a6
   23abc:	01c5e5b3          	or	a1,a1,t3
   23ac0:	00b62023          	sw	a1,0(a2)
   23ac4:	00460613          	addi	a2,a2,4
   23ac8:	f2dff06f          	j	239f4 <__subtf3+0x754>
   23acc:	00008337          	lui	t1,0x8
   23ad0:	00148813          	addi	a6,s1,1
   23ad4:	ffe30893          	addi	a7,t1,-2 # 7ffe <exit-0x8096>
   23ad8:	011878b3          	and	a7,a6,a7
   23adc:	01412683          	lw	a3,20(sp)
   23ae0:	01812703          	lw	a4,24(sp)
   23ae4:	01c12603          	lw	a2,28(sp)
   23ae8:	03010593          	addi	a1,sp,48
   23aec:	03c10513          	addi	a0,sp,60
   23af0:	12089263          	bnez	a7,23c14 <__subtf3+0x974>
   23af4:	00e6e833          	or	a6,a3,a4
   23af8:	00c86833          	or	a6,a6,a2
   23afc:	00f86833          	or	a6,a6,a5
   23b00:	0a049a63          	bnez	s1,23bb4 <__subtf3+0x914>
   23b04:	00081e63          	bnez	a6,23b20 <__subtf3+0x880>
   23b08:	02812823          	sw	s0,48(sp)
   23b0c:	03212a23          	sw	s2,52(sp)
   23b10:	03312c23          	sw	s3,56(sp)
   23b14:	03612e23          	sw	s6,60(sp)
   23b18:	00000493          	li	s1,0
   23b1c:	a01ff06f          	j	2351c <__subtf3+0x27c>
   23b20:	013965b3          	or	a1,s2,s3
   23b24:	0165e5b3          	or	a1,a1,s6
   23b28:	0085e5b3          	or	a1,a1,s0
   23b2c:	00059c63          	bnez	a1,23b44 <__subtf3+0x8a4>
   23b30:	02f12823          	sw	a5,48(sp)
   23b34:	02d12a23          	sw	a3,52(sp)
   23b38:	02e12c23          	sw	a4,56(sp)
   23b3c:	02c12e23          	sw	a2,60(sp)
   23b40:	9ddff06f          	j	2351c <__subtf3+0x27c>
   23b44:	00878433          	add	s0,a5,s0
   23b48:	01268933          	add	s2,a3,s2
   23b4c:	02812823          	sw	s0,48(sp)
   23b50:	00f43433          	sltu	s0,s0,a5
   23b54:	00890433          	add	s0,s2,s0
   23b58:	02812a23          	sw	s0,52(sp)
   23b5c:	00d936b3          	sltu	a3,s2,a3
   23b60:	01243433          	sltu	s0,s0,s2
   23b64:	013709b3          	add	s3,a4,s3
   23b68:	0086e6b3          	or	a3,a3,s0
   23b6c:	00d986b3          	add	a3,s3,a3
   23b70:	00e9b7b3          	sltu	a5,s3,a4
   23b74:	02d12c23          	sw	a3,56(sp)
   23b78:	0136b6b3          	sltu	a3,a3,s3
   23b7c:	00d7e7b3          	or	a5,a5,a3
   23b80:	01660633          	add	a2,a2,s6
   23b84:	00c787b3          	add	a5,a5,a2
   23b88:	00080737          	lui	a4,0x80
   23b8c:	00e7f733          	and	a4,a5,a4
   23b90:	00071663          	bnez	a4,23b9c <__subtf3+0x8fc>
   23b94:	02f12e23          	sw	a5,60(sp)
   23b98:	f81ff06f          	j	23b18 <__subtf3+0x878>
   23b9c:	fff80737          	lui	a4,0xfff80
   23ba0:	fff70713          	addi	a4,a4,-1 # fff7ffff <__BSS_END__+0xfff59517>
   23ba4:	00e7f7b3          	and	a5,a5,a4
   23ba8:	02f12e23          	sw	a5,60(sp)
   23bac:	00100493          	li	s1,1
   23bb0:	96dff06f          	j	2351c <__subtf3+0x27c>
   23bb4:	92080ee3          	beqz	a6,234f0 <__subtf3+0x250>
   23bb8:	01396933          	or	s2,s2,s3
   23bbc:	01696933          	or	s2,s2,s6
   23bc0:	00896933          	or	s2,s2,s0
   23bc4:	92090ae3          	beqz	s2,234f8 <__subtf3+0x258>
   23bc8:	02612e23          	sw	t1,60(sp)
   23bcc:	02012c23          	sw	zero,56(sp)
   23bd0:	02012a23          	sw	zero,52(sp)
   23bd4:	02012823          	sw	zero,48(sp)
   23bd8:	00050793          	mv	a5,a0
   23bdc:	0007a703          	lw	a4,0(a5)
   23be0:	ffc7a683          	lw	a3,-4(a5)
   23be4:	ffc78793          	addi	a5,a5,-4
   23be8:	00371713          	slli	a4,a4,0x3
   23bec:	01d6d693          	srli	a3,a3,0x1d
   23bf0:	00d76733          	or	a4,a4,a3
   23bf4:	00e7a223          	sw	a4,4(a5)
   23bf8:	fef592e3          	bne	a1,a5,23bdc <__subtf3+0x93c>
   23bfc:	03012783          	lw	a5,48(sp)
   23c00:	000084b7          	lui	s1,0x8
   23c04:	fff48493          	addi	s1,s1,-1 # 7fff <exit-0x8095>
   23c08:	00379793          	slli	a5,a5,0x3
   23c0c:	02f12823          	sw	a5,48(sp)
   23c10:	60c0006f          	j	2421c <__subtf3+0xf7c>
   23c14:	00878433          	add	s0,a5,s0
   23c18:	01268933          	add	s2,a3,s2
   23c1c:	02812823          	sw	s0,48(sp)
   23c20:	00f43433          	sltu	s0,s0,a5
   23c24:	00890433          	add	s0,s2,s0
   23c28:	02812a23          	sw	s0,52(sp)
   23c2c:	00d937b3          	sltu	a5,s2,a3
   23c30:	01243433          	sltu	s0,s0,s2
   23c34:	013709b3          	add	s3,a4,s3
   23c38:	0087e7b3          	or	a5,a5,s0
   23c3c:	00f987b3          	add	a5,s3,a5
   23c40:	02f12c23          	sw	a5,56(sp)
   23c44:	00e9b733          	sltu	a4,s3,a4
   23c48:	0137b7b3          	sltu	a5,a5,s3
   23c4c:	00f767b3          	or	a5,a4,a5
   23c50:	01660633          	add	a2,a2,s6
   23c54:	00c787b3          	add	a5,a5,a2
   23c58:	02f12e23          	sw	a5,60(sp)
   23c5c:	00058793          	mv	a5,a1
   23c60:	0007a703          	lw	a4,0(a5)
   23c64:	0047a683          	lw	a3,4(a5)
   23c68:	00478793          	addi	a5,a5,4
   23c6c:	00175713          	srli	a4,a4,0x1
   23c70:	01f69693          	slli	a3,a3,0x1f
   23c74:	00d76733          	or	a4,a4,a3
   23c78:	fee7ae23          	sw	a4,-4(a5)
   23c7c:	fef512e3          	bne	a0,a5,23c60 <__subtf3+0x9c0>
   23c80:	00008737          	lui	a4,0x8
   23c84:	fff70713          	addi	a4,a4,-1 # 7fff <exit-0x8095>
   23c88:	03c12783          	lw	a5,60(sp)
   23c8c:	00e80a63          	beq	a6,a4,23ca0 <__subtf3+0xa00>
   23c90:	0017d793          	srli	a5,a5,0x1
   23c94:	02f12e23          	sw	a5,60(sp)
   23c98:	00080493          	mv	s1,a6
   23c9c:	881ff06f          	j	2351c <__subtf3+0x27c>
   23ca0:	02012e23          	sw	zero,60(sp)
   23ca4:	02012c23          	sw	zero,56(sp)
   23ca8:	02012a23          	sw	zero,52(sp)
   23cac:	02012823          	sw	zero,48(sp)
   23cb0:	000084b7          	lui	s1,0x8
   23cb4:	fff48493          	addi	s1,s1,-1 # 7fff <exit-0x8095>
   23cb8:	865ff06f          	j	2351c <__subtf3+0x27c>
   23cbc:	26b05663          	blez	a1,23f28 <__subtf3+0xc88>
   23cc0:	01412903          	lw	s2,20(sp)
   23cc4:	01812983          	lw	s3,24(sp)
   23cc8:	01c12b03          	lw	s6,28(sp)
   23ccc:	080b9e63          	bnez	s7,23d68 <__subtf3+0xac8>
   23cd0:	02412e83          	lw	t4,36(sp)
   23cd4:	02812303          	lw	t1,40(sp)
   23cd8:	02c12683          	lw	a3,44(sp)
   23cdc:	006ee733          	or	a4,t4,t1
   23ce0:	00d76733          	or	a4,a4,a3
   23ce4:	00876733          	or	a4,a4,s0
   23ce8:	f8070e63          	beqz	a4,23484 <__subtf3+0x1e4>
   23cec:	fff58513          	addi	a0,a1,-1
   23cf0:	04051c63          	bnez	a0,23d48 <__subtf3+0xaa8>
   23cf4:	41d90633          	sub	a2,s2,t4
   23cf8:	40878733          	sub	a4,a5,s0
   23cfc:	00c938b3          	sltu	a7,s2,a2
   23d00:	00e7b5b3          	sltu	a1,a5,a4
   23d04:	40b60633          	sub	a2,a2,a1
   23d08:	00088e13          	mv	t3,a7
   23d0c:	406985b3          	sub	a1,s3,t1
   23d10:	0069b833          	sltu	a6,s3,t1
   23d14:	00e7fc63          	bgeu	a5,a4,23d2c <__subtf3+0xa8c>
   23d18:	012e9a63          	bne	t4,s2,23d2c <__subtf3+0xa8c>
   23d1c:	fff58593          	addi	a1,a1,-1
   23d20:	41330333          	sub	t1,t1,s3
   23d24:	00133513          	seqz	a0,t1
   23d28:	00c0006f          	j	23d34 <__subtf3+0xa94>
   23d2c:	41c585b3          	sub	a1,a1,t3
   23d30:	fe0898e3          	bnez	a7,23d20 <__subtf3+0xa80>
   23d34:	40db07b3          	sub	a5,s6,a3
   23d38:	010566b3          	or	a3,a0,a6
   23d3c:	40d787b3          	sub	a5,a5,a3
   23d40:	00100493          	li	s1,1
   23d44:	1b80006f          	j	23efc <__subtf3+0xc5c>
   23d48:	fbc58063          	beq	a1,t3,234e8 <__subtf3+0x248>
   23d4c:	07400713          	li	a4,116
   23d50:	02a75c63          	bge	a4,a0,23d88 <__subtf3+0xae8>
   23d54:	02012623          	sw	zero,44(sp)
   23d58:	02012423          	sw	zero,40(sp)
   23d5c:	02012223          	sw	zero,36(sp)
   23d60:	00100713          	li	a4,1
   23d64:	1100006f          	j	23e74 <__subtf3+0xbd4>
   23d68:	bbc480e3          	beq	s1,t3,23908 <__subtf3+0x668>
   23d6c:	02c12703          	lw	a4,44(sp)
   23d70:	000806b7          	lui	a3,0x80
   23d74:	00d76733          	or	a4,a4,a3
   23d78:	02e12623          	sw	a4,44(sp)
   23d7c:	07400713          	li	a4,116
   23d80:	fcb74ae3          	blt	a4,a1,23d54 <__subtf3+0xab4>
   23d84:	00058513          	mv	a0,a1
   23d88:	40555693          	srai	a3,a0,0x5
   23d8c:	00088593          	mv	a1,a7
   23d90:	01f57513          	andi	a0,a0,31
   23d94:	00000713          	li	a4,0
   23d98:	00000613          	li	a2,0
   23d9c:	02d61c63          	bne	a2,a3,23dd4 <__subtf3+0xb34>
   23da0:	00300613          	li	a2,3
   23da4:	40d60633          	sub	a2,a2,a3
   23da8:	00269593          	slli	a1,a3,0x2
   23dac:	02051e63          	bnez	a0,23de8 <__subtf3+0xb48>
   23db0:	00b88333          	add	t1,a7,a1
   23db4:	00032303          	lw	t1,0(t1)
   23db8:	00150513          	addi	a0,a0,1
   23dbc:	00488893          	addi	a7,a7,4
   23dc0:	fe68ae23          	sw	t1,-4(a7)
   23dc4:	fea656e3          	bge	a2,a0,23db0 <__subtf3+0xb10>
   23dc8:	00400613          	li	a2,4
   23dcc:	40d606b3          	sub	a3,a2,a3
   23dd0:	0600006f          	j	23e30 <__subtf3+0xb90>
   23dd4:	0005a303          	lw	t1,0(a1)
   23dd8:	00160613          	addi	a2,a2,1
   23ddc:	00458593          	addi	a1,a1,4
   23de0:	00676733          	or	a4,a4,t1
   23de4:	fb9ff06f          	j	23d9c <__subtf3+0xafc>
   23de8:	04058313          	addi	t1,a1,64
   23dec:	00230333          	add	t1,t1,sp
   23df0:	fe032303          	lw	t1,-32(t1)
   23df4:	02000e13          	li	t3,32
   23df8:	40ae0e33          	sub	t3,t3,a0
   23dfc:	01c31333          	sll	t1,t1,t3
   23e00:	00676733          	or	a4,a4,t1
   23e04:	00b805b3          	add	a1,a6,a1
   23e08:	00000e93          	li	t4,0
   23e0c:	0acec663          	blt	t4,a2,23eb8 <__subtf3+0xc18>
   23e10:	00400593          	li	a1,4
   23e14:	40d586b3          	sub	a3,a1,a3
   23e18:	02c12583          	lw	a1,44(sp)
   23e1c:	00261613          	slli	a2,a2,0x2
   23e20:	04060613          	addi	a2,a2,64
   23e24:	00260633          	add	a2,a2,sp
   23e28:	00a5d5b3          	srl	a1,a1,a0
   23e2c:	feb62023          	sw	a1,-32(a2)
   23e30:	00400613          	li	a2,4
   23e34:	40d60633          	sub	a2,a2,a3
   23e38:	00261613          	slli	a2,a2,0x2
   23e3c:	00269693          	slli	a3,a3,0x2
   23e40:	00800593          	li	a1,8
   23e44:	00d806b3          	add	a3,a6,a3
   23e48:	00b66a63          	bltu	a2,a1,23e5c <__subtf3+0xbbc>
   23e4c:	0006a023          	sw	zero,0(a3) # 80000 <__BSS_END__+0x59518>
   23e50:	0006a223          	sw	zero,4(a3)
   23e54:	ff860613          	addi	a2,a2,-8
   23e58:	00868693          	addi	a3,a3,8
   23e5c:	00400593          	li	a1,4
   23e60:	00b66463          	bltu	a2,a1,23e68 <__subtf3+0xbc8>
   23e64:	0006a023          	sw	zero,0(a3)
   23e68:	02012683          	lw	a3,32(sp)
   23e6c:	00e03733          	snez	a4,a4
   23e70:	00d76733          	or	a4,a4,a3
   23e74:	02412503          	lw	a0,36(sp)
   23e78:	02e12023          	sw	a4,32(sp)
   23e7c:	40e78733          	sub	a4,a5,a4
   23e80:	40a90633          	sub	a2,s2,a0
   23e84:	00e7b6b3          	sltu	a3,a5,a4
   23e88:	00c938b3          	sltu	a7,s2,a2
   23e8c:	40d60633          	sub	a2,a2,a3
   23e90:	02812683          	lw	a3,40(sp)
   23e94:	00088313          	mv	t1,a7
   23e98:	40d985b3          	sub	a1,s3,a3
   23e9c:	00d9b833          	sltu	a6,s3,a3
   23ea0:	04e7f063          	bgeu	a5,a4,23ee0 <__subtf3+0xc40>
   23ea4:	03251e63          	bne	a0,s2,23ee0 <__subtf3+0xc40>
   23ea8:	fff58593          	addi	a1,a1,-1
   23eac:	413686b3          	sub	a3,a3,s3
   23eb0:	0016b513          	seqz	a0,a3
   23eb4:	0380006f          	j	23eec <__subtf3+0xc4c>
   23eb8:	0005a303          	lw	t1,0(a1)
   23ebc:	0045af03          	lw	t5,4(a1)
   23ec0:	00458593          	addi	a1,a1,4
   23ec4:	00a35333          	srl	t1,t1,a0
   23ec8:	01cf1f33          	sll	t5,t5,t3
   23ecc:	01e36333          	or	t1,t1,t5
   23ed0:	0068a023          	sw	t1,0(a7)
   23ed4:	001e8e93          	addi	t4,t4,1
   23ed8:	00488893          	addi	a7,a7,4
   23edc:	f31ff06f          	j	23e0c <__subtf3+0xb6c>
   23ee0:	406585b3          	sub	a1,a1,t1
   23ee4:	00000513          	li	a0,0
   23ee8:	fc0892e3          	bnez	a7,23eac <__subtf3+0xc0c>
   23eec:	02c12783          	lw	a5,44(sp)
   23ef0:	01056533          	or	a0,a0,a6
   23ef4:	40fb07b3          	sub	a5,s6,a5
   23ef8:	40a787b3          	sub	a5,a5,a0
   23efc:	02e12823          	sw	a4,48(sp)
   23f00:	00080737          	lui	a4,0x80
   23f04:	02f12e23          	sw	a5,60(sp)
   23f08:	02b12c23          	sw	a1,56(sp)
   23f0c:	02c12a23          	sw	a2,52(sp)
   23f10:	00e7f6b3          	and	a3,a5,a4
   23f14:	e0068463          	beqz	a3,2351c <__subtf3+0x27c>
   23f18:	fff70713          	addi	a4,a4,-1 # 7ffff <__BSS_END__+0x59517>
   23f1c:	00e7f7b3          	and	a5,a5,a4
   23f20:	02f12e23          	sw	a5,60(sp)
   23f24:	5680006f          	j	2448c <__subtf3+0x11ec>
   23f28:	02412903          	lw	s2,36(sp)
   23f2c:	02812c03          	lw	s8,40(sp)
   23f30:	02c12b03          	lw	s6,44(sp)
   23f34:	28058863          	beqz	a1,241c4 <__subtf3+0xf24>
   23f38:	409b8733          	sub	a4,s7,s1
   23f3c:	0a049e63          	bnez	s1,23ff8 <__subtf3+0xd58>
   23f40:	01412303          	lw	t1,20(sp)
   23f44:	01812803          	lw	a6,24(sp)
   23f48:	01c12683          	lw	a3,28(sp)
   23f4c:	010365b3          	or	a1,t1,a6
   23f50:	00d5e5b3          	or	a1,a1,a3
   23f54:	00f5e5b3          	or	a1,a1,a5
   23f58:	02059063          	bnez	a1,23f78 <__subtf3+0xcd8>
   23f5c:	02812823          	sw	s0,48(sp)
   23f60:	03212a23          	sw	s2,52(sp)
   23f64:	03812c23          	sw	s8,56(sp)
   23f68:	03612e23          	sw	s6,60(sp)
   23f6c:	00070493          	mv	s1,a4
   23f70:	00098a93          	mv	s5,s3
   23f74:	da8ff06f          	j	2351c <__subtf3+0x27c>
   23f78:	fff70893          	addi	a7,a4,-1
   23f7c:	04089c63          	bnez	a7,23fd4 <__subtf3+0xd34>
   23f80:	40f40733          	sub	a4,s0,a5
   23f84:	40690633          	sub	a2,s2,t1
   23f88:	00c937b3          	sltu	a5,s2,a2
   23f8c:	00e435b3          	sltu	a1,s0,a4
   23f90:	40b60633          	sub	a2,a2,a1
   23f94:	00078e13          	mv	t3,a5
   23f98:	410c05b3          	sub	a1,s8,a6
   23f9c:	010c3533          	sltu	a0,s8,a6
   23fa0:	00e47c63          	bgeu	s0,a4,23fb8 <__subtf3+0xd18>
   23fa4:	01231a63          	bne	t1,s2,23fb8 <__subtf3+0xd18>
   23fa8:	fff58593          	addi	a1,a1,-1
   23fac:	41880833          	sub	a6,a6,s8
   23fb0:	00183893          	seqz	a7,a6
   23fb4:	00c0006f          	j	23fc0 <__subtf3+0xd20>
   23fb8:	41c585b3          	sub	a1,a1,t3
   23fbc:	fe0798e3          	bnez	a5,23fac <__subtf3+0xd0c>
   23fc0:	40db07b3          	sub	a5,s6,a3
   23fc4:	00a8e6b3          	or	a3,a7,a0
   23fc8:	40d787b3          	sub	a5,a5,a3
   23fcc:	00098a93          	mv	s5,s3
   23fd0:	d71ff06f          	j	23d40 <__subtf3+0xaa0>
   23fd4:	000087b7          	lui	a5,0x8
   23fd8:	fff78793          	addi	a5,a5,-1 # 7fff <exit-0x8095>
   23fdc:	78f71e63          	bne	a4,a5,24778 <__subtf3+0x14d8>
   23fe0:	02812823          	sw	s0,48(sp)
   23fe4:	03212a23          	sw	s2,52(sp)
   23fe8:	03812c23          	sw	s8,56(sp)
   23fec:	03612e23          	sw	s6,60(sp)
   23ff0:	00098a93          	mv	s5,s3
   23ff4:	cbdff06f          	j	23cb0 <__subtf3+0xa10>
   23ff8:	000087b7          	lui	a5,0x8
   23ffc:	fff78793          	addi	a5,a5,-1 # 7fff <exit-0x8095>
   24000:	fefb80e3          	beq	s7,a5,23fe0 <__subtf3+0xd40>
   24004:	01c12783          	lw	a5,28(sp)
   24008:	000806b7          	lui	a3,0x80
   2400c:	00d7e7b3          	or	a5,a5,a3
   24010:	00f12e23          	sw	a5,28(sp)
   24014:	07400793          	li	a5,116
   24018:	76e7c463          	blt	a5,a4,24780 <__subtf3+0x14e0>
   2401c:	00070893          	mv	a7,a4
   24020:	41f8d793          	srai	a5,a7,0x1f
   24024:	01f7f793          	andi	a5,a5,31
   24028:	011787b3          	add	a5,a5,a7
   2402c:	4057d793          	srai	a5,a5,0x5
   24030:	00060693          	mv	a3,a2
   24034:	00000493          	li	s1,0
   24038:	00000713          	li	a4,0
   2403c:	02f74e63          	blt	a4,a5,24078 <__subtf3+0xdd8>
   24040:	00300693          	li	a3,3
   24044:	01f8f313          	andi	t1,a7,31
   24048:	40f68e33          	sub	t3,a3,a5
   2404c:	00279593          	slli	a1,a5,0x2
   24050:	02031e63          	bnez	t1,2408c <__subtf3+0xdec>
   24054:	00b60733          	add	a4,a2,a1
   24058:	00072703          	lw	a4,0(a4)
   2405c:	00130313          	addi	t1,t1,1
   24060:	00460613          	addi	a2,a2,4
   24064:	fee62e23          	sw	a4,-4(a2)
   24068:	fe6e56e3          	bge	t3,t1,24054 <__subtf3+0xdb4>
   2406c:	00400713          	li	a4,4
   24070:	40f707b3          	sub	a5,a4,a5
   24074:	0900006f          	j	24104 <__subtf3+0xe64>
   24078:	0006a583          	lw	a1,0(a3) # 80000 <__BSS_END__+0x59518>
   2407c:	00170713          	addi	a4,a4,1
   24080:	00468693          	addi	a3,a3,4
   24084:	00b4e4b3          	or	s1,s1,a1
   24088:	fb5ff06f          	j	2403c <__subtf3+0xd9c>
   2408c:	800006b7          	lui	a3,0x80000
   24090:	01f68693          	addi	a3,a3,31 # 8000001f <__BSS_END__+0x7ffd9537>
   24094:	00d8f6b3          	and	a3,a7,a3
   24098:	0006d863          	bgez	a3,240a8 <__subtf3+0xe08>
   2409c:	fff68693          	addi	a3,a3,-1
   240a0:	fe06e693          	ori	a3,a3,-32
   240a4:	00168693          	addi	a3,a3,1
   240a8:	02000893          	li	a7,32
   240ac:	40d888b3          	sub	a7,a7,a3
   240b0:	00078813          	mv	a6,a5
   240b4:	0007d463          	bgez	a5,240bc <__subtf3+0xe1c>
   240b8:	00000813          	li	a6,0
   240bc:	00281813          	slli	a6,a6,0x2
   240c0:	04080713          	addi	a4,a6,64
   240c4:	00270833          	add	a6,a4,sp
   240c8:	fd082703          	lw	a4,-48(a6)
   240cc:	00b505b3          	add	a1,a0,a1
   240d0:	00000693          	li	a3,0
   240d4:	01171733          	sll	a4,a4,a7
   240d8:	00e4e4b3          	or	s1,s1,a4
   240dc:	00458593          	addi	a1,a1,4
   240e0:	09c6cc63          	blt	a3,t3,24178 <__subtf3+0xed8>
   240e4:	00400713          	li	a4,4
   240e8:	002e1693          	slli	a3,t3,0x2
   240ec:	40f707b3          	sub	a5,a4,a5
   240f0:	04068713          	addi	a4,a3,64
   240f4:	002706b3          	add	a3,a4,sp
   240f8:	01c12703          	lw	a4,28(sp)
   240fc:	00675733          	srl	a4,a4,t1
   24100:	fce6a823          	sw	a4,-48(a3)
   24104:	00400713          	li	a4,4
   24108:	00000613          	li	a2,0
   2410c:	00f74663          	blt	a4,a5,24118 <__subtf3+0xe78>
   24110:	40f70733          	sub	a4,a4,a5
   24114:	00271613          	slli	a2,a4,0x2
   24118:	00279793          	slli	a5,a5,0x2
   2411c:	00f50533          	add	a0,a0,a5
   24120:	00000593          	li	a1,0
   24124:	96cec0ef          	jal	ra,10290 <memset>
   24128:	01012783          	lw	a5,16(sp)
   2412c:	00903733          	snez	a4,s1
   24130:	00f76733          	or	a4,a4,a5
   24134:	01412683          	lw	a3,20(sp)
   24138:	00e12823          	sw	a4,16(sp)
   2413c:	40e40733          	sub	a4,s0,a4
   24140:	40d90633          	sub	a2,s2,a3
   24144:	00e437b3          	sltu	a5,s0,a4
   24148:	00c93833          	sltu	a6,s2,a2
   2414c:	40f60633          	sub	a2,a2,a5
   24150:	01812783          	lw	a5,24(sp)
   24154:	00080893          	mv	a7,a6
   24158:	40fc05b3          	sub	a1,s8,a5
   2415c:	00fc3533          	sltu	a0,s8,a5
   24160:	02e47e63          	bgeu	s0,a4,2419c <__subtf3+0xefc>
   24164:	03269c63          	bne	a3,s2,2419c <__subtf3+0xefc>
   24168:	fff58593          	addi	a1,a1,-1
   2416c:	418787b3          	sub	a5,a5,s8
   24170:	0017b693          	seqz	a3,a5
   24174:	0340006f          	j	241a8 <__subtf3+0xf08>
   24178:	ffc5a703          	lw	a4,-4(a1)
   2417c:	0005a803          	lw	a6,0(a1)
   24180:	00168693          	addi	a3,a3,1
   24184:	00675733          	srl	a4,a4,t1
   24188:	01181833          	sll	a6,a6,a7
   2418c:	01076733          	or	a4,a4,a6
   24190:	00e62023          	sw	a4,0(a2)
   24194:	00460613          	addi	a2,a2,4
   24198:	f45ff06f          	j	240dc <__subtf3+0xe3c>
   2419c:	411585b3          	sub	a1,a1,a7
   241a0:	00000693          	li	a3,0
   241a4:	fc0814e3          	bnez	a6,2416c <__subtf3+0xecc>
   241a8:	01c12783          	lw	a5,28(sp)
   241ac:	00a6e6b3          	or	a3,a3,a0
   241b0:	000b8493          	mv	s1,s7
   241b4:	40fb07b3          	sub	a5,s6,a5
   241b8:	40d787b3          	sub	a5,a5,a3
   241bc:	00098a93          	mv	s5,s3
   241c0:	d3dff06f          	j	23efc <__subtf3+0xc5c>
   241c4:	00008837          	lui	a6,0x8
   241c8:	00148613          	addi	a2,s1,1
   241cc:	ffe80593          	addi	a1,a6,-2 # 7ffe <exit-0x8096>
   241d0:	00b67633          	and	a2,a2,a1
   241d4:	01412503          	lw	a0,20(sp)
   241d8:	01812703          	lw	a4,24(sp)
   241dc:	01c12683          	lw	a3,28(sp)
   241e0:	1e061463          	bnez	a2,243c8 <__subtf3+0x1128>
   241e4:	01896633          	or	a2,s2,s8
   241e8:	00e565b3          	or	a1,a0,a4
   241ec:	01666633          	or	a2,a2,s6
   241f0:	00d5e5b3          	or	a1,a1,a3
   241f4:	00866633          	or	a2,a2,s0
   241f8:	00f5e5b3          	or	a1,a1,a5
   241fc:	10049e63          	bnez	s1,24318 <__subtf3+0x1078>
   24200:	02059263          	bnez	a1,24224 <__subtf3+0xf84>
   24204:	02812823          	sw	s0,48(sp)
   24208:	03212a23          	sw	s2,52(sp)
   2420c:	03812c23          	sw	s8,56(sp)
   24210:	03612e23          	sw	s6,60(sp)
   24214:	d4061ee3          	bnez	a2,23f70 <__subtf3+0xcd0>
   24218:	00000493          	li	s1,0
   2421c:	00000a93          	li	s5,0
   24220:	afcff06f          	j	2351c <__subtf3+0x27c>
   24224:	00061c63          	bnez	a2,2423c <__subtf3+0xf9c>
   24228:	02f12823          	sw	a5,48(sp)
   2422c:	02a12a23          	sw	a0,52(sp)
   24230:	02e12c23          	sw	a4,56(sp)
   24234:	02d12e23          	sw	a3,60(sp)
   24238:	8e1ff06f          	j	23b18 <__subtf3+0x878>
   2423c:	412505b3          	sub	a1,a0,s2
   24240:	40878633          	sub	a2,a5,s0
   24244:	00b53f33          	sltu	t5,a0,a1
   24248:	00c7b833          	sltu	a6,a5,a2
   2424c:	000f0893          	mv	a7,t5
   24250:	41058833          	sub	a6,a1,a6
   24254:	41870e33          	sub	t3,a4,s8
   24258:	01873eb3          	sltu	t4,a4,s8
   2425c:	00c7fa63          	bgeu	a5,a2,24270 <__subtf3+0xfd0>
   24260:	01251863          	bne	a0,s2,24270 <__subtf3+0xfd0>
   24264:	fffe0893          	addi	a7,t3,-1
   24268:	001e3313          	seqz	t1,t3
   2426c:	0100006f          	j	2427c <__subtf3+0xfdc>
   24270:	411e08b3          	sub	a7,t3,a7
   24274:	00000313          	li	t1,0
   24278:	fe0f18e3          	bnez	t5,24268 <__subtf3+0xfc8>
   2427c:	01d36333          	or	t1,t1,t4
   24280:	416685b3          	sub	a1,a3,s6
   24284:	406585b3          	sub	a1,a1,t1
   24288:	00080337          	lui	t1,0x80
   2428c:	02b12e23          	sw	a1,60(sp)
   24290:	03112c23          	sw	a7,56(sp)
   24294:	03012a23          	sw	a6,52(sp)
   24298:	02c12823          	sw	a2,48(sp)
   2429c:	0065f333          	and	t1,a1,t1
   242a0:	06030263          	beqz	t1,24304 <__subtf3+0x1064>
   242a4:	40a90633          	sub	a2,s2,a0
   242a8:	40f407b3          	sub	a5,s0,a5
   242ac:	00c93833          	sltu	a6,s2,a2
   242b0:	00f435b3          	sltu	a1,s0,a5
   242b4:	40b60633          	sub	a2,a2,a1
   242b8:	00080893          	mv	a7,a6
   242bc:	40ec05b3          	sub	a1,s8,a4
   242c0:	00ec3733          	sltu	a4,s8,a4
   242c4:	00f47a63          	bgeu	s0,a5,242d8 <__subtf3+0x1038>
   242c8:	01251863          	bne	a0,s2,242d8 <__subtf3+0x1038>
   242cc:	fff58593          	addi	a1,a1,-1
   242d0:	001e3513          	seqz	a0,t3
   242d4:	0100006f          	j	242e4 <__subtf3+0x1044>
   242d8:	411585b3          	sub	a1,a1,a7
   242dc:	00000513          	li	a0,0
   242e0:	fe0818e3          	bnez	a6,242d0 <__subtf3+0x1030>
   242e4:	40db06b3          	sub	a3,s6,a3
   242e8:	00e56533          	or	a0,a0,a4
   242ec:	40a686b3          	sub	a3,a3,a0
   242f0:	02d12e23          	sw	a3,60(sp)
   242f4:	02b12c23          	sw	a1,56(sp)
   242f8:	02c12a23          	sw	a2,52(sp)
   242fc:	02f12823          	sw	a5,48(sp)
   24300:	c71ff06f          	j	23f70 <__subtf3+0xcd0>
   24304:	01066633          	or	a2,a2,a6
   24308:	01166633          	or	a2,a2,a7
   2430c:	00b66633          	or	a2,a2,a1
   24310:	f00604e3          	beqz	a2,24218 <__subtf3+0xf78>
   24314:	805ff06f          	j	23b18 <__subtf3+0x878>
   24318:	03010893          	addi	a7,sp,48
   2431c:	04059e63          	bnez	a1,24378 <__subtf3+0x10d8>
   24320:	02061e63          	bnez	a2,2435c <__subtf3+0x10bc>
   24324:	03012e23          	sw	a6,60(sp)
   24328:	02012c23          	sw	zero,56(sp)
   2432c:	02012a23          	sw	zero,52(sp)
   24330:	02012823          	sw	zero,48(sp)
   24334:	03c10793          	addi	a5,sp,60
   24338:	0007a703          	lw	a4,0(a5)
   2433c:	ffc7a683          	lw	a3,-4(a5)
   24340:	ffc78793          	addi	a5,a5,-4
   24344:	00371713          	slli	a4,a4,0x3
   24348:	01d6d693          	srli	a3,a3,0x1d
   2434c:	00d76733          	or	a4,a4,a3
   24350:	00e7a223          	sw	a4,4(a5)
   24354:	fef892e3          	bne	a7,a5,24338 <__subtf3+0x1098>
   24358:	8a5ff06f          	j	23bfc <__subtf3+0x95c>
   2435c:	02812823          	sw	s0,48(sp)
   24360:	03212a23          	sw	s2,52(sp)
   24364:	03812c23          	sw	s8,56(sp)
   24368:	03612e23          	sw	s6,60(sp)
   2436c:	00098a93          	mv	s5,s3
   24370:	fff80493          	addi	s1,a6,-1
   24374:	9a8ff06f          	j	2351c <__subtf3+0x27c>
   24378:	00061c63          	bnez	a2,24390 <__subtf3+0x10f0>
   2437c:	02f12823          	sw	a5,48(sp)
   24380:	02a12a23          	sw	a0,52(sp)
   24384:	02e12c23          	sw	a4,56(sp)
   24388:	02d12e23          	sw	a3,60(sp)
   2438c:	fe5ff06f          	j	24370 <__subtf3+0x10d0>
   24390:	03012e23          	sw	a6,60(sp)
   24394:	02012c23          	sw	zero,56(sp)
   24398:	02012a23          	sw	zero,52(sp)
   2439c:	02012823          	sw	zero,48(sp)
   243a0:	03c10793          	addi	a5,sp,60
   243a4:	0007a703          	lw	a4,0(a5)
   243a8:	ffc7a683          	lw	a3,-4(a5)
   243ac:	ffc78793          	addi	a5,a5,-4
   243b0:	00371713          	slli	a4,a4,0x3
   243b4:	01d6d693          	srli	a3,a3,0x1d
   243b8:	00d76733          	or	a4,a4,a3
   243bc:	00e7a223          	sw	a4,4(a5)
   243c0:	fef892e3          	bne	a7,a5,243a4 <__subtf3+0x1104>
   243c4:	839ff06f          	j	23bfc <__subtf3+0x95c>
   243c8:	412505b3          	sub	a1,a0,s2
   243cc:	40878633          	sub	a2,a5,s0
   243d0:	00b53fb3          	sltu	t6,a0,a1
   243d4:	00c7b833          	sltu	a6,a5,a2
   243d8:	000f8893          	mv	a7,t6
   243dc:	41058833          	sub	a6,a1,a6
   243e0:	41870e33          	sub	t3,a4,s8
   243e4:	01873f33          	sltu	t5,a4,s8
   243e8:	00c7fa63          	bgeu	a5,a2,243fc <__subtf3+0x115c>
   243ec:	01251863          	bne	a0,s2,243fc <__subtf3+0x115c>
   243f0:	fffe0893          	addi	a7,t3,-1
   243f4:	001e3e93          	seqz	t4,t3
   243f8:	0100006f          	j	24408 <__subtf3+0x1168>
   243fc:	411e08b3          	sub	a7,t3,a7
   24400:	00000e93          	li	t4,0
   24404:	fe0f98e3          	bnez	t6,243f4 <__subtf3+0x1154>
   24408:	01eeeeb3          	or	t4,t4,t5
   2440c:	416685b3          	sub	a1,a3,s6
   24410:	41d585b3          	sub	a1,a1,t4
   24414:	00080eb7          	lui	t4,0x80
   24418:	02b12e23          	sw	a1,60(sp)
   2441c:	03112c23          	sw	a7,56(sp)
   24420:	03012a23          	sw	a6,52(sp)
   24424:	02c12823          	sw	a2,48(sp)
   24428:	01d5feb3          	and	t4,a1,t4
   2442c:	160e8a63          	beqz	t4,245a0 <__subtf3+0x1300>
   24430:	40a90633          	sub	a2,s2,a0
   24434:	40f407b3          	sub	a5,s0,a5
   24438:	00c93833          	sltu	a6,s2,a2
   2443c:	00f435b3          	sltu	a1,s0,a5
   24440:	40b60633          	sub	a2,a2,a1
   24444:	00080893          	mv	a7,a6
   24448:	40ec05b3          	sub	a1,s8,a4
   2444c:	00ec3733          	sltu	a4,s8,a4
   24450:	00f47a63          	bgeu	s0,a5,24464 <__subtf3+0x11c4>
   24454:	01251863          	bne	a0,s2,24464 <__subtf3+0x11c4>
   24458:	fff58593          	addi	a1,a1,-1
   2445c:	001e3313          	seqz	t1,t3
   24460:	00c0006f          	j	2446c <__subtf3+0x11cc>
   24464:	411585b3          	sub	a1,a1,a7
   24468:	fe081ae3          	bnez	a6,2445c <__subtf3+0x11bc>
   2446c:	40db06b3          	sub	a3,s6,a3
   24470:	00e36333          	or	t1,t1,a4
   24474:	40668733          	sub	a4,a3,t1
   24478:	02e12e23          	sw	a4,60(sp)
   2447c:	02b12c23          	sw	a1,56(sp)
   24480:	02c12a23          	sw	a2,52(sp)
   24484:	02f12823          	sw	a5,48(sp)
   24488:	00098a93          	mv	s5,s3
   2448c:	03c12503          	lw	a0,60(sp)
   24490:	12050263          	beqz	a0,245b4 <__subtf3+0x1314>
   24494:	37d000ef          	jal	ra,25010 <__clzsi2>
   24498:	ff450513          	addi	a0,a0,-12
   2449c:	41f55793          	srai	a5,a0,0x1f
   244a0:	01f7f793          	andi	a5,a5,31
   244a4:	00a787b3          	add	a5,a5,a0
   244a8:	4057d793          	srai	a5,a5,0x5
   244ac:	01f57593          	andi	a1,a0,31
   244b0:	40f006b3          	neg	a3,a5
   244b4:	12058c63          	beqz	a1,245ec <__subtf3+0x134c>
   244b8:	80000737          	lui	a4,0x80000
   244bc:	01f70713          	addi	a4,a4,31 # 8000001f <__BSS_END__+0x7ffd9537>
   244c0:	00e57733          	and	a4,a0,a4
   244c4:	00075863          	bgez	a4,244d4 <__subtf3+0x1234>
   244c8:	fff70713          	addi	a4,a4,-1
   244cc:	fe076713          	ori	a4,a4,-32
   244d0:	00170713          	addi	a4,a4,1
   244d4:	00269693          	slli	a3,a3,0x2
   244d8:	02000813          	li	a6,32
   244dc:	40e80833          	sub	a6,a6,a4
   244e0:	03010313          	addi	t1,sp,48
   244e4:	00c68713          	addi	a4,a3,12
   244e8:	00e30733          	add	a4,t1,a4
   244ec:	40d006b3          	neg	a3,a3
   244f0:	12e31463          	bne	t1,a4,24618 <__subtf3+0x1378>
   244f4:	03012683          	lw	a3,48(sp)
   244f8:	fff78713          	addi	a4,a5,-1
   244fc:	00279793          	slli	a5,a5,0x2
   24500:	04078793          	addi	a5,a5,64
   24504:	002787b3          	add	a5,a5,sp
   24508:	00b696b3          	sll	a3,a3,a1
   2450c:	fed7a823          	sw	a3,-16(a5)
   24510:	00170713          	addi	a4,a4,1
   24514:	03010793          	addi	a5,sp,48
   24518:	00271713          	slli	a4,a4,0x2
   2451c:	00800693          	li	a3,8
   24520:	00078893          	mv	a7,a5
   24524:	00d76a63          	bltu	a4,a3,24538 <__subtf3+0x1298>
   24528:	02012823          	sw	zero,48(sp)
   2452c:	0007a223          	sw	zero,4(a5)
   24530:	ff870713          	addi	a4,a4,-8
   24534:	03810793          	addi	a5,sp,56
   24538:	00400693          	li	a3,4
   2453c:	00d76463          	bltu	a4,a3,24544 <__subtf3+0x12a4>
   24540:	0007a023          	sw	zero,0(a5)
   24544:	1c954463          	blt	a0,s1,2470c <__subtf3+0x146c>
   24548:	40950533          	sub	a0,a0,s1
   2454c:	00150513          	addi	a0,a0,1
   24550:	40555793          	srai	a5,a0,0x5
   24554:	00088613          	mv	a2,a7
   24558:	01f57513          	andi	a0,a0,31
   2455c:	00088693          	mv	a3,a7
   24560:	00000313          	li	t1,0
   24564:	00000713          	li	a4,0
   24568:	0cf71a63          	bne	a4,a5,2463c <__subtf3+0x139c>
   2456c:	00300713          	li	a4,3
   24570:	40f70733          	sub	a4,a4,a5
   24574:	00279693          	slli	a3,a5,0x2
   24578:	0c051c63          	bnez	a0,24650 <__subtf3+0x13b0>
   2457c:	00d605b3          	add	a1,a2,a3
   24580:	0005a583          	lw	a1,0(a1)
   24584:	00150513          	addi	a0,a0,1
   24588:	00460613          	addi	a2,a2,4
   2458c:	feb62e23          	sw	a1,-4(a2)
   24590:	fea756e3          	bge	a4,a0,2457c <__subtf3+0x12dc>
   24594:	00400713          	li	a4,4
   24598:	40f707b3          	sub	a5,a4,a5
   2459c:	1000006f          	j	2469c <__subtf3+0x13fc>
   245a0:	01066633          	or	a2,a2,a6
   245a4:	01166633          	or	a2,a2,a7
   245a8:	00b66633          	or	a2,a2,a1
   245ac:	c60606e3          	beqz	a2,24218 <__subtf3+0xf78>
   245b0:	eddff06f          	j	2448c <__subtf3+0x11ec>
   245b4:	03812503          	lw	a0,56(sp)
   245b8:	00050863          	beqz	a0,245c8 <__subtf3+0x1328>
   245bc:	255000ef          	jal	ra,25010 <__clzsi2>
   245c0:	02050513          	addi	a0,a0,32
   245c4:	ed5ff06f          	j	24498 <__subtf3+0x11f8>
   245c8:	03412503          	lw	a0,52(sp)
   245cc:	00050863          	beqz	a0,245dc <__subtf3+0x133c>
   245d0:	241000ef          	jal	ra,25010 <__clzsi2>
   245d4:	04050513          	addi	a0,a0,64
   245d8:	ec1ff06f          	j	24498 <__subtf3+0x11f8>
   245dc:	03012503          	lw	a0,48(sp)
   245e0:	231000ef          	jal	ra,25010 <__clzsi2>
   245e4:	06050513          	addi	a0,a0,96
   245e8:	eb1ff06f          	j	24498 <__subtf3+0x11f8>
   245ec:	03c10713          	addi	a4,sp,60
   245f0:	00269693          	slli	a3,a3,0x2
   245f4:	00300613          	li	a2,3
   245f8:	00d705b3          	add	a1,a4,a3
   245fc:	0005a583          	lw	a1,0(a1)
   24600:	fff60613          	addi	a2,a2,-1
   24604:	ffc70713          	addi	a4,a4,-4
   24608:	00b72223          	sw	a1,4(a4)
   2460c:	fef656e3          	bge	a2,a5,245f8 <__subtf3+0x1358>
   24610:	fff78713          	addi	a4,a5,-1
   24614:	efdff06f          	j	24510 <__subtf3+0x1270>
   24618:	00072603          	lw	a2,0(a4)
   2461c:	ffc72883          	lw	a7,-4(a4)
   24620:	00d70e33          	add	t3,a4,a3
   24624:	00b61633          	sll	a2,a2,a1
   24628:	0108d8b3          	srl	a7,a7,a6
   2462c:	01166633          	or	a2,a2,a7
   24630:	00ce2023          	sw	a2,0(t3)
   24634:	ffc70713          	addi	a4,a4,-4
   24638:	eb9ff06f          	j	244f0 <__subtf3+0x1250>
   2463c:	0006a583          	lw	a1,0(a3)
   24640:	00170713          	addi	a4,a4,1
   24644:	00468693          	addi	a3,a3,4
   24648:	00b36333          	or	t1,t1,a1
   2464c:	f1dff06f          	j	24568 <__subtf3+0x12c8>
   24650:	04068593          	addi	a1,a3,64
   24654:	002585b3          	add	a1,a1,sp
   24658:	ff05a583          	lw	a1,-16(a1)
   2465c:	02000813          	li	a6,32
   24660:	40a80833          	sub	a6,a6,a0
   24664:	010595b3          	sll	a1,a1,a6
   24668:	00b36333          	or	t1,t1,a1
   2466c:	00d886b3          	add	a3,a7,a3
   24670:	00000e13          	li	t3,0
   24674:	00468693          	addi	a3,a3,4
   24678:	06ee4863          	blt	t3,a4,246e8 <__subtf3+0x1448>
   2467c:	00400693          	li	a3,4
   24680:	40f687b3          	sub	a5,a3,a5
   24684:	03c12683          	lw	a3,60(sp)
   24688:	00271713          	slli	a4,a4,0x2
   2468c:	04070713          	addi	a4,a4,64
   24690:	00270733          	add	a4,a4,sp
   24694:	00a6d533          	srl	a0,a3,a0
   24698:	fea72823          	sw	a0,-16(a4)
   2469c:	00400713          	li	a4,4
   246a0:	40f70733          	sub	a4,a4,a5
   246a4:	00271713          	slli	a4,a4,0x2
   246a8:	00279793          	slli	a5,a5,0x2
   246ac:	00800693          	li	a3,8
   246b0:	00f887b3          	add	a5,a7,a5
   246b4:	00d76a63          	bltu	a4,a3,246c8 <__subtf3+0x1428>
   246b8:	0007a023          	sw	zero,0(a5)
   246bc:	0007a223          	sw	zero,4(a5)
   246c0:	ff870713          	addi	a4,a4,-8
   246c4:	00878793          	addi	a5,a5,8
   246c8:	00400693          	li	a3,4
   246cc:	00d76463          	bltu	a4,a3,246d4 <__subtf3+0x1434>
   246d0:	0007a023          	sw	zero,0(a5)
   246d4:	03012703          	lw	a4,48(sp)
   246d8:	006037b3          	snez	a5,t1
   246dc:	00f767b3          	or	a5,a4,a5
   246e0:	02f12823          	sw	a5,48(sp)
   246e4:	c34ff06f          	j	23b18 <__subtf3+0x878>
   246e8:	ffc6a583          	lw	a1,-4(a3)
   246ec:	0006ae83          	lw	t4,0(a3)
   246f0:	001e0e13          	addi	t3,t3,1
   246f4:	00a5d5b3          	srl	a1,a1,a0
   246f8:	010e9eb3          	sll	t4,t4,a6
   246fc:	01d5e5b3          	or	a1,a1,t4
   24700:	00b62023          	sw	a1,0(a2)
   24704:	00460613          	addi	a2,a2,4
   24708:	f6dff06f          	j	24674 <__subtf3+0x13d4>
   2470c:	03c12783          	lw	a5,60(sp)
   24710:	fff80737          	lui	a4,0xfff80
   24714:	fff70713          	addi	a4,a4,-1 # fff7ffff <__BSS_END__+0xfff59517>
   24718:	00e7f7b3          	and	a5,a5,a4
   2471c:	40a484b3          	sub	s1,s1,a0
   24720:	02f12e23          	sw	a5,60(sp)
   24724:	df9fe06f          	j	2351c <__subtf3+0x27c>
   24728:	02012e23          	sw	zero,60(sp)
   2472c:	02012c23          	sw	zero,56(sp)
   24730:	02012a23          	sw	zero,52(sp)
   24734:	02012823          	sw	zero,48(sp)
   24738:	e69fe06f          	j	235a0 <__subtf3+0x300>
   2473c:	07400713          	li	a4,116
   24740:	00c74463          	blt	a4,a2,24748 <__subtf3+0x14a8>
   24744:	f5dfe06f          	j	236a0 <__subtf3+0x400>
   24748:	02012623          	sw	zero,44(sp)
   2474c:	02012423          	sw	zero,40(sp)
   24750:	02012223          	sw	zero,36(sp)
   24754:	00100713          	li	a4,1
   24758:	834ff06f          	j	2378c <__subtf3+0x4ec>
   2475c:	07400793          	li	a5,116
   24760:	9d07dc63          	bge	a5,a6,23938 <__subtf3+0x698>
   24764:	00012e23          	sw	zero,28(sp)
   24768:	00012c23          	sw	zero,24(sp)
   2476c:	00012a23          	sw	zero,20(sp)
   24770:	00100793          	li	a5,1
   24774:	ad8ff06f          	j	23a4c <__subtf3+0x7ac>
   24778:	07400793          	li	a5,116
   2477c:	8b17d2e3          	bge	a5,a7,24020 <__subtf3+0xd80>
   24780:	00012e23          	sw	zero,28(sp)
   24784:	00012c23          	sw	zero,24(sp)
   24788:	00012a23          	sw	zero,20(sp)
   2478c:	00100713          	li	a4,1
   24790:	9a5ff06f          	j	24134 <__subtf3+0xe94>

00024794 <__fixtfsi>:
   24794:	00052783          	lw	a5,0(a0)
   24798:	00452603          	lw	a2,4(a0)
   2479c:	00c52703          	lw	a4,12(a0)
   247a0:	00852683          	lw	a3,8(a0)
   247a4:	fe010113          	addi	sp,sp,-32
   247a8:	00f12023          	sw	a5,0(sp)
   247ac:	00c12223          	sw	a2,4(sp)
   247b0:	00f12823          	sw	a5,16(sp)
   247b4:	00171613          	slli	a2,a4,0x1
   247b8:	000047b7          	lui	a5,0x4
   247bc:	00d12423          	sw	a3,8(sp)
   247c0:	00e12623          	sw	a4,12(sp)
   247c4:	00d12c23          	sw	a3,24(sp)
   247c8:	01165613          	srli	a2,a2,0x11
   247cc:	ffe78593          	addi	a1,a5,-2 # 3ffe <exit-0xc096>
   247d0:	00000513          	li	a0,0
   247d4:	00c5de63          	bge	a1,a2,247f0 <__fixtfsi+0x5c>
   247d8:	01d78593          	addi	a1,a5,29
   247dc:	01f75813          	srli	a6,a4,0x1f
   247e0:	00c5dc63          	bge	a1,a2,247f8 <__fixtfsi+0x64>
   247e4:	80000537          	lui	a0,0x80000
   247e8:	fff54513          	not	a0,a0
   247ec:	00a80533          	add	a0,a6,a0
   247f0:	02010113          	addi	sp,sp,32
   247f4:	00008067          	ret
   247f8:	01071713          	slli	a4,a4,0x10
   247fc:	000105b7          	lui	a1,0x10
   24800:	01075713          	srli	a4,a4,0x10
   24804:	06f78793          	addi	a5,a5,111
   24808:	00b76733          	or	a4,a4,a1
   2480c:	40c787b3          	sub	a5,a5,a2
   24810:	4057d613          	srai	a2,a5,0x5
   24814:	02000593          	li	a1,32
   24818:	01f7f793          	andi	a5,a5,31
   2481c:	00e12e23          	sw	a4,28(sp)
   24820:	40f585b3          	sub	a1,a1,a5
   24824:	04079a63          	bnez	a5,24878 <__fixtfsi+0xe4>
   24828:	00261613          	slli	a2,a2,0x2
   2482c:	02060793          	addi	a5,a2,32
   24830:	00278633          	add	a2,a5,sp
   24834:	ff062783          	lw	a5,-16(a2)
   24838:	00f12823          	sw	a5,16(sp)
   2483c:	01012503          	lw	a0,16(sp)
   24840:	fa0808e3          	beqz	a6,247f0 <__fixtfsi+0x5c>
   24844:	40a00533          	neg	a0,a0
   24848:	fa9ff06f          	j	247f0 <__fixtfsi+0x5c>
   2484c:	00f6d6b3          	srl	a3,a3,a5
   24850:	00b715b3          	sll	a1,a4,a1
   24854:	00b6e6b3          	or	a3,a3,a1
   24858:	00d12823          	sw	a3,16(sp)
   2485c:	00100693          	li	a3,1
   24860:	00269693          	slli	a3,a3,0x2
   24864:	02068693          	addi	a3,a3,32
   24868:	002686b3          	add	a3,a3,sp
   2486c:	00f75733          	srl	a4,a4,a5
   24870:	fee6a823          	sw	a4,-16(a3)
   24874:	fc9ff06f          	j	2483c <__fixtfsi+0xa8>
   24878:	00200513          	li	a0,2
   2487c:	fca608e3          	beq	a2,a0,2484c <__fixtfsi+0xb8>
   24880:	00000693          	li	a3,0
   24884:	fddff06f          	j	24860 <__fixtfsi+0xcc>

00024888 <__floatsitf>:
   24888:	fd010113          	addi	sp,sp,-48
   2488c:	02912223          	sw	s1,36(sp)
   24890:	02112623          	sw	ra,44(sp)
   24894:	02812423          	sw	s0,40(sp)
   24898:	03212023          	sw	s2,32(sp)
   2489c:	00050493          	mv	s1,a0
   248a0:	12058263          	beqz	a1,249c4 <__floatsitf+0x13c>
   248a4:	41f5d793          	srai	a5,a1,0x1f
   248a8:	00b7c433          	xor	s0,a5,a1
   248ac:	40f40433          	sub	s0,s0,a5
   248b0:	00040513          	mv	a0,s0
   248b4:	01f5d913          	srli	s2,a1,0x1f
   248b8:	758000ef          	jal	ra,25010 <__clzsi2>
   248bc:	05150793          	addi	a5,a0,81 # 80000051 <__BSS_END__+0x7ffd9569>
   248c0:	00004637          	lui	a2,0x4
   248c4:	01e60613          	addi	a2,a2,30 # 401e <exit-0xc076>
   248c8:	4057d713          	srai	a4,a5,0x5
   248cc:	00812823          	sw	s0,16(sp)
   248d0:	00012a23          	sw	zero,20(sp)
   248d4:	00012c23          	sw	zero,24(sp)
   248d8:	00012e23          	sw	zero,28(sp)
   248dc:	01f7f793          	andi	a5,a5,31
   248e0:	40a60633          	sub	a2,a2,a0
   248e4:	02078c63          	beqz	a5,2491c <__floatsitf+0x94>
   248e8:	00200693          	li	a3,2
   248ec:	0cd71863          	bne	a4,a3,249bc <__floatsitf+0x134>
   248f0:	02000693          	li	a3,32
   248f4:	40f686b3          	sub	a3,a3,a5
   248f8:	00d456b3          	srl	a3,s0,a3
   248fc:	00d12e23          	sw	a3,28(sp)
   24900:	fff70693          	addi	a3,a4,-1
   24904:	00271713          	slli	a4,a4,0x2
   24908:	02070713          	addi	a4,a4,32
   2490c:	00270733          	add	a4,a4,sp
   24910:	00f41433          	sll	s0,s0,a5
   24914:	fe872823          	sw	s0,-16(a4)
   24918:	0340006f          	j	2494c <__floatsitf+0xc4>
   2491c:	00300793          	li	a5,3
   24920:	40e787b3          	sub	a5,a5,a4
   24924:	00279793          	slli	a5,a5,0x2
   24928:	02078793          	addi	a5,a5,32
   2492c:	002787b3          	add	a5,a5,sp
   24930:	ff07a783          	lw	a5,-16(a5)
   24934:	00200693          	li	a3,2
   24938:	00f12e23          	sw	a5,28(sp)
   2493c:	00200793          	li	a5,2
   24940:	00f71663          	bne	a4,a5,2494c <__floatsitf+0xc4>
   24944:	00812c23          	sw	s0,24(sp)
   24948:	00100693          	li	a3,1
   2494c:	00269693          	slli	a3,a3,0x2
   24950:	00012823          	sw	zero,16(sp)
   24954:	00012a23          	sw	zero,20(sp)
   24958:	ffc68693          	addi	a3,a3,-4
   2495c:	00400793          	li	a5,4
   24960:	00f6e463          	bltu	a3,a5,24968 <__floatsitf+0xe0>
   24964:	00012c23          	sw	zero,24(sp)
   24968:	00090593          	mv	a1,s2
   2496c:	01c12783          	lw	a5,28(sp)
   24970:	00f59413          	slli	s0,a1,0xf
   24974:	00c46433          	or	s0,s0,a2
   24978:	00f11623          	sh	a5,12(sp)
   2497c:	01012783          	lw	a5,16(sp)
   24980:	00811723          	sh	s0,14(sp)
   24984:	02c12083          	lw	ra,44(sp)
   24988:	00f4a023          	sw	a5,0(s1)
   2498c:	01412783          	lw	a5,20(sp)
   24990:	02812403          	lw	s0,40(sp)
   24994:	02012903          	lw	s2,32(sp)
   24998:	00f4a223          	sw	a5,4(s1)
   2499c:	01812783          	lw	a5,24(sp)
   249a0:	00048513          	mv	a0,s1
   249a4:	00f4a423          	sw	a5,8(s1)
   249a8:	00c12783          	lw	a5,12(sp)
   249ac:	00f4a623          	sw	a5,12(s1)
   249b0:	02412483          	lw	s1,36(sp)
   249b4:	03010113          	addi	sp,sp,48
   249b8:	00008067          	ret
   249bc:	00300713          	li	a4,3
   249c0:	f41ff06f          	j	24900 <__floatsitf+0x78>
   249c4:	00012e23          	sw	zero,28(sp)
   249c8:	00012c23          	sw	zero,24(sp)
   249cc:	00012a23          	sw	zero,20(sp)
   249d0:	00012823          	sw	zero,16(sp)
   249d4:	00000613          	li	a2,0
   249d8:	f95ff06f          	j	2496c <__floatsitf+0xe4>

000249dc <__extenddftf2>:
   249dc:	01465713          	srli	a4,a2,0x14
   249e0:	00c61793          	slli	a5,a2,0xc
   249e4:	7ff77713          	andi	a4,a4,2047
   249e8:	fd010113          	addi	sp,sp,-48
   249ec:	00c7d793          	srli	a5,a5,0xc
   249f0:	00170693          	addi	a3,a4,1
   249f4:	02812423          	sw	s0,40(sp)
   249f8:	02912223          	sw	s1,36(sp)
   249fc:	03212023          	sw	s2,32(sp)
   24a00:	02112623          	sw	ra,44(sp)
   24a04:	00b12823          	sw	a1,16(sp)
   24a08:	00f12a23          	sw	a5,20(sp)
   24a0c:	00012e23          	sw	zero,28(sp)
   24a10:	00012c23          	sw	zero,24(sp)
   24a14:	7fe6f693          	andi	a3,a3,2046
   24a18:	00050913          	mv	s2,a0
   24a1c:	00058413          	mv	s0,a1
   24a20:	01f65493          	srli	s1,a2,0x1f
   24a24:	08068263          	beqz	a3,24aa8 <__extenddftf2+0xcc>
   24a28:	000046b7          	lui	a3,0x4
   24a2c:	c0068693          	addi	a3,a3,-1024 # 3c00 <exit-0xc494>
   24a30:	00d70733          	add	a4,a4,a3
   24a34:	0047d693          	srli	a3,a5,0x4
   24a38:	00d12e23          	sw	a3,28(sp)
   24a3c:	01c79793          	slli	a5,a5,0x1c
   24a40:	0045d693          	srli	a3,a1,0x4
   24a44:	00d7e7b3          	or	a5,a5,a3
   24a48:	01c59413          	slli	s0,a1,0x1c
   24a4c:	00f12c23          	sw	a5,24(sp)
   24a50:	00812a23          	sw	s0,20(sp)
   24a54:	00012823          	sw	zero,16(sp)
   24a58:	01c12783          	lw	a5,28(sp)
   24a5c:	00f49493          	slli	s1,s1,0xf
   24a60:	00e4e4b3          	or	s1,s1,a4
   24a64:	00f11623          	sh	a5,12(sp)
   24a68:	01012783          	lw	a5,16(sp)
   24a6c:	00911723          	sh	s1,14(sp)
   24a70:	02c12083          	lw	ra,44(sp)
   24a74:	00f92023          	sw	a5,0(s2)
   24a78:	01412783          	lw	a5,20(sp)
   24a7c:	02812403          	lw	s0,40(sp)
   24a80:	02412483          	lw	s1,36(sp)
   24a84:	00f92223          	sw	a5,4(s2)
   24a88:	01812783          	lw	a5,24(sp)
   24a8c:	00090513          	mv	a0,s2
   24a90:	00f92423          	sw	a5,8(s2)
   24a94:	00c12783          	lw	a5,12(sp)
   24a98:	00f92623          	sw	a5,12(s2)
   24a9c:	02012903          	lw	s2,32(sp)
   24aa0:	03010113          	addi	sp,sp,48
   24aa4:	00008067          	ret
   24aa8:	00b7e533          	or	a0,a5,a1
   24aac:	0e071e63          	bnez	a4,24ba8 <__extenddftf2+0x1cc>
   24ab0:	fa0504e3          	beqz	a0,24a58 <__extenddftf2+0x7c>
   24ab4:	04078e63          	beqz	a5,24b10 <__extenddftf2+0x134>
   24ab8:	00078513          	mv	a0,a5
   24abc:	554000ef          	jal	ra,25010 <__clzsi2>
   24ac0:	03150693          	addi	a3,a0,49
   24ac4:	4056d713          	srai	a4,a3,0x5
   24ac8:	01f6f693          	andi	a3,a3,31
   24acc:	40e007b3          	neg	a5,a4
   24ad0:	04068663          	beqz	a3,24b1c <__extenddftf2+0x140>
   24ad4:	00279793          	slli	a5,a5,0x2
   24ad8:	00c78613          	addi	a2,a5,12
   24adc:	02000813          	li	a6,32
   24ae0:	01010313          	addi	t1,sp,16
   24ae4:	40d80833          	sub	a6,a6,a3
   24ae8:	00c30633          	add	a2,t1,a2
   24aec:	40f007b3          	neg	a5,a5
   24af0:	08c31a63          	bne	t1,a2,24b84 <__extenddftf2+0x1a8>
   24af4:	fff70793          	addi	a5,a4,-1
   24af8:	00271713          	slli	a4,a4,0x2
   24afc:	02070713          	addi	a4,a4,32
   24b00:	00270733          	add	a4,a4,sp
   24b04:	00d416b3          	sll	a3,s0,a3
   24b08:	fed72823          	sw	a3,-16(a4)
   24b0c:	0380006f          	j	24b44 <__extenddftf2+0x168>
   24b10:	500000ef          	jal	ra,25010 <__clzsi2>
   24b14:	02050513          	addi	a0,a0,32
   24b18:	fa9ff06f          	j	24ac0 <__extenddftf2+0xe4>
   24b1c:	01c10693          	addi	a3,sp,28
   24b20:	00279793          	slli	a5,a5,0x2
   24b24:	00300613          	li	a2,3
   24b28:	00f685b3          	add	a1,a3,a5
   24b2c:	0005a583          	lw	a1,0(a1) # 10000 <exit-0x94>
   24b30:	fff60613          	addi	a2,a2,-1
   24b34:	ffc68693          	addi	a3,a3,-4
   24b38:	00b6a223          	sw	a1,4(a3)
   24b3c:	fee656e3          	bge	a2,a4,24b28 <__extenddftf2+0x14c>
   24b40:	fff70793          	addi	a5,a4,-1
   24b44:	00178793          	addi	a5,a5,1
   24b48:	00279793          	slli	a5,a5,0x2
   24b4c:	00800693          	li	a3,8
   24b50:	01010713          	addi	a4,sp,16
   24b54:	00d7ea63          	bltu	a5,a3,24b68 <__extenddftf2+0x18c>
   24b58:	00012823          	sw	zero,16(sp)
   24b5c:	00072223          	sw	zero,4(a4)
   24b60:	ff878793          	addi	a5,a5,-8
   24b64:	01810713          	addi	a4,sp,24
   24b68:	00400693          	li	a3,4
   24b6c:	00d7e463          	bltu	a5,a3,24b74 <__extenddftf2+0x198>
   24b70:	00072023          	sw	zero,0(a4)
   24b74:	00004737          	lui	a4,0x4
   24b78:	c0c70713          	addi	a4,a4,-1012 # 3c0c <exit-0xc488>
   24b7c:	40a70733          	sub	a4,a4,a0
   24b80:	ed9ff06f          	j	24a58 <__extenddftf2+0x7c>
   24b84:	00062583          	lw	a1,0(a2)
   24b88:	ffc62883          	lw	a7,-4(a2)
   24b8c:	00f60e33          	add	t3,a2,a5
   24b90:	00d595b3          	sll	a1,a1,a3
   24b94:	0108d8b3          	srl	a7,a7,a6
   24b98:	0115e5b3          	or	a1,a1,a7
   24b9c:	00be2023          	sw	a1,0(t3)
   24ba0:	ffc60613          	addi	a2,a2,-4
   24ba4:	f4dff06f          	j	24af0 <__extenddftf2+0x114>
   24ba8:	02050863          	beqz	a0,24bd8 <__extenddftf2+0x1fc>
   24bac:	01c79713          	slli	a4,a5,0x1c
   24bb0:	0045d693          	srli	a3,a1,0x4
   24bb4:	00d76733          	or	a4,a4,a3
   24bb8:	00e12c23          	sw	a4,24(sp)
   24bbc:	0047d793          	srli	a5,a5,0x4
   24bc0:	00008737          	lui	a4,0x8
   24bc4:	01c59413          	slli	s0,a1,0x1c
   24bc8:	00e7e7b3          	or	a5,a5,a4
   24bcc:	00812a23          	sw	s0,20(sp)
   24bd0:	00012823          	sw	zero,16(sp)
   24bd4:	00f12e23          	sw	a5,28(sp)
   24bd8:	00008737          	lui	a4,0x8
   24bdc:	fff70713          	addi	a4,a4,-1 # 7fff <exit-0x8095>
   24be0:	e79ff06f          	j	24a58 <__extenddftf2+0x7c>

00024be4 <__trunctfdf2>:
   24be4:	00c52583          	lw	a1,12(a0)
   24be8:	00852783          	lw	a5,8(a0)
   24bec:	00052683          	lw	a3,0(a0)
   24bf0:	fe010113          	addi	sp,sp,-32
   24bf4:	00452703          	lw	a4,4(a0)
   24bf8:	00f12423          	sw	a5,8(sp)
   24bfc:	00f12c23          	sw	a5,24(sp)
   24c00:	01059793          	slli	a5,a1,0x10
   24c04:	0107d793          	srli	a5,a5,0x10
   24c08:	00d12023          	sw	a3,0(sp)
   24c0c:	00d12823          	sw	a3,16(sp)
   24c10:	01010613          	addi	a2,sp,16
   24c14:	00159693          	slli	a3,a1,0x1
   24c18:	00b12623          	sw	a1,12(sp)
   24c1c:	00f12e23          	sw	a5,28(sp)
   24c20:	00e12223          	sw	a4,4(sp)
   24c24:	00e12a23          	sw	a4,20(sp)
   24c28:	0116d693          	srli	a3,a3,0x11
   24c2c:	01f5d593          	srli	a1,a1,0x1f
   24c30:	01c10793          	addi	a5,sp,28
   24c34:	00060e13          	mv	t3,a2
   24c38:	0007a703          	lw	a4,0(a5)
   24c3c:	ffc7a503          	lw	a0,-4(a5)
   24c40:	ffc78793          	addi	a5,a5,-4
   24c44:	00371713          	slli	a4,a4,0x3
   24c48:	01d55513          	srli	a0,a0,0x1d
   24c4c:	00a76733          	or	a4,a4,a0
   24c50:	00e7a223          	sw	a4,4(a5)
   24c54:	fef612e3          	bne	a2,a5,24c38 <__trunctfdf2+0x54>
   24c58:	01012503          	lw	a0,16(sp)
   24c5c:	00008737          	lui	a4,0x8
   24c60:	00168793          	addi	a5,a3,1
   24c64:	00351513          	slli	a0,a0,0x3
   24c68:	ffe70713          	addi	a4,a4,-2 # 7ffe <exit-0x8096>
   24c6c:	00a12823          	sw	a0,16(sp)
   24c70:	00e7f7b3          	and	a5,a5,a4
   24c74:	20078e63          	beqz	a5,24e90 <__trunctfdf2+0x2ac>
   24c78:	ffffc7b7          	lui	a5,0xffffc
   24c7c:	40078793          	addi	a5,a5,1024 # ffffc400 <__BSS_END__+0xfffd5918>
   24c80:	00f686b3          	add	a3,a3,a5
   24c84:	7fe00793          	li	a5,2046
   24c88:	28d7ca63          	blt	a5,a3,24f1c <__trunctfdf2+0x338>
   24c8c:	0cd05863          	blez	a3,24d5c <__trunctfdf2+0x178>
   24c90:	01812603          	lw	a2,24(sp)
   24c94:	01c12783          	lw	a5,28(sp)
   24c98:	01412703          	lw	a4,20(sp)
   24c9c:	01c65813          	srli	a6,a2,0x1c
   24ca0:	00479793          	slli	a5,a5,0x4
   24ca4:	0107e7b3          	or	a5,a5,a6
   24ca8:	00f12a23          	sw	a5,20(sp)
   24cac:	00471793          	slli	a5,a4,0x4
   24cb0:	00a7e7b3          	or	a5,a5,a0
   24cb4:	01c75713          	srli	a4,a4,0x1c
   24cb8:	00461613          	slli	a2,a2,0x4
   24cbc:	00f037b3          	snez	a5,a5
   24cc0:	00c76733          	or	a4,a4,a2
   24cc4:	00e7e7b3          	or	a5,a5,a4
   24cc8:	01412703          	lw	a4,20(sp)
   24ccc:	0077f613          	andi	a2,a5,7
   24cd0:	02060063          	beqz	a2,24cf0 <__trunctfdf2+0x10c>
   24cd4:	00f7f613          	andi	a2,a5,15
   24cd8:	00400513          	li	a0,4
   24cdc:	00a60a63          	beq	a2,a0,24cf0 <__trunctfdf2+0x10c>
   24ce0:	00478613          	addi	a2,a5,4
   24ce4:	00f63533          	sltu	a0,a2,a5
   24ce8:	00a70733          	add	a4,a4,a0
   24cec:	00060793          	mv	a5,a2
   24cf0:	00800637          	lui	a2,0x800
   24cf4:	00c77633          	and	a2,a4,a2
   24cf8:	1e060863          	beqz	a2,24ee8 <__trunctfdf2+0x304>
   24cfc:	ff800537          	lui	a0,0xff800
   24d00:	fff50513          	addi	a0,a0,-1 # ff7fffff <__BSS_END__+0xff7d9517>
   24d04:	00168693          	addi	a3,a3,1
   24d08:	7ff00813          	li	a6,2047
   24d0c:	00a77533          	and	a0,a4,a0
   24d10:	00000613          	li	a2,0
   24d14:	00000713          	li	a4,0
   24d18:	01068a63          	beq	a3,a6,24d2c <__trunctfdf2+0x148>
   24d1c:	0037d793          	srli	a5,a5,0x3
   24d20:	01d51613          	slli	a2,a0,0x1d
   24d24:	00f66633          	or	a2,a2,a5
   24d28:	00355713          	srli	a4,a0,0x3
   24d2c:	7ff007b7          	lui	a5,0x7ff00
   24d30:	01469693          	slli	a3,a3,0x14
   24d34:	00c71713          	slli	a4,a4,0xc
   24d38:	00f6f6b3          	and	a3,a3,a5
   24d3c:	00c75713          	srli	a4,a4,0xc
   24d40:	01f59593          	slli	a1,a1,0x1f
   24d44:	00e6e6b3          	or	a3,a3,a4
   24d48:	00b6e7b3          	or	a5,a3,a1
   24d4c:	00060513          	mv	a0,a2
   24d50:	00078593          	mv	a1,a5
   24d54:	02010113          	addi	sp,sp,32
   24d58:	00008067          	ret
   24d5c:	fcc00793          	li	a5,-52
   24d60:	16f6ce63          	blt	a3,a5,24edc <__trunctfdf2+0x2f8>
   24d64:	01c12783          	lw	a5,28(sp)
   24d68:	00080737          	lui	a4,0x80
   24d6c:	00060813          	mv	a6,a2
   24d70:	00f76eb3          	or	t4,a4,a5
   24d74:	03d00793          	li	a5,61
   24d78:	40d787b3          	sub	a5,a5,a3
   24d7c:	4057d693          	srai	a3,a5,0x5
   24d80:	01f7f713          	andi	a4,a5,31
   24d84:	01d12e23          	sw	t4,28(sp)
   24d88:	00000513          	li	a0,0
   24d8c:	00000793          	li	a5,0
   24d90:	00082883          	lw	a7,0(a6)
   24d94:	00150513          	addi	a0,a0,1
   24d98:	00480813          	addi	a6,a6,4
   24d9c:	0117e7b3          	or	a5,a5,a7
   24da0:	fea698e3          	bne	a3,a0,24d90 <__trunctfdf2+0x1ac>
   24da4:	00300513          	li	a0,3
   24da8:	40d50533          	sub	a0,a0,a3
   24dac:	00269813          	slli	a6,a3,0x2
   24db0:	02071463          	bnez	a4,24dd8 <__trunctfdf2+0x1f4>
   24db4:	010e08b3          	add	a7,t3,a6
   24db8:	0008a883          	lw	a7,0(a7)
   24dbc:	00170713          	addi	a4,a4,1 # 80001 <__BSS_END__+0x59519>
   24dc0:	004e0e13          	addi	t3,t3,4
   24dc4:	ff1e2e23          	sw	a7,-4(t3)
   24dc8:	fee556e3          	bge	a0,a4,24db4 <__trunctfdf2+0x1d0>
   24dcc:	00400713          	li	a4,4
   24dd0:	40d706b3          	sub	a3,a4,a3
   24dd4:	0480006f          	j	24e1c <__trunctfdf2+0x238>
   24dd8:	02080893          	addi	a7,a6,32
   24ddc:	002888b3          	add	a7,a7,sp
   24de0:	ff08a883          	lw	a7,-16(a7)
   24de4:	02000313          	li	t1,32
   24de8:	40e30333          	sub	t1,t1,a4
   24dec:	006898b3          	sll	a7,a7,t1
   24df0:	0117e7b3          	or	a5,a5,a7
   24df4:	01060833          	add	a6,a2,a6
   24df8:	00000f13          	li	t5,0
   24dfc:	06af4663          	blt	t5,a0,24e68 <__trunctfdf2+0x284>
   24e00:	00251513          	slli	a0,a0,0x2
   24e04:	02050513          	addi	a0,a0,32
   24e08:	00400813          	li	a6,4
   24e0c:	00250533          	add	a0,a0,sp
   24e10:	00eed733          	srl	a4,t4,a4
   24e14:	40d806b3          	sub	a3,a6,a3
   24e18:	fee52823          	sw	a4,-16(a0)
   24e1c:	00400513          	li	a0,4
   24e20:	40d50533          	sub	a0,a0,a3
   24e24:	00269693          	slli	a3,a3,0x2
   24e28:	00d60733          	add	a4,a2,a3
   24e2c:	00251693          	slli	a3,a0,0x2
   24e30:	00800613          	li	a2,8
   24e34:	00c6ea63          	bltu	a3,a2,24e48 <__trunctfdf2+0x264>
   24e38:	00072023          	sw	zero,0(a4)
   24e3c:	00072223          	sw	zero,4(a4)
   24e40:	ff868693          	addi	a3,a3,-8
   24e44:	00870713          	addi	a4,a4,8
   24e48:	00400613          	li	a2,4
   24e4c:	00c6e463          	bltu	a3,a2,24e54 <__trunctfdf2+0x270>
   24e50:	00072023          	sw	zero,0(a4)
   24e54:	01012703          	lw	a4,16(sp)
   24e58:	00f037b3          	snez	a5,a5
   24e5c:	00000693          	li	a3,0
   24e60:	00e7e7b3          	or	a5,a5,a4
   24e64:	e65ff06f          	j	24cc8 <__trunctfdf2+0xe4>
   24e68:	00082883          	lw	a7,0(a6)
   24e6c:	00482f83          	lw	t6,4(a6)
   24e70:	00480813          	addi	a6,a6,4
   24e74:	00e8d8b3          	srl	a7,a7,a4
   24e78:	006f9fb3          	sll	t6,t6,t1
   24e7c:	01f8e8b3          	or	a7,a7,t6
   24e80:	011e2023          	sw	a7,0(t3)
   24e84:	001f0f13          	addi	t5,t5,1
   24e88:	004e0e13          	addi	t3,t3,4
   24e8c:	f71ff06f          	j	24dfc <__trunctfdf2+0x218>
   24e90:	08068863          	beqz	a3,24f20 <__trunctfdf2+0x33c>
   24e94:	01412783          	lw	a5,20(sp)
   24e98:	01812703          	lw	a4,24(sp)
   24e9c:	01c12683          	lw	a3,28(sp)
   24ea0:	00f76633          	or	a2,a4,a5
   24ea4:	00d66633          	or	a2,a2,a3
   24ea8:	00a66633          	or	a2,a2,a0
   24eac:	08060063          	beqz	a2,24f2c <__trunctfdf2+0x348>
   24eb0:	00471613          	slli	a2,a4,0x4
   24eb4:	00469693          	slli	a3,a3,0x4
   24eb8:	01c7d793          	srli	a5,a5,0x1c
   24ebc:	01c75713          	srli	a4,a4,0x1c
   24ec0:	00d76733          	or	a4,a4,a3
   24ec4:	00c7e7b3          	or	a5,a5,a2
   24ec8:	004006b7          	lui	a3,0x400
   24ecc:	00d76733          	or	a4,a4,a3
   24ed0:	ff87f793          	andi	a5,a5,-8
   24ed4:	7ff00693          	li	a3,2047
   24ed8:	df5ff06f          	j	24ccc <__trunctfdf2+0xe8>
   24edc:	00000693          	li	a3,0
   24ee0:	00500793          	li	a5,5
   24ee4:	00000713          	li	a4,0
   24ee8:	0037d793          	srli	a5,a5,0x3
   24eec:	01d71613          	slli	a2,a4,0x1d
   24ef0:	00f66633          	or	a2,a2,a5
   24ef4:	7ff00793          	li	a5,2047
   24ef8:	00375713          	srli	a4,a4,0x3
   24efc:	e2f698e3          	bne	a3,a5,24d2c <__trunctfdf2+0x148>
   24f00:	00e66633          	or	a2,a2,a4
   24f04:	00000713          	li	a4,0
   24f08:	e20602e3          	beqz	a2,24d2c <__trunctfdf2+0x148>
   24f0c:	00080737          	lui	a4,0x80
   24f10:	00000613          	li	a2,0
   24f14:	00000593          	li	a1,0
   24f18:	e15ff06f          	j	24d2c <__trunctfdf2+0x148>
   24f1c:	7ff00693          	li	a3,2047
   24f20:	00000713          	li	a4,0
   24f24:	00000613          	li	a2,0
   24f28:	e05ff06f          	j	24d2c <__trunctfdf2+0x148>
   24f2c:	00000713          	li	a4,0
   24f30:	7ff00693          	li	a3,2047
   24f34:	df9ff06f          	j	24d2c <__trunctfdf2+0x148>

00024f38 <__mulsi3>:
   24f38:	00050613          	mv	a2,a0
   24f3c:	00000513          	li	a0,0
   24f40:	0015f693          	andi	a3,a1,1
   24f44:	00068463          	beqz	a3,24f4c <__mulsi3+0x14>
   24f48:	00c50533          	add	a0,a0,a2
   24f4c:	0015d593          	srli	a1,a1,0x1
   24f50:	00161613          	slli	a2,a2,0x1
   24f54:	fe0596e3          	bnez	a1,24f40 <__mulsi3+0x8>
   24f58:	00008067          	ret

00024f5c <__divsi3>:
   24f5c:	06054063          	bltz	a0,24fbc <__umodsi3+0x10>
   24f60:	0605c663          	bltz	a1,24fcc <__umodsi3+0x20>

00024f64 <__hidden___udivsi3>:
   24f64:	00058613          	mv	a2,a1
   24f68:	00050593          	mv	a1,a0
   24f6c:	fff00513          	li	a0,-1
   24f70:	02060c63          	beqz	a2,24fa8 <__hidden___udivsi3+0x44>
   24f74:	00100693          	li	a3,1
   24f78:	00b67a63          	bgeu	a2,a1,24f8c <__hidden___udivsi3+0x28>
   24f7c:	00c05863          	blez	a2,24f8c <__hidden___udivsi3+0x28>
   24f80:	00161613          	slli	a2,a2,0x1
   24f84:	00169693          	slli	a3,a3,0x1
   24f88:	feb66ae3          	bltu	a2,a1,24f7c <__hidden___udivsi3+0x18>
   24f8c:	00000513          	li	a0,0
   24f90:	00c5e663          	bltu	a1,a2,24f9c <__hidden___udivsi3+0x38>
   24f94:	40c585b3          	sub	a1,a1,a2
   24f98:	00d56533          	or	a0,a0,a3
   24f9c:	0016d693          	srli	a3,a3,0x1
   24fa0:	00165613          	srli	a2,a2,0x1
   24fa4:	fe0696e3          	bnez	a3,24f90 <__hidden___udivsi3+0x2c>
   24fa8:	00008067          	ret

00024fac <__umodsi3>:
   24fac:	00008293          	mv	t0,ra
   24fb0:	fb5ff0ef          	jal	ra,24f64 <__hidden___udivsi3>
   24fb4:	00058513          	mv	a0,a1
   24fb8:	00028067          	jr	t0
   24fbc:	40a00533          	neg	a0,a0
   24fc0:	00b04863          	bgtz	a1,24fd0 <__umodsi3+0x24>
   24fc4:	40b005b3          	neg	a1,a1
   24fc8:	f9dff06f          	j	24f64 <__hidden___udivsi3>
   24fcc:	40b005b3          	neg	a1,a1
   24fd0:	00008293          	mv	t0,ra
   24fd4:	f91ff0ef          	jal	ra,24f64 <__hidden___udivsi3>
   24fd8:	40a00533          	neg	a0,a0
   24fdc:	00028067          	jr	t0

00024fe0 <__modsi3>:
   24fe0:	00008293          	mv	t0,ra
   24fe4:	0005ca63          	bltz	a1,24ff8 <__modsi3+0x18>
   24fe8:	00054c63          	bltz	a0,25000 <__modsi3+0x20>
   24fec:	f79ff0ef          	jal	ra,24f64 <__hidden___udivsi3>
   24ff0:	00058513          	mv	a0,a1
   24ff4:	00028067          	jr	t0
   24ff8:	40b005b3          	neg	a1,a1
   24ffc:	fe0558e3          	bgez	a0,24fec <__modsi3+0xc>
   25000:	40a00533          	neg	a0,a0
   25004:	f61ff0ef          	jal	ra,24f64 <__hidden___udivsi3>
   25008:	40b00533          	neg	a0,a1
   2500c:	00028067          	jr	t0

00025010 <__clzsi2>:
   25010:	000107b7          	lui	a5,0x10
   25014:	02f57a63          	bgeu	a0,a5,25048 <__clzsi2+0x38>
   25018:	10053793          	sltiu	a5,a0,256
   2501c:	0017c793          	xori	a5,a5,1
   25020:	00379793          	slli	a5,a5,0x3
   25024:	00026737          	lui	a4,0x26
   25028:	02000693          	li	a3,32
   2502c:	40f686b3          	sub	a3,a3,a5
   25030:	00f55533          	srl	a0,a0,a5
   25034:	e7470793          	addi	a5,a4,-396 # 25e74 <__clz_tab>
   25038:	00a787b3          	add	a5,a5,a0
   2503c:	0007c503          	lbu	a0,0(a5) # 10000 <exit-0x94>
   25040:	40a68533          	sub	a0,a3,a0
   25044:	00008067          	ret
   25048:	01000737          	lui	a4,0x1000
   2504c:	01000793          	li	a5,16
   25050:	fce56ae3          	bltu	a0,a4,25024 <__clzsi2+0x14>
   25054:	01800793          	li	a5,24
   25058:	fcdff06f          	j	25024 <__clzsi2+0x14>
