
./12_c_program_to_find_the_largest_number_among_three_numbers.elf:     file format elf32-littleriscv


Disassembly of section .text:

00010094 <exit>:
   10094:	ff010113          	addi	sp,sp,-16
   10098:	00000593          	li	a1,0
   1009c:	00812423          	sw	s0,8(sp)
   100a0:	00112623          	sw	ra,12(sp)
   100a4:	00050413          	mv	s0,a0
   100a8:	1d4060ef          	jal	ra,1627c <__call_exitprocs>
   100ac:	2281a503          	lw	a0,552(gp) # 32ae8 <_global_impure_ptr>
   100b0:	03c52783          	lw	a5,60(a0)
   100b4:	00078463          	beqz	a5,100bc <exit+0x28>
   100b8:	000780e7          	jalr	a5
   100bc:	00040513          	mv	a0,s0
   100c0:	3b4190ef          	jal	ra,29474 <_exit>

000100c4 <register_fini>:
   100c4:	00000793          	li	a5,0
   100c8:	00078863          	beqz	a5,100d8 <register_fini+0x14>
   100cc:	00017537          	lui	a0,0x17
   100d0:	a6c50513          	addi	a0,a0,-1428 # 16a6c <__libc_fini_array>
   100d4:	2c80606f          	j	1639c <atexit>
   100d8:	00008067          	ret

000100dc <_start>:
   100dc:	00022197          	auipc	gp,0x22
   100e0:	7e418193          	addi	gp,gp,2020 # 328c0 <__global_pointer$>
   100e4:	23e18513          	addi	a0,gp,574 # 32afe <__bss_start>
   100e8:	29c18613          	addi	a2,gp,668 # 32b5c <__BSS_END__>
   100ec:	40a60633          	sub	a2,a2,a0
   100f0:	00000593          	li	a1,0
   100f4:	380000ef          	jal	ra,10474 <memset>
   100f8:	00006517          	auipc	a0,0x6
   100fc:	2a450513          	addi	a0,a0,676 # 1639c <atexit>
   10100:	00050863          	beqz	a0,10110 <_start+0x34>
   10104:	00007517          	auipc	a0,0x7
   10108:	96850513          	addi	a0,a0,-1688 # 16a6c <__libc_fini_array>
   1010c:	290060ef          	jal	ra,1639c <atexit>
   10110:	2c8000ef          	jal	ra,103d8 <__libc_init_array>
   10114:	00012503          	lw	a0,0(sp)
   10118:	00410593          	addi	a1,sp,4
   1011c:	00000613          	li	a2,0
   10120:	06c000ef          	jal	ra,1018c <main>
   10124:	f71ff06f          	j	10094 <exit>

00010128 <__do_global_dtors_aux>:
   10128:	ff010113          	addi	sp,sp,-16
   1012c:	00812423          	sw	s0,8(sp)
   10130:	2581c783          	lbu	a5,600(gp) # 32b18 <completed.1>
   10134:	00112623          	sw	ra,12(sp)
   10138:	02079263          	bnez	a5,1015c <__do_global_dtors_aux+0x34>
   1013c:	00000793          	li	a5,0
   10140:	00078a63          	beqz	a5,10154 <__do_global_dtors_aux+0x2c>
   10144:	00032537          	lui	a0,0x32
   10148:	00050513          	mv	a0,a0
   1014c:	00000097          	auipc	ra,0x0
   10150:	000000e7          	jalr	zero # 0 <exit-0x10094>
   10154:	00100793          	li	a5,1
   10158:	24f18c23          	sb	a5,600(gp) # 32b18 <completed.1>
   1015c:	00c12083          	lw	ra,12(sp)
   10160:	00812403          	lw	s0,8(sp)
   10164:	01010113          	addi	sp,sp,16
   10168:	00008067          	ret

0001016c <frame_dummy>:
   1016c:	00000793          	li	a5,0
   10170:	00078c63          	beqz	a5,10188 <frame_dummy+0x1c>
   10174:	00032537          	lui	a0,0x32
   10178:	25c18593          	addi	a1,gp,604 # 32b1c <object.0>
   1017c:	00050513          	mv	a0,a0
   10180:	00000317          	auipc	t1,0x0
   10184:	00000067          	jr	zero # 0 <exit-0x10094>
   10188:	00008067          	ret

0001018c <main>:
   1018c:	fd010113          	addi	sp,sp,-48
   10190:	02112623          	sw	ra,44(sp)
   10194:	02812423          	sw	s0,40(sp)
   10198:	02912223          	sw	s1,36(sp)
   1019c:	00030537          	lui	a0,0x30
   101a0:	0c850513          	addi	a0,a0,200 # 300c8 <__clzsi2+0x50>
   101a4:	3ec000ef          	jal	ra,10590 <printf>
   101a8:	00810693          	addi	a3,sp,8
   101ac:	01010613          	addi	a2,sp,16
   101b0:	01810593          	addi	a1,sp,24
   101b4:	00030537          	lui	a0,0x30
   101b8:	0e850513          	addi	a0,a0,232 # 300e8 <__clzsi2+0x70>
   101bc:	420000ef          	jal	ra,105dc <scanf>
   101c0:	01812403          	lw	s0,24(sp)
   101c4:	01c12483          	lw	s1,28(sp)
   101c8:	01012603          	lw	a2,16(sp)
   101cc:	01412683          	lw	a3,20(sp)
   101d0:	00040513          	mv	a0,s0
   101d4:	00048593          	mv	a1,s1
   101d8:	0f0000ef          	jal	ra,102c8 <__gedf2>
   101dc:	00054e63          	bltz	a0,101f8 <main+0x6c>
   101e0:	00812603          	lw	a2,8(sp)
   101e4:	00c12683          	lw	a3,12(sp)
   101e8:	00040513          	mv	a0,s0
   101ec:	00048593          	mv	a1,s1
   101f0:	0d8000ef          	jal	ra,102c8 <__gedf2>
   101f4:	08055663          	bgez	a0,10280 <main+0xf4>
   101f8:	01012403          	lw	s0,16(sp)
   101fc:	01412483          	lw	s1,20(sp)
   10200:	01812603          	lw	a2,24(sp)
   10204:	01c12683          	lw	a3,28(sp)
   10208:	00040513          	mv	a0,s0
   1020c:	00048593          	mv	a1,s1
   10210:	0b8000ef          	jal	ra,102c8 <__gedf2>
   10214:	00054e63          	bltz	a0,10230 <main+0xa4>
   10218:	00812603          	lw	a2,8(sp)
   1021c:	00c12683          	lw	a3,12(sp)
   10220:	00040513          	mv	a0,s0
   10224:	00048593          	mv	a1,s1
   10228:	0a0000ef          	jal	ra,102c8 <__gedf2>
   1022c:	06055663          	bgez	a0,10298 <main+0x10c>
   10230:	00812403          	lw	s0,8(sp)
   10234:	00c12483          	lw	s1,12(sp)
   10238:	01812603          	lw	a2,24(sp)
   1023c:	01c12683          	lw	a3,28(sp)
   10240:	00040513          	mv	a0,s0
   10244:	00048593          	mv	a1,s1
   10248:	080000ef          	jal	ra,102c8 <__gedf2>
   1024c:	00054e63          	bltz	a0,10268 <main+0xdc>
   10250:	01012603          	lw	a2,16(sp)
   10254:	01412683          	lw	a3,20(sp)
   10258:	00040513          	mv	a0,s0
   1025c:	00048593          	mv	a1,s1
   10260:	068000ef          	jal	ra,102c8 <__gedf2>
   10264:	04055663          	bgez	a0,102b0 <main+0x124>
   10268:	00000513          	li	a0,0
   1026c:	02c12083          	lw	ra,44(sp)
   10270:	02812403          	lw	s0,40(sp)
   10274:	02412483          	lw	s1,36(sp)
   10278:	03010113          	addi	sp,sp,48
   1027c:	00008067          	ret
   10280:	00040613          	mv	a2,s0
   10284:	00048693          	mv	a3,s1
   10288:	00030537          	lui	a0,0x30
   1028c:	0f450513          	addi	a0,a0,244 # 300f4 <__clzsi2+0x7c>
   10290:	300000ef          	jal	ra,10590 <printf>
   10294:	f65ff06f          	j	101f8 <main+0x6c>
   10298:	00040613          	mv	a2,s0
   1029c:	00048693          	mv	a3,s1
   102a0:	00030537          	lui	a0,0x30
   102a4:	0f450513          	addi	a0,a0,244 # 300f4 <__clzsi2+0x7c>
   102a8:	2e8000ef          	jal	ra,10590 <printf>
   102ac:	f85ff06f          	j	10230 <main+0xa4>
   102b0:	00040613          	mv	a2,s0
   102b4:	00048693          	mv	a3,s1
   102b8:	00030537          	lui	a0,0x30
   102bc:	0f450513          	addi	a0,a0,244 # 300f4 <__clzsi2+0x7c>
   102c0:	2d0000ef          	jal	ra,10590 <printf>
   102c4:	fa5ff06f          	j	10268 <main+0xdc>

000102c8 <__gedf2>:
   102c8:	0146d793          	srli	a5,a3,0x14
   102cc:	0145d313          	srli	t1,a1,0x14
   102d0:	00100737          	lui	a4,0x100
   102d4:	fff70713          	addi	a4,a4,-1 # fffff <__BSS_END__+0xcd4a3>
   102d8:	00050813          	mv	a6,a0
   102dc:	00050e13          	mv	t3,a0
   102e0:	7ff37313          	andi	t1,t1,2047
   102e4:	7ff7f513          	andi	a0,a5,2047
   102e8:	7ff00793          	li	a5,2047
   102ec:	00b778b3          	and	a7,a4,a1
   102f0:	00060e93          	mv	t4,a2
   102f4:	00d77733          	and	a4,a4,a3
   102f8:	01f5d593          	srli	a1,a1,0x1f
   102fc:	01f6d693          	srli	a3,a3,0x1f
   10300:	02f31c63          	bne	t1,a5,10338 <__gedf2+0x70>
   10304:	0108e8b3          	or	a7,a7,a6
   10308:	0c089463          	bnez	a7,103d0 <__gedf2+0x108>
   1030c:	00650a63          	beq	a0,t1,10320 <__gedf2+0x58>
   10310:	00100513          	li	a0,1
   10314:	0a058c63          	beqz	a1,103cc <__gedf2+0x104>
   10318:	fff00513          	li	a0,-1
   1031c:	00008067          	ret
   10320:	00c76733          	or	a4,a4,a2
   10324:	ffe00513          	li	a0,-2
   10328:	0a071263          	bnez	a4,103cc <__gedf2+0x104>
   1032c:	fed592e3          	bne	a1,a3,10310 <__gedf2+0x48>
   10330:	00000513          	li	a0,0
   10334:	00008067          	ret
   10338:	04f51063          	bne	a0,a5,10378 <__gedf2+0xb0>
   1033c:	00c76733          	or	a4,a4,a2
   10340:	ffe00513          	li	a0,-2
   10344:	08071463          	bnez	a4,103cc <__gedf2+0x104>
   10348:	00030c63          	beqz	t1,10360 <__gedf2+0x98>
   1034c:	fcd592e3          	bne	a1,a3,10310 <__gedf2+0x48>
   10350:	fff00513          	li	a0,-1
   10354:	06058c63          	beqz	a1,103cc <__gedf2+0x104>
   10358:	00058513          	mv	a0,a1
   1035c:	00008067          	ret
   10360:	0108e8b3          	or	a7,a7,a6
   10364:	fe0894e3          	bnez	a7,1034c <__gedf2+0x84>
   10368:	fff00513          	li	a0,-1
   1036c:	06068063          	beqz	a3,103cc <__gedf2+0x104>
   10370:	00068513          	mv	a0,a3
   10374:	00008067          	ret
   10378:	02030663          	beqz	t1,103a4 <__gedf2+0xdc>
   1037c:	f8050ae3          	beqz	a0,10310 <__gedf2+0x48>
   10380:	f8d598e3          	bne	a1,a3,10310 <__gedf2+0x48>
   10384:	f86546e3          	blt	a0,t1,10310 <__gedf2+0x48>
   10388:	fca344e3          	blt	t1,a0,10350 <__gedf2+0x88>
   1038c:	f91762e3          	bltu	a4,a7,10310 <__gedf2+0x48>
   10390:	fce890e3          	bne	a7,a4,10350 <__gedf2+0x88>
   10394:	f7ceeee3          	bltu	t4,t3,10310 <__gedf2+0x48>
   10398:	00000513          	li	a0,0
   1039c:	03de7863          	bgeu	t3,t4,103cc <__gedf2+0x104>
   103a0:	fb1ff06f          	j	10350 <__gedf2+0x88>
   103a4:	0108e833          	or	a6,a7,a6
   103a8:	00050663          	beqz	a0,103b4 <__gedf2+0xec>
   103ac:	fa080ee3          	beqz	a6,10368 <__gedf2+0xa0>
   103b0:	f9dff06f          	j	1034c <__gedf2+0x84>
   103b4:	00c76633          	or	a2,a4,a2
   103b8:	00060863          	beqz	a2,103c8 <__gedf2+0x100>
   103bc:	fa0806e3          	beqz	a6,10368 <__gedf2+0xa0>
   103c0:	fcd586e3          	beq	a1,a3,1038c <__gedf2+0xc4>
   103c4:	f4dff06f          	j	10310 <__gedf2+0x48>
   103c8:	f40814e3          	bnez	a6,10310 <__gedf2+0x48>
   103cc:	00008067          	ret
   103d0:	ffe00513          	li	a0,-2
   103d4:	00008067          	ret

000103d8 <__libc_init_array>:
   103d8:	ff010113          	addi	sp,sp,-16
   103dc:	00812423          	sw	s0,8(sp)
   103e0:	000327b7          	lui	a5,0x32
   103e4:	00032437          	lui	s0,0x32
   103e8:	01212023          	sw	s2,0(sp)
   103ec:	0b478793          	addi	a5,a5,180 # 320b4 <__init_array_start>
   103f0:	0b440713          	addi	a4,s0,180 # 320b4 <__init_array_start>
   103f4:	00112623          	sw	ra,12(sp)
   103f8:	00912223          	sw	s1,4(sp)
   103fc:	40e78933          	sub	s2,a5,a4
   10400:	02e78263          	beq	a5,a4,10424 <__libc_init_array+0x4c>
   10404:	40295913          	srai	s2,s2,0x2
   10408:	0b440413          	addi	s0,s0,180
   1040c:	00000493          	li	s1,0
   10410:	00042783          	lw	a5,0(s0)
   10414:	00148493          	addi	s1,s1,1
   10418:	00440413          	addi	s0,s0,4
   1041c:	000780e7          	jalr	a5
   10420:	ff24e8e3          	bltu	s1,s2,10410 <__libc_init_array+0x38>
   10424:	00032437          	lui	s0,0x32
   10428:	000327b7          	lui	a5,0x32
   1042c:	0bc78793          	addi	a5,a5,188 # 320bc <__do_global_dtors_aux_fini_array_entry>
   10430:	0b440713          	addi	a4,s0,180 # 320b4 <__init_array_start>
   10434:	40e78933          	sub	s2,a5,a4
   10438:	40295913          	srai	s2,s2,0x2
   1043c:	02e78063          	beq	a5,a4,1045c <__libc_init_array+0x84>
   10440:	0b440413          	addi	s0,s0,180
   10444:	00000493          	li	s1,0
   10448:	00042783          	lw	a5,0(s0)
   1044c:	00148493          	addi	s1,s1,1
   10450:	00440413          	addi	s0,s0,4
   10454:	000780e7          	jalr	a5
   10458:	ff24e8e3          	bltu	s1,s2,10448 <__libc_init_array+0x70>
   1045c:	00c12083          	lw	ra,12(sp)
   10460:	00812403          	lw	s0,8(sp)
   10464:	00412483          	lw	s1,4(sp)
   10468:	00012903          	lw	s2,0(sp)
   1046c:	01010113          	addi	sp,sp,16
   10470:	00008067          	ret

00010474 <memset>:
   10474:	00f00313          	li	t1,15
   10478:	00050713          	mv	a4,a0
   1047c:	02c37e63          	bgeu	t1,a2,104b8 <memset+0x44>
   10480:	00f77793          	andi	a5,a4,15
   10484:	0a079063          	bnez	a5,10524 <memset+0xb0>
   10488:	08059263          	bnez	a1,1050c <memset+0x98>
   1048c:	ff067693          	andi	a3,a2,-16
   10490:	00f67613          	andi	a2,a2,15
   10494:	00e686b3          	add	a3,a3,a4
   10498:	00b72023          	sw	a1,0(a4)
   1049c:	00b72223          	sw	a1,4(a4)
   104a0:	00b72423          	sw	a1,8(a4)
   104a4:	00b72623          	sw	a1,12(a4)
   104a8:	01070713          	addi	a4,a4,16
   104ac:	fed766e3          	bltu	a4,a3,10498 <memset+0x24>
   104b0:	00061463          	bnez	a2,104b8 <memset+0x44>
   104b4:	00008067          	ret
   104b8:	40c306b3          	sub	a3,t1,a2
   104bc:	00269693          	slli	a3,a3,0x2
   104c0:	00000297          	auipc	t0,0x0
   104c4:	005686b3          	add	a3,a3,t0
   104c8:	00c68067          	jr	12(a3)
   104cc:	00b70723          	sb	a1,14(a4)
   104d0:	00b706a3          	sb	a1,13(a4)
   104d4:	00b70623          	sb	a1,12(a4)
   104d8:	00b705a3          	sb	a1,11(a4)
   104dc:	00b70523          	sb	a1,10(a4)
   104e0:	00b704a3          	sb	a1,9(a4)
   104e4:	00b70423          	sb	a1,8(a4)
   104e8:	00b703a3          	sb	a1,7(a4)
   104ec:	00b70323          	sb	a1,6(a4)
   104f0:	00b702a3          	sb	a1,5(a4)
   104f4:	00b70223          	sb	a1,4(a4)
   104f8:	00b701a3          	sb	a1,3(a4)
   104fc:	00b70123          	sb	a1,2(a4)
   10500:	00b700a3          	sb	a1,1(a4)
   10504:	00b70023          	sb	a1,0(a4)
   10508:	00008067          	ret
   1050c:	0ff5f593          	zext.b	a1,a1
   10510:	00859693          	slli	a3,a1,0x8
   10514:	00d5e5b3          	or	a1,a1,a3
   10518:	01059693          	slli	a3,a1,0x10
   1051c:	00d5e5b3          	or	a1,a1,a3
   10520:	f6dff06f          	j	1048c <memset+0x18>
   10524:	00279693          	slli	a3,a5,0x2
   10528:	00000297          	auipc	t0,0x0
   1052c:	005686b3          	add	a3,a3,t0
   10530:	00008293          	mv	t0,ra
   10534:	fa0680e7          	jalr	-96(a3)
   10538:	00028093          	mv	ra,t0
   1053c:	ff078793          	addi	a5,a5,-16
   10540:	40f70733          	sub	a4,a4,a5
   10544:	00f60633          	add	a2,a2,a5
   10548:	f6c378e3          	bgeu	t1,a2,104b8 <memset+0x44>
   1054c:	f3dff06f          	j	10488 <memset+0x14>

00010550 <_printf_r>:
   10550:	fc010113          	addi	sp,sp,-64
   10554:	02c12423          	sw	a2,40(sp)
   10558:	02d12623          	sw	a3,44(sp)
   1055c:	02e12823          	sw	a4,48(sp)
   10560:	02f12a23          	sw	a5,52(sp)
   10564:	03012c23          	sw	a6,56(sp)
   10568:	03112e23          	sw	a7,60(sp)
   1056c:	00058613          	mv	a2,a1
   10570:	00852583          	lw	a1,8(a0)
   10574:	02810693          	addi	a3,sp,40
   10578:	00112e23          	sw	ra,28(sp)
   1057c:	00d12623          	sw	a3,12(sp)
   10580:	0e8000ef          	jal	ra,10668 <_vfprintf_r>
   10584:	01c12083          	lw	ra,28(sp)
   10588:	04010113          	addi	sp,sp,64
   1058c:	00008067          	ret

00010590 <printf>:
   10590:	2301a303          	lw	t1,560(gp) # 32af0 <_impure_ptr>
   10594:	fc010113          	addi	sp,sp,-64
   10598:	02c12423          	sw	a2,40(sp)
   1059c:	02d12623          	sw	a3,44(sp)
   105a0:	02b12223          	sw	a1,36(sp)
   105a4:	02e12823          	sw	a4,48(sp)
   105a8:	02f12a23          	sw	a5,52(sp)
   105ac:	03012c23          	sw	a6,56(sp)
   105b0:	03112e23          	sw	a7,60(sp)
   105b4:	00832583          	lw	a1,8(t1) # 10188 <frame_dummy+0x1c>
   105b8:	02410693          	addi	a3,sp,36
   105bc:	00050613          	mv	a2,a0
   105c0:	00030513          	mv	a0,t1
   105c4:	00112e23          	sw	ra,28(sp)
   105c8:	00d12623          	sw	a3,12(sp)
   105cc:	09c000ef          	jal	ra,10668 <_vfprintf_r>
   105d0:	01c12083          	lw	ra,28(sp)
   105d4:	04010113          	addi	sp,sp,64
   105d8:	00008067          	ret

000105dc <scanf>:
   105dc:	2301a303          	lw	t1,560(gp) # 32af0 <_impure_ptr>
   105e0:	fc010113          	addi	sp,sp,-64
   105e4:	02c12423          	sw	a2,40(sp)
   105e8:	02d12623          	sw	a3,44(sp)
   105ec:	02b12223          	sw	a1,36(sp)
   105f0:	02e12823          	sw	a4,48(sp)
   105f4:	02f12a23          	sw	a5,52(sp)
   105f8:	03012c23          	sw	a6,56(sp)
   105fc:	03112e23          	sw	a7,60(sp)
   10600:	00432583          	lw	a1,4(t1)
   10604:	02410693          	addi	a3,sp,36
   10608:	00050613          	mv	a2,a0
   1060c:	00030513          	mv	a0,t1
   10610:	00112e23          	sw	ra,28(sp)
   10614:	00d12623          	sw	a3,12(sp)
   10618:	2c5050ef          	jal	ra,160dc <_vfscanf_r>
   1061c:	01c12083          	lw	ra,28(sp)
   10620:	04010113          	addi	sp,sp,64
   10624:	00008067          	ret

00010628 <_scanf_r>:
   10628:	fc010113          	addi	sp,sp,-64
   1062c:	02c12423          	sw	a2,40(sp)
   10630:	02d12623          	sw	a3,44(sp)
   10634:	02e12823          	sw	a4,48(sp)
   10638:	02f12a23          	sw	a5,52(sp)
   1063c:	03012c23          	sw	a6,56(sp)
   10640:	03112e23          	sw	a7,60(sp)
   10644:	00058613          	mv	a2,a1
   10648:	00452583          	lw	a1,4(a0)
   1064c:	02810693          	addi	a3,sp,40
   10650:	00112e23          	sw	ra,28(sp)
   10654:	00d12623          	sw	a3,12(sp)
   10658:	285050ef          	jal	ra,160dc <_vfscanf_r>
   1065c:	01c12083          	lw	ra,28(sp)
   10660:	04010113          	addi	sp,sp,64
   10664:	00008067          	ret

00010668 <_vfprintf_r>:
   10668:	e1010113          	addi	sp,sp,-496
   1066c:	1e112623          	sw	ra,492(sp)
   10670:	1e812423          	sw	s0,488(sp)
   10674:	1f212023          	sw	s2,480(sp)
   10678:	00b12423          	sw	a1,8(sp)
   1067c:	00060913          	mv	s2,a2
   10680:	00d12c23          	sw	a3,24(sp)
   10684:	1e912223          	sw	s1,484(sp)
   10688:	1d312e23          	sw	s3,476(sp)
   1068c:	1d412c23          	sw	s4,472(sp)
   10690:	1d512a23          	sw	s5,468(sp)
   10694:	1d612823          	sw	s6,464(sp)
   10698:	1d712623          	sw	s7,460(sp)
   1069c:	1d812423          	sw	s8,456(sp)
   106a0:	1d912223          	sw	s9,452(sp)
   106a4:	1da12023          	sw	s10,448(sp)
   106a8:	1bb12e23          	sw	s11,444(sp)
   106ac:	00050413          	mv	s0,a0
   106b0:	02a12823          	sw	a0,48(sp)
   106b4:	209090ef          	jal	ra,1a0bc <_localeconv_r>
   106b8:	00052703          	lw	a4,0(a0)
   106bc:	00070513          	mv	a0,a4
   106c0:	02e12c23          	sw	a4,56(sp)
   106c4:	04d0c0ef          	jal	ra,1cf10 <strlen>
   106c8:	02a12a23          	sw	a0,52(sp)
   106cc:	0e012823          	sw	zero,240(sp)
   106d0:	0e012a23          	sw	zero,244(sp)
   106d4:	0e012c23          	sw	zero,248(sp)
   106d8:	0e012e23          	sw	zero,252(sp)
   106dc:	00040663          	beqz	s0,106e8 <_vfprintf_r+0x80>
   106e0:	03842783          	lw	a5,56(s0)
   106e4:	020782e3          	beqz	a5,10f08 <_vfprintf_r+0x8a0>
   106e8:	00812603          	lw	a2,8(sp)
   106ec:	00c61783          	lh	a5,12(a2)
   106f0:	01279713          	slli	a4,a5,0x12
   106f4:	02074663          	bltz	a4,10720 <_vfprintf_r+0xb8>
   106f8:	06462703          	lw	a4,100(a2)
   106fc:	000026b7          	lui	a3,0x2
   10700:	00d7e7b3          	or	a5,a5,a3
   10704:	ffffe6b7          	lui	a3,0xffffe
   10708:	01079793          	slli	a5,a5,0x10
   1070c:	fff68693          	addi	a3,a3,-1 # ffffdfff <__BSS_END__+0xfffcb4a3>
   10710:	4107d793          	srai	a5,a5,0x10
   10714:	00d77733          	and	a4,a4,a3
   10718:	00f61623          	sh	a5,12(a2)
   1071c:	06e62223          	sw	a4,100(a2)
   10720:	0087f713          	andi	a4,a5,8
   10724:	2e070c63          	beqz	a4,10a1c <_vfprintf_r+0x3b4>
   10728:	00812703          	lw	a4,8(sp)
   1072c:	01072703          	lw	a4,16(a4)
   10730:	2e070663          	beqz	a4,10a1c <_vfprintf_r+0x3b4>
   10734:	01a7f793          	andi	a5,a5,26
   10738:	00a00713          	li	a4,10
   1073c:	30e78463          	beq	a5,a4,10a44 <_vfprintf_r+0x3dc>
   10740:	000307b7          	lui	a5,0x30
   10744:	15478793          	addi	a5,a5,340 # 30154 <__clzsi2+0xdc>
   10748:	00090c93          	mv	s9,s2
   1074c:	00f12e23          	sw	a5,28(sp)
   10750:	000cc703          	lbu	a4,0(s9)
   10754:	000307b7          	lui	a5,0x30
   10758:	10c10b13          	addi	s6,sp,268
   1075c:	35878793          	addi	a5,a5,856 # 30358 <zeroes.0>
   10760:	0f612223          	sw	s6,228(sp)
   10764:	0e012623          	sw	zero,236(sp)
   10768:	0e012423          	sw	zero,232(sp)
   1076c:	02012223          	sw	zero,36(sp)
   10770:	02012e23          	sw	zero,60(sp)
   10774:	04012223          	sw	zero,68(sp)
   10778:	04012023          	sw	zero,64(sp)
   1077c:	04012623          	sw	zero,76(sp)
   10780:	04012423          	sw	zero,72(sp)
   10784:	00012823          	sw	zero,16(sp)
   10788:	00f12623          	sw	a5,12(sp)
   1078c:	03012a03          	lw	s4,48(sp)
   10790:	000b0413          	mv	s0,s6
   10794:	22070463          	beqz	a4,109bc <_vfprintf_r+0x354>
   10798:	000c8493          	mv	s1,s9
   1079c:	02500693          	li	a3,37
   107a0:	40d70663          	beq	a4,a3,10bac <_vfprintf_r+0x544>
   107a4:	0014c703          	lbu	a4,1(s1)
   107a8:	00148493          	addi	s1,s1,1
   107ac:	fe071ae3          	bnez	a4,107a0 <_vfprintf_r+0x138>
   107b0:	41948933          	sub	s2,s1,s9
   107b4:	21948463          	beq	s1,s9,109bc <_vfprintf_r+0x354>
   107b8:	0ec12683          	lw	a3,236(sp)
   107bc:	0e812703          	lw	a4,232(sp)
   107c0:	01942023          	sw	s9,0(s0)
   107c4:	012686b3          	add	a3,a3,s2
   107c8:	00170713          	addi	a4,a4,1
   107cc:	01242223          	sw	s2,4(s0)
   107d0:	0ed12623          	sw	a3,236(sp)
   107d4:	0ee12423          	sw	a4,232(sp)
   107d8:	00700693          	li	a3,7
   107dc:	00840413          	addi	s0,s0,8
   107e0:	3ce6ce63          	blt	a3,a4,10bbc <_vfprintf_r+0x554>
   107e4:	01012783          	lw	a5,16(sp)
   107e8:	0004c703          	lbu	a4,0(s1)
   107ec:	012787b3          	add	a5,a5,s2
   107f0:	00f12823          	sw	a5,16(sp)
   107f4:	1c070463          	beqz	a4,109bc <_vfprintf_r+0x354>
   107f8:	0014c883          	lbu	a7,1(s1)
   107fc:	0c0103a3          	sb	zero,199(sp)
   10800:	00148493          	addi	s1,s1,1
   10804:	fff00993          	li	s3,-1
   10808:	00000d13          	li	s10,0
   1080c:	00000c13          	li	s8,0
   10810:	05a00913          	li	s2,90
   10814:	00148493          	addi	s1,s1,1
   10818:	fe088793          	addi	a5,a7,-32
   1081c:	04f96663          	bltu	s2,a5,10868 <_vfprintf_r+0x200>
   10820:	01c12703          	lw	a4,28(sp)
   10824:	00279793          	slli	a5,a5,0x2
   10828:	00e787b3          	add	a5,a5,a4
   1082c:	0007a783          	lw	a5,0(a5)
   10830:	00078067          	jr	a5
   10834:	00000d13          	li	s10,0
   10838:	fd088793          	addi	a5,a7,-48
   1083c:	00900693          	li	a3,9
   10840:	0004c883          	lbu	a7,0(s1)
   10844:	002d1713          	slli	a4,s10,0x2
   10848:	01a70d33          	add	s10,a4,s10
   1084c:	001d1d13          	slli	s10,s10,0x1
   10850:	01a78d33          	add	s10,a5,s10
   10854:	fd088793          	addi	a5,a7,-48
   10858:	00148493          	addi	s1,s1,1
   1085c:	fef6f2e3          	bgeu	a3,a5,10840 <_vfprintf_r+0x1d8>
   10860:	fe088793          	addi	a5,a7,-32
   10864:	faf97ee3          	bgeu	s2,a5,10820 <_vfprintf_r+0x1b8>
   10868:	14088a63          	beqz	a7,109bc <_vfprintf_r+0x354>
   1086c:	15110623          	sb	a7,332(sp)
   10870:	0c0103a3          	sb	zero,199(sp)
   10874:	00100a93          	li	s5,1
   10878:	00100913          	li	s2,1
   1087c:	14c10c93          	addi	s9,sp,332
   10880:	00012a23          	sw	zero,20(sp)
   10884:	00000993          	li	s3,0
   10888:	02012623          	sw	zero,44(sp)
   1088c:	02012423          	sw	zero,40(sp)
   10890:	02012023          	sw	zero,32(sp)
   10894:	002c7293          	andi	t0,s8,2
   10898:	00028463          	beqz	t0,108a0 <_vfprintf_r+0x238>
   1089c:	002a8a93          	addi	s5,s5,2
   108a0:	084c7d93          	andi	s11,s8,132
   108a4:	000d9663          	bnez	s11,108b0 <_vfprintf_r+0x248>
   108a8:	415d06b3          	sub	a3,s10,s5
   108ac:	44d04ce3          	bgtz	a3,11504 <_vfprintf_r+0xe9c>
   108b0:	0c714683          	lbu	a3,199(sp)
   108b4:	02068c63          	beqz	a3,108ec <_vfprintf_r+0x284>
   108b8:	0ec12603          	lw	a2,236(sp)
   108bc:	0e812683          	lw	a3,232(sp)
   108c0:	0c710593          	addi	a1,sp,199
   108c4:	00160613          	addi	a2,a2,1
   108c8:	00b42023          	sw	a1,0(s0)
   108cc:	00168693          	addi	a3,a3,1
   108d0:	00100593          	li	a1,1
   108d4:	00b42223          	sw	a1,4(s0)
   108d8:	0ec12623          	sw	a2,236(sp)
   108dc:	0ed12423          	sw	a3,232(sp)
   108e0:	00700613          	li	a2,7
   108e4:	00840413          	addi	s0,s0,8
   108e8:	3cd64863          	blt	a2,a3,10cb8 <_vfprintf_r+0x650>
   108ec:	02028c63          	beqz	t0,10924 <_vfprintf_r+0x2bc>
   108f0:	0ec12603          	lw	a2,236(sp)
   108f4:	0e812683          	lw	a3,232(sp)
   108f8:	0c810793          	addi	a5,sp,200
   108fc:	00260613          	addi	a2,a2,2
   10900:	00168693          	addi	a3,a3,1
   10904:	00200593          	li	a1,2
   10908:	00f42023          	sw	a5,0(s0)
   1090c:	00b42223          	sw	a1,4(s0)
   10910:	0ec12623          	sw	a2,236(sp)
   10914:	0ed12423          	sw	a3,232(sp)
   10918:	00700613          	li	a2,7
   1091c:	00840413          	addi	s0,s0,8
   10920:	4ed648e3          	blt	a2,a3,11610 <_vfprintf_r+0xfa8>
   10924:	08000693          	li	a3,128
   10928:	1cdd88e3          	beq	s11,a3,112f8 <_vfprintf_r+0xc90>
   1092c:	412989b3          	sub	s3,s3,s2
   10930:	2b304ee3          	bgtz	s3,113ec <_vfprintf_r+0xd84>
   10934:	100c7693          	andi	a3,s8,256
   10938:	020696e3          	bnez	a3,11164 <_vfprintf_r+0xafc>
   1093c:	0ec12683          	lw	a3,236(sp)
   10940:	0e812783          	lw	a5,232(sp)
   10944:	01942023          	sw	s9,0(s0)
   10948:	00d906b3          	add	a3,s2,a3
   1094c:	00178793          	addi	a5,a5,1
   10950:	01242223          	sw	s2,4(s0)
   10954:	0ed12623          	sw	a3,236(sp)
   10958:	0ef12423          	sw	a5,232(sp)
   1095c:	00700613          	li	a2,7
   10960:	48f64863          	blt	a2,a5,10df0 <_vfprintf_r+0x788>
   10964:	00840413          	addi	s0,s0,8
   10968:	004c7713          	andi	a4,s8,4
   1096c:	00070663          	beqz	a4,10978 <_vfprintf_r+0x310>
   10970:	415d0933          	sub	s2,s10,s5
   10974:	4d2040e3          	bgtz	s2,11634 <_vfprintf_r+0xfcc>
   10978:	000d0313          	mv	t1,s10
   1097c:	015d5463          	bge	s10,s5,10984 <_vfprintf_r+0x31c>
   10980:	000a8313          	mv	t1,s5
   10984:	01012783          	lw	a5,16(sp)
   10988:	006787b3          	add	a5,a5,t1
   1098c:	00f12823          	sw	a5,16(sp)
   10990:	340692e3          	bnez	a3,114d4 <_vfprintf_r+0xe6c>
   10994:	01412783          	lw	a5,20(sp)
   10998:	0e012423          	sw	zero,232(sp)
   1099c:	00078863          	beqz	a5,109ac <_vfprintf_r+0x344>
   109a0:	01412583          	lw	a1,20(sp)
   109a4:	000a0513          	mv	a0,s4
   109a8:	4d0060ef          	jal	ra,16e78 <_free_r>
   109ac:	000b0413          	mv	s0,s6
   109b0:	00048c93          	mv	s9,s1
   109b4:	000cc703          	lbu	a4,0(s9)
   109b8:	de0710e3          	bnez	a4,10798 <_vfprintf_r+0x130>
   109bc:	0ec12783          	lw	a5,236(sp)
   109c0:	00078463          	beqz	a5,109c8 <_vfprintf_r+0x360>
   109c4:	24d0106f          	j	12410 <_vfprintf_r+0x1da8>
   109c8:	00812783          	lw	a5,8(sp)
   109cc:	00c7d783          	lhu	a5,12(a5)
   109d0:	0407f793          	andi	a5,a5,64
   109d4:	00078463          	beqz	a5,109dc <_vfprintf_r+0x374>
   109d8:	17c0206f          	j	12b54 <_vfprintf_r+0x24ec>
   109dc:	1ec12083          	lw	ra,492(sp)
   109e0:	1e812403          	lw	s0,488(sp)
   109e4:	01012503          	lw	a0,16(sp)
   109e8:	1e412483          	lw	s1,484(sp)
   109ec:	1e012903          	lw	s2,480(sp)
   109f0:	1dc12983          	lw	s3,476(sp)
   109f4:	1d812a03          	lw	s4,472(sp)
   109f8:	1d412a83          	lw	s5,468(sp)
   109fc:	1d012b03          	lw	s6,464(sp)
   10a00:	1cc12b83          	lw	s7,460(sp)
   10a04:	1c812c03          	lw	s8,456(sp)
   10a08:	1c412c83          	lw	s9,452(sp)
   10a0c:	1c012d03          	lw	s10,448(sp)
   10a10:	1bc12d83          	lw	s11,444(sp)
   10a14:	1f010113          	addi	sp,sp,496
   10a18:	00008067          	ret
   10a1c:	00812583          	lw	a1,8(sp)
   10a20:	03012503          	lw	a0,48(sp)
   10a24:	718050ef          	jal	ra,1613c <__swsetup_r>
   10a28:	00050463          	beqz	a0,10a30 <_vfprintf_r+0x3c8>
   10a2c:	1280206f          	j	12b54 <_vfprintf_r+0x24ec>
   10a30:	00812783          	lw	a5,8(sp)
   10a34:	00a00713          	li	a4,10
   10a38:	00c79783          	lh	a5,12(a5)
   10a3c:	01a7f793          	andi	a5,a5,26
   10a40:	d0e790e3          	bne	a5,a4,10740 <_vfprintf_r+0xd8>
   10a44:	00812783          	lw	a5,8(sp)
   10a48:	00e79783          	lh	a5,14(a5)
   10a4c:	ce07cae3          	bltz	a5,10740 <_vfprintf_r+0xd8>
   10a50:	01812683          	lw	a3,24(sp)
   10a54:	00812583          	lw	a1,8(sp)
   10a58:	03012503          	lw	a0,48(sp)
   10a5c:	00090613          	mv	a2,s2
   10a60:	504020ef          	jal	ra,12f64 <__sbprintf>
   10a64:	00a12823          	sw	a0,16(sp)
   10a68:	f75ff06f          	j	109dc <_vfprintf_r+0x374>
   10a6c:	000a0513          	mv	a0,s4
   10a70:	64c090ef          	jal	ra,1a0bc <_localeconv_r>
   10a74:	00452783          	lw	a5,4(a0)
   10a78:	00078513          	mv	a0,a5
   10a7c:	04f12423          	sw	a5,72(sp)
   10a80:	4900c0ef          	jal	ra,1cf10 <strlen>
   10a84:	00050793          	mv	a5,a0
   10a88:	000a0513          	mv	a0,s4
   10a8c:	00078a93          	mv	s5,a5
   10a90:	04f12623          	sw	a5,76(sp)
   10a94:	628090ef          	jal	ra,1a0bc <_localeconv_r>
   10a98:	00852703          	lw	a4,8(a0)
   10a9c:	04e12023          	sw	a4,64(sp)
   10aa0:	780a9ae3          	bnez	s5,11a34 <_vfprintf_r+0x13cc>
   10aa4:	0004c883          	lbu	a7,0(s1)
   10aa8:	d6dff06f          	j	10814 <_vfprintf_r+0x1ac>
   10aac:	0004c883          	lbu	a7,0(s1)
   10ab0:	020c6c13          	ori	s8,s8,32
   10ab4:	d61ff06f          	j	10814 <_vfprintf_r+0x1ac>
   10ab8:	010c6c13          	ori	s8,s8,16
   10abc:	020c7793          	andi	a5,s8,32
   10ac0:	38078063          	beqz	a5,10e40 <_vfprintf_r+0x7d8>
   10ac4:	01812783          	lw	a5,24(sp)
   10ac8:	00778b93          	addi	s7,a5,7
   10acc:	ff8bfb93          	andi	s7,s7,-8
   10ad0:	004ba783          	lw	a5,4(s7)
   10ad4:	000bad83          	lw	s11,0(s7)
   10ad8:	008b8713          	addi	a4,s7,8
   10adc:	00e12c23          	sw	a4,24(sp)
   10ae0:	00078913          	mv	s2,a5
   10ae4:	3807c863          	bltz	a5,10e74 <_vfprintf_r+0x80c>
   10ae8:	fff00793          	li	a5,-1
   10aec:	000c0693          	mv	a3,s8
   10af0:	4cf98463          	beq	s3,a5,10fb8 <_vfprintf_r+0x950>
   10af4:	012de7b3          	or	a5,s11,s2
   10af8:	f7fc7693          	andi	a3,s8,-129
   10afc:	4a079e63          	bnez	a5,10fb8 <_vfprintf_r+0x950>
   10b00:	4c099263          	bnez	s3,10fc4 <_vfprintf_r+0x95c>
   10b04:	00000913          	li	s2,0
   10b08:	00068c13          	mv	s8,a3
   10b0c:	1b010c93          	addi	s9,sp,432
   10b10:	0c714683          	lbu	a3,199(sp)
   10b14:	00090a93          	mv	s5,s2
   10b18:	01395463          	bge	s2,s3,10b20 <_vfprintf_r+0x4b8>
   10b1c:	00098a93          	mv	s5,s3
   10b20:	00012a23          	sw	zero,20(sp)
   10b24:	02012623          	sw	zero,44(sp)
   10b28:	02012423          	sw	zero,40(sp)
   10b2c:	02012023          	sw	zero,32(sp)
   10b30:	d60682e3          	beqz	a3,10894 <_vfprintf_r+0x22c>
   10b34:	001a8a93          	addi	s5,s5,1
   10b38:	d5dff06f          	j	10894 <_vfprintf_r+0x22c>
   10b3c:	010c6c13          	ori	s8,s8,16
   10b40:	020c7793          	andi	a5,s8,32
   10b44:	2c078663          	beqz	a5,10e10 <_vfprintf_r+0x7a8>
   10b48:	01812783          	lw	a5,24(sp)
   10b4c:	00778b93          	addi	s7,a5,7
   10b50:	ff8bfb93          	andi	s7,s7,-8
   10b54:	000bad83          	lw	s11,0(s7)
   10b58:	004ba903          	lw	s2,4(s7)
   10b5c:	008b8793          	addi	a5,s7,8
   10b60:	00f12c23          	sw	a5,24(sp)
   10b64:	bffc7693          	andi	a3,s8,-1025
   10b68:	00000613          	li	a2,0
   10b6c:	00000793          	li	a5,0
   10b70:	0cf103a3          	sb	a5,199(sp)
   10b74:	fff00793          	li	a5,-1
   10b78:	32f98263          	beq	s3,a5,10e9c <_vfprintf_r+0x834>
   10b7c:	012de7b3          	or	a5,s11,s2
   10b80:	f7f6fc13          	andi	s8,a3,-129
   10b84:	16079ce3          	bnez	a5,114fc <_vfprintf_r+0xe94>
   10b88:	70099a63          	bnez	s3,1129c <_vfprintf_r+0xc34>
   10b8c:	5e061ae3          	bnez	a2,11980 <_vfprintf_r+0x1318>
   10b90:	0016f913          	andi	s2,a3,1
   10b94:	1b010c93          	addi	s9,sp,432
   10b98:	f6090ce3          	beqz	s2,10b10 <_vfprintf_r+0x4a8>
   10b9c:	03000793          	li	a5,48
   10ba0:	1af107a3          	sb	a5,431(sp)
   10ba4:	1af10c93          	addi	s9,sp,431
   10ba8:	f69ff06f          	j	10b10 <_vfprintf_r+0x4a8>
   10bac:	41948933          	sub	s2,s1,s9
   10bb0:	c19494e3          	bne	s1,s9,107b8 <_vfprintf_r+0x150>
   10bb4:	0004c703          	lbu	a4,0(s1)
   10bb8:	c3dff06f          	j	107f4 <_vfprintf_r+0x18c>
   10bbc:	00812583          	lw	a1,8(sp)
   10bc0:	0e410613          	addi	a2,sp,228
   10bc4:	000a0513          	mv	a0,s4
   10bc8:	694110ef          	jal	ra,2225c <__sprint_r>
   10bcc:	de051ee3          	bnez	a0,109c8 <_vfprintf_r+0x360>
   10bd0:	000b0413          	mv	s0,s6
   10bd4:	c11ff06f          	j	107e4 <_vfprintf_r+0x17c>
   10bd8:	008c7693          	andi	a3,s8,8
   10bdc:	600694e3          	bnez	a3,119e4 <_vfprintf_r+0x137c>
   10be0:	01812783          	lw	a5,24(sp)
   10be4:	0b010513          	addi	a0,sp,176
   10be8:	01112a23          	sw	a7,20(sp)
   10bec:	00778b93          	addi	s7,a5,7
   10bf0:	ff8bfb93          	andi	s7,s7,-8
   10bf4:	000ba583          	lw	a1,0(s7)
   10bf8:	004ba603          	lw	a2,4(s7)
   10bfc:	008b8793          	addi	a5,s7,8
   10c00:	00f12c23          	sw	a5,24(sp)
   10c04:	3b51e0ef          	jal	ra,2f7b8 <__extenddftf2>
   10c08:	0b012803          	lw	a6,176(sp)
   10c0c:	0b412583          	lw	a1,180(sp)
   10c10:	0b812603          	lw	a2,184(sp)
   10c14:	0bc12683          	lw	a3,188(sp)
   10c18:	01412883          	lw	a7,20(sp)
   10c1c:	0f010513          	addi	a0,sp,240
   10c20:	01112a23          	sw	a7,20(sp)
   10c24:	0ed12e23          	sw	a3,252(sp)
   10c28:	0f012823          	sw	a6,240(sp)
   10c2c:	0eb12a23          	sw	a1,244(sp)
   10c30:	0ec12c23          	sw	a2,248(sp)
   10c34:	308090ef          	jal	ra,19f3c <_ldcheck>
   10c38:	0ca12623          	sw	a0,204(sp)
   10c3c:	00200693          	li	a3,2
   10c40:	01412883          	lw	a7,20(sp)
   10c44:	00d51463          	bne	a0,a3,10c4c <_vfprintf_r+0x5e4>
   10c48:	3180106f          	j	11f60 <_vfprintf_r+0x18f8>
   10c4c:	00100693          	li	a3,1
   10c50:	00d51463          	bne	a0,a3,10c58 <_vfprintf_r+0x5f0>
   10c54:	46c0106f          	j	120c0 <_vfprintf_r+0x1a58>
   10c58:	06100693          	li	a3,97
   10c5c:	74d88ae3          	beq	a7,a3,11bb0 <_vfprintf_r+0x1548>
   10c60:	04100693          	li	a3,65
   10c64:	05800793          	li	a5,88
   10c68:	74d886e3          	beq	a7,a3,11bb4 <_vfprintf_r+0x154c>
   10c6c:	fff00693          	li	a3,-1
   10c70:	00d99463          	bne	s3,a3,10c78 <_vfprintf_r+0x610>
   10c74:	0700206f          	j	12ce4 <_vfprintf_r+0x267c>
   10c78:	fdf8f693          	andi	a3,a7,-33
   10c7c:	04700613          	li	a2,71
   10c80:	00c69463          	bne	a3,a2,10c88 <_vfprintf_r+0x620>
   10c84:	0500206f          	j	12cd4 <_vfprintf_r+0x266c>
   10c88:	0fc12d83          	lw	s11,252(sp)
   10c8c:	100c6793          	ori	a5,s8,256
   10c90:	04f12e23          	sw	a5,92(sp)
   10c94:	03812423          	sw	s8,40(sp)
   10c98:	0f012f03          	lw	t5,240(sp)
   10c9c:	0f412e83          	lw	t4,244(sp)
   10ca0:	0f812e03          	lw	t3,248(sp)
   10ca4:	000dd463          	bgez	s11,10cac <_vfprintf_r+0x644>
   10ca8:	77c0106f          	j	12424 <_vfprintf_r+0x1dbc>
   10cac:	06012023          	sw	zero,96(sp)
   10cb0:	00012a23          	sw	zero,20(sp)
   10cb4:	7510006f          	j	11c04 <_vfprintf_r+0x159c>
   10cb8:	00812583          	lw	a1,8(sp)
   10cbc:	0e410613          	addi	a2,sp,228
   10cc0:	000a0513          	mv	a0,s4
   10cc4:	05112a23          	sw	a7,84(sp)
   10cc8:	04512823          	sw	t0,80(sp)
   10ccc:	590110ef          	jal	ra,2225c <__sprint_r>
   10cd0:	00051ce3          	bnez	a0,114e8 <_vfprintf_r+0xe80>
   10cd4:	05412883          	lw	a7,84(sp)
   10cd8:	05012283          	lw	t0,80(sp)
   10cdc:	000b0413          	mv	s0,s6
   10ce0:	c0dff06f          	j	108ec <_vfprintf_r+0x284>
   10ce4:	02412783          	lw	a5,36(sp)
   10ce8:	00100613          	li	a2,1
   10cec:	00840993          	addi	s3,s0,8
   10cf0:	38f650e3          	bge	a2,a5,11870 <_vfprintf_r+0x1208>
   10cf4:	0ec12683          	lw	a3,236(sp)
   10cf8:	0e812903          	lw	s2,232(sp)
   10cfc:	00100613          	li	a2,1
   10d00:	00168693          	addi	a3,a3,1
   10d04:	00190913          	addi	s2,s2,1
   10d08:	00c42223          	sw	a2,4(s0)
   10d0c:	01942023          	sw	s9,0(s0)
   10d10:	0ed12623          	sw	a3,236(sp)
   10d14:	0f212423          	sw	s2,232(sp)
   10d18:	00700613          	li	a2,7
   10d1c:	01265463          	bge	a2,s2,10d24 <_vfprintf_r+0x6bc>
   10d20:	0740106f          	j	11d94 <_vfprintf_r+0x172c>
   10d24:	03412783          	lw	a5,52(sp)
   10d28:	03812703          	lw	a4,56(sp)
   10d2c:	00190913          	addi	s2,s2,1
   10d30:	00d78db3          	add	s11,a5,a3
   10d34:	00e9a023          	sw	a4,0(s3)
   10d38:	00f9a223          	sw	a5,4(s3)
   10d3c:	0fb12623          	sw	s11,236(sp)
   10d40:	0f212423          	sw	s2,232(sp)
   10d44:	00700693          	li	a3,7
   10d48:	00898993          	addi	s3,s3,8
   10d4c:	0126d463          	bge	a3,s2,10d54 <_vfprintf_r+0x6ec>
   10d50:	0680106f          	j	11db8 <_vfprintf_r+0x1750>
   10d54:	0f012683          	lw	a3,240(sp)
   10d58:	0a010593          	addi	a1,sp,160
   10d5c:	0b010513          	addi	a0,sp,176
   10d60:	0ad12823          	sw	a3,176(sp)
   10d64:	0f412683          	lw	a3,244(sp)
   10d68:	0a012023          	sw	zero,160(sp)
   10d6c:	0a012223          	sw	zero,164(sp)
   10d70:	0ad12a23          	sw	a3,180(sp)
   10d74:	0f812683          	lw	a3,248(sp)
   10d78:	0a012423          	sw	zero,168(sp)
   10d7c:	0a012623          	sw	zero,172(sp)
   10d80:	0ad12c23          	sw	a3,184(sp)
   10d84:	0fc12683          	lw	a3,252(sp)
   10d88:	0ad12e23          	sw	a3,188(sp)
   10d8c:	2091b0ef          	jal	ra,2c794 <__eqtf2>
   10d90:	02412783          	lw	a5,36(sp)
   10d94:	fff78413          	addi	s0,a5,-1
   10d98:	320506e3          	beqz	a0,118c4 <_vfprintf_r+0x125c>
   10d9c:	001c8793          	addi	a5,s9,1
   10da0:	00190913          	addi	s2,s2,1
   10da4:	008d8db3          	add	s11,s11,s0
   10da8:	00f9a023          	sw	a5,0(s3)
   10dac:	0089a223          	sw	s0,4(s3)
   10db0:	0fb12623          	sw	s11,236(sp)
   10db4:	0f212423          	sw	s2,232(sp)
   10db8:	00700793          	li	a5,7
   10dbc:	00898993          	addi	s3,s3,8
   10dc0:	2f27c0e3          	blt	a5,s2,118a0 <_vfprintf_r+0x1238>
   10dc4:	04412703          	lw	a4,68(sp)
   10dc8:	0d410613          	addi	a2,sp,212
   10dcc:	00190793          	addi	a5,s2,1
   10dd0:	01b706b3          	add	a3,a4,s11
   10dd4:	00c9a023          	sw	a2,0(s3)
   10dd8:	00e9a223          	sw	a4,4(s3)
   10ddc:	0ed12623          	sw	a3,236(sp)
   10de0:	0ef12423          	sw	a5,232(sp)
   10de4:	00700613          	li	a2,7
   10de8:	00898413          	addi	s0,s3,8
   10dec:	b6f65ee3          	bge	a2,a5,10968 <_vfprintf_r+0x300>
   10df0:	00812583          	lw	a1,8(sp)
   10df4:	0e410613          	addi	a2,sp,228
   10df8:	000a0513          	mv	a0,s4
   10dfc:	460110ef          	jal	ra,2225c <__sprint_r>
   10e00:	6e051463          	bnez	a0,114e8 <_vfprintf_r+0xe80>
   10e04:	0ec12683          	lw	a3,236(sp)
   10e08:	000b0413          	mv	s0,s6
   10e0c:	b5dff06f          	j	10968 <_vfprintf_r+0x300>
   10e10:	01812703          	lw	a4,24(sp)
   10e14:	010c7793          	andi	a5,s8,16
   10e18:	00072d83          	lw	s11,0(a4)
   10e1c:	00470713          	addi	a4,a4,4
   10e20:	00e12c23          	sw	a4,24(sp)
   10e24:	3a0792e3          	bnez	a5,119c8 <_vfprintf_r+0x1360>
   10e28:	040c7793          	andi	a5,s8,64
   10e2c:	38078ae3          	beqz	a5,119c0 <_vfprintf_r+0x1358>
   10e30:	010d9d93          	slli	s11,s11,0x10
   10e34:	010ddd93          	srli	s11,s11,0x10
   10e38:	00000913          	li	s2,0
   10e3c:	d29ff06f          	j	10b64 <_vfprintf_r+0x4fc>
   10e40:	01812703          	lw	a4,24(sp)
   10e44:	010c7793          	andi	a5,s8,16
   10e48:	00072d83          	lw	s11,0(a4)
   10e4c:	00470713          	addi	a4,a4,4
   10e50:	00e12c23          	sw	a4,24(sp)
   10e54:	380792e3          	bnez	a5,119d8 <_vfprintf_r+0x1370>
   10e58:	040c7793          	andi	a5,s8,64
   10e5c:	36078ae3          	beqz	a5,119d0 <_vfprintf_r+0x1368>
   10e60:	010d9d93          	slli	s11,s11,0x10
   10e64:	410ddd93          	srai	s11,s11,0x10
   10e68:	41fdd913          	srai	s2,s11,0x1f
   10e6c:	00090793          	mv	a5,s2
   10e70:	c607dce3          	bgez	a5,10ae8 <_vfprintf_r+0x480>
   10e74:	01b037b3          	snez	a5,s11
   10e78:	41200833          	neg	a6,s2
   10e7c:	40f80933          	sub	s2,a6,a5
   10e80:	02d00793          	li	a5,45
   10e84:	0cf103a3          	sb	a5,199(sp)
   10e88:	fff00793          	li	a5,-1
   10e8c:	41b00db3          	neg	s11,s11
   10e90:	000c0693          	mv	a3,s8
   10e94:	00100613          	li	a2,1
   10e98:	cef992e3          	bne	s3,a5,10b7c <_vfprintf_r+0x514>
   10e9c:	00100793          	li	a5,1
   10ea0:	10f60c63          	beq	a2,a5,10fb8 <_vfprintf_r+0x950>
   10ea4:	00200793          	li	a5,2
   10ea8:	40f60663          	beq	a2,a5,112b4 <_vfprintf_r+0xc4c>
   10eac:	1b010c93          	addi	s9,sp,432
   10eb0:	01d91793          	slli	a5,s2,0x1d
   10eb4:	007df713          	andi	a4,s11,7
   10eb8:	003ddd93          	srli	s11,s11,0x3
   10ebc:	03070713          	addi	a4,a4,48
   10ec0:	01b7edb3          	or	s11,a5,s11
   10ec4:	00395913          	srli	s2,s2,0x3
   10ec8:	feec8fa3          	sb	a4,-1(s9)
   10ecc:	012de7b3          	or	a5,s11,s2
   10ed0:	000c8593          	mv	a1,s9
   10ed4:	fffc8c93          	addi	s9,s9,-1
   10ed8:	fc079ce3          	bnez	a5,10eb0 <_vfprintf_r+0x848>
   10edc:	0016f613          	andi	a2,a3,1
   10ee0:	40060463          	beqz	a2,112e8 <_vfprintf_r+0xc80>
   10ee4:	03000613          	li	a2,48
   10ee8:	40c70063          	beq	a4,a2,112e8 <_vfprintf_r+0xc80>
   10eec:	ffe58593          	addi	a1,a1,-2
   10ef0:	1b010793          	addi	a5,sp,432
   10ef4:	fecc8fa3          	sb	a2,-1(s9)
   10ef8:	40b78933          	sub	s2,a5,a1
   10efc:	00068c13          	mv	s8,a3
   10f00:	00058c93          	mv	s9,a1
   10f04:	c0dff06f          	j	10b10 <_vfprintf_r+0x4a8>
   10f08:	03012503          	lw	a0,48(sp)
   10f0c:	321050ef          	jal	ra,16a2c <__sinit>
   10f10:	fd8ff06f          	j	106e8 <_vfprintf_r+0x80>
   10f14:	01812703          	lw	a4,24(sp)
   10f18:	0c0103a3          	sb	zero,199(sp)
   10f1c:	00100a93          	li	s5,1
   10f20:	00072783          	lw	a5,0(a4)
   10f24:	00470713          	addi	a4,a4,4
   10f28:	00e12c23          	sw	a4,24(sp)
   10f2c:	14f10623          	sb	a5,332(sp)
   10f30:	00100913          	li	s2,1
   10f34:	14c10c93          	addi	s9,sp,332
   10f38:	949ff06f          	j	10880 <_vfprintf_r+0x218>
   10f3c:	01812783          	lw	a5,24(sp)
   10f40:	0c0103a3          	sb	zero,199(sp)
   10f44:	0007ac83          	lw	s9,0(a5)
   10f48:	00478b93          	addi	s7,a5,4
   10f4c:	3c0c88e3          	beqz	s9,11b1c <_vfprintf_r+0x14b4>
   10f50:	fff00693          	li	a3,-1
   10f54:	00d99463          	bne	s3,a3,10f5c <_vfprintf_r+0x8f4>
   10f58:	1200106f          	j	12078 <_vfprintf_r+0x1a10>
   10f5c:	00098613          	mv	a2,s3
   10f60:	00000593          	li	a1,0
   10f64:	000c8513          	mv	a0,s9
   10f68:	01112c23          	sw	a7,24(sp)
   10f6c:	4d5090ef          	jal	ra,1ac40 <memchr>
   10f70:	00a12a23          	sw	a0,20(sp)
   10f74:	01812883          	lw	a7,24(sp)
   10f78:	00051463          	bnez	a0,10f80 <_vfprintf_r+0x918>
   10f7c:	2f90106f          	j	12a74 <_vfprintf_r+0x240c>
   10f80:	01412783          	lw	a5,20(sp)
   10f84:	0c714683          	lbu	a3,199(sp)
   10f88:	01712c23          	sw	s7,24(sp)
   10f8c:	41978933          	sub	s2,a5,s9
   10f90:	fff94813          	not	a6,s2
   10f94:	41f85813          	srai	a6,a6,0x1f
   10f98:	00012a23          	sw	zero,20(sp)
   10f9c:	02012623          	sw	zero,44(sp)
   10fa0:	02012423          	sw	zero,40(sp)
   10fa4:	02012023          	sw	zero,32(sp)
   10fa8:	01097ab3          	and	s5,s2,a6
   10fac:	00000993          	li	s3,0
   10fb0:	b80692e3          	bnez	a3,10b34 <_vfprintf_r+0x4cc>
   10fb4:	8e1ff06f          	j	10894 <_vfprintf_r+0x22c>
   10fb8:	62091ae3          	bnez	s2,11dec <_vfprintf_r+0x1784>
   10fbc:	00900793          	li	a5,9
   10fc0:	63b7e6e3          	bltu	a5,s11,11dec <_vfprintf_r+0x1784>
   10fc4:	030d8d93          	addi	s11,s11,48
   10fc8:	1bb107a3          	sb	s11,431(sp)
   10fcc:	00068c13          	mv	s8,a3
   10fd0:	00100913          	li	s2,1
   10fd4:	1af10c93          	addi	s9,sp,431
   10fd8:	b39ff06f          	j	10b10 <_vfprintf_r+0x4a8>
   10fdc:	01812783          	lw	a5,24(sp)
   10fe0:	0007ad03          	lw	s10,0(a5)
   10fe4:	00478793          	addi	a5,a5,4
   10fe8:	1a0d5ae3          	bgez	s10,1199c <_vfprintf_r+0x1334>
   10fec:	41a00d33          	neg	s10,s10
   10ff0:	00f12c23          	sw	a5,24(sp)
   10ff4:	0004c883          	lbu	a7,0(s1)
   10ff8:	004c6c13          	ori	s8,s8,4
   10ffc:	819ff06f          	j	10814 <_vfprintf_r+0x1ac>
   11000:	02b00793          	li	a5,43
   11004:	0004c883          	lbu	a7,0(s1)
   11008:	0cf103a3          	sb	a5,199(sp)
   1100c:	809ff06f          	j	10814 <_vfprintf_r+0x1ac>
   11010:	0004c883          	lbu	a7,0(s1)
   11014:	080c6c13          	ori	s8,s8,128
   11018:	ffcff06f          	j	10814 <_vfprintf_r+0x1ac>
   1101c:	0004c883          	lbu	a7,0(s1)
   11020:	02a00793          	li	a5,42
   11024:	00148713          	addi	a4,s1,1
   11028:	00f89463          	bne	a7,a5,11030 <_vfprintf_r+0x9c8>
   1102c:	6dd0106f          	j	12f08 <_vfprintf_r+0x28a0>
   11030:	fd088793          	addi	a5,a7,-48
   11034:	00900613          	li	a2,9
   11038:	00070493          	mv	s1,a4
   1103c:	00000993          	li	s3,0
   11040:	00900693          	li	a3,9
   11044:	fcf66a63          	bltu	a2,a5,10818 <_vfprintf_r+0x1b0>
   11048:	0004c883          	lbu	a7,0(s1)
   1104c:	00299713          	slli	a4,s3,0x2
   11050:	013709b3          	add	s3,a4,s3
   11054:	00199993          	slli	s3,s3,0x1
   11058:	00f989b3          	add	s3,s3,a5
   1105c:	fd088793          	addi	a5,a7,-48
   11060:	00148493          	addi	s1,s1,1
   11064:	fef6f2e3          	bgeu	a3,a5,11048 <_vfprintf_r+0x9e0>
   11068:	fb0ff06f          	j	10818 <_vfprintf_r+0x1b0>
   1106c:	0004c883          	lbu	a7,0(s1)
   11070:	001c6c13          	ori	s8,s8,1
   11074:	fa0ff06f          	j	10814 <_vfprintf_r+0x1ac>
   11078:	0c714783          	lbu	a5,199(sp)
   1107c:	0004c883          	lbu	a7,0(s1)
   11080:	f8079a63          	bnez	a5,10814 <_vfprintf_r+0x1ac>
   11084:	02000793          	li	a5,32
   11088:	0cf103a3          	sb	a5,199(sp)
   1108c:	f88ff06f          	j	10814 <_vfprintf_r+0x1ac>
   11090:	0004c883          	lbu	a7,0(s1)
   11094:	008c6c13          	ori	s8,s8,8
   11098:	f7cff06f          	j	10814 <_vfprintf_r+0x1ac>
   1109c:	010c6693          	ori	a3,s8,16
   110a0:	0206f793          	andi	a5,a3,32
   110a4:	0a0784e3          	beqz	a5,1194c <_vfprintf_r+0x12e4>
   110a8:	01812783          	lw	a5,24(sp)
   110ac:	00100613          	li	a2,1
   110b0:	00778b93          	addi	s7,a5,7
   110b4:	ff8bfb93          	andi	s7,s7,-8
   110b8:	008b8793          	addi	a5,s7,8
   110bc:	000bad83          	lw	s11,0(s7)
   110c0:	004ba903          	lw	s2,4(s7)
   110c4:	00f12c23          	sw	a5,24(sp)
   110c8:	aa5ff06f          	j	10b6c <_vfprintf_r+0x504>
   110cc:	01812703          	lw	a4,24(sp)
   110d0:	ffff87b7          	lui	a5,0xffff8
   110d4:	8307c793          	xori	a5,a5,-2000
   110d8:	0cf11423          	sh	a5,200(sp)
   110dc:	00470793          	addi	a5,a4,4
   110e0:	00f12c23          	sw	a5,24(sp)
   110e4:	000307b7          	lui	a5,0x30
   110e8:	12078793          	addi	a5,a5,288 # 30120 <__clzsi2+0xa8>
   110ec:	00072d83          	lw	s11,0(a4)
   110f0:	00000913          	li	s2,0
   110f4:	002c6693          	ori	a3,s8,2
   110f8:	02f12e23          	sw	a5,60(sp)
   110fc:	00200613          	li	a2,2
   11100:	07800893          	li	a7,120
   11104:	a69ff06f          	j	10b6c <_vfprintf_r+0x504>
   11108:	0004c883          	lbu	a7,0(s1)
   1110c:	06c00793          	li	a5,108
   11110:	1ef88ee3          	beq	a7,a5,11b0c <_vfprintf_r+0x14a4>
   11114:	010c6c13          	ori	s8,s8,16
   11118:	efcff06f          	j	10814 <_vfprintf_r+0x1ac>
   1111c:	0004c883          	lbu	a7,0(s1)
   11120:	06800793          	li	a5,104
   11124:	1af884e3          	beq	a7,a5,11acc <_vfprintf_r+0x1464>
   11128:	040c6c13          	ori	s8,s8,64
   1112c:	ee8ff06f          	j	10814 <_vfprintf_r+0x1ac>
   11130:	020c7793          	andi	a5,s8,32
   11134:	0c078ae3          	beqz	a5,11a08 <_vfprintf_r+0x13a0>
   11138:	01812783          	lw	a5,24(sp)
   1113c:	01012683          	lw	a3,16(sp)
   11140:	0007a783          	lw	a5,0(a5)
   11144:	41f6d713          	srai	a4,a3,0x1f
   11148:	00d7a023          	sw	a3,0(a5)
   1114c:	00e7a223          	sw	a4,4(a5)
   11150:	01812783          	lw	a5,24(sp)
   11154:	00048c93          	mv	s9,s1
   11158:	00478793          	addi	a5,a5,4
   1115c:	00f12c23          	sw	a5,24(sp)
   11160:	855ff06f          	j	109b4 <_vfprintf_r+0x34c>
   11164:	06500693          	li	a3,101
   11168:	b716dee3          	bge	a3,a7,10ce4 <_vfprintf_r+0x67c>
   1116c:	0f012683          	lw	a3,240(sp)
   11170:	0a010593          	addi	a1,sp,160
   11174:	0b010513          	addi	a0,sp,176
   11178:	0ad12823          	sw	a3,176(sp)
   1117c:	0f412683          	lw	a3,244(sp)
   11180:	0a012023          	sw	zero,160(sp)
   11184:	0a012223          	sw	zero,164(sp)
   11188:	0ad12a23          	sw	a3,180(sp)
   1118c:	0f812683          	lw	a3,248(sp)
   11190:	0a012423          	sw	zero,168(sp)
   11194:	0a012623          	sw	zero,172(sp)
   11198:	0ad12c23          	sw	a3,184(sp)
   1119c:	0fc12683          	lw	a3,252(sp)
   111a0:	0ad12e23          	sw	a3,188(sp)
   111a4:	5f01b0ef          	jal	ra,2c794 <__eqtf2>
   111a8:	52051e63          	bnez	a0,116e4 <_vfprintf_r+0x107c>
   111ac:	0ec12683          	lw	a3,236(sp)
   111b0:	0e812783          	lw	a5,232(sp)
   111b4:	00030637          	lui	a2,0x30
   111b8:	15060613          	addi	a2,a2,336 # 30150 <__clzsi2+0xd8>
   111bc:	00c42023          	sw	a2,0(s0)
   111c0:	00168693          	addi	a3,a3,1
   111c4:	00100613          	li	a2,1
   111c8:	00178793          	addi	a5,a5,1
   111cc:	00c42223          	sw	a2,4(s0)
   111d0:	0ed12623          	sw	a3,236(sp)
   111d4:	0ef12423          	sw	a5,232(sp)
   111d8:	00700613          	li	a2,7
   111dc:	00840413          	addi	s0,s0,8
   111e0:	54f648e3          	blt	a2,a5,11f30 <_vfprintf_r+0x18c8>
   111e4:	0cc12783          	lw	a5,204(sp)
   111e8:	02412703          	lw	a4,36(sp)
   111ec:	7ae7d063          	bge	a5,a4,1198c <_vfprintf_r+0x1324>
   111f0:	03812783          	lw	a5,56(sp)
   111f4:	03412703          	lw	a4,52(sp)
   111f8:	00700613          	li	a2,7
   111fc:	00f42023          	sw	a5,0(s0)
   11200:	0e812783          	lw	a5,232(sp)
   11204:	00d706b3          	add	a3,a4,a3
   11208:	00e42223          	sw	a4,4(s0)
   1120c:	00178793          	addi	a5,a5,1
   11210:	0ed12623          	sw	a3,236(sp)
   11214:	0ef12423          	sw	a5,232(sp)
   11218:	00840413          	addi	s0,s0,8
   1121c:	0cf648e3          	blt	a2,a5,11aec <_vfprintf_r+0x1484>
   11220:	02412783          	lw	a5,36(sp)
   11224:	fff78913          	addi	s2,a5,-1
   11228:	f5205063          	blez	s2,10968 <_vfprintf_r+0x300>
   1122c:	00030e37          	lui	t3,0x30
   11230:	01000613          	li	a2,16
   11234:	0e812783          	lw	a5,232(sp)
   11238:	358e0b93          	addi	s7,t3,856 # 30358 <zeroes.0>
   1123c:	51265ae3          	bge	a2,s2,11f50 <_vfprintf_r+0x18e8>
   11240:	00812c83          	lw	s9,8(sp)
   11244:	01000993          	li	s3,16
   11248:	00700d93          	li	s11,7
   1124c:	00c0006f          	j	11258 <_vfprintf_r+0xbf0>
   11250:	ff090913          	addi	s2,s2,-16
   11254:	4f29dee3          	bge	s3,s2,11f50 <_vfprintf_r+0x18e8>
   11258:	01068693          	addi	a3,a3,16
   1125c:	00178793          	addi	a5,a5,1
   11260:	01742023          	sw	s7,0(s0)
   11264:	01342223          	sw	s3,4(s0)
   11268:	0ed12623          	sw	a3,236(sp)
   1126c:	0ef12423          	sw	a5,232(sp)
   11270:	00840413          	addi	s0,s0,8
   11274:	fcfddee3          	bge	s11,a5,11250 <_vfprintf_r+0xbe8>
   11278:	0e410613          	addi	a2,sp,228
   1127c:	000c8593          	mv	a1,s9
   11280:	000a0513          	mv	a0,s4
   11284:	7d9100ef          	jal	ra,2225c <__sprint_r>
   11288:	26051063          	bnez	a0,114e8 <_vfprintf_r+0xe80>
   1128c:	0ec12683          	lw	a3,236(sp)
   11290:	0e812783          	lw	a5,232(sp)
   11294:	000b0413          	mv	s0,s6
   11298:	fb9ff06f          	j	11250 <_vfprintf_r+0xbe8>
   1129c:	00100793          	li	a5,1
   112a0:	00f61463          	bne	a2,a5,112a8 <_vfprintf_r+0xc40>
   112a4:	0390106f          	j	12adc <_vfprintf_r+0x2474>
   112a8:	00200793          	li	a5,2
   112ac:	000c0693          	mv	a3,s8
   112b0:	bef61ee3          	bne	a2,a5,10eac <_vfprintf_r+0x844>
   112b4:	03c12603          	lw	a2,60(sp)
   112b8:	1b010c93          	addi	s9,sp,432
   112bc:	00fdf793          	andi	a5,s11,15
   112c0:	00f607b3          	add	a5,a2,a5
   112c4:	0007c703          	lbu	a4,0(a5)
   112c8:	004ddd93          	srli	s11,s11,0x4
   112cc:	01c91793          	slli	a5,s2,0x1c
   112d0:	01b7edb3          	or	s11,a5,s11
   112d4:	00495913          	srli	s2,s2,0x4
   112d8:	feec8fa3          	sb	a4,-1(s9)
   112dc:	012de7b3          	or	a5,s11,s2
   112e0:	fffc8c93          	addi	s9,s9,-1
   112e4:	fc079ce3          	bnez	a5,112bc <_vfprintf_r+0xc54>
   112e8:	1b010793          	addi	a5,sp,432
   112ec:	41978933          	sub	s2,a5,s9
   112f0:	00068c13          	mv	s8,a3
   112f4:	81dff06f          	j	10b10 <_vfprintf_r+0x4a8>
   112f8:	415d0db3          	sub	s11,s10,s5
   112fc:	e3b05863          	blez	s11,1092c <_vfprintf_r+0x2c4>
   11300:	00030e37          	lui	t3,0x30
   11304:	01000513          	li	a0,16
   11308:	0ec12583          	lw	a1,236(sp)
   1130c:	0e812603          	lw	a2,232(sp)
   11310:	358e0b93          	addi	s7,t3,856 # 30358 <zeroes.0>
   11314:	09b55863          	bge	a0,s11,113a4 <_vfprintf_r+0xd3c>
   11318:	00040793          	mv	a5,s0
   1131c:	01000f13          	li	t5,16
   11320:	000b8413          	mv	s0,s7
   11324:	00700f93          	li	t6,7
   11328:	000a8b93          	mv	s7,s5
   1132c:	00090a93          	mv	s5,s2
   11330:	00088913          	mv	s2,a7
   11334:	00c0006f          	j	11340 <_vfprintf_r+0xcd8>
   11338:	ff0d8d93          	addi	s11,s11,-16
   1133c:	05bf5a63          	bge	t5,s11,11390 <_vfprintf_r+0xd28>
   11340:	01058593          	addi	a1,a1,16
   11344:	00160613          	addi	a2,a2,1
   11348:	0087a023          	sw	s0,0(a5)
   1134c:	01e7a223          	sw	t5,4(a5)
   11350:	0eb12623          	sw	a1,236(sp)
   11354:	0ec12423          	sw	a2,232(sp)
   11358:	00878793          	addi	a5,a5,8
   1135c:	fccfdee3          	bge	t6,a2,11338 <_vfprintf_r+0xcd0>
   11360:	00812583          	lw	a1,8(sp)
   11364:	0e410613          	addi	a2,sp,228
   11368:	000a0513          	mv	a0,s4
   1136c:	6f1100ef          	jal	ra,2225c <__sprint_r>
   11370:	16051c63          	bnez	a0,114e8 <_vfprintf_r+0xe80>
   11374:	01000f13          	li	t5,16
   11378:	ff0d8d93          	addi	s11,s11,-16
   1137c:	0ec12583          	lw	a1,236(sp)
   11380:	0e812603          	lw	a2,232(sp)
   11384:	000b0793          	mv	a5,s6
   11388:	00700f93          	li	t6,7
   1138c:	fbbf4ae3          	blt	t5,s11,11340 <_vfprintf_r+0xcd8>
   11390:	00090893          	mv	a7,s2
   11394:	000a8913          	mv	s2,s5
   11398:	000b8a93          	mv	s5,s7
   1139c:	00040b93          	mv	s7,s0
   113a0:	00078413          	mv	s0,a5
   113a4:	00bd85b3          	add	a1,s11,a1
   113a8:	00160613          	addi	a2,a2,1
   113ac:	01742023          	sw	s7,0(s0)
   113b0:	01b42223          	sw	s11,4(s0)
   113b4:	0eb12623          	sw	a1,236(sp)
   113b8:	0ec12423          	sw	a2,232(sp)
   113bc:	00700693          	li	a3,7
   113c0:	00840413          	addi	s0,s0,8
   113c4:	d6c6d463          	bge	a3,a2,1092c <_vfprintf_r+0x2c4>
   113c8:	00812583          	lw	a1,8(sp)
   113cc:	0e410613          	addi	a2,sp,228
   113d0:	000a0513          	mv	a0,s4
   113d4:	05112823          	sw	a7,80(sp)
   113d8:	685100ef          	jal	ra,2225c <__sprint_r>
   113dc:	10051663          	bnez	a0,114e8 <_vfprintf_r+0xe80>
   113e0:	05012883          	lw	a7,80(sp)
   113e4:	000b0413          	mv	s0,s6
   113e8:	d44ff06f          	j	1092c <_vfprintf_r+0x2c4>
   113ec:	00030e37          	lui	t3,0x30
   113f0:	01000693          	li	a3,16
   113f4:	0ec12583          	lw	a1,236(sp)
   113f8:	0e812603          	lw	a2,232(sp)
   113fc:	358e0b93          	addi	s7,t3,856 # 30358 <zeroes.0>
   11400:	0936d663          	bge	a3,s3,1148c <_vfprintf_r+0xe24>
   11404:	00040793          	mv	a5,s0
   11408:	00c12b83          	lw	s7,12(sp)
   1140c:	00098413          	mv	s0,s3
   11410:	01000693          	li	a3,16
   11414:	00090993          	mv	s3,s2
   11418:	00700d93          	li	s11,7
   1141c:	00088913          	mv	s2,a7
   11420:	00c0006f          	j	1142c <_vfprintf_r+0xdc4>
   11424:	ff040413          	addi	s0,s0,-16
   11428:	0486da63          	bge	a3,s0,1147c <_vfprintf_r+0xe14>
   1142c:	00c12703          	lw	a4,12(sp)
   11430:	01058593          	addi	a1,a1,16
   11434:	00160613          	addi	a2,a2,1
   11438:	00e7a023          	sw	a4,0(a5)
   1143c:	00d7a223          	sw	a3,4(a5)
   11440:	0eb12623          	sw	a1,236(sp)
   11444:	0ec12423          	sw	a2,232(sp)
   11448:	00878793          	addi	a5,a5,8
   1144c:	fccddce3          	bge	s11,a2,11424 <_vfprintf_r+0xdbc>
   11450:	00812583          	lw	a1,8(sp)
   11454:	0e410613          	addi	a2,sp,228
   11458:	000a0513          	mv	a0,s4
   1145c:	601100ef          	jal	ra,2225c <__sprint_r>
   11460:	08051463          	bnez	a0,114e8 <_vfprintf_r+0xe80>
   11464:	01000693          	li	a3,16
   11468:	ff040413          	addi	s0,s0,-16
   1146c:	0ec12583          	lw	a1,236(sp)
   11470:	0e812603          	lw	a2,232(sp)
   11474:	000b0793          	mv	a5,s6
   11478:	fa86cae3          	blt	a3,s0,1142c <_vfprintf_r+0xdc4>
   1147c:	00090893          	mv	a7,s2
   11480:	00098913          	mv	s2,s3
   11484:	00040993          	mv	s3,s0
   11488:	00078413          	mv	s0,a5
   1148c:	00b985b3          	add	a1,s3,a1
   11490:	00160613          	addi	a2,a2,1
   11494:	01742023          	sw	s7,0(s0)
   11498:	01342223          	sw	s3,4(s0)
   1149c:	0eb12623          	sw	a1,236(sp)
   114a0:	0ec12423          	sw	a2,232(sp)
   114a4:	00700693          	li	a3,7
   114a8:	00840413          	addi	s0,s0,8
   114ac:	c8c6d463          	bge	a3,a2,10934 <_vfprintf_r+0x2cc>
   114b0:	00812583          	lw	a1,8(sp)
   114b4:	0e410613          	addi	a2,sp,228
   114b8:	000a0513          	mv	a0,s4
   114bc:	05112823          	sw	a7,80(sp)
   114c0:	59d100ef          	jal	ra,2225c <__sprint_r>
   114c4:	02051263          	bnez	a0,114e8 <_vfprintf_r+0xe80>
   114c8:	05012883          	lw	a7,80(sp)
   114cc:	000b0413          	mv	s0,s6
   114d0:	c64ff06f          	j	10934 <_vfprintf_r+0x2cc>
   114d4:	00812583          	lw	a1,8(sp)
   114d8:	0e410613          	addi	a2,sp,228
   114dc:	000a0513          	mv	a0,s4
   114e0:	57d100ef          	jal	ra,2225c <__sprint_r>
   114e4:	ca050863          	beqz	a0,10994 <_vfprintf_r+0x32c>
   114e8:	01412583          	lw	a1,20(sp)
   114ec:	cc058e63          	beqz	a1,109c8 <_vfprintf_r+0x360>
   114f0:	03012503          	lw	a0,48(sp)
   114f4:	185050ef          	jal	ra,16e78 <_free_r>
   114f8:	cd0ff06f          	j	109c8 <_vfprintf_r+0x360>
   114fc:	000c0693          	mv	a3,s8
   11500:	99dff06f          	j	10e9c <_vfprintf_r+0x834>
   11504:	00030e37          	lui	t3,0x30
   11508:	01000513          	li	a0,16
   1150c:	0ec12583          	lw	a1,236(sp)
   11510:	0e812603          	lw	a2,232(sp)
   11514:	368e0b93          	addi	s7,t3,872 # 30368 <blanks.1>
   11518:	0ad55463          	bge	a0,a3,115c0 <_vfprintf_r+0xf58>
   1151c:	04912a23          	sw	s1,84(sp)
   11520:	00040793          	mv	a5,s0
   11524:	000b8493          	mv	s1,s7
   11528:	01000f13          	li	t5,16
   1152c:	000a8b93          	mv	s7,s5
   11530:	00700393          	li	t2,7
   11534:	00090a93          	mv	s5,s2
   11538:	04512823          	sw	t0,80(sp)
   1153c:	00068413          	mv	s0,a3
   11540:	00088913          	mv	s2,a7
   11544:	00c0006f          	j	11550 <_vfprintf_r+0xee8>
   11548:	ff040413          	addi	s0,s0,-16
   1154c:	048f5a63          	bge	t5,s0,115a0 <_vfprintf_r+0xf38>
   11550:	01058593          	addi	a1,a1,16
   11554:	00160613          	addi	a2,a2,1
   11558:	0097a023          	sw	s1,0(a5)
   1155c:	01e7a223          	sw	t5,4(a5)
   11560:	0eb12623          	sw	a1,236(sp)
   11564:	0ec12423          	sw	a2,232(sp)
   11568:	00878793          	addi	a5,a5,8
   1156c:	fcc3dee3          	bge	t2,a2,11548 <_vfprintf_r+0xee0>
   11570:	00812583          	lw	a1,8(sp)
   11574:	0e410613          	addi	a2,sp,228
   11578:	000a0513          	mv	a0,s4
   1157c:	4e1100ef          	jal	ra,2225c <__sprint_r>
   11580:	f60514e3          	bnez	a0,114e8 <_vfprintf_r+0xe80>
   11584:	01000f13          	li	t5,16
   11588:	ff040413          	addi	s0,s0,-16
   1158c:	0ec12583          	lw	a1,236(sp)
   11590:	0e812603          	lw	a2,232(sp)
   11594:	000b0793          	mv	a5,s6
   11598:	00700393          	li	t2,7
   1159c:	fa8f4ae3          	blt	t5,s0,11550 <_vfprintf_r+0xee8>
   115a0:	00090893          	mv	a7,s2
   115a4:	05012283          	lw	t0,80(sp)
   115a8:	000a8913          	mv	s2,s5
   115ac:	000b8a93          	mv	s5,s7
   115b0:	00048b93          	mv	s7,s1
   115b4:	05412483          	lw	s1,84(sp)
   115b8:	00040693          	mv	a3,s0
   115bc:	00078413          	mv	s0,a5
   115c0:	00b685b3          	add	a1,a3,a1
   115c4:	00160613          	addi	a2,a2,1
   115c8:	00d42223          	sw	a3,4(s0)
   115cc:	01742023          	sw	s7,0(s0)
   115d0:	0eb12623          	sw	a1,236(sp)
   115d4:	0ec12423          	sw	a2,232(sp)
   115d8:	00700693          	li	a3,7
   115dc:	00840413          	addi	s0,s0,8
   115e0:	acc6d863          	bge	a3,a2,108b0 <_vfprintf_r+0x248>
   115e4:	00812583          	lw	a1,8(sp)
   115e8:	0e410613          	addi	a2,sp,228
   115ec:	000a0513          	mv	a0,s4
   115f0:	05112a23          	sw	a7,84(sp)
   115f4:	04512823          	sw	t0,80(sp)
   115f8:	465100ef          	jal	ra,2225c <__sprint_r>
   115fc:	ee0516e3          	bnez	a0,114e8 <_vfprintf_r+0xe80>
   11600:	05412883          	lw	a7,84(sp)
   11604:	05012283          	lw	t0,80(sp)
   11608:	000b0413          	mv	s0,s6
   1160c:	aa4ff06f          	j	108b0 <_vfprintf_r+0x248>
   11610:	00812583          	lw	a1,8(sp)
   11614:	0e410613          	addi	a2,sp,228
   11618:	000a0513          	mv	a0,s4
   1161c:	05112823          	sw	a7,80(sp)
   11620:	43d100ef          	jal	ra,2225c <__sprint_r>
   11624:	ec0512e3          	bnez	a0,114e8 <_vfprintf_r+0xe80>
   11628:	05012883          	lw	a7,80(sp)
   1162c:	000b0413          	mv	s0,s6
   11630:	af4ff06f          	j	10924 <_vfprintf_r+0x2bc>
   11634:	00030e37          	lui	t3,0x30
   11638:	01000713          	li	a4,16
   1163c:	0e812783          	lw	a5,232(sp)
   11640:	368e0b93          	addi	s7,t3,872 # 30368 <blanks.1>
   11644:	07275263          	bge	a4,s2,116a8 <_vfprintf_r+0x1040>
   11648:	00812c03          	lw	s8,8(sp)
   1164c:	01000993          	li	s3,16
   11650:	00700d93          	li	s11,7
   11654:	00c0006f          	j	11660 <_vfprintf_r+0xff8>
   11658:	ff090913          	addi	s2,s2,-16
   1165c:	0529d663          	bge	s3,s2,116a8 <_vfprintf_r+0x1040>
   11660:	01068693          	addi	a3,a3,16
   11664:	00178793          	addi	a5,a5,1
   11668:	01742023          	sw	s7,0(s0)
   1166c:	01342223          	sw	s3,4(s0)
   11670:	0ed12623          	sw	a3,236(sp)
   11674:	0ef12423          	sw	a5,232(sp)
   11678:	00840413          	addi	s0,s0,8
   1167c:	fcfddee3          	bge	s11,a5,11658 <_vfprintf_r+0xff0>
   11680:	0e410613          	addi	a2,sp,228
   11684:	000c0593          	mv	a1,s8
   11688:	000a0513          	mv	a0,s4
   1168c:	3d1100ef          	jal	ra,2225c <__sprint_r>
   11690:	e4051ce3          	bnez	a0,114e8 <_vfprintf_r+0xe80>
   11694:	ff090913          	addi	s2,s2,-16
   11698:	0ec12683          	lw	a3,236(sp)
   1169c:	0e812783          	lw	a5,232(sp)
   116a0:	000b0413          	mv	s0,s6
   116a4:	fb29cee3          	blt	s3,s2,11660 <_vfprintf_r+0xff8>
   116a8:	012686b3          	add	a3,a3,s2
   116ac:	00178793          	addi	a5,a5,1
   116b0:	01742023          	sw	s7,0(s0)
   116b4:	01242223          	sw	s2,4(s0)
   116b8:	0ed12623          	sw	a3,236(sp)
   116bc:	0ef12423          	sw	a5,232(sp)
   116c0:	00700713          	li	a4,7
   116c4:	aaf75a63          	bge	a4,a5,10978 <_vfprintf_r+0x310>
   116c8:	00812583          	lw	a1,8(sp)
   116cc:	0e410613          	addi	a2,sp,228
   116d0:	000a0513          	mv	a0,s4
   116d4:	389100ef          	jal	ra,2225c <__sprint_r>
   116d8:	e00518e3          	bnez	a0,114e8 <_vfprintf_r+0xe80>
   116dc:	0ec12683          	lw	a3,236(sp)
   116e0:	a98ff06f          	j	10978 <_vfprintf_r+0x310>
   116e4:	0cc12503          	lw	a0,204(sp)
   116e8:	7ca05263          	blez	a0,11eac <_vfprintf_r+0x1844>
   116ec:	02412783          	lw	a5,36(sp)
   116f0:	00fc8733          	add	a4,s9,a5
   116f4:	04e12823          	sw	a4,80(sp)
   116f8:	02012703          	lw	a4,32(sp)
   116fc:	00070913          	mv	s2,a4
   11700:	34e7cc63          	blt	a5,a4,11a58 <_vfprintf_r+0x13f0>
   11704:	0ec12683          	lw	a3,236(sp)
   11708:	03205663          	blez	s2,11734 <_vfprintf_r+0x10cc>
   1170c:	0e812603          	lw	a2,232(sp)
   11710:	012686b3          	add	a3,a3,s2
   11714:	01942023          	sw	s9,0(s0)
   11718:	00160613          	addi	a2,a2,1
   1171c:	01242223          	sw	s2,4(s0)
   11720:	0ed12623          	sw	a3,236(sp)
   11724:	0ec12423          	sw	a2,232(sp)
   11728:	00700593          	li	a1,7
   1172c:	00840413          	addi	s0,s0,8
   11730:	44c5c8e3          	blt	a1,a2,12380 <_vfprintf_r+0x1d18>
   11734:	fff94613          	not	a2,s2
   11738:	02012783          	lw	a5,32(sp)
   1173c:	41f65613          	srai	a2,a2,0x1f
   11740:	00c978b3          	and	a7,s2,a2
   11744:	41178933          	sub	s2,a5,a7
   11748:	3f204a63          	bgtz	s2,11b3c <_vfprintf_r+0x14d4>
   1174c:	02012783          	lw	a5,32(sp)
   11750:	400c7613          	andi	a2,s8,1024
   11754:	00fc8cb3          	add	s9,s9,a5
   11758:	1c0616e3          	bnez	a2,12124 <_vfprintf_r+0x1abc>
   1175c:	0cc12903          	lw	s2,204(sp)
   11760:	02412783          	lw	a5,36(sp)
   11764:	00f94663          	blt	s2,a5,11770 <_vfprintf_r+0x1108>
   11768:	001c7613          	andi	a2,s8,1
   1176c:	42060ee3          	beqz	a2,123a8 <_vfprintf_r+0x1d40>
   11770:	03412783          	lw	a5,52(sp)
   11774:	0e812603          	lw	a2,232(sp)
   11778:	03812703          	lw	a4,56(sp)
   1177c:	00d786b3          	add	a3,a5,a3
   11780:	00160613          	addi	a2,a2,1
   11784:	00e42023          	sw	a4,0(s0)
   11788:	00f42223          	sw	a5,4(s0)
   1178c:	0ed12623          	sw	a3,236(sp)
   11790:	0ec12423          	sw	a2,232(sp)
   11794:	00700593          	li	a1,7
   11798:	00840413          	addi	s0,s0,8
   1179c:	00c5d463          	bge	a1,a2,117a4 <_vfprintf_r+0x113c>
   117a0:	29c0106f          	j	12a3c <_vfprintf_r+0x23d4>
   117a4:	02412783          	lw	a5,36(sp)
   117a8:	41278933          	sub	s2,a5,s2
   117ac:	05012783          	lw	a5,80(sp)
   117b0:	419789b3          	sub	s3,a5,s9
   117b4:	01395463          	bge	s2,s3,117bc <_vfprintf_r+0x1154>
   117b8:	00090993          	mv	s3,s2
   117bc:	03305863          	blez	s3,117ec <_vfprintf_r+0x1184>
   117c0:	0e812783          	lw	a5,232(sp)
   117c4:	013686b3          	add	a3,a3,s3
   117c8:	01942023          	sw	s9,0(s0)
   117cc:	00178793          	addi	a5,a5,1
   117d0:	01342223          	sw	s3,4(s0)
   117d4:	0ed12623          	sw	a3,236(sp)
   117d8:	0ef12423          	sw	a5,232(sp)
   117dc:	00700613          	li	a2,7
   117e0:	00840413          	addi	s0,s0,8
   117e4:	00f65463          	bge	a2,a5,117ec <_vfprintf_r+0x1184>
   117e8:	2c40106f          	j	12aac <_vfprintf_r+0x2444>
   117ec:	fff9c793          	not	a5,s3
   117f0:	41f7d793          	srai	a5,a5,0x1f
   117f4:	00f9f9b3          	and	s3,s3,a5
   117f8:	41390933          	sub	s2,s2,s3
   117fc:	97205663          	blez	s2,10968 <_vfprintf_r+0x300>
   11800:	00030e37          	lui	t3,0x30
   11804:	01000613          	li	a2,16
   11808:	0e812783          	lw	a5,232(sp)
   1180c:	358e0b93          	addi	s7,t3,856 # 30358 <zeroes.0>
   11810:	75265063          	bge	a2,s2,11f50 <_vfprintf_r+0x18e8>
   11814:	00812c83          	lw	s9,8(sp)
   11818:	01000993          	li	s3,16
   1181c:	00700d93          	li	s11,7
   11820:	00c0006f          	j	1182c <_vfprintf_r+0x11c4>
   11824:	ff090913          	addi	s2,s2,-16
   11828:	7329d463          	bge	s3,s2,11f50 <_vfprintf_r+0x18e8>
   1182c:	01068693          	addi	a3,a3,16
   11830:	00178793          	addi	a5,a5,1
   11834:	01742023          	sw	s7,0(s0)
   11838:	01342223          	sw	s3,4(s0)
   1183c:	0ed12623          	sw	a3,236(sp)
   11840:	0ef12423          	sw	a5,232(sp)
   11844:	00840413          	addi	s0,s0,8
   11848:	fcfddee3          	bge	s11,a5,11824 <_vfprintf_r+0x11bc>
   1184c:	0e410613          	addi	a2,sp,228
   11850:	000c8593          	mv	a1,s9
   11854:	000a0513          	mv	a0,s4
   11858:	205100ef          	jal	ra,2225c <__sprint_r>
   1185c:	c80516e3          	bnez	a0,114e8 <_vfprintf_r+0xe80>
   11860:	0ec12683          	lw	a3,236(sp)
   11864:	0e812783          	lw	a5,232(sp)
   11868:	000b0413          	mv	s0,s6
   1186c:	fb9ff06f          	j	11824 <_vfprintf_r+0x11bc>
   11870:	001c7693          	andi	a3,s8,1
   11874:	c8069063          	bnez	a3,10cf4 <_vfprintf_r+0x68c>
   11878:	0e812783          	lw	a5,232(sp)
   1187c:	0ec12683          	lw	a3,236(sp)
   11880:	01942023          	sw	s9,0(s0)
   11884:	00178913          	addi	s2,a5,1
   11888:	00168d93          	addi	s11,a3,1
   1188c:	00c42223          	sw	a2,4(s0)
   11890:	0fb12623          	sw	s11,236(sp)
   11894:	0f212423          	sw	s2,232(sp)
   11898:	00700793          	li	a5,7
   1189c:	d327d463          	bge	a5,s2,10dc4 <_vfprintf_r+0x75c>
   118a0:	00812583          	lw	a1,8(sp)
   118a4:	0e410613          	addi	a2,sp,228
   118a8:	000a0513          	mv	a0,s4
   118ac:	1b1100ef          	jal	ra,2225c <__sprint_r>
   118b0:	c2051ce3          	bnez	a0,114e8 <_vfprintf_r+0xe80>
   118b4:	0ec12d83          	lw	s11,236(sp)
   118b8:	0e812903          	lw	s2,232(sp)
   118bc:	000b0993          	mv	s3,s6
   118c0:	d04ff06f          	j	10dc4 <_vfprintf_r+0x75c>
   118c4:	02412703          	lw	a4,36(sp)
   118c8:	00100793          	li	a5,1
   118cc:	cee7dc63          	bge	a5,a4,10dc4 <_vfprintf_r+0x75c>
   118d0:	00030e37          	lui	t3,0x30
   118d4:	01100793          	li	a5,17
   118d8:	358e0b93          	addi	s7,t3,856 # 30358 <zeroes.0>
   118dc:	78e7d663          	bge	a5,a4,12068 <_vfprintf_r+0x1a00>
   118e0:	000b8713          	mv	a4,s7
   118e4:	01000793          	li	a5,16
   118e8:	000a8b93          	mv	s7,s5
   118ec:	00700c93          	li	s9,7
   118f0:	00048a93          	mv	s5,s1
   118f4:	00070493          	mv	s1,a4
   118f8:	00c0006f          	j	11904 <_vfprintf_r+0x129c>
   118fc:	ff040413          	addi	s0,s0,-16
   11900:	7487dc63          	bge	a5,s0,12058 <_vfprintf_r+0x19f0>
   11904:	010d8d93          	addi	s11,s11,16
   11908:	00190913          	addi	s2,s2,1
   1190c:	0099a023          	sw	s1,0(s3)
   11910:	00f9a223          	sw	a5,4(s3)
   11914:	0fb12623          	sw	s11,236(sp)
   11918:	0f212423          	sw	s2,232(sp)
   1191c:	00898993          	addi	s3,s3,8
   11920:	fd2cdee3          	bge	s9,s2,118fc <_vfprintf_r+0x1294>
   11924:	00812583          	lw	a1,8(sp)
   11928:	0e410613          	addi	a2,sp,228
   1192c:	000a0513          	mv	a0,s4
   11930:	12d100ef          	jal	ra,2225c <__sprint_r>
   11934:	ba051ae3          	bnez	a0,114e8 <_vfprintf_r+0xe80>
   11938:	0ec12d83          	lw	s11,236(sp)
   1193c:	0e812903          	lw	s2,232(sp)
   11940:	000b0993          	mv	s3,s6
   11944:	01000793          	li	a5,16
   11948:	fb5ff06f          	j	118fc <_vfprintf_r+0x1294>
   1194c:	01812703          	lw	a4,24(sp)
   11950:	0106f793          	andi	a5,a3,16
   11954:	00072d83          	lw	s11,0(a4)
   11958:	00470713          	addi	a4,a4,4
   1195c:	00e12c23          	sw	a4,24(sp)
   11960:	04079a63          	bnez	a5,119b4 <_vfprintf_r+0x134c>
   11964:	0406f793          	andi	a5,a3,64
   11968:	04078063          	beqz	a5,119a8 <_vfprintf_r+0x1340>
   1196c:	010d9d93          	slli	s11,s11,0x10
   11970:	010ddd93          	srli	s11,s11,0x10
   11974:	00000913          	li	s2,0
   11978:	00100613          	li	a2,1
   1197c:	9f0ff06f          	j	10b6c <_vfprintf_r+0x504>
   11980:	00000913          	li	s2,0
   11984:	1b010c93          	addi	s9,sp,432
   11988:	988ff06f          	j	10b10 <_vfprintf_r+0x4a8>
   1198c:	001c7793          	andi	a5,s8,1
   11990:	00079463          	bnez	a5,11998 <_vfprintf_r+0x1330>
   11994:	fd5fe06f          	j	10968 <_vfprintf_r+0x300>
   11998:	859ff06f          	j	111f0 <_vfprintf_r+0xb88>
   1199c:	0004c883          	lbu	a7,0(s1)
   119a0:	00f12c23          	sw	a5,24(sp)
   119a4:	e71fe06f          	j	10814 <_vfprintf_r+0x1ac>
   119a8:	2006f793          	andi	a5,a3,512
   119ac:	00078463          	beqz	a5,119b4 <_vfprintf_r+0x134c>
   119b0:	0ffdfd93          	zext.b	s11,s11
   119b4:	00000913          	li	s2,0
   119b8:	00100613          	li	a2,1
   119bc:	9b0ff06f          	j	10b6c <_vfprintf_r+0x504>
   119c0:	200c7793          	andi	a5,s8,512
   119c4:	200798e3          	bnez	a5,123d4 <_vfprintf_r+0x1d6c>
   119c8:	00000913          	li	s2,0
   119cc:	998ff06f          	j	10b64 <_vfprintf_r+0x4fc>
   119d0:	200c7793          	andi	a5,s8,512
   119d4:	200796e3          	bnez	a5,123e0 <_vfprintf_r+0x1d78>
   119d8:	41fdd913          	srai	s2,s11,0x1f
   119dc:	00090793          	mv	a5,s2
   119e0:	904ff06f          	j	10ae4 <_vfprintf_r+0x47c>
   119e4:	01812783          	lw	a5,24(sp)
   119e8:	0007a683          	lw	a3,0(a5)
   119ec:	00478793          	addi	a5,a5,4
   119f0:	00f12c23          	sw	a5,24(sp)
   119f4:	0006a803          	lw	a6,0(a3)
   119f8:	0046a583          	lw	a1,4(a3)
   119fc:	0086a603          	lw	a2,8(a3)
   11a00:	00c6a683          	lw	a3,12(a3)
   11a04:	a18ff06f          	j	10c1c <_vfprintf_r+0x5b4>
   11a08:	010c7793          	andi	a5,s8,16
   11a0c:	5c079c63          	bnez	a5,11fe4 <_vfprintf_r+0x197c>
   11a10:	040c7793          	andi	a5,s8,64
   11a14:	1a0796e3          	bnez	a5,123c0 <_vfprintf_r+0x1d58>
   11a18:	200c7713          	andi	a4,s8,512
   11a1c:	5c070463          	beqz	a4,11fe4 <_vfprintf_r+0x197c>
   11a20:	01812783          	lw	a5,24(sp)
   11a24:	01012703          	lw	a4,16(sp)
   11a28:	0007a783          	lw	a5,0(a5)
   11a2c:	00e78023          	sb	a4,0(a5)
   11a30:	f20ff06f          	j	11150 <_vfprintf_r+0xae8>
   11a34:	04012783          	lw	a5,64(sp)
   11a38:	0004c883          	lbu	a7,0(s1)
   11a3c:	00079463          	bnez	a5,11a44 <_vfprintf_r+0x13dc>
   11a40:	dd5fe06f          	j	10814 <_vfprintf_r+0x1ac>
   11a44:	0007c783          	lbu	a5,0(a5)
   11a48:	00079463          	bnez	a5,11a50 <_vfprintf_r+0x13e8>
   11a4c:	dc9fe06f          	j	10814 <_vfprintf_r+0x1ac>
   11a50:	400c6c13          	ori	s8,s8,1024
   11a54:	dc1fe06f          	j	10814 <_vfprintf_r+0x1ac>
   11a58:	00078913          	mv	s2,a5
   11a5c:	0ec12683          	lw	a3,236(sp)
   11a60:	cb2046e3          	bgtz	s2,1170c <_vfprintf_r+0x10a4>
   11a64:	cd1ff06f          	j	11734 <_vfprintf_r+0x10cc>
   11a68:	000c0693          	mv	a3,s8
   11a6c:	e34ff06f          	j	110a0 <_vfprintf_r+0xa38>
   11a70:	000307b7          	lui	a5,0x30
   11a74:	13478793          	addi	a5,a5,308 # 30134 <__clzsi2+0xbc>
   11a78:	02f12e23          	sw	a5,60(sp)
   11a7c:	020c7793          	andi	a5,s8,32
   11a80:	2e078263          	beqz	a5,11d64 <_vfprintf_r+0x16fc>
   11a84:	01812783          	lw	a5,24(sp)
   11a88:	00778b93          	addi	s7,a5,7
   11a8c:	ff8bfb93          	andi	s7,s7,-8
   11a90:	000bad83          	lw	s11,0(s7)
   11a94:	004ba903          	lw	s2,4(s7)
   11a98:	008b8793          	addi	a5,s7,8
   11a9c:	00f12c23          	sw	a5,24(sp)
   11aa0:	001c7793          	andi	a5,s8,1
   11aa4:	00078e63          	beqz	a5,11ac0 <_vfprintf_r+0x1458>
   11aa8:	012de7b3          	or	a5,s11,s2
   11aac:	00078a63          	beqz	a5,11ac0 <_vfprintf_r+0x1458>
   11ab0:	03000793          	li	a5,48
   11ab4:	0cf10423          	sb	a5,200(sp)
   11ab8:	0d1104a3          	sb	a7,201(sp)
   11abc:	002c6c13          	ori	s8,s8,2
   11ac0:	bffc7693          	andi	a3,s8,-1025
   11ac4:	00200613          	li	a2,2
   11ac8:	8a4ff06f          	j	10b6c <_vfprintf_r+0x504>
   11acc:	0014c883          	lbu	a7,1(s1)
   11ad0:	200c6c13          	ori	s8,s8,512
   11ad4:	00148493          	addi	s1,s1,1
   11ad8:	d3dfe06f          	j	10814 <_vfprintf_r+0x1ac>
   11adc:	000307b7          	lui	a5,0x30
   11ae0:	12078793          	addi	a5,a5,288 # 30120 <__clzsi2+0xa8>
   11ae4:	02f12e23          	sw	a5,60(sp)
   11ae8:	f95ff06f          	j	11a7c <_vfprintf_r+0x1414>
   11aec:	00812583          	lw	a1,8(sp)
   11af0:	0e410613          	addi	a2,sp,228
   11af4:	000a0513          	mv	a0,s4
   11af8:	764100ef          	jal	ra,2225c <__sprint_r>
   11afc:	9e0516e3          	bnez	a0,114e8 <_vfprintf_r+0xe80>
   11b00:	0ec12683          	lw	a3,236(sp)
   11b04:	000b0413          	mv	s0,s6
   11b08:	f18ff06f          	j	11220 <_vfprintf_r+0xbb8>
   11b0c:	0014c883          	lbu	a7,1(s1)
   11b10:	020c6c13          	ori	s8,s8,32
   11b14:	00148493          	addi	s1,s1,1
   11b18:	cfdfe06f          	j	10814 <_vfprintf_r+0x1ac>
   11b1c:	00600793          	li	a5,6
   11b20:	00098913          	mv	s2,s3
   11b24:	0737eee3          	bltu	a5,s3,123a0 <_vfprintf_r+0x1d38>
   11b28:	000307b7          	lui	a5,0x30
   11b2c:	00090a93          	mv	s5,s2
   11b30:	01712c23          	sw	s7,24(sp)
   11b34:	14878c93          	addi	s9,a5,328 # 30148 <__clzsi2+0xd0>
   11b38:	d49fe06f          	j	10880 <_vfprintf_r+0x218>
   11b3c:	00030e37          	lui	t3,0x30
   11b40:	01000593          	li	a1,16
   11b44:	0e812603          	lw	a2,232(sp)
   11b48:	358e0b93          	addi	s7,t3,856 # 30358 <zeroes.0>
   11b4c:	5925da63          	bge	a1,s2,120e0 <_vfprintf_r+0x1a78>
   11b50:	00812d83          	lw	s11,8(sp)
   11b54:	01000e93          	li	t4,16
   11b58:	00700993          	li	s3,7
   11b5c:	00c0006f          	j	11b68 <_vfprintf_r+0x1500>
   11b60:	ff090913          	addi	s2,s2,-16
   11b64:	572ede63          	bge	t4,s2,120e0 <_vfprintf_r+0x1a78>
   11b68:	01068693          	addi	a3,a3,16
   11b6c:	00160613          	addi	a2,a2,1
   11b70:	01742023          	sw	s7,0(s0)
   11b74:	01d42223          	sw	t4,4(s0)
   11b78:	0ed12623          	sw	a3,236(sp)
   11b7c:	0ec12423          	sw	a2,232(sp)
   11b80:	00840413          	addi	s0,s0,8
   11b84:	fcc9dee3          	bge	s3,a2,11b60 <_vfprintf_r+0x14f8>
   11b88:	0e410613          	addi	a2,sp,228
   11b8c:	000d8593          	mv	a1,s11
   11b90:	000a0513          	mv	a0,s4
   11b94:	6c8100ef          	jal	ra,2225c <__sprint_r>
   11b98:	940518e3          	bnez	a0,114e8 <_vfprintf_r+0xe80>
   11b9c:	0ec12683          	lw	a3,236(sp)
   11ba0:	0e812603          	lw	a2,232(sp)
   11ba4:	000b0413          	mv	s0,s6
   11ba8:	01000e93          	li	t4,16
   11bac:	fb5ff06f          	j	11b60 <_vfprintf_r+0x14f8>
   11bb0:	07800793          	li	a5,120
   11bb4:	03000693          	li	a3,48
   11bb8:	0cf104a3          	sb	a5,201(sp)
   11bbc:	002c6793          	ori	a5,s8,2
   11bc0:	0cd10423          	sb	a3,200(sp)
   11bc4:	02f12423          	sw	a5,40(sp)
   11bc8:	06300693          	li	a3,99
   11bcc:	00012a23          	sw	zero,20(sp)
   11bd0:	14c10c93          	addi	s9,sp,332
   11bd4:	0936c8e3          	blt	a3,s3,12464 <_vfprintf_r+0x1dfc>
   11bd8:	0fc12d83          	lw	s11,252(sp)
   11bdc:	102c6793          	ori	a5,s8,258
   11be0:	04f12e23          	sw	a5,92(sp)
   11be4:	06012023          	sw	zero,96(sp)
   11be8:	0f012f03          	lw	t5,240(sp)
   11bec:	0f412e83          	lw	t4,244(sp)
   11bf0:	0f812e03          	lw	t3,248(sp)
   11bf4:	020dcae3          	bltz	s11,12428 <_vfprintf_r+0x1dc0>
   11bf8:	06100713          	li	a4,97
   11bfc:	00e89463          	bne	a7,a4,11c04 <_vfprintf_r+0x159c>
   11c00:	0fc0106f          	j	12cfc <_vfprintf_r+0x2694>
   11c04:	fbf88713          	addi	a4,a7,-65
   11c08:	02500693          	li	a3,37
   11c0c:	00e6ee63          	bltu	a3,a4,11c28 <_vfprintf_r+0x15c0>
   11c10:	000306b7          	lui	a3,0x30
   11c14:	00271713          	slli	a4,a4,0x2
   11c18:	2c068693          	addi	a3,a3,704 # 302c0 <__clzsi2+0x248>
   11c1c:	00d70733          	add	a4,a4,a3
   11c20:	00072703          	lw	a4,0(a4)
   11c24:	00070067          	jr	a4
   11c28:	00098693          	mv	a3,s3
   11c2c:	00200613          	li	a2,2
   11c30:	0b010913          	addi	s2,sp,176
   11c34:	0cc10713          	addi	a4,sp,204
   11c38:	0dc10813          	addi	a6,sp,220
   11c3c:	0d010793          	addi	a5,sp,208
   11c40:	00090593          	mv	a1,s2
   11c44:	000a0513          	mv	a0,s4
   11c48:	05112a23          	sw	a7,84(sp)
   11c4c:	04d12823          	sw	a3,80(sp)
   11c50:	0be12823          	sw	t5,176(sp)
   11c54:	03e12623          	sw	t5,44(sp)
   11c58:	0bd12a23          	sw	t4,180(sp)
   11c5c:	03d12223          	sw	t4,36(sp)
   11c60:	0bc12c23          	sw	t3,184(sp)
   11c64:	03c12023          	sw	t3,32(sp)
   11c68:	0bb12e23          	sw	s11,188(sp)
   11c6c:	7a9060ef          	jal	ra,18c14 <_ldtoa_r>
   11c70:	05412883          	lw	a7,84(sp)
   11c74:	06700713          	li	a4,103
   11c78:	02012e03          	lw	t3,32(sp)
   11c7c:	02412e83          	lw	t4,36(sp)
   11c80:	02c12f03          	lw	t5,44(sp)
   11c84:	05012683          	lw	a3,80(sp)
   11c88:	00050c93          	mv	s9,a0
   11c8c:	7ee88e63          	beq	a7,a4,12488 <_vfprintf_r+0x1e20>
   11c90:	04700713          	li	a4,71
   11c94:	7ee88a63          	beq	a7,a4,12488 <_vfprintf_r+0x1e20>
   11c98:	fdf8fa93          	andi	s5,a7,-33
   11c9c:	04600593          	li	a1,70
   11ca0:	00d50bb3          	add	s7,a0,a3
   11ca4:	0a010c13          	addi	s8,sp,160
   11ca8:	00ba9c63          	bne	s5,a1,11cc0 <_vfprintf_r+0x1658>
   11cac:	00054503          	lbu	a0,0(a0)
   11cb0:	03000593          	li	a1,48
   11cb4:	12b504e3          	beq	a0,a1,125dc <_vfprintf_r+0x1f74>
   11cb8:	0cc12683          	lw	a3,204(sp)
   11cbc:	00db8bb3          	add	s7,s7,a3
   11cc0:	000c0593          	mv	a1,s8
   11cc4:	00090513          	mv	a0,s2
   11cc8:	03112023          	sw	a7,32(sp)
   11ccc:	0be12823          	sw	t5,176(sp)
   11cd0:	0bd12a23          	sw	t4,180(sp)
   11cd4:	0bc12c23          	sw	t3,184(sp)
   11cd8:	0bb12e23          	sw	s11,188(sp)
   11cdc:	0a012023          	sw	zero,160(sp)
   11ce0:	0a012223          	sw	zero,164(sp)
   11ce4:	0a012423          	sw	zero,168(sp)
   11ce8:	0a012623          	sw	zero,172(sp)
   11cec:	2a91a0ef          	jal	ra,2c794 <__eqtf2>
   11cf0:	02012883          	lw	a7,32(sp)
   11cf4:	000b8c13          	mv	s8,s7
   11cf8:	02050263          	beqz	a0,11d1c <_vfprintf_r+0x16b4>
   11cfc:	0dc12c03          	lw	s8,220(sp)
   11d00:	017c7e63          	bgeu	s8,s7,11d1c <_vfprintf_r+0x16b4>
   11d04:	03000593          	li	a1,48
   11d08:	001c0793          	addi	a5,s8,1
   11d0c:	0cf12e23          	sw	a5,220(sp)
   11d10:	00bc0023          	sb	a1,0(s8)
   11d14:	0dc12c03          	lw	s8,220(sp)
   11d18:	ff7c68e3          	bltu	s8,s7,11d08 <_vfprintf_r+0x16a0>
   11d1c:	419c07b3          	sub	a5,s8,s9
   11d20:	02f12223          	sw	a5,36(sp)
   11d24:	0cc12703          	lw	a4,204(sp)
   11d28:	04700693          	li	a3,71
   11d2c:	02e12023          	sw	a4,32(sp)
   11d30:	76da8a63          	beq	s5,a3,124a4 <_vfprintf_r+0x1e3c>
   11d34:	04600693          	li	a3,70
   11d38:	66da80e3          	beq	s5,a3,12b98 <_vfprintf_r+0x2530>
   11d3c:	fff70d93          	addi	s11,a4,-1
   11d40:	0db12623          	sw	s11,204(sp)
   11d44:	06100693          	li	a3,97
   11d48:	00d89463          	bne	a7,a3,11d50 <_vfprintf_r+0x16e8>
   11d4c:	1680106f          	j	12eb4 <_vfprintf_r+0x284c>
   11d50:	04100613          	li	a2,65
   11d54:	05000693          	li	a3,80
   11d58:	76c89463          	bne	a7,a2,124c0 <_vfprintf_r+0x1e58>
   11d5c:	00100613          	li	a2,1
   11d60:	7680006f          	j	124c8 <_vfprintf_r+0x1e60>
   11d64:	01812703          	lw	a4,24(sp)
   11d68:	010c7793          	andi	a5,s8,16
   11d6c:	00072d83          	lw	s11,0(a4)
   11d70:	00470713          	addi	a4,a4,4
   11d74:	00e12c23          	sw	a4,24(sp)
   11d78:	06079663          	bnez	a5,11de4 <_vfprintf_r+0x177c>
   11d7c:	040c7793          	andi	a5,s8,64
   11d80:	04078e63          	beqz	a5,11ddc <_vfprintf_r+0x1774>
   11d84:	010d9d93          	slli	s11,s11,0x10
   11d88:	010ddd93          	srli	s11,s11,0x10
   11d8c:	00000913          	li	s2,0
   11d90:	d11ff06f          	j	11aa0 <_vfprintf_r+0x1438>
   11d94:	00812583          	lw	a1,8(sp)
   11d98:	0e410613          	addi	a2,sp,228
   11d9c:	000a0513          	mv	a0,s4
   11da0:	4bc100ef          	jal	ra,2225c <__sprint_r>
   11da4:	f4051263          	bnez	a0,114e8 <_vfprintf_r+0xe80>
   11da8:	0ec12683          	lw	a3,236(sp)
   11dac:	0e812903          	lw	s2,232(sp)
   11db0:	000b0993          	mv	s3,s6
   11db4:	f71fe06f          	j	10d24 <_vfprintf_r+0x6bc>
   11db8:	00812583          	lw	a1,8(sp)
   11dbc:	0e410613          	addi	a2,sp,228
   11dc0:	000a0513          	mv	a0,s4
   11dc4:	498100ef          	jal	ra,2225c <__sprint_r>
   11dc8:	f2051063          	bnez	a0,114e8 <_vfprintf_r+0xe80>
   11dcc:	0ec12d83          	lw	s11,236(sp)
   11dd0:	0e812903          	lw	s2,232(sp)
   11dd4:	000b0993          	mv	s3,s6
   11dd8:	f7dfe06f          	j	10d54 <_vfprintf_r+0x6ec>
   11ddc:	200c7793          	andi	a5,s8,512
   11de0:	60079a63          	bnez	a5,123f4 <_vfprintf_r+0x1d8c>
   11de4:	00000913          	li	s2,0
   11de8:	cb9ff06f          	j	11aa0 <_vfprintf_r+0x1438>
   11dec:	1b010c93          	addi	s9,sp,432
   11df0:	00912a23          	sw	s1,20(sp)
   11df4:	4006fb93          	andi	s7,a3,1024
   11df8:	000c8493          	mv	s1,s9
   11dfc:	00000c13          	li	s8,0
   11e00:	000a0c93          	mv	s9,s4
   11e04:	0ff00a93          	li	s5,255
   11e08:	00040a13          	mv	s4,s0
   11e0c:	03112023          	sw	a7,32(sp)
   11e10:	04012403          	lw	s0,64(sp)
   11e14:	02d12423          	sw	a3,40(sp)
   11e18:	0240006f          	j	11e3c <_vfprintf_r+0x17d4>
   11e1c:	00a00613          	li	a2,10
   11e20:	00000693          	li	a3,0
   11e24:	000d8513          	mv	a0,s11
   11e28:	00090593          	mv	a1,s2
   11e2c:	131170ef          	jal	ra,2975c <__udivdi3>
   11e30:	3c090ae3          	beqz	s2,12a04 <_vfprintf_r+0x239c>
   11e34:	00050d93          	mv	s11,a0
   11e38:	00058913          	mv	s2,a1
   11e3c:	00a00613          	li	a2,10
   11e40:	00000693          	li	a3,0
   11e44:	000d8513          	mv	a0,s11
   11e48:	00090593          	mv	a1,s2
   11e4c:	6d5170ef          	jal	ra,29d20 <__umoddi3>
   11e50:	03050513          	addi	a0,a0,48
   11e54:	fea48fa3          	sb	a0,-1(s1)
   11e58:	001c0c13          	addi	s8,s8,1
   11e5c:	fff48493          	addi	s1,s1,-1
   11e60:	fa0b8ee3          	beqz	s7,11e1c <_vfprintf_r+0x17b4>
   11e64:	00044703          	lbu	a4,0(s0)
   11e68:	faec1ae3          	bne	s8,a4,11e1c <_vfprintf_r+0x17b4>
   11e6c:	fb5c08e3          	beq	s8,s5,11e1c <_vfprintf_r+0x17b4>
   11e70:	4a091063          	bnez	s2,12310 <_vfprintf_r+0x1ca8>
   11e74:	00900713          	li	a4,9
   11e78:	49b76c63          	bltu	a4,s11,12310 <_vfprintf_r+0x1ca8>
   11e7c:	02812683          	lw	a3,40(sp)
   11e80:	04812023          	sw	s0,64(sp)
   11e84:	1b010793          	addi	a5,sp,432
   11e88:	000a0413          	mv	s0,s4
   11e8c:	000c8a13          	mv	s4,s9
   11e90:	00048c93          	mv	s9,s1
   11e94:	03812223          	sw	s8,36(sp)
   11e98:	02012883          	lw	a7,32(sp)
   11e9c:	01412483          	lw	s1,20(sp)
   11ea0:	41978933          	sub	s2,a5,s9
   11ea4:	00068c13          	mv	s8,a3
   11ea8:	c69fe06f          	j	10b10 <_vfprintf_r+0x4a8>
   11eac:	0ec12683          	lw	a3,236(sp)
   11eb0:	0e812603          	lw	a2,232(sp)
   11eb4:	000305b7          	lui	a1,0x30
   11eb8:	15058593          	addi	a1,a1,336 # 30150 <__clzsi2+0xd8>
   11ebc:	00b42023          	sw	a1,0(s0)
   11ec0:	00168693          	addi	a3,a3,1
   11ec4:	00100593          	li	a1,1
   11ec8:	00160613          	addi	a2,a2,1
   11ecc:	00b42223          	sw	a1,4(s0)
   11ed0:	0ed12623          	sw	a3,236(sp)
   11ed4:	0ec12423          	sw	a2,232(sp)
   11ed8:	00700593          	li	a1,7
   11edc:	00840413          	addi	s0,s0,8
   11ee0:	46c5c863          	blt	a1,a2,12350 <_vfprintf_r+0x1ce8>
   11ee4:	10051a63          	bnez	a0,11ff8 <_vfprintf_r+0x1990>
   11ee8:	02412783          	lw	a5,36(sp)
   11eec:	001c7613          	andi	a2,s8,1
   11ef0:	00f66633          	or	a2,a2,a5
   11ef4:	00061463          	bnez	a2,11efc <_vfprintf_r+0x1894>
   11ef8:	a71fe06f          	j	10968 <_vfprintf_r+0x300>
   11efc:	03412783          	lw	a5,52(sp)
   11f00:	0e812603          	lw	a2,232(sp)
   11f04:	03812703          	lw	a4,56(sp)
   11f08:	00d786b3          	add	a3,a5,a3
   11f0c:	00160613          	addi	a2,a2,1
   11f10:	00e42023          	sw	a4,0(s0)
   11f14:	00f42223          	sw	a5,4(s0)
   11f18:	0ed12623          	sw	a3,236(sp)
   11f1c:	0ec12423          	sw	a2,232(sp)
   11f20:	00700593          	li	a1,7
   11f24:	50c5cc63          	blt	a1,a2,1243c <_vfprintf_r+0x1dd4>
   11f28:	00840413          	addi	s0,s0,8
   11f2c:	1000006f          	j	1202c <_vfprintf_r+0x19c4>
   11f30:	00812583          	lw	a1,8(sp)
   11f34:	0e410613          	addi	a2,sp,228
   11f38:	000a0513          	mv	a0,s4
   11f3c:	320100ef          	jal	ra,2225c <__sprint_r>
   11f40:	da051463          	bnez	a0,114e8 <_vfprintf_r+0xe80>
   11f44:	0ec12683          	lw	a3,236(sp)
   11f48:	000b0413          	mv	s0,s6
   11f4c:	a98ff06f          	j	111e4 <_vfprintf_r+0xb7c>
   11f50:	012686b3          	add	a3,a3,s2
   11f54:	00178793          	addi	a5,a5,1
   11f58:	01742023          	sw	s7,0(s0)
   11f5c:	9f5fe06f          	j	10950 <_vfprintf_r+0x2e8>
   11f60:	0f012783          	lw	a5,240(sp)
   11f64:	0a010593          	addi	a1,sp,160
   11f68:	0b010513          	addi	a0,sp,176
   11f6c:	0af12823          	sw	a5,176(sp)
   11f70:	0f412783          	lw	a5,244(sp)
   11f74:	0a012023          	sw	zero,160(sp)
   11f78:	0a012223          	sw	zero,164(sp)
   11f7c:	0af12a23          	sw	a5,180(sp)
   11f80:	0f812783          	lw	a5,248(sp)
   11f84:	0a012423          	sw	zero,168(sp)
   11f88:	0a012623          	sw	zero,172(sp)
   11f8c:	0af12c23          	sw	a5,184(sp)
   11f90:	0fc12783          	lw	a5,252(sp)
   11f94:	0af12e23          	sw	a5,188(sp)
   11f98:	2351a0ef          	jal	ra,2c9cc <__letf2>
   11f9c:	01412883          	lw	a7,20(sp)
   11fa0:	2c0542e3          	bltz	a0,12a64 <_vfprintf_r+0x23fc>
   11fa4:	0c714683          	lbu	a3,199(sp)
   11fa8:	04700793          	li	a5,71
   11fac:	3d17d463          	bge	a5,a7,12374 <_vfprintf_r+0x1d0c>
   11fb0:	000307b7          	lui	a5,0x30
   11fb4:	11478c93          	addi	s9,a5,276 # 30114 <__clzsi2+0x9c>
   11fb8:	00012a23          	sw	zero,20(sp)
   11fbc:	02012623          	sw	zero,44(sp)
   11fc0:	02012423          	sw	zero,40(sp)
   11fc4:	02012023          	sw	zero,32(sp)
   11fc8:	f7fc7c13          	andi	s8,s8,-129
   11fcc:	00300a93          	li	s5,3
   11fd0:	00300913          	li	s2,3
   11fd4:	00000993          	li	s3,0
   11fd8:	00068463          	beqz	a3,11fe0 <_vfprintf_r+0x1978>
   11fdc:	b59fe06f          	j	10b34 <_vfprintf_r+0x4cc>
   11fe0:	8b5fe06f          	j	10894 <_vfprintf_r+0x22c>
   11fe4:	01812783          	lw	a5,24(sp)
   11fe8:	01012703          	lw	a4,16(sp)
   11fec:	0007a783          	lw	a5,0(a5)
   11ff0:	00e7a023          	sw	a4,0(a5)
   11ff4:	95cff06f          	j	11150 <_vfprintf_r+0xae8>
   11ff8:	03412783          	lw	a5,52(sp)
   11ffc:	0e812603          	lw	a2,232(sp)
   12000:	03812703          	lw	a4,56(sp)
   12004:	00d786b3          	add	a3,a5,a3
   12008:	00160613          	addi	a2,a2,1
   1200c:	00e42023          	sw	a4,0(s0)
   12010:	00f42223          	sw	a5,4(s0)
   12014:	0ed12623          	sw	a3,236(sp)
   12018:	0ec12423          	sw	a2,232(sp)
   1201c:	00700593          	li	a1,7
   12020:	00840413          	addi	s0,s0,8
   12024:	40c5cc63          	blt	a1,a2,1243c <_vfprintf_r+0x1dd4>
   12028:	2a054ee3          	bltz	a0,12ae4 <_vfprintf_r+0x247c>
   1202c:	02412783          	lw	a5,36(sp)
   12030:	00160613          	addi	a2,a2,1
   12034:	01942023          	sw	s9,0(s0)
   12038:	00d786b3          	add	a3,a5,a3
   1203c:	00f42223          	sw	a5,4(s0)
   12040:	0ed12623          	sw	a3,236(sp)
   12044:	0ec12423          	sw	a2,232(sp)
   12048:	00700793          	li	a5,7
   1204c:	00c7c463          	blt	a5,a2,12054 <_vfprintf_r+0x19ec>
   12050:	915fe06f          	j	10964 <_vfprintf_r+0x2fc>
   12054:	d9dfe06f          	j	10df0 <_vfprintf_r+0x788>
   12058:	00048793          	mv	a5,s1
   1205c:	000a8493          	mv	s1,s5
   12060:	000b8a93          	mv	s5,s7
   12064:	00078b93          	mv	s7,a5
   12068:	008d8db3          	add	s11,s11,s0
   1206c:	00190913          	addi	s2,s2,1
   12070:	0179a023          	sw	s7,0(s3)
   12074:	d39fe06f          	j	10dac <_vfprintf_r+0x744>
   12078:	000c8513          	mv	a0,s9
   1207c:	05112823          	sw	a7,80(sp)
   12080:	6910a0ef          	jal	ra,1cf10 <strlen>
   12084:	0c714683          	lbu	a3,199(sp)
   12088:	fff54813          	not	a6,a0
   1208c:	41f85813          	srai	a6,a6,0x1f
   12090:	01712c23          	sw	s7,24(sp)
   12094:	00012a23          	sw	zero,20(sp)
   12098:	02012623          	sw	zero,44(sp)
   1209c:	02012423          	sw	zero,40(sp)
   120a0:	02012023          	sw	zero,32(sp)
   120a4:	05012883          	lw	a7,80(sp)
   120a8:	00050913          	mv	s2,a0
   120ac:	01057ab3          	and	s5,a0,a6
   120b0:	00000993          	li	s3,0
   120b4:	00068463          	beqz	a3,120bc <_vfprintf_r+0x1a54>
   120b8:	a7dfe06f          	j	10b34 <_vfprintf_r+0x4cc>
   120bc:	fd8fe06f          	j	10894 <_vfprintf_r+0x22c>
   120c0:	0fc12783          	lw	a5,252(sp)
   120c4:	3207ce63          	bltz	a5,12400 <_vfprintf_r+0x1d98>
   120c8:	0c714683          	lbu	a3,199(sp)
   120cc:	04700793          	li	a5,71
   120d0:	1d17d8e3          	bge	a5,a7,12aa0 <_vfprintf_r+0x2438>
   120d4:	000307b7          	lui	a5,0x30
   120d8:	11c78c93          	addi	s9,a5,284 # 3011c <__clzsi2+0xa4>
   120dc:	eddff06f          	j	11fb8 <_vfprintf_r+0x1950>
   120e0:	00d906b3          	add	a3,s2,a3
   120e4:	00160613          	addi	a2,a2,1
   120e8:	01742023          	sw	s7,0(s0)
   120ec:	01242223          	sw	s2,4(s0)
   120f0:	0ed12623          	sw	a3,236(sp)
   120f4:	0ec12423          	sw	a2,232(sp)
   120f8:	00700593          	li	a1,7
   120fc:	00840413          	addi	s0,s0,8
   12100:	e4c5d663          	bge	a1,a2,1174c <_vfprintf_r+0x10e4>
   12104:	00812583          	lw	a1,8(sp)
   12108:	0e410613          	addi	a2,sp,228
   1210c:	000a0513          	mv	a0,s4
   12110:	14c100ef          	jal	ra,2225c <__sprint_r>
   12114:	bc051a63          	bnez	a0,114e8 <_vfprintf_r+0xe80>
   12118:	0ec12683          	lw	a3,236(sp)
   1211c:	000b0413          	mv	s0,s6
   12120:	e2cff06f          	j	1174c <_vfprintf_r+0x10e4>
   12124:	02812d83          	lw	s11,40(sp)
   12128:	00030eb7          	lui	t4,0x30
   1212c:	04912a23          	sw	s1,84(sp)
   12130:	05812c23          	sw	s8,88(sp)
   12134:	05a12e23          	sw	s10,92(sp)
   12138:	03512423          	sw	s5,40(sp)
   1213c:	00040613          	mv	a2,s0
   12140:	04012c03          	lw	s8,64(sp)
   12144:	04c12d03          	lw	s10,76(sp)
   12148:	02c12403          	lw	s0,44(sp)
   1214c:	00812483          	lw	s1,8(sp)
   12150:	00700993          	li	s3,7
   12154:	01000b93          	li	s7,16
   12158:	358e8913          	addi	s2,t4,856 # 30358 <zeroes.0>
   1215c:	080d8863          	beqz	s11,121ec <_vfprintf_r+0x1b84>
   12160:	16040063          	beqz	s0,122c0 <_vfprintf_r+0x1c58>
   12164:	fff40413          	addi	s0,s0,-1
   12168:	04812783          	lw	a5,72(sp)
   1216c:	01a686b3          	add	a3,a3,s10
   12170:	01a62223          	sw	s10,4(a2)
   12174:	00f62023          	sw	a5,0(a2)
   12178:	0e812783          	lw	a5,232(sp)
   1217c:	0ed12623          	sw	a3,236(sp)
   12180:	00860613          	addi	a2,a2,8
   12184:	00178793          	addi	a5,a5,1
   12188:	0ef12423          	sw	a5,232(sp)
   1218c:	14f9c063          	blt	s3,a5,122cc <_vfprintf_r+0x1c64>
   12190:	05012783          	lw	a5,80(sp)
   12194:	000c4703          	lbu	a4,0(s8)
   12198:	41978ab3          	sub	s5,a5,s9
   1219c:	01575463          	bge	a4,s5,121a4 <_vfprintf_r+0x1b3c>
   121a0:	00070a93          	mv	s5,a4
   121a4:	03505663          	blez	s5,121d0 <_vfprintf_r+0x1b68>
   121a8:	0e812703          	lw	a4,232(sp)
   121ac:	015686b3          	add	a3,a3,s5
   121b0:	01962023          	sw	s9,0(a2)
   121b4:	00170713          	addi	a4,a4,1
   121b8:	01562223          	sw	s5,4(a2)
   121bc:	0ed12623          	sw	a3,236(sp)
   121c0:	0ee12423          	sw	a4,232(sp)
   121c4:	12e9c463          	blt	s3,a4,122ec <_vfprintf_r+0x1c84>
   121c8:	000c4703          	lbu	a4,0(s8)
   121cc:	00860613          	addi	a2,a2,8
   121d0:	fffac593          	not	a1,s5
   121d4:	41f5d593          	srai	a1,a1,0x1f
   121d8:	00baf7b3          	and	a5,s5,a1
   121dc:	40f70ab3          	sub	s5,a4,a5
   121e0:	03504c63          	bgtz	s5,12218 <_vfprintf_r+0x1bb0>
   121e4:	00ec8cb3          	add	s9,s9,a4
   121e8:	f60d9ce3          	bnez	s11,12160 <_vfprintf_r+0x1af8>
   121ec:	f6041ce3          	bnez	s0,12164 <_vfprintf_r+0x1afc>
   121f0:	05012783          	lw	a5,80(sp)
   121f4:	05812023          	sw	s8,64(sp)
   121f8:	05412483          	lw	s1,84(sp)
   121fc:	05812c03          	lw	s8,88(sp)
   12200:	05c12d03          	lw	s10,92(sp)
   12204:	02812a83          	lw	s5,40(sp)
   12208:	00060413          	mv	s0,a2
   1220c:	d597f863          	bgeu	a5,s9,1175c <_vfprintf_r+0x10f4>
   12210:	00078c93          	mv	s9,a5
   12214:	d48ff06f          	j	1175c <_vfprintf_r+0x10f4>
   12218:	000305b7          	lui	a1,0x30
   1221c:	0e812703          	lw	a4,232(sp)
   12220:	35858593          	addi	a1,a1,856 # 30358 <zeroes.0>
   12224:	075bd863          	bge	s7,s5,12294 <_vfprintf_r+0x1c2c>
   12228:	02812023          	sw	s0,32(sp)
   1222c:	000a8413          	mv	s0,s5
   12230:	00090a93          	mv	s5,s2
   12234:	00c0006f          	j	12240 <_vfprintf_r+0x1bd8>
   12238:	ff040413          	addi	s0,s0,-16
   1223c:	048bd663          	bge	s7,s0,12288 <_vfprintf_r+0x1c20>
   12240:	01068693          	addi	a3,a3,16
   12244:	00170713          	addi	a4,a4,1
   12248:	01262023          	sw	s2,0(a2)
   1224c:	01762223          	sw	s7,4(a2)
   12250:	0ed12623          	sw	a3,236(sp)
   12254:	0ee12423          	sw	a4,232(sp)
   12258:	00860613          	addi	a2,a2,8
   1225c:	fce9dee3          	bge	s3,a4,12238 <_vfprintf_r+0x1bd0>
   12260:	0e410613          	addi	a2,sp,228
   12264:	00048593          	mv	a1,s1
   12268:	000a0513          	mv	a0,s4
   1226c:	7f10f0ef          	jal	ra,2225c <__sprint_r>
   12270:	a6051c63          	bnez	a0,114e8 <_vfprintf_r+0xe80>
   12274:	ff040413          	addi	s0,s0,-16
   12278:	0ec12683          	lw	a3,236(sp)
   1227c:	0e812703          	lw	a4,232(sp)
   12280:	000b0613          	mv	a2,s6
   12284:	fa8bcee3          	blt	s7,s0,12240 <_vfprintf_r+0x1bd8>
   12288:	000a8593          	mv	a1,s5
   1228c:	00040a93          	mv	s5,s0
   12290:	02012403          	lw	s0,32(sp)
   12294:	00da86b3          	add	a3,s5,a3
   12298:	00170713          	addi	a4,a4,1
   1229c:	00b62023          	sw	a1,0(a2)
   122a0:	01562223          	sw	s5,4(a2)
   122a4:	0ed12623          	sw	a3,236(sp)
   122a8:	0ee12423          	sw	a4,232(sp)
   122ac:	76e9c263          	blt	s3,a4,12a10 <_vfprintf_r+0x23a8>
   122b0:	000c4703          	lbu	a4,0(s8)
   122b4:	00860613          	addi	a2,a2,8
   122b8:	00ec8cb3          	add	s9,s9,a4
   122bc:	f2dff06f          	j	121e8 <_vfprintf_r+0x1b80>
   122c0:	fffc0c13          	addi	s8,s8,-1
   122c4:	fffd8d93          	addi	s11,s11,-1
   122c8:	ea1ff06f          	j	12168 <_vfprintf_r+0x1b00>
   122cc:	0e410613          	addi	a2,sp,228
   122d0:	00048593          	mv	a1,s1
   122d4:	000a0513          	mv	a0,s4
   122d8:	7850f0ef          	jal	ra,2225c <__sprint_r>
   122dc:	a0051663          	bnez	a0,114e8 <_vfprintf_r+0xe80>
   122e0:	0ec12683          	lw	a3,236(sp)
   122e4:	000b0613          	mv	a2,s6
   122e8:	ea9ff06f          	j	12190 <_vfprintf_r+0x1b28>
   122ec:	0e410613          	addi	a2,sp,228
   122f0:	00048593          	mv	a1,s1
   122f4:	000a0513          	mv	a0,s4
   122f8:	7650f0ef          	jal	ra,2225c <__sprint_r>
   122fc:	9e051663          	bnez	a0,114e8 <_vfprintf_r+0xe80>
   12300:	000c4703          	lbu	a4,0(s8)
   12304:	0ec12683          	lw	a3,236(sp)
   12308:	000b0613          	mv	a2,s6
   1230c:	ec5ff06f          	j	121d0 <_vfprintf_r+0x1b68>
   12310:	04c12783          	lw	a5,76(sp)
   12314:	04812583          	lw	a1,72(sp)
   12318:	00000c13          	li	s8,0
   1231c:	40f484b3          	sub	s1,s1,a5
   12320:	00078613          	mv	a2,a5
   12324:	00048513          	mv	a0,s1
   12328:	4750a0ef          	jal	ra,1cf9c <strncpy>
   1232c:	00144703          	lbu	a4,1(s0)
   12330:	00a00613          	li	a2,10
   12334:	00000693          	li	a3,0
   12338:	00e03733          	snez	a4,a4
   1233c:	000d8513          	mv	a0,s11
   12340:	00090593          	mv	a1,s2
   12344:	00e40433          	add	s0,s0,a4
   12348:	414170ef          	jal	ra,2975c <__udivdi3>
   1234c:	ae9ff06f          	j	11e34 <_vfprintf_r+0x17cc>
   12350:	00812583          	lw	a1,8(sp)
   12354:	0e410613          	addi	a2,sp,228
   12358:	000a0513          	mv	a0,s4
   1235c:	7010f0ef          	jal	ra,2225c <__sprint_r>
   12360:	98051463          	bnez	a0,114e8 <_vfprintf_r+0xe80>
   12364:	0cc12503          	lw	a0,204(sp)
   12368:	0ec12683          	lw	a3,236(sp)
   1236c:	000b0413          	mv	s0,s6
   12370:	b75ff06f          	j	11ee4 <_vfprintf_r+0x187c>
   12374:	000307b7          	lui	a5,0x30
   12378:	11078c93          	addi	s9,a5,272 # 30110 <__clzsi2+0x98>
   1237c:	c3dff06f          	j	11fb8 <_vfprintf_r+0x1950>
   12380:	00812583          	lw	a1,8(sp)
   12384:	0e410613          	addi	a2,sp,228
   12388:	000a0513          	mv	a0,s4
   1238c:	6d10f0ef          	jal	ra,2225c <__sprint_r>
   12390:	94051c63          	bnez	a0,114e8 <_vfprintf_r+0xe80>
   12394:	0ec12683          	lw	a3,236(sp)
   12398:	000b0413          	mv	s0,s6
   1239c:	b98ff06f          	j	11734 <_vfprintf_r+0x10cc>
   123a0:	00600913          	li	s2,6
   123a4:	f84ff06f          	j	11b28 <_vfprintf_r+0x14c0>
   123a8:	41278933          	sub	s2,a5,s2
   123ac:	05012783          	lw	a5,80(sp)
   123b0:	419789b3          	sub	s3,a5,s9
   123b4:	c3395c63          	bge	s2,s3,117ec <_vfprintf_r+0x1184>
   123b8:	00090993          	mv	s3,s2
   123bc:	c30ff06f          	j	117ec <_vfprintf_r+0x1184>
   123c0:	01812783          	lw	a5,24(sp)
   123c4:	01012703          	lw	a4,16(sp)
   123c8:	0007a783          	lw	a5,0(a5)
   123cc:	00e79023          	sh	a4,0(a5)
   123d0:	d81fe06f          	j	11150 <_vfprintf_r+0xae8>
   123d4:	0ffdfd93          	zext.b	s11,s11
   123d8:	00000913          	li	s2,0
   123dc:	f88fe06f          	j	10b64 <_vfprintf_r+0x4fc>
   123e0:	018d9d93          	slli	s11,s11,0x18
   123e4:	418ddd93          	srai	s11,s11,0x18
   123e8:	41fdd913          	srai	s2,s11,0x1f
   123ec:	00090793          	mv	a5,s2
   123f0:	ef4fe06f          	j	10ae4 <_vfprintf_r+0x47c>
   123f4:	0ffdfd93          	zext.b	s11,s11
   123f8:	00000913          	li	s2,0
   123fc:	ea4ff06f          	j	11aa0 <_vfprintf_r+0x1438>
   12400:	02d00793          	li	a5,45
   12404:	0cf103a3          	sb	a5,199(sp)
   12408:	02d00693          	li	a3,45
   1240c:	cc1ff06f          	j	120cc <_vfprintf_r+0x1a64>
   12410:	00812583          	lw	a1,8(sp)
   12414:	03012503          	lw	a0,48(sp)
   12418:	0e410613          	addi	a2,sp,228
   1241c:	6410f0ef          	jal	ra,2225c <__sprint_r>
   12420:	da8fe06f          	j	109c8 <_vfprintf_r+0x360>
   12424:	00012a23          	sw	zero,20(sp)
   12428:	80000737          	lui	a4,0x80000
   1242c:	02d00793          	li	a5,45
   12430:	01b74db3          	xor	s11,a4,s11
   12434:	06f12023          	sw	a5,96(sp)
   12438:	fc0ff06f          	j	11bf8 <_vfprintf_r+0x1590>
   1243c:	00812583          	lw	a1,8(sp)
   12440:	0e410613          	addi	a2,sp,228
   12444:	000a0513          	mv	a0,s4
   12448:	6150f0ef          	jal	ra,2225c <__sprint_r>
   1244c:	88051e63          	bnez	a0,114e8 <_vfprintf_r+0xe80>
   12450:	0cc12503          	lw	a0,204(sp)
   12454:	0ec12683          	lw	a3,236(sp)
   12458:	0e812603          	lw	a2,232(sp)
   1245c:	000b0413          	mv	s0,s6
   12460:	bc9ff06f          	j	12028 <_vfprintf_r+0x19c0>
   12464:	00198593          	addi	a1,s3,1
   12468:	000a0513          	mv	a0,s4
   1246c:	01112a23          	sw	a7,20(sp)
   12470:	6dd070ef          	jal	ra,1a34c <_malloc_r>
   12474:	01412883          	lw	a7,20(sp)
   12478:	00050c93          	mv	s9,a0
   1247c:	2a0508e3          	beqz	a0,12f2c <_vfprintf_r+0x28c4>
   12480:	00a12a23          	sw	a0,20(sp)
   12484:	f54ff06f          	j	11bd8 <_vfprintf_r+0x1570>
   12488:	02812783          	lw	a5,40(sp)
   1248c:	0017f713          	andi	a4,a5,1
   12490:	000710e3          	bnez	a4,12c90 <_vfprintf_r+0x2628>
   12494:	0dc12c03          	lw	s8,220(sp)
   12498:	0cc12703          	lw	a4,204(sp)
   1249c:	419c07b3          	sub	a5,s8,s9
   124a0:	02f12223          	sw	a5,36(sp)
   124a4:	ffd00693          	li	a3,-3
   124a8:	02e12023          	sw	a4,32(sp)
   124ac:	00d74463          	blt	a4,a3,124b4 <_vfprintf_r+0x1e4c>
   124b0:	50e9d263          	bge	s3,a4,129b4 <_vfprintf_r+0x234c>
   124b4:	fff70d93          	addi	s11,a4,-1 # 7fffffff <__BSS_END__+0x7ffcd4a3>
   124b8:	ffe88893          	addi	a7,a7,-2
   124bc:	0db12623          	sw	s11,204(sp)
   124c0:	0ff8f693          	zext.b	a3,a7
   124c4:	00000613          	li	a2,0
   124c8:	0cd10a23          	sb	a3,212(sp)
   124cc:	02b00693          	li	a3,43
   124d0:	000dd863          	bgez	s11,124e0 <_vfprintf_r+0x1e78>
   124d4:	00100d93          	li	s11,1
   124d8:	40ed8db3          	sub	s11,s11,a4
   124dc:	02d00693          	li	a3,45
   124e0:	0cd10aa3          	sb	a3,213(sp)
   124e4:	00900713          	li	a4,9
   124e8:	6db75a63          	bge	a4,s11,12bbc <_vfprintf_r+0x2554>
   124ec:	0e310913          	addi	s2,sp,227
   124f0:	00090b93          	mv	s7,s2
   124f4:	06300993          	li	s3,99
   124f8:	00088c13          	mv	s8,a7
   124fc:	02812023          	sw	s0,32(sp)
   12500:	00a00593          	li	a1,10
   12504:	000d8513          	mv	a0,s11
   12508:	2d11d0ef          	jal	ra,2ffd8 <__modsi3>
   1250c:	03050793          	addi	a5,a0,48
   12510:	fefb8fa3          	sb	a5,-1(s7)
   12514:	000d8513          	mv	a0,s11
   12518:	00a00593          	li	a1,10
   1251c:	000d8413          	mv	s0,s11
   12520:	2351d0ef          	jal	ra,2ff54 <__divsi3>
   12524:	000b8a93          	mv	s5,s7
   12528:	00050d93          	mv	s11,a0
   1252c:	fffb8b93          	addi	s7,s7,-1
   12530:	fc89c8e3          	blt	s3,s0,12500 <_vfprintf_r+0x1e98>
   12534:	03050d93          	addi	s11,a0,48
   12538:	ffea8713          	addi	a4,s5,-2
   1253c:	ffbb8fa3          	sb	s11,-1(s7)
   12540:	02012403          	lw	s0,32(sp)
   12544:	000c0893          	mv	a7,s8
   12548:	1b277ae3          	bgeu	a4,s2,12efc <_vfprintf_r+0x2894>
   1254c:	0d610613          	addi	a2,sp,214
   12550:	00074783          	lbu	a5,0(a4)
   12554:	00170713          	addi	a4,a4,1
   12558:	00160613          	addi	a2,a2,1
   1255c:	fef60fa3          	sb	a5,-1(a2)
   12560:	ff2718e3          	bne	a4,s2,12550 <_vfprintf_r+0x1ee8>
   12564:	0e510713          	addi	a4,sp,229
   12568:	0d610793          	addi	a5,sp,214
   1256c:	41570733          	sub	a4,a4,s5
   12570:	00e78733          	add	a4,a5,a4
   12574:	0d410693          	addi	a3,sp,212
   12578:	40d707b3          	sub	a5,a4,a3
   1257c:	04f12223          	sw	a5,68(sp)
   12580:	04412683          	lw	a3,68(sp)
   12584:	02412783          	lw	a5,36(sp)
   12588:	00100713          	li	a4,1
   1258c:	00f68933          	add	s2,a3,a5
   12590:	74f75e63          	bge	a4,a5,12cec <_vfprintf_r+0x2684>
   12594:	03412783          	lw	a5,52(sp)
   12598:	00f90933          	add	s2,s2,a5
   1259c:	02812783          	lw	a5,40(sp)
   125a0:	fff94813          	not	a6,s2
   125a4:	41f85813          	srai	a6,a6,0x1f
   125a8:	bff7f713          	andi	a4,a5,-1025
   125ac:	10076c13          	ori	s8,a4,256
   125b0:	01097ab3          	and	s5,s2,a6
   125b4:	02012623          	sw	zero,44(sp)
   125b8:	02012423          	sw	zero,40(sp)
   125bc:	02012023          	sw	zero,32(sp)
   125c0:	06012783          	lw	a5,96(sp)
   125c4:	3c078e63          	beqz	a5,129a0 <_vfprintf_r+0x2338>
   125c8:	02d00693          	li	a3,45
   125cc:	0cd103a3          	sb	a3,199(sp)
   125d0:	00000993          	li	s3,0
   125d4:	001a8a93          	addi	s5,s5,1
   125d8:	abcfe06f          	j	10894 <_vfprintf_r+0x22c>
   125dc:	000c0593          	mv	a1,s8
   125e0:	00090513          	mv	a0,s2
   125e4:	05112823          	sw	a7,80(sp)
   125e8:	0be12823          	sw	t5,176(sp)
   125ec:	03e12623          	sw	t5,44(sp)
   125f0:	0bd12a23          	sw	t4,180(sp)
   125f4:	03d12223          	sw	t4,36(sp)
   125f8:	0bc12c23          	sw	t3,184(sp)
   125fc:	03c12023          	sw	t3,32(sp)
   12600:	04d12a23          	sw	a3,84(sp)
   12604:	0bb12e23          	sw	s11,188(sp)
   12608:	0a012023          	sw	zero,160(sp)
   1260c:	0a012223          	sw	zero,164(sp)
   12610:	0a012423          	sw	zero,168(sp)
   12614:	0a012623          	sw	zero,172(sp)
   12618:	17c1a0ef          	jal	ra,2c794 <__eqtf2>
   1261c:	02012e03          	lw	t3,32(sp)
   12620:	02412e83          	lw	t4,36(sp)
   12624:	02c12f03          	lw	t5,44(sp)
   12628:	05012883          	lw	a7,80(sp)
   1262c:	e8050663          	beqz	a0,11cb8 <_vfprintf_r+0x1650>
   12630:	05412683          	lw	a3,84(sp)
   12634:	00100593          	li	a1,1
   12638:	40d586b3          	sub	a3,a1,a3
   1263c:	0cd12623          	sw	a3,204(sp)
   12640:	e7cff06f          	j	11cbc <_vfprintf_r+0x1654>
   12644:	00198693          	addi	a3,s3,1
   12648:	00200613          	li	a2,2
   1264c:	de4ff06f          	j	11c30 <_vfprintf_r+0x15c8>
   12650:	00098693          	mv	a3,s3
   12654:	00300613          	li	a2,3
   12658:	dd8ff06f          	j	11c30 <_vfprintf_r+0x15c8>
   1265c:	0b010913          	addi	s2,sp,176
   12660:	00090513          	mv	a0,s2
   12664:	07112223          	sw	a7,100(sp)
   12668:	0be12823          	sw	t5,176(sp)
   1266c:	0bd12a23          	sw	t4,180(sp)
   12670:	0bc12c23          	sw	t3,184(sp)
   12674:	0bb12e23          	sw	s11,188(sp)
   12678:	4d81d0ef          	jal	ra,2fb50 <__trunctfdf2>
   1267c:	0cc10613          	addi	a2,sp,204
   12680:	2200a0ef          	jal	ra,1c8a0 <frexp>
   12684:	00058613          	mv	a2,a1
   12688:	00050593          	mv	a1,a0
   1268c:	00090513          	mv	a0,s2
   12690:	1281d0ef          	jal	ra,2f7b8 <__extenddftf2>
   12694:	0b012703          	lw	a4,176(sp)
   12698:	09010793          	addi	a5,sp,144
   1269c:	0a010c13          	addi	s8,sp,160
   126a0:	08e12823          	sw	a4,144(sp)
   126a4:	0b412703          	lw	a4,180(sp)
   126a8:	08010613          	addi	a2,sp,128
   126ac:	00078593          	mv	a1,a5
   126b0:	08e12a23          	sw	a4,148(sp)
   126b4:	0b812703          	lw	a4,184(sp)
   126b8:	000c0513          	mv	a0,s8
   126bc:	04f12a23          	sw	a5,84(sp)
   126c0:	08e12c23          	sw	a4,152(sp)
   126c4:	0bc12703          	lw	a4,188(sp)
   126c8:	04c12823          	sw	a2,80(sp)
   126cc:	08012023          	sw	zero,128(sp)
   126d0:	08e12e23          	sw	a4,156(sp)
   126d4:	3ffc0737          	lui	a4,0x3ffc0
   126d8:	08e12623          	sw	a4,140(sp)
   126dc:	08012223          	sw	zero,132(sp)
   126e0:	08012423          	sw	zero,136(sp)
   126e4:	44c1a0ef          	jal	ra,2cb30 <__multf3>
   126e8:	0a012683          	lw	a3,160(sp)
   126ec:	0a412803          	lw	a6,164(sp)
   126f0:	0a812e03          	lw	t3,168(sp)
   126f4:	0ac12e83          	lw	t4,172(sp)
   126f8:	000c0593          	mv	a1,s8
   126fc:	00090513          	mv	a0,s2
   12700:	0ad12823          	sw	a3,176(sp)
   12704:	04d12c23          	sw	a3,88(sp)
   12708:	0b012a23          	sw	a6,180(sp)
   1270c:	03012623          	sw	a6,44(sp)
   12710:	0bc12c23          	sw	t3,184(sp)
   12714:	03c12223          	sw	t3,36(sp)
   12718:	0bd12e23          	sw	t4,188(sp)
   1271c:	03d12023          	sw	t4,32(sp)
   12720:	0a012023          	sw	zero,160(sp)
   12724:	0a012223          	sw	zero,164(sp)
   12728:	0a012423          	sw	zero,168(sp)
   1272c:	0a012623          	sw	zero,172(sp)
   12730:	0641a0ef          	jal	ra,2c794 <__eqtf2>
   12734:	02012e83          	lw	t4,32(sp)
   12738:	02412e03          	lw	t3,36(sp)
   1273c:	02c12803          	lw	a6,44(sp)
   12740:	05812683          	lw	a3,88(sp)
   12744:	06412883          	lw	a7,100(sp)
   12748:	00051a63          	bnez	a0,1275c <_vfprintf_r+0x20f4>
   1274c:	00100713          	li	a4,1
   12750:	0ce12623          	sw	a4,204(sp)
   12754:	06100713          	li	a4,97
   12758:	68e88a63          	beq	a7,a4,12dec <_vfprintf_r+0x2784>
   1275c:	00030737          	lui	a4,0x30
   12760:	13470393          	addi	t2,a4,308 # 30134 <__clzsi2+0xbc>
   12764:	fff98b93          	addi	s7,s3,-1
   12768:	07312823          	sw	s3,112(sp)
   1276c:	06812a23          	sw	s0,116(sp)
   12770:	000c8993          	mv	s3,s9
   12774:	07412c23          	sw	s4,120(sp)
   12778:	07912e23          	sw	s9,124(sp)
   1277c:	06912223          	sw	s1,100(sp)
   12780:	07112423          	sw	a7,104(sp)
   12784:	07a12623          	sw	s10,108(sp)
   12788:	02712623          	sw	t2,44(sp)
   1278c:	00068a13          	mv	s4,a3
   12790:	00080a93          	mv	s5,a6
   12794:	000e0c93          	mv	s9,t3
   12798:	000e8413          	mv	s0,t4
   1279c:	04c0006f          	j	127e8 <_vfprintf_r+0x2180>
   127a0:	000c0593          	mv	a1,s8
   127a4:	00090513          	mv	a0,s2
   127a8:	02f12223          	sw	a5,36(sp)
   127ac:	02c12023          	sw	a2,32(sp)
   127b0:	0ac12c23          	sw	a2,184(sp)
   127b4:	0af12e23          	sw	a5,188(sp)
   127b8:	0a912823          	sw	s1,176(sp)
   127bc:	0ba12a23          	sw	s10,180(sp)
   127c0:	0a012023          	sw	zero,160(sp)
   127c4:	0a012223          	sw	zero,164(sp)
   127c8:	0a012423          	sw	zero,168(sp)
   127cc:	0a012623          	sw	zero,172(sp)
   127d0:	7c5190ef          	jal	ra,2c794 <__eqtf2>
   127d4:	fffb8593          	addi	a1,s7,-1
   127d8:	000c8613          	mv	a2,s9
   127dc:	00040793          	mv	a5,s0
   127e0:	4c050063          	beqz	a0,12ca0 <_vfprintf_r+0x2638>
   127e4:	00058b93          	mv	s7,a1
   127e8:	05412d03          	lw	s10,84(sp)
   127ec:	400307b7          	lui	a5,0x40030
   127f0:	000c0593          	mv	a1,s8
   127f4:	000d0613          	mv	a2,s10
   127f8:	00090513          	mv	a0,s2
   127fc:	08f12e23          	sw	a5,156(sp)
   12800:	0b412023          	sw	s4,160(sp)
   12804:	0b512223          	sw	s5,164(sp)
   12808:	0b912423          	sw	s9,168(sp)
   1280c:	0a812623          	sw	s0,172(sp)
   12810:	08012823          	sw	zero,144(sp)
   12814:	08012a23          	sw	zero,148(sp)
   12818:	08012c23          	sw	zero,152(sp)
   1281c:	3141a0ef          	jal	ra,2cb30 <__multf3>
   12820:	00090513          	mv	a0,s2
   12824:	42d1c0ef          	jal	ra,2f450 <__fixtfsi>
   12828:	00050593          	mv	a1,a0
   1282c:	00050d93          	mv	s11,a0
   12830:	00090513          	mv	a0,s2
   12834:	0b012a83          	lw	s5,176(sp)
   12838:	0b412a03          	lw	s4,180(sp)
   1283c:	0b812483          	lw	s1,184(sp)
   12840:	0bc12403          	lw	s0,188(sp)
   12844:	5011c0ef          	jal	ra,2f544 <__floatsitf>
   12848:	0b012783          	lw	a5,176(sp)
   1284c:	05012603          	lw	a2,80(sp)
   12850:	000d0593          	mv	a1,s10
   12854:	08f12023          	sw	a5,128(sp)
   12858:	0b412783          	lw	a5,180(sp)
   1285c:	000c0513          	mv	a0,s8
   12860:	09512823          	sw	s5,144(sp)
   12864:	08f12223          	sw	a5,132(sp)
   12868:	0b812783          	lw	a5,184(sp)
   1286c:	09412a23          	sw	s4,148(sp)
   12870:	08912c23          	sw	s1,152(sp)
   12874:	08f12423          	sw	a5,136(sp)
   12878:	0bc12783          	lw	a5,188(sp)
   1287c:	08812e23          	sw	s0,156(sp)
   12880:	08f12623          	sw	a5,140(sp)
   12884:	6d81b0ef          	jal	ra,2df5c <__subtf3>
   12888:	02c12783          	lw	a5,44(sp)
   1288c:	0a012483          	lw	s1,160(sp)
   12890:	0a412d03          	lw	s10,164(sp)
   12894:	01b787b3          	add	a5,a5,s11
   12898:	0007c683          	lbu	a3,0(a5) # 40030000 <__BSS_END__+0x3fffd4a4>
   1289c:	0a812603          	lw	a2,168(sp)
   128a0:	0ac12783          	lw	a5,172(sp)
   128a4:	05312c23          	sw	s3,88(sp)
   128a8:	00d98023          	sb	a3,0(s3)
   128ac:	fff00713          	li	a4,-1
   128b0:	00198993          	addi	s3,s3,1
   128b4:	00048a13          	mv	s4,s1
   128b8:	000d0a93          	mv	s5,s10
   128bc:	00060c93          	mv	s9,a2
   128c0:	00078413          	mv	s0,a5
   128c4:	eceb9ee3          	bne	s7,a4,127a0 <_vfprintf_r+0x2138>
   128c8:	00098a93          	mv	s5,s3
   128cc:	00048f93          	mv	t6,s1
   128d0:	000d0f13          	mv	t5,s10
   128d4:	06812883          	lw	a7,104(sp)
   128d8:	07412403          	lw	s0,116(sp)
   128dc:	07012983          	lw	s3,112(sp)
   128e0:	02c12383          	lw	t2,44(sp)
   128e4:	07812a03          	lw	s4,120(sp)
   128e8:	07c12c83          	lw	s9,124(sp)
   128ec:	06412483          	lw	s1,100(sp)
   128f0:	06c12d03          	lw	s10,108(sp)
   128f4:	fff00693          	li	a3,-1
   128f8:	3ffe0837          	lui	a6,0x3ffe0
   128fc:	000c0593          	mv	a1,s8
   12900:	00090513          	mv	a0,s2
   12904:	02712223          	sw	t2,36(sp)
   12908:	03112023          	sw	a7,32(sp)
   1290c:	06d12423          	sw	a3,104(sp)
   12910:	0bf12823          	sw	t6,176(sp)
   12914:	07f12223          	sw	t6,100(sp)
   12918:	0be12a23          	sw	t5,180(sp)
   1291c:	05e12a23          	sw	t5,84(sp)
   12920:	0ac12c23          	sw	a2,184(sp)
   12924:	04c12823          	sw	a2,80(sp)
   12928:	0af12e23          	sw	a5,188(sp)
   1292c:	02f12623          	sw	a5,44(sp)
   12930:	0a012023          	sw	zero,160(sp)
   12934:	0a012223          	sw	zero,164(sp)
   12938:	0a012423          	sw	zero,168(sp)
   1293c:	0b012623          	sw	a6,172(sp)
   12940:	729190ef          	jal	ra,2c868 <__getf2>
   12944:	02012883          	lw	a7,32(sp)
   12948:	02412383          	lw	t2,36(sp)
   1294c:	2ea04463          	bgtz	a0,12c34 <_vfprintf_r+0x25cc>
   12950:	000c0593          	mv	a1,s8
   12954:	00090513          	mv	a0,s2
   12958:	63d190ef          	jal	ra,2c794 <__eqtf2>
   1295c:	02012883          	lw	a7,32(sp)
   12960:	02412383          	lw	t2,36(sp)
   12964:	06812683          	lw	a3,104(sp)
   12968:	00051663          	bnez	a0,12974 <_vfprintf_r+0x230c>
   1296c:	001dfd93          	andi	s11,s11,1
   12970:	2c0d9263          	bnez	s11,12c34 <_vfprintf_r+0x25cc>
   12974:	00168c13          	addi	s8,a3,1
   12978:	018a8c33          	add	s8,s5,s8
   1297c:	03000613          	li	a2,48
   12980:	2e06ce63          	bltz	a3,12c7c <_vfprintf_r+0x2614>
   12984:	001a8a93          	addi	s5,s5,1
   12988:	feca8fa3          	sb	a2,-1(s5)
   1298c:	ff5c1ce3          	bne	s8,s5,12984 <_vfprintf_r+0x231c>
   12990:	419c07b3          	sub	a5,s8,s9
   12994:	02f12223          	sw	a5,36(sp)
   12998:	fdf8fa93          	andi	s5,a7,-33
   1299c:	b88ff06f          	j	11d24 <_vfprintf_r+0x16bc>
   129a0:	0c714683          	lbu	a3,199(sp)
   129a4:	00000993          	li	s3,0
   129a8:	00068463          	beqz	a3,129b0 <_vfprintf_r+0x2348>
   129ac:	988fe06f          	j	10b34 <_vfprintf_r+0x4cc>
   129b0:	ee5fd06f          	j	10894 <_vfprintf_r+0x22c>
   129b4:	02412783          	lw	a5,36(sp)
   129b8:	1af74463          	blt	a4,a5,12b60 <_vfprintf_r+0x24f8>
   129bc:	02812783          	lw	a5,40(sp)
   129c0:	00070913          	mv	s2,a4
   129c4:	0017f693          	andi	a3,a5,1
   129c8:	00068663          	beqz	a3,129d4 <_vfprintf_r+0x236c>
   129cc:	03412783          	lw	a5,52(sp)
   129d0:	00f70933          	add	s2,a4,a5
   129d4:	02812783          	lw	a5,40(sp)
   129d8:	4007f693          	andi	a3,a5,1024
   129dc:	00068463          	beqz	a3,129e4 <_vfprintf_r+0x237c>
   129e0:	40e04c63          	bgtz	a4,12df8 <_vfprintf_r+0x2790>
   129e4:	fff94813          	not	a6,s2
   129e8:	05c12c03          	lw	s8,92(sp)
   129ec:	41f85813          	srai	a6,a6,0x1f
   129f0:	01097ab3          	and	s5,s2,a6
   129f4:	06700893          	li	a7,103
   129f8:	02012623          	sw	zero,44(sp)
   129fc:	02012423          	sw	zero,40(sp)
   12a00:	bc1ff06f          	j	125c0 <_vfprintf_r+0x1f58>
   12a04:	00900713          	li	a4,9
   12a08:	c3b76663          	bltu	a4,s11,11e34 <_vfprintf_r+0x17cc>
   12a0c:	c70ff06f          	j	11e7c <_vfprintf_r+0x1814>
   12a10:	0e410613          	addi	a2,sp,228
   12a14:	00048593          	mv	a1,s1
   12a18:	000a0513          	mv	a0,s4
   12a1c:	0410f0ef          	jal	ra,2225c <__sprint_r>
   12a20:	00050463          	beqz	a0,12a28 <_vfprintf_r+0x23c0>
   12a24:	ac5fe06f          	j	114e8 <_vfprintf_r+0xe80>
   12a28:	000c4703          	lbu	a4,0(s8)
   12a2c:	0ec12683          	lw	a3,236(sp)
   12a30:	000b0613          	mv	a2,s6
   12a34:	00ec8cb3          	add	s9,s9,a4
   12a38:	fb0ff06f          	j	121e8 <_vfprintf_r+0x1b80>
   12a3c:	00812583          	lw	a1,8(sp)
   12a40:	0e410613          	addi	a2,sp,228
   12a44:	000a0513          	mv	a0,s4
   12a48:	0150f0ef          	jal	ra,2225c <__sprint_r>
   12a4c:	00050463          	beqz	a0,12a54 <_vfprintf_r+0x23ec>
   12a50:	a99fe06f          	j	114e8 <_vfprintf_r+0xe80>
   12a54:	0cc12903          	lw	s2,204(sp)
   12a58:	0ec12683          	lw	a3,236(sp)
   12a5c:	000b0413          	mv	s0,s6
   12a60:	d45fe06f          	j	117a4 <_vfprintf_r+0x113c>
   12a64:	02d00793          	li	a5,45
   12a68:	0cf103a3          	sb	a5,199(sp)
   12a6c:	02d00693          	li	a3,45
   12a70:	d38ff06f          	j	11fa8 <_vfprintf_r+0x1940>
   12a74:	0c714683          	lbu	a3,199(sp)
   12a78:	01712c23          	sw	s7,24(sp)
   12a7c:	02012623          	sw	zero,44(sp)
   12a80:	02012423          	sw	zero,40(sp)
   12a84:	02012023          	sw	zero,32(sp)
   12a88:	00098a93          	mv	s5,s3
   12a8c:	00098913          	mv	s2,s3
   12a90:	00000993          	li	s3,0
   12a94:	00068463          	beqz	a3,12a9c <_vfprintf_r+0x2434>
   12a98:	89cfe06f          	j	10b34 <_vfprintf_r+0x4cc>
   12a9c:	df9fd06f          	j	10894 <_vfprintf_r+0x22c>
   12aa0:	000307b7          	lui	a5,0x30
   12aa4:	11878c93          	addi	s9,a5,280 # 30118 <__clzsi2+0xa0>
   12aa8:	d10ff06f          	j	11fb8 <_vfprintf_r+0x1950>
   12aac:	00812583          	lw	a1,8(sp)
   12ab0:	0e410613          	addi	a2,sp,228
   12ab4:	000a0513          	mv	a0,s4
   12ab8:	7a40f0ef          	jal	ra,2225c <__sprint_r>
   12abc:	00050463          	beqz	a0,12ac4 <_vfprintf_r+0x245c>
   12ac0:	a29fe06f          	j	114e8 <_vfprintf_r+0xe80>
   12ac4:	0cc12903          	lw	s2,204(sp)
   12ac8:	02412783          	lw	a5,36(sp)
   12acc:	0ec12683          	lw	a3,236(sp)
   12ad0:	000b0413          	mv	s0,s6
   12ad4:	41278933          	sub	s2,a5,s2
   12ad8:	d15fe06f          	j	117ec <_vfprintf_r+0x1184>
   12adc:	000c0693          	mv	a3,s8
   12ae0:	ce4fe06f          	j	10fc4 <_vfprintf_r+0x95c>
   12ae4:	00030e37          	lui	t3,0x30
   12ae8:	ff000593          	li	a1,-16
   12aec:	40a00933          	neg	s2,a0
   12af0:	358e0b93          	addi	s7,t3,856 # 30358 <zeroes.0>
   12af4:	01000993          	li	s3,16
   12af8:	00700d93          	li	s11,7
   12afc:	00b54863          	blt	a0,a1,12b0c <_vfprintf_r+0x24a4>
   12b00:	0ec0006f          	j	12bec <_vfprintf_r+0x2584>
   12b04:	ff090913          	addi	s2,s2,-16
   12b08:	0f29d263          	bge	s3,s2,12bec <_vfprintf_r+0x2584>
   12b0c:	01068693          	addi	a3,a3,16
   12b10:	00160613          	addi	a2,a2,1
   12b14:	01742023          	sw	s7,0(s0)
   12b18:	01342223          	sw	s3,4(s0)
   12b1c:	0ed12623          	sw	a3,236(sp)
   12b20:	0ec12423          	sw	a2,232(sp)
   12b24:	00840413          	addi	s0,s0,8
   12b28:	fccddee3          	bge	s11,a2,12b04 <_vfprintf_r+0x249c>
   12b2c:	00812583          	lw	a1,8(sp)
   12b30:	0e410613          	addi	a2,sp,228
   12b34:	000a0513          	mv	a0,s4
   12b38:	7240f0ef          	jal	ra,2225c <__sprint_r>
   12b3c:	00050463          	beqz	a0,12b44 <_vfprintf_r+0x24dc>
   12b40:	9a9fe06f          	j	114e8 <_vfprintf_r+0xe80>
   12b44:	0ec12683          	lw	a3,236(sp)
   12b48:	0e812603          	lw	a2,232(sp)
   12b4c:	000b0413          	mv	s0,s6
   12b50:	fb5ff06f          	j	12b04 <_vfprintf_r+0x249c>
   12b54:	fff00793          	li	a5,-1
   12b58:	00f12823          	sw	a5,16(sp)
   12b5c:	e81fd06f          	j	109dc <_vfprintf_r+0x374>
   12b60:	02412783          	lw	a5,36(sp)
   12b64:	03412703          	lw	a4,52(sp)
   12b68:	06700893          	li	a7,103
   12b6c:	00e78933          	add	s2,a5,a4
   12b70:	02012783          	lw	a5,32(sp)
   12b74:	30f05863          	blez	a5,12e84 <_vfprintf_r+0x281c>
   12b78:	02812783          	lw	a5,40(sp)
   12b7c:	4007f713          	andi	a4,a5,1024
   12b80:	26071e63          	bnez	a4,12dfc <_vfprintf_r+0x2794>
   12b84:	fff94813          	not	a6,s2
   12b88:	41f85813          	srai	a6,a6,0x1f
   12b8c:	05c12c03          	lw	s8,92(sp)
   12b90:	01097ab3          	and	s5,s2,a6
   12b94:	e65ff06f          	j	129f8 <_vfprintf_r+0x2390>
   12b98:	02812783          	lw	a5,40(sp)
   12b9c:	0017f713          	andi	a4,a5,1
   12ba0:	02012783          	lw	a5,32(sp)
   12ba4:	01376733          	or	a4,a4,s3
   12ba8:	30f05c63          	blez	a5,12ec0 <_vfprintf_r+0x2858>
   12bac:	2e071a63          	bnez	a4,12ea0 <_vfprintf_r+0x2838>
   12bb0:	02012903          	lw	s2,32(sp)
   12bb4:	06600893          	li	a7,102
   12bb8:	fc1ff06f          	j	12b78 <_vfprintf_r+0x2510>
   12bbc:	0d610713          	addi	a4,sp,214
   12bc0:	00061863          	bnez	a2,12bd0 <_vfprintf_r+0x2568>
   12bc4:	03000713          	li	a4,48
   12bc8:	0ce10b23          	sb	a4,214(sp)
   12bcc:	0d710713          	addi	a4,sp,215
   12bd0:	1b010793          	addi	a5,sp,432
   12bd4:	40f706b3          	sub	a3,a4,a5
   12bd8:	030d8d93          	addi	s11,s11,48
   12bdc:	0dd68793          	addi	a5,a3,221
   12be0:	01b70023          	sb	s11,0(a4)
   12be4:	04f12223          	sw	a5,68(sp)
   12be8:	999ff06f          	j	12580 <_vfprintf_r+0x1f18>
   12bec:	012686b3          	add	a3,a3,s2
   12bf0:	00160613          	addi	a2,a2,1
   12bf4:	01742023          	sw	s7,0(s0)
   12bf8:	01242223          	sw	s2,4(s0)
   12bfc:	0ed12623          	sw	a3,236(sp)
   12c00:	0ec12423          	sw	a2,232(sp)
   12c04:	00700593          	li	a1,7
   12c08:	b2c5d063          	bge	a1,a2,11f28 <_vfprintf_r+0x18c0>
   12c0c:	00812583          	lw	a1,8(sp)
   12c10:	0e410613          	addi	a2,sp,228
   12c14:	000a0513          	mv	a0,s4
   12c18:	6440f0ef          	jal	ra,2225c <__sprint_r>
   12c1c:	00050463          	beqz	a0,12c24 <_vfprintf_r+0x25bc>
   12c20:	8c9fe06f          	j	114e8 <_vfprintf_r+0xe80>
   12c24:	0ec12683          	lw	a3,236(sp)
   12c28:	0e812603          	lw	a2,232(sp)
   12c2c:	000b0413          	mv	s0,s6
   12c30:	bfcff06f          	j	1202c <_vfprintf_r+0x19c4>
   12c34:	05812783          	lw	a5,88(sp)
   12c38:	00f3c583          	lbu	a1,15(t2)
   12c3c:	000a8693          	mv	a3,s5
   12c40:	0cf12e23          	sw	a5,220(sp)
   12c44:	fffac603          	lbu	a2,-1(s5)
   12c48:	02b61063          	bne	a2,a1,12c68 <_vfprintf_r+0x2600>
   12c4c:	03000513          	li	a0,48
   12c50:	fea68fa3          	sb	a0,-1(a3)
   12c54:	0dc12683          	lw	a3,220(sp)
   12c58:	fff68793          	addi	a5,a3,-1
   12c5c:	0cf12e23          	sw	a5,220(sp)
   12c60:	fff6c603          	lbu	a2,-1(a3)
   12c64:	fec586e3          	beq	a1,a2,12c50 <_vfprintf_r+0x25e8>
   12c68:	00160593          	addi	a1,a2,1
   12c6c:	03900513          	li	a0,57
   12c70:	0ff5f593          	zext.b	a1,a1
   12c74:	00a60863          	beq	a2,a0,12c84 <_vfprintf_r+0x261c>
   12c78:	feb68fa3          	sb	a1,-1(a3)
   12c7c:	000a8c13          	mv	s8,s5
   12c80:	d11ff06f          	j	12990 <_vfprintf_r+0x2328>
   12c84:	00a3c583          	lbu	a1,10(t2)
   12c88:	feb68fa3          	sb	a1,-1(a3)
   12c8c:	ff1ff06f          	j	12c7c <_vfprintf_r+0x2614>
   12c90:	00dc8bb3          	add	s7,s9,a3
   12c94:	04700a93          	li	s5,71
   12c98:	0a010c13          	addi	s8,sp,160
   12c9c:	824ff06f          	j	11cc0 <_vfprintf_r+0x1658>
   12ca0:	00098a93          	mv	s5,s3
   12ca4:	00048f93          	mv	t6,s1
   12ca8:	000d0f13          	mv	t5,s10
   12cac:	06812883          	lw	a7,104(sp)
   12cb0:	07412403          	lw	s0,116(sp)
   12cb4:	07012983          	lw	s3,112(sp)
   12cb8:	02c12383          	lw	t2,44(sp)
   12cbc:	07812a03          	lw	s4,120(sp)
   12cc0:	07c12c83          	lw	s9,124(sp)
   12cc4:	06412483          	lw	s1,100(sp)
   12cc8:	06c12d03          	lw	s10,108(sp)
   12ccc:	000b8693          	mv	a3,s7
   12cd0:	c29ff06f          	j	128f8 <_vfprintf_r+0x2290>
   12cd4:	00098463          	beqz	s3,12cdc <_vfprintf_r+0x2674>
   12cd8:	fb1fd06f          	j	10c88 <_vfprintf_r+0x620>
   12cdc:	00100993          	li	s3,1
   12ce0:	fa9fd06f          	j	10c88 <_vfprintf_r+0x620>
   12ce4:	00600993          	li	s3,6
   12ce8:	fa1fd06f          	j	10c88 <_vfprintf_r+0x620>
   12cec:	02812783          	lw	a5,40(sp)
   12cf0:	0017f713          	andi	a4,a5,1
   12cf4:	8a0704e3          	beqz	a4,1259c <_vfprintf_r+0x1f34>
   12cf8:	89dff06f          	j	12594 <_vfprintf_r+0x1f2c>
   12cfc:	0b010913          	addi	s2,sp,176
   12d00:	00090513          	mv	a0,s2
   12d04:	07112223          	sw	a7,100(sp)
   12d08:	0be12823          	sw	t5,176(sp)
   12d0c:	0bd12a23          	sw	t4,180(sp)
   12d10:	0bc12c23          	sw	t3,184(sp)
   12d14:	0bb12e23          	sw	s11,188(sp)
   12d18:	6391c0ef          	jal	ra,2fb50 <__trunctfdf2>
   12d1c:	0cc10613          	addi	a2,sp,204
   12d20:	381090ef          	jal	ra,1c8a0 <frexp>
   12d24:	00058613          	mv	a2,a1
   12d28:	00050593          	mv	a1,a0
   12d2c:	00090513          	mv	a0,s2
   12d30:	2891c0ef          	jal	ra,2f7b8 <__extenddftf2>
   12d34:	0b012703          	lw	a4,176(sp)
   12d38:	09010793          	addi	a5,sp,144
   12d3c:	0a010c13          	addi	s8,sp,160
   12d40:	08e12823          	sw	a4,144(sp)
   12d44:	0b412703          	lw	a4,180(sp)
   12d48:	08010613          	addi	a2,sp,128
   12d4c:	00078593          	mv	a1,a5
   12d50:	08e12a23          	sw	a4,148(sp)
   12d54:	0b812703          	lw	a4,184(sp)
   12d58:	000c0513          	mv	a0,s8
   12d5c:	04f12a23          	sw	a5,84(sp)
   12d60:	08e12c23          	sw	a4,152(sp)
   12d64:	0bc12703          	lw	a4,188(sp)
   12d68:	04c12823          	sw	a2,80(sp)
   12d6c:	08012023          	sw	zero,128(sp)
   12d70:	08e12e23          	sw	a4,156(sp)
   12d74:	3ffc0737          	lui	a4,0x3ffc0
   12d78:	08e12623          	sw	a4,140(sp)
   12d7c:	08012223          	sw	zero,132(sp)
   12d80:	08012423          	sw	zero,136(sp)
   12d84:	5ad190ef          	jal	ra,2cb30 <__multf3>
   12d88:	0a012683          	lw	a3,160(sp)
   12d8c:	0a412803          	lw	a6,164(sp)
   12d90:	0a812e03          	lw	t3,168(sp)
   12d94:	0ac12e83          	lw	t4,172(sp)
   12d98:	000c0593          	mv	a1,s8
   12d9c:	00090513          	mv	a0,s2
   12da0:	0ad12823          	sw	a3,176(sp)
   12da4:	04d12c23          	sw	a3,88(sp)
   12da8:	0b012a23          	sw	a6,180(sp)
   12dac:	03012623          	sw	a6,44(sp)
   12db0:	0bc12c23          	sw	t3,184(sp)
   12db4:	03c12223          	sw	t3,36(sp)
   12db8:	0bd12e23          	sw	t4,188(sp)
   12dbc:	03d12023          	sw	t4,32(sp)
   12dc0:	0a012023          	sw	zero,160(sp)
   12dc4:	0a012223          	sw	zero,164(sp)
   12dc8:	0a012423          	sw	zero,168(sp)
   12dcc:	0a012623          	sw	zero,172(sp)
   12dd0:	1c5190ef          	jal	ra,2c794 <__eqtf2>
   12dd4:	02012e83          	lw	t4,32(sp)
   12dd8:	02412e03          	lw	t3,36(sp)
   12ddc:	02c12803          	lw	a6,44(sp)
   12de0:	05812683          	lw	a3,88(sp)
   12de4:	06412883          	lw	a7,100(sp)
   12de8:	960502e3          	beqz	a0,1274c <_vfprintf_r+0x20e4>
   12dec:	00030737          	lui	a4,0x30
   12df0:	12070393          	addi	t2,a4,288 # 30120 <__clzsi2+0xa8>
   12df4:	971ff06f          	j	12764 <_vfprintf_r+0x20fc>
   12df8:	06700893          	li	a7,103
   12dfc:	04012603          	lw	a2,64(sp)
   12e00:	0ff00693          	li	a3,255
   12e04:	00064703          	lbu	a4,0(a2)
   12e08:	12d70c63          	beq	a4,a3,12f40 <_vfprintf_r+0x28d8>
   12e0c:	02012783          	lw	a5,32(sp)
   12e10:	00000513          	li	a0,0
   12e14:	00000593          	li	a1,0
   12e18:	00f75e63          	bge	a4,a5,12e34 <_vfprintf_r+0x27cc>
   12e1c:	40e787b3          	sub	a5,a5,a4
   12e20:	00164703          	lbu	a4,1(a2)
   12e24:	04070a63          	beqz	a4,12e78 <_vfprintf_r+0x2810>
   12e28:	00158593          	addi	a1,a1,1
   12e2c:	00160613          	addi	a2,a2,1
   12e30:	fed714e3          	bne	a4,a3,12e18 <_vfprintf_r+0x27b0>
   12e34:	04c12023          	sw	a2,64(sp)
   12e38:	02f12023          	sw	a5,32(sp)
   12e3c:	02b12423          	sw	a1,40(sp)
   12e40:	02a12623          	sw	a0,44(sp)
   12e44:	02c12783          	lw	a5,44(sp)
   12e48:	02812703          	lw	a4,40(sp)
   12e4c:	04c12583          	lw	a1,76(sp)
   12e50:	05112823          	sw	a7,80(sp)
   12e54:	00e78533          	add	a0,a5,a4
   12e58:	04c1d0ef          	jal	ra,2fea4 <__mulsi3>
   12e5c:	01250933          	add	s2,a0,s2
   12e60:	fff94813          	not	a6,s2
   12e64:	41f85813          	srai	a6,a6,0x1f
   12e68:	05c12c03          	lw	s8,92(sp)
   12e6c:	05012883          	lw	a7,80(sp)
   12e70:	01097ab3          	and	s5,s2,a6
   12e74:	f4cff06f          	j	125c0 <_vfprintf_r+0x1f58>
   12e78:	00064703          	lbu	a4,0(a2)
   12e7c:	00150513          	addi	a0,a0,1
   12e80:	fb1ff06f          	j	12e30 <_vfprintf_r+0x27c8>
   12e84:	40f90eb3          	sub	t4,s2,a5
   12e88:	001e8913          	addi	s2,t4,1
   12e8c:	fff94813          	not	a6,s2
   12e90:	41f85813          	srai	a6,a6,0x1f
   12e94:	05c12c03          	lw	s8,92(sp)
   12e98:	01097ab3          	and	s5,s2,a6
   12e9c:	b5dff06f          	j	129f8 <_vfprintf_r+0x2390>
   12ea0:	03412703          	lw	a4,52(sp)
   12ea4:	06600893          	li	a7,102
   12ea8:	00e78eb3          	add	t4,a5,a4
   12eac:	013e8933          	add	s2,t4,s3
   12eb0:	cc9ff06f          	j	12b78 <_vfprintf_r+0x2510>
   12eb4:	07000693          	li	a3,112
   12eb8:	00100613          	li	a2,1
   12ebc:	e0cff06f          	j	124c8 <_vfprintf_r+0x1e60>
   12ec0:	00071c63          	bnez	a4,12ed8 <_vfprintf_r+0x2870>
   12ec4:	05c12c03          	lw	s8,92(sp)
   12ec8:	00100a93          	li	s5,1
   12ecc:	06600893          	li	a7,102
   12ed0:	00100913          	li	s2,1
   12ed4:	b25ff06f          	j	129f8 <_vfprintf_r+0x2390>
   12ed8:	03412783          	lw	a5,52(sp)
   12edc:	05c12c03          	lw	s8,92(sp)
   12ee0:	06600893          	li	a7,102
   12ee4:	00178e93          	addi	t4,a5,1
   12ee8:	013e8933          	add	s2,t4,s3
   12eec:	fff94813          	not	a6,s2
   12ef0:	41f85813          	srai	a6,a6,0x1f
   12ef4:	01097ab3          	and	s5,s2,a6
   12ef8:	b01ff06f          	j	129f8 <_vfprintf_r+0x2390>
   12efc:	00200793          	li	a5,2
   12f00:	04f12223          	sw	a5,68(sp)
   12f04:	e7cff06f          	j	12580 <_vfprintf_r+0x1f18>
   12f08:	01812783          	lw	a5,24(sp)
   12f0c:	0007a983          	lw	s3,0(a5)
   12f10:	00478793          	addi	a5,a5,4
   12f14:	0009d463          	bgez	s3,12f1c <_vfprintf_r+0x28b4>
   12f18:	fff00993          	li	s3,-1
   12f1c:	0014c883          	lbu	a7,1(s1)
   12f20:	00f12c23          	sw	a5,24(sp)
   12f24:	00070493          	mv	s1,a4
   12f28:	8edfd06f          	j	10814 <_vfprintf_r+0x1ac>
   12f2c:	00812703          	lw	a4,8(sp)
   12f30:	00c75783          	lhu	a5,12(a4)
   12f34:	0407e793          	ori	a5,a5,64
   12f38:	00f71623          	sh	a5,12(a4)
   12f3c:	a8dfd06f          	j	109c8 <_vfprintf_r+0x360>
   12f40:	02012623          	sw	zero,44(sp)
   12f44:	02012423          	sw	zero,40(sp)
   12f48:	efdff06f          	j	12e44 <_vfprintf_r+0x27dc>

00012f4c <vfprintf>:
   12f4c:	00050793          	mv	a5,a0
   12f50:	2301a503          	lw	a0,560(gp) # 32af0 <_impure_ptr>
   12f54:	00060693          	mv	a3,a2
   12f58:	00058613          	mv	a2,a1
   12f5c:	00078593          	mv	a1,a5
   12f60:	f08fd06f          	j	10668 <_vfprintf_r>

00012f64 <__sbprintf>:
   12f64:	00c59783          	lh	a5,12(a1)
   12f68:	00e5d703          	lhu	a4,14(a1)
   12f6c:	0645a303          	lw	t1,100(a1)
   12f70:	ffd7f793          	andi	a5,a5,-3
   12f74:	01079793          	slli	a5,a5,0x10
   12f78:	01c5a883          	lw	a7,28(a1)
   12f7c:	0245a803          	lw	a6,36(a1)
   12f80:	01071713          	slli	a4,a4,0x10
   12f84:	0107d793          	srli	a5,a5,0x10
   12f88:	b8010113          	addi	sp,sp,-1152
   12f8c:	00e7e7b3          	or	a5,a5,a4
   12f90:	46812c23          	sw	s0,1144(sp)
   12f94:	40000713          	li	a4,1024
   12f98:	00f12a23          	sw	a5,20(sp)
   12f9c:	00058413          	mv	s0,a1
   12fa0:	07010793          	addi	a5,sp,112
   12fa4:	00810593          	addi	a1,sp,8
   12fa8:	46912a23          	sw	s1,1140(sp)
   12fac:	47212823          	sw	s2,1136(sp)
   12fb0:	46112e23          	sw	ra,1148(sp)
   12fb4:	00050913          	mv	s2,a0
   12fb8:	06612623          	sw	t1,108(sp)
   12fbc:	03112223          	sw	a7,36(sp)
   12fc0:	03012623          	sw	a6,44(sp)
   12fc4:	00f12423          	sw	a5,8(sp)
   12fc8:	00f12c23          	sw	a5,24(sp)
   12fcc:	00e12823          	sw	a4,16(sp)
   12fd0:	00e12e23          	sw	a4,28(sp)
   12fd4:	02012023          	sw	zero,32(sp)
   12fd8:	e90fd0ef          	jal	ra,10668 <_vfprintf_r>
   12fdc:	00050493          	mv	s1,a0
   12fe0:	02055c63          	bgez	a0,13018 <__sbprintf+0xb4>
   12fe4:	01415783          	lhu	a5,20(sp)
   12fe8:	0407f793          	andi	a5,a5,64
   12fec:	00078863          	beqz	a5,12ffc <__sbprintf+0x98>
   12ff0:	00c45783          	lhu	a5,12(s0)
   12ff4:	0407e793          	ori	a5,a5,64
   12ff8:	00f41623          	sh	a5,12(s0)
   12ffc:	47c12083          	lw	ra,1148(sp)
   13000:	47812403          	lw	s0,1144(sp)
   13004:	47012903          	lw	s2,1136(sp)
   13008:	00048513          	mv	a0,s1
   1300c:	47412483          	lw	s1,1140(sp)
   13010:	48010113          	addi	sp,sp,1152
   13014:	00008067          	ret
   13018:	00810593          	addi	a1,sp,8
   1301c:	00090513          	mv	a0,s2
   13020:	5dc030ef          	jal	ra,165fc <_fflush_r>
   13024:	fc0500e3          	beqz	a0,12fe4 <__sbprintf+0x80>
   13028:	fff00493          	li	s1,-1
   1302c:	fb9ff06f          	j	12fe4 <__sbprintf+0x80>

00013030 <__svfscanf_r>:
   13030:	ae010113          	addi	sp,sp,-1312
   13034:	50812c23          	sw	s0,1304(sp)
   13038:	4fa12823          	sw	s10,1264(sp)
   1303c:	50112e23          	sw	ra,1308(sp)
   13040:	50912a23          	sw	s1,1300(sp)
   13044:	51212823          	sw	s2,1296(sp)
   13048:	51312623          	sw	s3,1292(sp)
   1304c:	51412423          	sw	s4,1288(sp)
   13050:	51512223          	sw	s5,1284(sp)
   13054:	51612023          	sw	s6,1280(sp)
   13058:	4f712e23          	sw	s7,1276(sp)
   1305c:	4f812c23          	sw	s8,1272(sp)
   13060:	4f912a23          	sw	s9,1268(sp)
   13064:	4fb12623          	sw	s11,1260(sp)
   13068:	52010413          	addi	s0,sp,1312
   1306c:	00c59703          	lh	a4,12(a1)
   13070:	fffff7b7          	lui	a5,0xfffff
   13074:	b1c78793          	addi	a5,a5,-1252 # ffffeb1c <__BSS_END__+0xfffcbfc0>
   13078:	008787b3          	add	a5,a5,s0
   1307c:	fffff2b7          	lui	t0,0xfffff
   13080:	00068393          	mv	t2,a3
   13084:	00a7a023          	sw	a0,0(a5)
   13088:	01271693          	slli	a3,a4,0x12
   1308c:	00510133          	add	sp,sp,t0
   13090:	00058d13          	mv	s10,a1
   13094:	0206c263          	bltz	a3,130b8 <__svfscanf_r+0x88>
   13098:	0645a683          	lw	a3,100(a1)
   1309c:	000025b7          	lui	a1,0x2
   130a0:	00b76733          	or	a4,a4,a1
   130a4:	ffffe5b7          	lui	a1,0xffffe
   130a8:	fff58593          	addi	a1,a1,-1 # ffffdfff <__BSS_END__+0xfffcb4a3>
   130ac:	00b6f6b3          	and	a3,a3,a1
   130b0:	00ed1623          	sh	a4,12(s10)
   130b4:	06dd2223          	sw	a3,100(s10)
   130b8:	fffff6b7          	lui	a3,0xfffff
   130bc:	fc068793          	addi	a5,a3,-64 # ffffefc0 <__BSS_END__+0xfffcc464>
   130c0:	b1868693          	addi	a3,a3,-1256
   130c4:	008787b3          	add	a5,a5,s0
   130c8:	008686b3          	add	a3,a3,s0
   130cc:	00f6a023          	sw	a5,0(a3)
   130d0:	0006a783          	lw	a5,0(a3)
   130d4:	00064703          	lbu	a4,0(a2)
   130d8:	00160993          	addi	s3,a2,1
   130dc:	b6e7ae23          	sw	a4,-1156(a5)
   130e0:	fffff7b7          	lui	a5,0xfffff
   130e4:	00071463          	bnez	a4,130ec <__svfscanf_r+0xbc>
   130e8:	2410206f          	j	15b28 <__svfscanf_r+0x2af8>
   130ec:	afc78793          	addi	a5,a5,-1284 # ffffeafc <__BSS_END__+0xfffcbfa0>
   130f0:	008787b3          	add	a5,a5,s0
   130f4:	0007a023          	sw	zero,0(a5)
   130f8:	fffff7b7          	lui	a5,0xfffff
   130fc:	b1478793          	addi	a5,a5,-1260 # ffffeb14 <__BSS_END__+0xfffcbfb8>
   13100:	008787b3          	add	a5,a5,s0
   13104:	0007a023          	sw	zero,0(a5)
   13108:	fffff7b7          	lui	a5,0xfffff
   1310c:	b0078793          	addi	a5,a5,-1280 # ffffeb00 <__BSS_END__+0xfffcbfa4>
   13110:	008787b3          	add	a5,a5,s0
   13114:	0007a023          	sw	zero,0(a5)
   13118:	fffff7b7          	lui	a5,0xfffff
   1311c:	b1078793          	addi	a5,a5,-1264 # ffffeb10 <__BSS_END__+0xfffcbfb4>
   13120:	008787b3          	add	a5,a5,s0
   13124:	000306b7          	lui	a3,0x30
   13128:	0007a023          	sw	zero,0(a5)
   1312c:	38068793          	addi	a5,a3,896 # 30380 <blanks.1+0x18>
   13130:	fffff6b7          	lui	a3,0xfffff
   13134:	b0c68693          	addi	a3,a3,-1268 # ffffeb0c <__BSS_END__+0xfffcbfb0>
   13138:	008686b3          	add	a3,a3,s0
   1313c:	00f6a023          	sw	a5,0(a3)
   13140:	fffff7b7          	lui	a5,0xfffff
   13144:	b0878793          	addi	a5,a5,-1272 # ffffeb08 <__BSS_END__+0xfffcbfac>
   13148:	00000c93          	li	s9,0
   1314c:	00030937          	lui	s2,0x30
   13150:	008787b3          	add	a5,a5,s0
   13154:	000d0d93          	mv	s11,s10
   13158:	00000493          	li	s1,0
   1315c:	77190913          	addi	s2,s2,1905 # 30771 <_ctype_+0x1>
   13160:	000c8d13          	mv	s10,s9
   13164:	0077a023          	sw	t2,0(a5)
   13168:	00e906b3          	add	a3,s2,a4
   1316c:	0006c683          	lbu	a3,0(a3)
   13170:	0086f693          	andi	a3,a3,8
   13174:	0c069e63          	bnez	a3,13250 <__svfscanf_r+0x220>
   13178:	02500793          	li	a5,37
   1317c:	04f71463          	bne	a4,a5,131c4 <__svfscanf_r+0x194>
   13180:	0009c603          	lbu	a2,0(s3)
   13184:	00000a93          	li	s5,0
   13188:	00000a13          	li	s4,0
   1318c:	fdb60793          	addi	a5,a2,-37
   13190:	0ff7f793          	zext.b	a5,a5
   13194:	05500713          	li	a4,85
   13198:	00198e93          	addi	t4,s3,1
   1319c:	28f76663          	bltu	a4,a5,13428 <__svfscanf_r+0x3f8>
   131a0:	fffff737          	lui	a4,0xfffff
   131a4:	b0c70713          	addi	a4,a4,-1268 # ffffeb0c <__BSS_END__+0xfffcbfb0>
   131a8:	00870733          	add	a4,a4,s0
   131ac:	00072703          	lw	a4,0(a4)
   131b0:	00279793          	slli	a5,a5,0x2
   131b4:	00e787b3          	add	a5,a5,a4
   131b8:	0007a783          	lw	a5,0(a5)
   131bc:	00078067          	jr	a5
   131c0:	000e8993          	mv	s3,t4
   131c4:	004da703          	lw	a4,4(s11)
   131c8:	16e05a63          	blez	a4,1333c <__svfscanf_r+0x30c>
   131cc:	000da703          	lw	a4,0(s11)
   131d0:	fff9c683          	lbu	a3,-1(s3)
   131d4:	00074603          	lbu	a2,0(a4)
   131d8:	14d60263          	beq	a2,a3,1331c <__svfscanf_r+0x2ec>
   131dc:	fffff7b7          	lui	a5,0xfffff
   131e0:	b1478793          	addi	a5,a5,-1260 # ffffeb14 <__BSS_END__+0xfffcbfb8>
   131e4:	008787b3          	add	a5,a5,s0
   131e8:	0007a783          	lw	a5,0(a5)
   131ec:	10079663          	bnez	a5,132f8 <__svfscanf_r+0x2c8>
   131f0:	fffff7b7          	lui	a5,0xfffff
   131f4:	b1078793          	addi	a5,a5,-1264 # ffffeb10 <__BSS_END__+0xfffcbfb4>
   131f8:	fffff2b7          	lui	t0,0xfffff
   131fc:	008787b3          	add	a5,a5,s0
   13200:	ae028293          	addi	t0,t0,-1312 # ffffeae0 <__BSS_END__+0xfffcbf84>
   13204:	0007a503          	lw	a0,0(a5)
   13208:	00540133          	add	sp,s0,t0
   1320c:	000012b7          	lui	t0,0x1
   13210:	00510133          	add	sp,sp,t0
   13214:	51c12083          	lw	ra,1308(sp)
   13218:	51812403          	lw	s0,1304(sp)
   1321c:	51412483          	lw	s1,1300(sp)
   13220:	51012903          	lw	s2,1296(sp)
   13224:	50c12983          	lw	s3,1292(sp)
   13228:	50812a03          	lw	s4,1288(sp)
   1322c:	50412a83          	lw	s5,1284(sp)
   13230:	50012b03          	lw	s6,1280(sp)
   13234:	4fc12b83          	lw	s7,1276(sp)
   13238:	4f812c03          	lw	s8,1272(sp)
   1323c:	4f412c83          	lw	s9,1268(sp)
   13240:	4f012d03          	lw	s10,1264(sp)
   13244:	4ec12d83          	lw	s11,1260(sp)
   13248:	52010113          	addi	sp,sp,1312
   1324c:	00008067          	ret
   13250:	fffff7b7          	lui	a5,0xfffff
   13254:	004da703          	lw	a4,4(s11)
   13258:	b1c78793          	addi	a5,a5,-1252 # ffffeb1c <__BSS_END__+0xfffcbfc0>
   1325c:	008787b3          	add	a5,a5,s0
   13260:	0007aa03          	lw	s4,0(a5)
   13264:	02e05c63          	blez	a4,1329c <__svfscanf_r+0x26c>
   13268:	000da783          	lw	a5,0(s11)
   1326c:	0007c703          	lbu	a4,0(a5)
   13270:	00e90733          	add	a4,s2,a4
   13274:	00074703          	lbu	a4,0(a4)
   13278:	00877713          	andi	a4,a4,8
   1327c:	02070863          	beqz	a4,132ac <__svfscanf_r+0x27c>
   13280:	004da703          	lw	a4,4(s11)
   13284:	00178793          	addi	a5,a5,1
   13288:	00fda023          	sw	a5,0(s11)
   1328c:	fff70713          	addi	a4,a4,-1
   13290:	00eda223          	sw	a4,4(s11)
   13294:	001d0d13          	addi	s10,s10,1
   13298:	fce048e3          	bgtz	a4,13268 <__svfscanf_r+0x238>
   1329c:	000d8593          	mv	a1,s11
   132a0:	000a0513          	mv	a0,s4
   132a4:	434090ef          	jal	ra,1c6d8 <__srefill_r>
   132a8:	fc0500e3          	beqz	a0,13268 <__svfscanf_r+0x238>
   132ac:	00098e93          	mv	t4,s3
   132b0:	fffff7b7          	lui	a5,0xfffff
   132b4:	b1878793          	addi	a5,a5,-1256 # ffffeb18 <__BSS_END__+0xfffcbfbc>
   132b8:	008787b3          	add	a5,a5,s0
   132bc:	000ec703          	lbu	a4,0(t4)
   132c0:	0007a783          	lw	a5,0(a5)
   132c4:	001e8993          	addi	s3,t4,1
   132c8:	b6e7ae23          	sw	a4,-1156(a5)
   132cc:	e8071ee3          	bnez	a4,13168 <__svfscanf_r+0x138>
   132d0:	f0dff06f          	j	131dc <__svfscanf_r+0x1ac>
   132d4:	fffff7b7          	lui	a5,0xfffff
   132d8:	b1078793          	addi	a5,a5,-1264 # ffffeb10 <__BSS_END__+0xfffcbfb4>
   132dc:	008787b3          	add	a5,a5,s0
   132e0:	0007a783          	lw	a5,0(a5)
   132e4:	000d8d13          	mv	s10,s11
   132e8:	0a078663          	beqz	a5,13394 <__svfscanf_r+0x364>
   132ec:	00cd5783          	lhu	a5,12(s10)
   132f0:	0407f793          	andi	a5,a5,64
   132f4:	0a079063          	bnez	a5,13394 <__svfscanf_r+0x364>
   132f8:	fffff7b7          	lui	a5,0xfffff
   132fc:	b1478793          	addi	a5,a5,-1260 # ffffeb14 <__BSS_END__+0xfffcbfb8>
   13300:	008787b3          	add	a5,a5,s0
   13304:	0007a783          	lw	a5,0(a5)
   13308:	0007aa03          	lw	s4,0(a5)
   1330c:	ee0a02e3          	beqz	s4,131f0 <__svfscanf_r+0x1c0>
   13310:	000a0513          	mv	a0,s4
   13314:	02c070ef          	jal	ra,1a340 <free>
   13318:	ed9ff06f          	j	131f0 <__svfscanf_r+0x1c0>
   1331c:	004da683          	lw	a3,4(s11)
   13320:	00170713          	addi	a4,a4,1
   13324:	00eda023          	sw	a4,0(s11)
   13328:	fff68713          	addi	a4,a3,-1
   1332c:	00eda223          	sw	a4,4(s11)
   13330:	001d0d13          	addi	s10,s10,1
   13334:	00098e93          	mv	t4,s3
   13338:	f79ff06f          	j	132b0 <__svfscanf_r+0x280>
   1333c:	fffff7b7          	lui	a5,0xfffff
   13340:	b1c78793          	addi	a5,a5,-1252 # ffffeb1c <__BSS_END__+0xfffcbfc0>
   13344:	008787b3          	add	a5,a5,s0
   13348:	0007a503          	lw	a0,0(a5)
   1334c:	000d8593          	mv	a1,s11
   13350:	388090ef          	jal	ra,1c6d8 <__srefill_r>
   13354:	e6050ce3          	beqz	a0,131cc <__svfscanf_r+0x19c>
   13358:	000d8d13          	mv	s10,s11
   1335c:	fffff7b7          	lui	a5,0xfffff
   13360:	b1078793          	addi	a5,a5,-1264 # ffffeb10 <__BSS_END__+0xfffcbfb4>
   13364:	008787b3          	add	a5,a5,s0
   13368:	0007a783          	lw	a5,0(a5)
   1336c:	00078863          	beqz	a5,1337c <__svfscanf_r+0x34c>
   13370:	00cd5783          	lhu	a5,12(s10)
   13374:	0407f793          	andi	a5,a5,64
   13378:	e60782e3          	beqz	a5,131dc <__svfscanf_r+0x1ac>
   1337c:	fffff7b7          	lui	a5,0xfffff
   13380:	b1478793          	addi	a5,a5,-1260 # ffffeb14 <__BSS_END__+0xfffcbfb8>
   13384:	008787b3          	add	a5,a5,s0
   13388:	0007a783          	lw	a5,0(a5)
   1338c:	00079463          	bnez	a5,13394 <__svfscanf_r+0x364>
   13390:	4650206f          	j	15ff4 <__svfscanf_r+0x2fc4>
   13394:	fffff7b7          	lui	a5,0xfffff
   13398:	b1478793          	addi	a5,a5,-1260 # ffffeb14 <__BSS_END__+0xfffcbfb8>
   1339c:	008787b3          	add	a5,a5,s0
   133a0:	0007a783          	lw	a5,0(a5)
   133a4:	0067d983          	lhu	s3,6(a5)
   133a8:	0007aa03          	lw	s4,0(a5)
   133ac:	02098663          	beqz	s3,133d8 <__svfscanf_r+0x3a8>
   133b0:	000a0493          	mv	s1,s4
   133b4:	00000913          	li	s2,0
   133b8:	0004a783          	lw	a5,0(s1)
   133bc:	00448493          	addi	s1,s1,4
   133c0:	00190913          	addi	s2,s2,1
   133c4:	0007a503          	lw	a0,0(a5)
   133c8:	779060ef          	jal	ra,1a340 <free>
   133cc:	ffc4a783          	lw	a5,-4(s1)
   133d0:	0007a023          	sw	zero,0(a5)
   133d4:	ff2992e3          	bne	s3,s2,133b8 <__svfscanf_r+0x388>
   133d8:	fffff737          	lui	a4,0xfffff
   133dc:	b1070713          	addi	a4,a4,-1264 # ffffeb10 <__BSS_END__+0xfffcbfb4>
   133e0:	fff00793          	li	a5,-1
   133e4:	00870733          	add	a4,a4,s0
   133e8:	00f72023          	sw	a5,0(a4)
   133ec:	f21ff06f          	j	1330c <__svfscanf_r+0x2dc>
   133f0:	08faf793          	andi	a5,s5,143
   133f4:	de0794e3          	bnez	a5,131dc <__svfscanf_r+0x1ac>
   133f8:	002a1793          	slli	a5,s4,0x2
   133fc:	01478a33          	add	s4,a5,s4
   13400:	001a1a13          	slli	s4,s4,0x1
   13404:	00ca0a33          	add	s4,s4,a2
   13408:	fd0a0a13          	addi	s4,s4,-48
   1340c:	0019c603          	lbu	a2,1(s3)
   13410:	05500713          	li	a4,85
   13414:	000e8993          	mv	s3,t4
   13418:	fdb60793          	addi	a5,a2,-37
   1341c:	0ff7f793          	zext.b	a5,a5
   13420:	00198e93          	addi	t4,s3,1
   13424:	d6f77ee3          	bgeu	a4,a5,131a0 <__svfscanf_r+0x170>
   13428:	fffff7b7          	lui	a5,0xfffff
   1342c:	b1478793          	addi	a5,a5,-1260 # ffffeb14 <__BSS_END__+0xfffcbfb8>
   13430:	008787b3          	add	a5,a5,s0
   13434:	0007a783          	lw	a5,0(a5)
   13438:	da078ce3          	beqz	a5,131f0 <__svfscanf_r+0x1c0>
   1343c:	0007aa03          	lw	s4,0(a5)
   13440:	ecdff06f          	j	1330c <__svfscanf_r+0x2dc>
   13444:	00400993          	li	s3,4
   13448:	004da703          	lw	a4,4(s11)
   1344c:	38e05263          	blez	a4,137d0 <__svfscanf_r+0x7a0>
   13450:	040af713          	andi	a4,s5,64
   13454:	3c070063          	beqz	a4,13814 <__svfscanf_r+0x7e4>
   13458:	00300713          	li	a4,3
   1345c:	44e98663          	beq	s3,a4,138a8 <__svfscanf_r+0x878>
   13460:	00400713          	li	a4,4
   13464:	00e99463          	bne	s3,a4,1346c <__svfscanf_r+0x43c>
   13468:	0000106f          	j	14468 <__svfscanf_r+0x1438>
   1346c:	00100713          	li	a4,1
   13470:	3ce98ce3          	beq	s3,a4,14048 <__svfscanf_r+0x1018>
   13474:	00200713          	li	a4,2
   13478:	66e99663          	bne	s3,a4,13ae4 <__svfscanf_r+0xab4>
   1347c:	000a1463          	bnez	s4,13484 <__svfscanf_r+0x454>
   13480:	fff00a13          	li	s4,-1
   13484:	001af993          	andi	s3,s5,1
   13488:	010afb13          	andi	s6,s5,16
   1348c:	00099463          	bnez	s3,13494 <__svfscanf_r+0x464>
   13490:	7dc0106f          	j	14c6c <__svfscanf_r+0x1c3c>
   13494:	000b0463          	beqz	s6,1349c <__svfscanf_r+0x46c>
   13498:	2e00206f          	j	15778 <__svfscanf_r+0x2748>
   1349c:	fffff7b7          	lui	a5,0xfffff
   134a0:	b0878793          	addi	a5,a5,-1272 # ffffeb08 <__BSS_END__+0xfffcbfac>
   134a4:	008787b3          	add	a5,a5,s0
   134a8:	0007a783          	lw	a5,0(a5)
   134ac:	fffff737          	lui	a4,0xfffff
   134b0:	b0870713          	addi	a4,a4,-1272 # ffffeb08 <__BSS_END__+0xfffcbfac>
   134b4:	0007ab83          	lw	s7,0(a5)
   134b8:	00870733          	add	a4,a4,s0
   134bc:	00478793          	addi	a5,a5,4
   134c0:	080af893          	andi	a7,s5,128
   134c4:	00f72023          	sw	a5,0(a4)
   134c8:	00089463          	bnez	a7,134d0 <__svfscanf_r+0x4a0>
   134cc:	59c0206f          	j	15a68 <__svfscanf_r+0x2a38>
   134d0:	fffff7b7          	lui	a5,0xfffff
   134d4:	b0478793          	addi	a5,a5,-1276 # ffffeb04 <__BSS_END__+0xfffcbfa8>
   134d8:	008787b3          	add	a5,a5,s0
   134dc:	01d7a023          	sw	t4,0(a5)
   134e0:	ce0b8ee3          	beqz	s7,131dc <__svfscanf_r+0x1ac>
   134e4:	08000513          	li	a0,128
   134e8:	64d060ef          	jal	ra,1a334 <malloc>
   134ec:	fffff7b7          	lui	a5,0xfffff
   134f0:	b0478793          	addi	a5,a5,-1276 # ffffeb04 <__BSS_END__+0xfffcbfa8>
   134f4:	008787b3          	add	a5,a5,s0
   134f8:	0007ae83          	lw	t4,0(a5)
   134fc:	00050993          	mv	s3,a0
   13500:	e6050ee3          	beqz	a0,1337c <__svfscanf_r+0x34c>
   13504:	fffff7b7          	lui	a5,0xfffff
   13508:	b1478793          	addi	a5,a5,-1260 # ffffeb14 <__BSS_END__+0xfffcbfb8>
   1350c:	008787b3          	add	a5,a5,s0
   13510:	0007a783          	lw	a5,0(a5)
   13514:	00aba023          	sw	a0,0(s7)
   13518:	0067da83          	lhu	s5,6(a5)
   1351c:	0047d703          	lhu	a4,4(a5)
   13520:	00eae463          	bltu	s5,a4,13528 <__svfscanf_r+0x4f8>
   13524:	6090106f          	j	1532c <__svfscanf_r+0x22fc>
   13528:	0007a503          	lw	a0,0(a5)
   1352c:	fffff7b7          	lui	a5,0xfffff
   13530:	b1478793          	addi	a5,a5,-1260 # ffffeb14 <__BSS_END__+0xfffcbfb8>
   13534:	008787b3          	add	a5,a5,s0
   13538:	0007a783          	lw	a5,0(a5)
   1353c:	002a9713          	slli	a4,s5,0x2
   13540:	00e50533          	add	a0,a0,a4
   13544:	001a8a93          	addi	s5,s5,1
   13548:	01579323          	sh	s5,6(a5)
   1354c:	01752023          	sw	s7,0(a0)
   13550:	00098693          	mv	a3,s3
   13554:	02000793          	li	a5,32
   13558:	000da703          	lw	a4,0(s11)
   1355c:	00074703          	lbu	a4,0(a4)
   13560:	00e90733          	add	a4,s2,a4
   13564:	00074703          	lbu	a4,0(a4)
   13568:	00877713          	andi	a4,a4,8
   1356c:	1a071263          	bnez	a4,13710 <__svfscanf_r+0x6e0>
   13570:	fffff737          	lui	a4,0xfffff
   13574:	af870713          	addi	a4,a4,-1288 # ffffeaf8 <__BSS_END__+0xfffcbf9c>
   13578:	00870733          	add	a4,a4,s0
   1357c:	00048c13          	mv	s8,s1
   13580:	00000a93          	li	s5,0
   13584:	000d8493          	mv	s1,s11
   13588:	01d72023          	sw	t4,0(a4)
   1358c:	000b8d93          	mv	s11,s7
   13590:	00068c93          	mv	s9,a3
   13594:	000b0b93          	mv	s7,s6
   13598:	00078b13          	mv	s6,a5
   1359c:	295060ef          	jal	ra,1a030 <__locale_mb_cur_max>
   135a0:	01551463          	bne	a0,s5,135a8 <__svfscanf_r+0x578>
   135a4:	0e80206f          	j	1568c <__svfscanf_r+0x265c>
   135a8:	fffff637          	lui	a2,0xfffff
   135ac:	fc060793          	addi	a5,a2,-64 # ffffefc0 <__BSS_END__+0xfffcc464>
   135b0:	b0460613          	addi	a2,a2,-1276
   135b4:	0004a703          	lw	a4,0(s1)
   135b8:	00860633          	add	a2,a2,s0
   135bc:	008787b3          	add	a5,a5,s0
   135c0:	00f62023          	sw	a5,0(a2)
   135c4:	0044a683          	lw	a3,4(s1)
   135c8:	00062783          	lw	a5,0(a2)
   135cc:	00074583          	lbu	a1,0(a4)
   135d0:	fff68693          	addi	a3,a3,-1
   135d4:	01578633          	add	a2,a5,s5
   135d8:	00170713          	addi	a4,a4,1
   135dc:	00e4a023          	sw	a4,0(s1)
   135e0:	c8b60823          	sb	a1,-880(a2)
   135e4:	00d4a223          	sw	a3,4(s1)
   135e8:	00300713          	li	a4,3
   135ec:	001a8a93          	addi	s5,s5,1
   135f0:	02ec1063          	bne	s8,a4,13610 <__svfscanf_r+0x5e0>
   135f4:	fffff7b7          	lui	a5,0xfffff
   135f8:	b0478793          	addi	a5,a5,-1276 # ffffeb04 <__BSS_END__+0xfffcbfa8>
   135fc:	008787b3          	add	a5,a5,s0
   13600:	0007a783          	lw	a5,0(a5)
   13604:	b887a703          	lw	a4,-1144(a5)
   13608:	00400793          	li	a5,4
   1360c:	00f70e63          	beq	a4,a5,13628 <__svfscanf_r+0x5f8>
   13610:	fffff537          	lui	a0,0xfffff
   13614:	b4850793          	addi	a5,a0,-1208 # ffffeb48 <__BSS_END__+0xfffcbfec>
   13618:	00800613          	li	a2,8
   1361c:	00000593          	li	a1,0
   13620:	00878533          	add	a0,a5,s0
   13624:	e51fc0ef          	jal	ra,10474 <memset>
   13628:	fffff8b7          	lui	a7,0xfffff
   1362c:	b4888793          	addi	a5,a7,-1208 # ffffeb48 <__BSS_END__+0xfffcbfec>
   13630:	00878733          	add	a4,a5,s0
   13634:	c5088793          	addi	a5,a7,-944
   13638:	00878633          	add	a2,a5,s0
   1363c:	fffff7b7          	lui	a5,0xfffff
   13640:	b1c78793          	addi	a5,a5,-1252 # ffffeb1c <__BSS_END__+0xfffcbfc0>
   13644:	008787b3          	add	a5,a5,s0
   13648:	0007a503          	lw	a0,0(a5)
   1364c:	000a8693          	mv	a3,s5
   13650:	00098593          	mv	a1,s3
   13654:	46c070ef          	jal	ra,1aac0 <_mbrtowc_r>
   13658:	fffff7b7          	lui	a5,0xfffff
   1365c:	b0478793          	addi	a5,a5,-1276 # ffffeb04 <__BSS_END__+0xfffcbfa8>
   13660:	008787b3          	add	a5,a5,s0
   13664:	fff00713          	li	a4,-1
   13668:	0157a023          	sw	s5,0(a5)
   1366c:	00050c13          	mv	s8,a0
   13670:	00e51463          	bne	a0,a4,13678 <__svfscanf_r+0x648>
   13674:	0180206f          	j	1568c <__svfscanf_r+0x265c>
   13678:	00050463          	beqz	a0,13680 <__svfscanf_r+0x650>
   1367c:	3280206f          	j	159a4 <__svfscanf_r+0x2974>
   13680:	0009a023          	sw	zero,0(s3)
   13684:	445030ef          	jal	ra,172c8 <iswspace>
   13688:	00050463          	beqz	a0,13690 <__svfscanf_r+0x660>
   1368c:	7980206f          	j	15e24 <__svfscanf_r+0x2df4>
   13690:	015d0d33          	add	s10,s10,s5
   13694:	fffa0a13          	addi	s4,s4,-1
   13698:	000b8463          	beqz	s7,136a0 <__svfscanf_r+0x670>
   1369c:	36c0206f          	j	15a08 <__svfscanf_r+0x29d8>
   136a0:	00498993          	addi	s3,s3,4
   136a4:	000d9463          	bnez	s11,136ac <__svfscanf_r+0x67c>
   136a8:	3600206f          	j	15a08 <__svfscanf_r+0x29d8>
   136ac:	419987b3          	sub	a5,s3,s9
   136b0:	4027d713          	srai	a4,a5,0x2
   136b4:	00000a93          	li	s5,0
   136b8:	01676463          	bltu	a4,s6,136c0 <__svfscanf_r+0x690>
   136bc:	0690206f          	j	15f24 <__svfscanf_r+0x2ef4>
   136c0:	0044a703          	lw	a4,4(s1)
   136c4:	00e04463          	bgtz	a4,136cc <__svfscanf_r+0x69c>
   136c8:	6680206f          	j	15d30 <__svfscanf_r+0x2d00>
   136cc:	0004a703          	lw	a4,0(s1)
   136d0:	00074703          	lbu	a4,0(a4)
   136d4:	00e90733          	add	a4,s2,a4
   136d8:	00074703          	lbu	a4,0(a4)
   136dc:	00877713          	andi	a4,a4,8
   136e0:	00071463          	bnez	a4,136e8 <__svfscanf_r+0x6b8>
   136e4:	ea0a1ce3          	bnez	s4,1359c <__svfscanf_r+0x56c>
   136e8:	fffff7b7          	lui	a5,0xfffff
   136ec:	af878793          	addi	a5,a5,-1288 # ffffeaf8 <__BSS_END__+0xfffcbf9c>
   136f0:	008787b3          	add	a5,a5,s0
   136f4:	0007ae83          	lw	t4,0(a5)
   136f8:	000c8693          	mv	a3,s9
   136fc:	000b0793          	mv	a5,s6
   13700:	000b8b13          	mv	s6,s7
   13704:	000d8b93          	mv	s7,s11
   13708:	00048d93          	mv	s11,s1
   1370c:	000c0493          	mv	s1,s8
   13710:	ba0b10e3          	bnez	s6,132b0 <__svfscanf_r+0x280>
   13714:	0009a023          	sw	zero,0(s3)
   13718:	000b9463          	bnez	s7,13720 <__svfscanf_r+0x6f0>
   1371c:	5280106f          	j	14c44 <__svfscanf_r+0x1c14>
   13720:	40d985b3          	sub	a1,s3,a3
   13724:	4025d713          	srai	a4,a1,0x2
   13728:	00170713          	addi	a4,a4,1
   1372c:	00f76463          	bltu	a4,a5,13734 <__svfscanf_r+0x704>
   13730:	5140106f          	j	14c44 <__svfscanf_r+0x1c14>
   13734:	000ba503          	lw	a0,0(s7)
   13738:	fffff7b7          	lui	a5,0xfffff
   1373c:	b0478793          	addi	a5,a5,-1276 # ffffeb04 <__BSS_END__+0xfffcbfa8>
   13740:	008787b3          	add	a5,a5,s0
   13744:	00458593          	addi	a1,a1,4
   13748:	01d7a023          	sw	t4,0(a5)
   1374c:	209080ef          	jal	ra,1c154 <realloc>
   13750:	fffff7b7          	lui	a5,0xfffff
   13754:	b0478793          	addi	a5,a5,-1276 # ffffeb04 <__BSS_END__+0xfffcbfa8>
   13758:	008787b3          	add	a5,a5,s0
   1375c:	0007ae83          	lw	t4,0(a5)
   13760:	00051463          	bnez	a0,13768 <__svfscanf_r+0x738>
   13764:	4e00106f          	j	14c44 <__svfscanf_r+0x1c14>
   13768:	00aba023          	sw	a0,0(s7)
   1376c:	4d80106f          	j	14c44 <__svfscanf_r+0x1c14>
   13770:	00faf793          	andi	a5,s5,15
   13774:	a60794e3          	bnez	a5,131dc <__svfscanf_r+0x1ac>
   13778:	0019c603          	lbu	a2,1(s3)
   1377c:	002aea93          	ori	s5,s5,2
   13780:	000e8993          	mv	s3,t4
   13784:	a09ff06f          	j	1318c <__svfscanf_r+0x15c>
   13788:	00faf793          	andi	a5,s5,15
   1378c:	c80780e3          	beqz	a5,1340c <__svfscanf_r+0x3dc>
   13790:	a4dff06f          	j	131dc <__svfscanf_r+0x1ac>
   13794:	200aea93          	ori	s5,s5,512
   13798:	0001f737          	lui	a4,0x1f
   1379c:	32870793          	addi	a5,a4,808 # 1f328 <_strtoul_r>
   137a0:	fffff737          	lui	a4,0xfffff
   137a4:	afc70713          	addi	a4,a4,-1284 # ffffeafc <__BSS_END__+0xfffcbfa0>
   137a8:	00870733          	add	a4,a4,s0
   137ac:	00f72023          	sw	a5,0(a4)
   137b0:	01000793          	li	a5,16
   137b4:	fffff737          	lui	a4,0xfffff
   137b8:	b0070713          	addi	a4,a4,-1280 # ffffeb00 <__BSS_END__+0xfffcbfa4>
   137bc:	00870733          	add	a4,a4,s0
   137c0:	00f72023          	sw	a5,0(a4)
   137c4:	004da703          	lw	a4,4(s11)
   137c8:	00300993          	li	s3,3
   137cc:	c8e042e3          	bgtz	a4,13450 <__svfscanf_r+0x420>
   137d0:	fffff7b7          	lui	a5,0xfffff
   137d4:	b0478793          	addi	a5,a5,-1276 # ffffeb04 <__BSS_END__+0xfffcbfa8>
   137d8:	008787b3          	add	a5,a5,s0
   137dc:	01d7a023          	sw	t4,0(a5)
   137e0:	fffff7b7          	lui	a5,0xfffff
   137e4:	b1c78793          	addi	a5,a5,-1252 # ffffeb1c <__BSS_END__+0xfffcbfc0>
   137e8:	008787b3          	add	a5,a5,s0
   137ec:	0007a503          	lw	a0,0(a5)
   137f0:	000d8593          	mv	a1,s11
   137f4:	6e5080ef          	jal	ra,1c6d8 <__srefill_r>
   137f8:	fffff7b7          	lui	a5,0xfffff
   137fc:	b0478793          	addi	a5,a5,-1276 # ffffeb04 <__BSS_END__+0xfffcbfa8>
   13800:	008787b3          	add	a5,a5,s0
   13804:	0007ae83          	lw	t4,0(a5)
   13808:	b40518e3          	bnez	a0,13358 <__svfscanf_r+0x328>
   1380c:	040af713          	andi	a4,s5,64
   13810:	c40714e3          	bnez	a4,13458 <__svfscanf_r+0x428>
   13814:	000da603          	lw	a2,0(s11)
   13818:	00064703          	lbu	a4,0(a2)
   1381c:	00e90733          	add	a4,s2,a4
   13820:	00074703          	lbu	a4,0(a4)
   13824:	00877713          	andi	a4,a4,8
   13828:	c20708e3          	beqz	a4,13458 <__svfscanf_r+0x428>
   1382c:	fffff7b7          	lui	a5,0xfffff
   13830:	b1c78793          	addi	a5,a5,-1252 # ffffeb1c <__BSS_END__+0xfffcbfc0>
   13834:	008787b3          	add	a5,a5,s0
   13838:	0007ab03          	lw	s6,0(a5)
   1383c:	000e8b93          	mv	s7,t4
   13840:	0200006f          	j	13860 <__svfscanf_r+0x830>
   13844:	00160613          	addi	a2,a2,1
   13848:	00cda023          	sw	a2,0(s11)
   1384c:	00064783          	lbu	a5,0(a2)
   13850:	00f907b3          	add	a5,s2,a5
   13854:	0007c783          	lbu	a5,0(a5)
   13858:	0087f793          	andi	a5,a5,8
   1385c:	04078063          	beqz	a5,1389c <__svfscanf_r+0x86c>
   13860:	004da783          	lw	a5,4(s11)
   13864:	001d0d13          	addi	s10,s10,1
   13868:	fff78793          	addi	a5,a5,-1
   1386c:	00fda223          	sw	a5,4(s11)
   13870:	fcf04ae3          	bgtz	a5,13844 <__svfscanf_r+0x814>
   13874:	000d8593          	mv	a1,s11
   13878:	000b0513          	mv	a0,s6
   1387c:	65d080ef          	jal	ra,1c6d8 <__srefill_r>
   13880:	ac051ce3          	bnez	a0,13358 <__svfscanf_r+0x328>
   13884:	000da603          	lw	a2,0(s11)
   13888:	00064783          	lbu	a5,0(a2)
   1388c:	00f907b3          	add	a5,s2,a5
   13890:	0007c783          	lbu	a5,0(a5)
   13894:	0087f793          	andi	a5,a5,8
   13898:	fc0794e3          	bnez	a5,13860 <__svfscanf_r+0x830>
   1389c:	00300713          	li	a4,3
   138a0:	000b8e93          	mv	t4,s7
   138a4:	bae99ee3          	bne	s3,a4,13460 <__svfscanf_r+0x430>
   138a8:	00001637          	lui	a2,0x1
   138ac:	d8060b13          	addi	s6,a2,-640 # d80 <exit-0xf314>
   138b0:	fffa0713          	addi	a4,s4,-1
   138b4:	36c60593          	addi	a1,a2,876
   138b8:	016aeb33          	or	s6,s5,s6
   138bc:	00000c93          	li	s9,0
   138c0:	00e5fa63          	bgeu	a1,a4,138d4 <__svfscanf_r+0x8a4>
   138c4:	fffff7b7          	lui	a5,0xfffff
   138c8:	c9378793          	addi	a5,a5,-877 # ffffec93 <__BSS_END__+0xfffcc137>
   138cc:	00fa0cb3          	add	s9,s4,a5
   138d0:	36d60a13          	addi	s4,a2,877
   138d4:	fffffab7          	lui	s5,0xfffff
   138d8:	c50a8793          	addi	a5,s5,-944 # ffffec50 <__BSS_END__+0xfffcc0f4>
   138dc:	00878ab3          	add	s5,a5,s0
   138e0:	fffff7b7          	lui	a5,0xfffff
   138e4:	af878793          	addi	a5,a5,-1288 # ffffeaf8 <__BSS_END__+0xfffcbf9c>
   138e8:	008787b3          	add	a5,a5,s0
   138ec:	0197a023          	sw	s9,0(a5)
   138f0:	fffff7b7          	lui	a5,0xfffff
   138f4:	b0078793          	addi	a5,a5,-1280 # ffffeb00 <__BSS_END__+0xfffcbfa4>
   138f8:	008787b3          	add	a5,a5,s0
   138fc:	000d0613          	mv	a2,s10
   13900:	00048d13          	mv	s10,s1
   13904:	000a0493          	mv	s1,s4
   13908:	0007aa03          	lw	s4,0(a5)
   1390c:	00030bb7          	lui	s7,0x30
   13910:	00000993          	li	s3,0
   13914:	04d00c13          	li	s8,77
   13918:	4d8b8b93          	addi	s7,s7,1240 # 304d8 <blanks.1+0x170>
   1391c:	000e8c93          	mv	s9,t4
   13920:	000da703          	lw	a4,0(s11)
   13924:	00074683          	lbu	a3,0(a4)
   13928:	fd568793          	addi	a5,a3,-43
   1392c:	0ff7f793          	zext.b	a5,a5
   13930:	52fc6a63          	bltu	s8,a5,13e64 <__svfscanf_r+0xe34>
   13934:	00279793          	slli	a5,a5,0x2
   13938:	017787b3          	add	a5,a5,s7
   1393c:	0007a783          	lw	a5,0(a5)
   13940:	00078067          	jr	a5
   13944:	001aea93          	ori	s5,s5,1
   13948:	040aea93          	ori	s5,s5,64
   1394c:	00000993          	li	s3,0
   13950:	af9ff06f          	j	13448 <__svfscanf_r+0x418>
   13954:	001aea93          	ori	s5,s5,1
   13958:	00200993          	li	s3,2
   1395c:	aedff06f          	j	13448 <__svfscanf_r+0x418>
   13960:	001aea93          	ori	s5,s5,1
   13964:	0001f737          	lui	a4,0x1f
   13968:	af870793          	addi	a5,a4,-1288 # 1eaf8 <_strtol_r>
   1396c:	fffff737          	lui	a4,0xfffff
   13970:	afc70713          	addi	a4,a4,-1284 # ffffeafc <__BSS_END__+0xfffcbfa0>
   13974:	00870733          	add	a4,a4,s0
   13978:	00f72023          	sw	a5,0(a4)
   1397c:	00a00793          	li	a5,10
   13980:	e35ff06f          	j	137b4 <__svfscanf_r+0x784>
   13984:	001aea93          	ori	s5,s5,1
   13988:	0001f737          	lui	a4,0x1f
   1398c:	32870793          	addi	a5,a4,808 # 1f328 <_strtoul_r>
   13990:	fffff737          	lui	a4,0xfffff
   13994:	afc70713          	addi	a4,a4,-1284 # ffffeafc <__BSS_END__+0xfffcbfa0>
   13998:	00870733          	add	a4,a4,s0
   1399c:	00f72023          	sw	a5,0(a4)
   139a0:	00800793          	li	a5,8
   139a4:	e11ff06f          	j	137b4 <__svfscanf_r+0x784>
   139a8:	0001f737          	lui	a4,0x1f
   139ac:	af870793          	addi	a5,a4,-1288 # 1eaf8 <_strtol_r>
   139b0:	fffff737          	lui	a4,0xfffff
   139b4:	afc70713          	addi	a4,a4,-1284 # ffffeafc <__BSS_END__+0xfffcbfa0>
   139b8:	00870733          	add	a4,a4,s0
   139bc:	00f72023          	sw	a5,0(a4)
   139c0:	fffff7b7          	lui	a5,0xfffff
   139c4:	b0078793          	addi	a5,a5,-1280 # ffffeb00 <__BSS_END__+0xfffcbfa4>
   139c8:	008787b3          	add	a5,a5,s0
   139cc:	0007a023          	sw	zero,0(a5)
   139d0:	00300993          	li	s3,3
   139d4:	a75ff06f          	j	13448 <__svfscanf_r+0x418>
   139d8:	00faf793          	andi	a5,s5,15
   139dc:	800790e3          	bnez	a5,131dc <__svfscanf_r+0x1ac>
   139e0:	0019c603          	lbu	a2,1(s3)
   139e4:	06800793          	li	a5,104
   139e8:	00f61463          	bne	a2,a5,139f0 <__svfscanf_r+0x9c0>
   139ec:	7390106f          	j	15924 <__svfscanf_r+0x28f4>
   139f0:	004aea93          	ori	s5,s5,4
   139f4:	000e8993          	mv	s3,t4
   139f8:	f94ff06f          	j	1318c <__svfscanf_r+0x15c>
   139fc:	fffff537          	lui	a0,0xfffff
   13a00:	b5050793          	addi	a5,a0,-1200 # ffffeb50 <__BSS_END__+0xfffcbff4>
   13a04:	000e8593          	mv	a1,t4
   13a08:	00878533          	add	a0,a5,s0
   13a0c:	799080ef          	jal	ra,1c9a4 <__sccl>
   13a10:	00050e93          	mv	t4,a0
   13a14:	040aea93          	ori	s5,s5,64
   13a18:	00100993          	li	s3,1
   13a1c:	a2dff06f          	j	13448 <__svfscanf_r+0x418>
   13a20:	00faf793          	andi	a5,s5,15
   13a24:	fa079c63          	bnez	a5,131dc <__svfscanf_r+0x1ac>
   13a28:	0019c603          	lbu	a2,1(s3)
   13a2c:	06c00793          	li	a5,108
   13a30:	00f61463          	bne	a2,a5,13a38 <__svfscanf_r+0xa08>
   13a34:	7010106f          	j	15934 <__svfscanf_r+0x2904>
   13a38:	001aea93          	ori	s5,s5,1
   13a3c:	000e8993          	mv	s3,t4
   13a40:	f4cff06f          	j	1318c <__svfscanf_r+0x15c>
   13a44:	08faf793          	andi	a5,s5,143
   13a48:	f8079a63          	bnez	a5,131dc <__svfscanf_r+0x1ac>
   13a4c:	fffff7b7          	lui	a5,0xfffff
   13a50:	b1478793          	addi	a5,a5,-1260 # ffffeb14 <__BSS_END__+0xfffcbfb8>
   13a54:	008787b3          	add	a5,a5,s0
   13a58:	0007a783          	lw	a5,0(a5)
   13a5c:	00079463          	bnez	a5,13a64 <__svfscanf_r+0xa34>
   13a60:	6f50106f          	j	15954 <__svfscanf_r+0x2924>
   13a64:	0019c603          	lbu	a2,1(s3)
   13a68:	080aea93          	ori	s5,s5,128
   13a6c:	000e8993          	mv	s3,t4
   13a70:	f1cff06f          	j	1318c <__svfscanf_r+0x15c>
   13a74:	010af713          	andi	a4,s5,16
   13a78:	82071ce3          	bnez	a4,132b0 <__svfscanf_r+0x280>
   13a7c:	fffff7b7          	lui	a5,0xfffff
   13a80:	b0878793          	addi	a5,a5,-1272 # ffffeb08 <__BSS_END__+0xfffcbfac>
   13a84:	008787b3          	add	a5,a5,s0
   13a88:	0007a783          	lw	a5,0(a5)
   13a8c:	fffff637          	lui	a2,0xfffff
   13a90:	b0860613          	addi	a2,a2,-1272 # ffffeb08 <__BSS_END__+0xfffcbfac>
   13a94:	0007a683          	lw	a3,0(a5)
   13a98:	00860633          	add	a2,a2,s0
   13a9c:	00478793          	addi	a5,a5,4
   13aa0:	008af713          	andi	a4,s5,8
   13aa4:	00f62023          	sw	a5,0(a2)
   13aa8:	00071463          	bnez	a4,13ab0 <__svfscanf_r+0xa80>
   13aac:	7d10106f          	j	15a7c <__svfscanf_r+0x2a4c>
   13ab0:	01a68023          	sb	s10,0(a3)
   13ab4:	ffcff06f          	j	132b0 <__svfscanf_r+0x280>
   13ab8:	0001f737          	lui	a4,0x1f
   13abc:	32870793          	addi	a5,a4,808 # 1f328 <_strtoul_r>
   13ac0:	eadff06f          	j	1396c <__svfscanf_r+0x93c>
   13ac4:	220aea93          	ori	s5,s5,544
   13ac8:	cd1ff06f          	j	13798 <__svfscanf_r+0x768>
   13acc:	015a6a33          	or	s4,s4,s5
   13ad0:	f00a1663          	bnez	s4,131dc <__svfscanf_r+0x1ac>
   13ad4:	0019c603          	lbu	a2,1(s3)
   13ad8:	01000a93          	li	s5,16
   13adc:	000e8993          	mv	s3,t4
   13ae0:	eacff06f          	j	1318c <__svfscanf_r+0x15c>
   13ae4:	000a1463          	bnez	s4,13aec <__svfscanf_r+0xabc>
   13ae8:	00100a13          	li	s4,1
   13aec:	001af713          	andi	a4,s5,1
   13af0:	010af313          	andi	t1,s5,16
   13af4:	00071463          	bnez	a4,13afc <__svfscanf_r+0xacc>
   13af8:	03c0106f          	j	14b34 <__svfscanf_r+0x1b04>
   13afc:	00030463          	beqz	t1,13b04 <__svfscanf_r+0xad4>
   13b00:	56d0106f          	j	1586c <__svfscanf_r+0x283c>
   13b04:	fffff7b7          	lui	a5,0xfffff
   13b08:	b0878793          	addi	a5,a5,-1272 # ffffeb08 <__BSS_END__+0xfffcbfac>
   13b0c:	008787b3          	add	a5,a5,s0
   13b10:	0007a783          	lw	a5,0(a5)
   13b14:	fffff737          	lui	a4,0xfffff
   13b18:	b0870713          	addi	a4,a4,-1272 # ffffeb08 <__BSS_END__+0xfffcbfac>
   13b1c:	0007ae03          	lw	t3,0(a5)
   13b20:	00870733          	add	a4,a4,s0
   13b24:	00478793          	addi	a5,a5,4
   13b28:	080af893          	andi	a7,s5,128
   13b2c:	00f72023          	sw	a5,0(a4)
   13b30:	00089463          	bnez	a7,13b38 <__svfscanf_r+0xb08>
   13b34:	7210106f          	j	15a54 <__svfscanf_r+0x2a24>
   13b38:	fffff7b7          	lui	a5,0xfffff
   13b3c:	af478793          	addi	a5,a5,-1292 # ffffeaf4 <__BSS_END__+0xfffcbf98>
   13b40:	008787b3          	add	a5,a5,s0
   13b44:	0067a023          	sw	t1,0(a5)
   13b48:	fffff7b7          	lui	a5,0xfffff
   13b4c:	af878793          	addi	a5,a5,-1288 # ffffeaf8 <__BSS_END__+0xfffcbf9c>
   13b50:	008787b3          	add	a5,a5,s0
   13b54:	01d7a023          	sw	t4,0(a5)
   13b58:	fffff7b7          	lui	a5,0xfffff
   13b5c:	b0478793          	addi	a5,a5,-1276 # ffffeb04 <__BSS_END__+0xfffcbfa8>
   13b60:	008787b3          	add	a5,a5,s0
   13b64:	01c7a023          	sw	t3,0(a5)
   13b68:	e60e0a63          	beqz	t3,131dc <__svfscanf_r+0x1ac>
   13b6c:	08000513          	li	a0,128
   13b70:	7c4060ef          	jal	ra,1a334 <malloc>
   13b74:	fffff7b7          	lui	a5,0xfffff
   13b78:	b0478793          	addi	a5,a5,-1276 # ffffeb04 <__BSS_END__+0xfffcbfa8>
   13b7c:	008787b3          	add	a5,a5,s0
   13b80:	0007ae03          	lw	t3,0(a5)
   13b84:	fffff7b7          	lui	a5,0xfffff
   13b88:	af878793          	addi	a5,a5,-1288 # ffffeaf8 <__BSS_END__+0xfffcbf9c>
   13b8c:	008787b3          	add	a5,a5,s0
   13b90:	0007ae83          	lw	t4,0(a5)
   13b94:	fffff7b7          	lui	a5,0xfffff
   13b98:	af478793          	addi	a5,a5,-1292 # ffffeaf4 <__BSS_END__+0xfffcbf98>
   13b9c:	008787b3          	add	a5,a5,s0
   13ba0:	0007a303          	lw	t1,0(a5)
   13ba4:	00050893          	mv	a7,a0
   13ba8:	fc050a63          	beqz	a0,1337c <__svfscanf_r+0x34c>
   13bac:	fffff7b7          	lui	a5,0xfffff
   13bb0:	b1478793          	addi	a5,a5,-1260 # ffffeb14 <__BSS_END__+0xfffcbfb8>
   13bb4:	008787b3          	add	a5,a5,s0
   13bb8:	0007a783          	lw	a5,0(a5)
   13bbc:	00ae2023          	sw	a0,0(t3)
   13bc0:	0067d983          	lhu	s3,6(a5)
   13bc4:	0047d703          	lhu	a4,4(a5)
   13bc8:	00e9e463          	bltu	s3,a4,13bd0 <__svfscanf_r+0xba0>
   13bcc:	6940106f          	j	15260 <__svfscanf_r+0x2230>
   13bd0:	0007a503          	lw	a0,0(a5)
   13bd4:	fffff7b7          	lui	a5,0xfffff
   13bd8:	b1478793          	addi	a5,a5,-1260 # ffffeb14 <__BSS_END__+0xfffcbfb8>
   13bdc:	008787b3          	add	a5,a5,s0
   13be0:	0007a783          	lw	a5,0(a5)
   13be4:	00299713          	slli	a4,s3,0x2
   13be8:	00e50533          	add	a0,a0,a4
   13bec:	00198993          	addi	s3,s3,1
   13bf0:	01379323          	sh	s3,6(a5)
   13bf4:	01c52023          	sw	t3,0(a0)
   13bf8:	00088a93          	mv	s5,a7
   13bfc:	02000c93          	li	s9,32
   13c00:	fffffb37          	lui	s6,0xfffff
   13c04:	b88b0b93          	addi	s7,s6,-1144 # ffffeb88 <__BSS_END__+0xfffcc02c>
   13c08:	fc0b0713          	addi	a4,s6,-64
   13c0c:	c90b0793          	addi	a5,s6,-880
   13c10:	00870b33          	add	s6,a4,s0
   13c14:	fc0b8713          	addi	a4,s7,-64
   13c18:	00870bb3          	add	s7,a4,s0
   13c1c:	fffff737          	lui	a4,0xfffff
   13c20:	fc078793          	addi	a5,a5,-64
   13c24:	b0470713          	addi	a4,a4,-1276 # ffffeb04 <__BSS_END__+0xfffcbfa8>
   13c28:	008787b3          	add	a5,a5,s0
   13c2c:	00870733          	add	a4,a4,s0
   13c30:	00f72023          	sw	a5,0(a4)
   13c34:	fffff7b7          	lui	a5,0xfffff
   13c38:	aec78793          	addi	a5,a5,-1300 # ffffeaec <__BSS_END__+0xfffcbf90>
   13c3c:	008787b3          	add	a5,a5,s0
   13c40:	01d7a023          	sw	t4,0(a5)
   13c44:	fffff7b7          	lui	a5,0xfffff
   13c48:	af478793          	addi	a5,a5,-1292 # ffffeaf4 <__BSS_END__+0xfffcbf98>
   13c4c:	008787b3          	add	a5,a5,s0
   13c50:	01c7a023          	sw	t3,0(a5)
   13c54:	fffff7b7          	lui	a5,0xfffff
   13c58:	af078793          	addi	a5,a5,-1296 # ffffeaf0 <__BSS_END__+0xfffcbf94>
   13c5c:	008787b3          	add	a5,a5,s0
   13c60:	0117a023          	sw	a7,0(a5)
   13c64:	fffff7b7          	lui	a5,0xfffff
   13c68:	af878793          	addi	a5,a5,-1288 # ffffeaf8 <__BSS_END__+0xfffcbf9c>
   13c6c:	008787b3          	add	a5,a5,s0
   13c70:	0197a023          	sw	s9,0(a5)
   13c74:	000d8793          	mv	a5,s11
   13c78:	00000993          	li	s3,0
   13c7c:	00048d93          	mv	s11,s1
   13c80:	00300c13          	li	s8,3
   13c84:	00030c93          	mv	s9,t1
   13c88:	00078493          	mv	s1,a5
   13c8c:	3a4060ef          	jal	ra,1a030 <__locale_mb_cur_max>
   13c90:	01351463          	bne	a0,s3,13c98 <__svfscanf_r+0xc68>
   13c94:	1f90106f          	j	1568c <__svfscanf_r+0x265c>
   13c98:	0004a703          	lw	a4,0(s1)
   13c9c:	0044a683          	lw	a3,4(s1)
   13ca0:	013b0633          	add	a2,s6,s3
   13ca4:	00074583          	lbu	a1,0(a4)
   13ca8:	fff68693          	addi	a3,a3,-1
   13cac:	00170713          	addi	a4,a4,1
   13cb0:	c8b60823          	sb	a1,-880(a2)
   13cb4:	00d4a223          	sw	a3,4(s1)
   13cb8:	00e4a023          	sw	a4,0(s1)
   13cbc:	00198993          	addi	s3,s3,1
   13cc0:	018d9863          	bne	s11,s8,13cd0 <__svfscanf_r+0xca0>
   13cc4:	b88b2783          	lw	a5,-1144(s6)
   13cc8:	00400713          	li	a4,4
   13ccc:	00e78a63          	beq	a5,a4,13ce0 <__svfscanf_r+0xcb0>
   13cd0:	00800613          	li	a2,8
   13cd4:	00000593          	li	a1,0
   13cd8:	000b8513          	mv	a0,s7
   13cdc:	f98fc0ef          	jal	ra,10474 <memset>
   13ce0:	fffff7b7          	lui	a5,0xfffff
   13ce4:	b0478793          	addi	a5,a5,-1276 # ffffeb04 <__BSS_END__+0xfffcbfa8>
   13ce8:	008787b3          	add	a5,a5,s0
   13cec:	0007a603          	lw	a2,0(a5)
   13cf0:	fffff7b7          	lui	a5,0xfffff
   13cf4:	b1c78793          	addi	a5,a5,-1252 # ffffeb1c <__BSS_END__+0xfffcbfc0>
   13cf8:	008787b3          	add	a5,a5,s0
   13cfc:	0007a503          	lw	a0,0(a5)
   13d00:	000b8713          	mv	a4,s7
   13d04:	00098693          	mv	a3,s3
   13d08:	000a8593          	mv	a1,s5
   13d0c:	5b5060ef          	jal	ra,1aac0 <_mbrtowc_r>
   13d10:	fff00713          	li	a4,-1
   13d14:	00050d93          	mv	s11,a0
   13d18:	00e51463          	bne	a0,a4,13d20 <__svfscanf_r+0xcf0>
   13d1c:	1710106f          	j	1568c <__svfscanf_r+0x265c>
   13d20:	00050463          	beqz	a0,13d28 <__svfscanf_r+0xcf8>
   13d24:	7840106f          	j	154a8 <__svfscanf_r+0x2478>
   13d28:	013d0d33          	add	s10,s10,s3
   13d2c:	fffa0a13          	addi	s4,s4,-1
   13d30:	000c8463          	beqz	s9,13d38 <__svfscanf_r+0xd08>
   13d34:	7a00106f          	j	154d4 <__svfscanf_r+0x24a4>
   13d38:	000aa023          	sw	zero,0(s5)
   13d3c:	fffff7b7          	lui	a5,0xfffff
   13d40:	af478793          	addi	a5,a5,-1292 # ffffeaf4 <__BSS_END__+0xfffcbf98>
   13d44:	008787b3          	add	a5,a5,s0
   13d48:	0007a783          	lw	a5,0(a5)
   13d4c:	02078a63          	beqz	a5,13d80 <__svfscanf_r+0xd50>
   13d50:	fffff7b7          	lui	a5,0xfffff
   13d54:	af078793          	addi	a5,a5,-1296 # ffffeaf0 <__BSS_END__+0xfffcbf94>
   13d58:	008787b3          	add	a5,a5,s0
   13d5c:	0007a783          	lw	a5,0(a5)
   13d60:	40fa89b3          	sub	s3,s5,a5
   13d64:	fffff7b7          	lui	a5,0xfffff
   13d68:	af878793          	addi	a5,a5,-1288 # ffffeaf8 <__BSS_END__+0xfffcbf9c>
   13d6c:	008787b3          	add	a5,a5,s0
   13d70:	0007a783          	lw	a5,0(a5)
   13d74:	4029d713          	srai	a4,s3,0x2
   13d78:	00f76463          	bltu	a4,a5,13d80 <__svfscanf_r+0xd50>
   13d7c:	0910106f          	j	1560c <__svfscanf_r+0x25dc>
   13d80:	004a8a93          	addi	s5,s5,4
   13d84:	00000993          	li	s3,0
   13d88:	0044a703          	lw	a4,4(s1)
   13d8c:	00e04463          	bgtz	a4,13d94 <__svfscanf_r+0xd64>
   13d90:	4540106f          	j	151e4 <__svfscanf_r+0x21b4>
   13d94:	ee0a1ce3          	bnez	s4,13c8c <__svfscanf_r+0xc5c>
   13d98:	fffff7b7          	lui	a5,0xfffff
   13d9c:	aec78793          	addi	a5,a5,-1300 # ffffeaec <__BSS_END__+0xfffcbf90>
   13da0:	008787b3          	add	a5,a5,s0
   13da4:	0007ae83          	lw	t4,0(a5)
   13da8:	fffff7b7          	lui	a5,0xfffff
   13dac:	af478793          	addi	a5,a5,-1292 # ffffeaf4 <__BSS_END__+0xfffcbf98>
   13db0:	008787b3          	add	a5,a5,s0
   13db4:	0007ae03          	lw	t3,0(a5)
   13db8:	fffff7b7          	lui	a5,0xfffff
   13dbc:	af078793          	addi	a5,a5,-1296 # ffffeaf0 <__BSS_END__+0xfffcbf94>
   13dc0:	008787b3          	add	a5,a5,s0
   13dc4:	0007a883          	lw	a7,0(a5)
   13dc8:	fffff7b7          	lui	a5,0xfffff
   13dcc:	af878793          	addi	a5,a5,-1288 # ffffeaf8 <__BSS_END__+0xfffcbf9c>
   13dd0:	008787b3          	add	a5,a5,s0
   13dd4:	000c8313          	mv	t1,s9
   13dd8:	0007ac83          	lw	s9,0(a5)
   13ddc:	00048793          	mv	a5,s1
   13de0:	000d8493          	mv	s1,s11
   13de4:	00078d93          	mv	s11,a5
   13de8:	000e0a63          	beqz	t3,13dfc <__svfscanf_r+0xdcc>
   13dec:	411a85b3          	sub	a1,s5,a7
   13df0:	4025d713          	srai	a4,a1,0x2
   13df4:	01977463          	bgeu	a4,s9,13dfc <__svfscanf_r+0xdcc>
   13df8:	7ad0106f          	j	15da4 <__svfscanf_r+0x2d74>
   13dfc:	fffff7b7          	lui	a5,0xfffff
   13e00:	b1078793          	addi	a5,a5,-1264 # ffffeb10 <__BSS_END__+0xfffcbfb4>
   13e04:	008787b3          	add	a5,a5,s0
   13e08:	0007a783          	lw	a5,0(a5)
   13e0c:	fffff737          	lui	a4,0xfffff
   13e10:	00133313          	seqz	t1,t1
   13e14:	b1070713          	addi	a4,a4,-1264 # ffffeb10 <__BSS_END__+0xfffcbfb4>
   13e18:	006787b3          	add	a5,a5,t1
   13e1c:	00870733          	add	a4,a4,s0
   13e20:	00f72023          	sw	a5,0(a4)
   13e24:	c8cff06f          	j	132b0 <__svfscanf_r+0x280>
   13e28:	00a00793          	li	a5,10
   13e2c:	0347dc63          	bge	a5,s4,13e64 <__svfscanf_r+0xe34>
   13e30:	fffff7b7          	lui	a5,0xfffff
   13e34:	47f78793          	addi	a5,a5,1151 # fffff47f <__BSS_END__+0xfffcc923>
   13e38:	00fb7b33          	and	s6,s6,a5
   13e3c:	00da8023          	sb	a3,0(s5)
   13e40:	001a8a93          	addi	s5,s5,1
   13e44:	004da783          	lw	a5,4(s11)
   13e48:	fff78793          	addi	a5,a5,-1
   13e4c:	00fda223          	sw	a5,4(s11)
   13e50:	1af05c63          	blez	a5,14008 <__svfscanf_r+0xfd8>
   13e54:	00170713          	addi	a4,a4,1
   13e58:	00eda023          	sw	a4,0(s11)
   13e5c:	fff48493          	addi	s1,s1,-1
   13e60:	ac0490e3          	bnez	s1,13920 <__svfscanf_r+0x8f0>
   13e64:	fffff7b7          	lui	a5,0xfffff
   13e68:	b0078793          	addi	a5,a5,-1280 # ffffeb00 <__BSS_END__+0xfffcbfa4>
   13e6c:	008787b3          	add	a5,a5,s0
   13e70:	0147a023          	sw	s4,0(a5)
   13e74:	100b7713          	andi	a4,s6,256
   13e78:	000d0493          	mv	s1,s10
   13e7c:	000c8e93          	mv	t4,s9
   13e80:	00060d13          	mv	s10,a2
   13e84:	02070463          	beqz	a4,13eac <__svfscanf_r+0xe7c>
   13e88:	fffff737          	lui	a4,0xfffff
   13e8c:	c5070793          	addi	a5,a4,-944 # ffffec50 <__BSS_END__+0xfffcc0f4>
   13e90:	00878733          	add	a4,a5,s0
   13e94:	01577463          	bgeu	a4,s5,13e9c <__svfscanf_r+0xe6c>
   13e98:	09d0106f          	j	15734 <__svfscanf_r+0x2704>
   13e9c:	fffff737          	lui	a4,0xfffff
   13ea0:	c5070793          	addi	a5,a4,-944 # ffffec50 <__BSS_END__+0xfffcc0f4>
   13ea4:	00878733          	add	a4,a5,s0
   13ea8:	b2ea8a63          	beq	s5,a4,131dc <__svfscanf_r+0x1ac>
   13eac:	010b7713          	andi	a4,s6,16
   13eb0:	2a071ae3          	bnez	a4,14964 <__svfscanf_r+0x1934>
   13eb4:	fffff7b7          	lui	a5,0xfffff
   13eb8:	b0478793          	addi	a5,a5,-1276 # ffffeb04 <__BSS_END__+0xfffcbfa8>
   13ebc:	008787b3          	add	a5,a5,s0
   13ec0:	fffffbb7          	lui	s7,0xfffff
   13ec4:	01d7a023          	sw	t4,0(a5)
   13ec8:	c50b8793          	addi	a5,s7,-944 # ffffec50 <__BSS_END__+0xfffcc0f4>
   13ecc:	00878bb3          	add	s7,a5,s0
   13ed0:	fffff7b7          	lui	a5,0xfffff
   13ed4:	b0078793          	addi	a5,a5,-1280 # ffffeb00 <__BSS_END__+0xfffcbfa4>
   13ed8:	008787b3          	add	a5,a5,s0
   13edc:	0007a683          	lw	a3,0(a5)
   13ee0:	fffff7b7          	lui	a5,0xfffff
   13ee4:	b1c78793          	addi	a5,a5,-1252 # ffffeb1c <__BSS_END__+0xfffcbfc0>
   13ee8:	008787b3          	add	a5,a5,s0
   13eec:	0007a503          	lw	a0,0(a5)
   13ef0:	fffff7b7          	lui	a5,0xfffff
   13ef4:	afc78793          	addi	a5,a5,-1284 # ffffeafc <__BSS_END__+0xfffcbfa0>
   13ef8:	008787b3          	add	a5,a5,s0
   13efc:	0007a783          	lw	a5,0(a5)
   13f00:	000a8023          	sb	zero,0(s5)
   13f04:	00000613          	li	a2,0
   13f08:	000b8593          	mv	a1,s7
   13f0c:	000780e7          	jalr	a5
   13f10:	fffff7b7          	lui	a5,0xfffff
   13f14:	b0878793          	addi	a5,a5,-1272 # ffffeb08 <__BSS_END__+0xfffcbfac>
   13f18:	008787b3          	add	a5,a5,s0
   13f1c:	0007a783          	lw	a5,0(a5)
   13f20:	fffff6b7          	lui	a3,0xfffff
   13f24:	b0468693          	addi	a3,a3,-1276 # ffffeb04 <__BSS_END__+0xfffcbfa8>
   13f28:	008686b3          	add	a3,a3,s0
   13f2c:	020b7713          	andi	a4,s6,32
   13f30:	0006ae83          	lw	t4,0(a3)
   13f34:	00478c13          	addi	s8,a5,4
   13f38:	1e0718e3          	bnez	a4,14928 <__svfscanf_r+0x18f8>
   13f3c:	008b7713          	andi	a4,s6,8
   13f40:	00070463          	beqz	a4,13f48 <__svfscanf_r+0xf18>
   13f44:	4540106f          	j	15398 <__svfscanf_r+0x2368>
   13f48:	004b7713          	andi	a4,s6,4
   13f4c:	00071463          	bnez	a4,13f54 <__svfscanf_r+0xf24>
   13f50:	5410106f          	j	15c90 <__svfscanf_r+0x2c60>
   13f54:	fffff7b7          	lui	a5,0xfffff
   13f58:	b0878793          	addi	a5,a5,-1272 # ffffeb08 <__BSS_END__+0xfffcbfac>
   13f5c:	008787b3          	add	a5,a5,s0
   13f60:	0007a783          	lw	a5,0(a5)
   13f64:	0007a703          	lw	a4,0(a5)
   13f68:	00a71023          	sh	a0,0(a4)
   13f6c:	1c50006f          	j	14930 <__svfscanf_r+0x1900>
   13f70:	000307b7          	lui	a5,0x30
   13f74:	001a1a13          	slli	s4,s4,0x1
   13f78:	74c78793          	addi	a5,a5,1868 # 3074c <basefix.0>
   13f7c:	014787b3          	add	a5,a5,s4
   13f80:	00079a03          	lh	s4,0(a5)
   13f84:	fffff7b7          	lui	a5,0xfffff
   13f88:	47f78793          	addi	a5,a5,1151 # fffff47f <__BSS_END__+0xfffcc923>
   13f8c:	00fb7b33          	and	s6,s6,a5
   13f90:	eadff06f          	j	13e3c <__svfscanf_r+0xe0c>
   13f94:	600b7793          	andi	a5,s6,1536
   13f98:	20000593          	li	a1,512
   13f9c:	ecb794e3          	bne	a5,a1,13e64 <__svfscanf_r+0xe34>
   13fa0:	dffb7b13          	andi	s6,s6,-513
   13fa4:	500b6b13          	ori	s6,s6,1280
   13fa8:	01000a13          	li	s4,16
   13fac:	e91ff06f          	j	13e3c <__svfscanf_r+0xe0c>
   13fb0:	080b7793          	andi	a5,s6,128
   13fb4:	ea0788e3          	beqz	a5,13e64 <__svfscanf_r+0xe34>
   13fb8:	f7fb7b13          	andi	s6,s6,-129
   13fbc:	e81ff06f          	j	13e3c <__svfscanf_r+0xe0c>
   13fc0:	000307b7          	lui	a5,0x30
   13fc4:	001a1a13          	slli	s4,s4,0x1
   13fc8:	74c78793          	addi	a5,a5,1868 # 3074c <basefix.0>
   13fcc:	014787b3          	add	a5,a5,s4
   13fd0:	00079a03          	lh	s4,0(a5)
   13fd4:	00800793          	li	a5,8
   13fd8:	e547cce3          	blt	a5,s4,13e30 <__svfscanf_r+0xe00>
   13fdc:	e89ff06f          	j	13e64 <__svfscanf_r+0xe34>
   13fe0:	00bb5793          	srli	a5,s6,0xb
   13fe4:	0017f793          	andi	a5,a5,1
   13fe8:	e4078ae3          	beqz	a5,13e3c <__svfscanf_r+0xe0c>
   13fec:	000a1663          	bnez	s4,13ff8 <__svfscanf_r+0xfc8>
   13ff0:	200b6b13          	ori	s6,s6,512
   13ff4:	00800a13          	li	s4,8
   13ff8:	400b7793          	andi	a5,s6,1024
   13ffc:	660784e3          	beqz	a5,14e64 <__svfscanf_r+0x1e34>
   14000:	a7fb7b13          	andi	s6,s6,-1409
   14004:	e39ff06f          	j	13e3c <__svfscanf_r+0xe0c>
   14008:	fffff7b7          	lui	a5,0xfffff
   1400c:	b0478793          	addi	a5,a5,-1276 # ffffeb04 <__BSS_END__+0xfffcbfa8>
   14010:	008787b3          	add	a5,a5,s0
   14014:	00c7a023          	sw	a2,0(a5)
   14018:	fffff7b7          	lui	a5,0xfffff
   1401c:	b1c78793          	addi	a5,a5,-1252 # ffffeb1c <__BSS_END__+0xfffcbfc0>
   14020:	008787b3          	add	a5,a5,s0
   14024:	0007a503          	lw	a0,0(a5)
   14028:	000d8593          	mv	a1,s11
   1402c:	6ac080ef          	jal	ra,1c6d8 <__srefill_r>
   14030:	fffff7b7          	lui	a5,0xfffff
   14034:	b0478793          	addi	a5,a5,-1276 # ffffeb04 <__BSS_END__+0xfffcbfa8>
   14038:	008787b3          	add	a5,a5,s0
   1403c:	0007a603          	lw	a2,0(a5)
   14040:	e0050ee3          	beqz	a0,13e5c <__svfscanf_r+0xe2c>
   14044:	e21ff06f          	j	13e64 <__svfscanf_r+0xe34>
   14048:	000a1463          	bnez	s4,14050 <__svfscanf_r+0x1020>
   1404c:	fff00a13          	li	s4,-1
   14050:	001af713          	andi	a4,s5,1
   14054:	010af313          	andi	t1,s5,16
   14058:	160704e3          	beqz	a4,149c0 <__svfscanf_r+0x1990>
   1405c:	00030463          	beqz	t1,14064 <__svfscanf_r+0x1034>
   14060:	0910106f          	j	158f0 <__svfscanf_r+0x28c0>
   14064:	fffff7b7          	lui	a5,0xfffff
   14068:	b0878793          	addi	a5,a5,-1272 # ffffeb08 <__BSS_END__+0xfffcbfac>
   1406c:	008787b3          	add	a5,a5,s0
   14070:	0007a783          	lw	a5,0(a5)
   14074:	fffff6b7          	lui	a3,0xfffff
   14078:	aec68693          	addi	a3,a3,-1300 # ffffeaec <__BSS_END__+0xfffcbf90>
   1407c:	0007a703          	lw	a4,0(a5)
   14080:	008686b3          	add	a3,a3,s0
   14084:	00478793          	addi	a5,a5,4
   14088:	00e6a023          	sw	a4,0(a3)
   1408c:	fffff6b7          	lui	a3,0xfffff
   14090:	b0868693          	addi	a3,a3,-1272 # ffffeb08 <__BSS_END__+0xfffcbfac>
   14094:	008686b3          	add	a3,a3,s0
   14098:	00f6a023          	sw	a5,0(a3)
   1409c:	080af893          	andi	a7,s5,128
   140a0:	fffff7b7          	lui	a5,0xfffff
   140a4:	00089463          	bnez	a7,140ac <__svfscanf_r+0x107c>
   140a8:	1690106f          	j	15a10 <__svfscanf_r+0x29e0>
   140ac:	af878793          	addi	a5,a5,-1288 # ffffeaf8 <__BSS_END__+0xfffcbf9c>
   140b0:	008787b3          	add	a5,a5,s0
   140b4:	0067a023          	sw	t1,0(a5)
   140b8:	fffff7b7          	lui	a5,0xfffff
   140bc:	b0478793          	addi	a5,a5,-1276 # ffffeb04 <__BSS_END__+0xfffcbfa8>
   140c0:	008787b3          	add	a5,a5,s0
   140c4:	01d7a023          	sw	t4,0(a5)
   140c8:	90070a63          	beqz	a4,131dc <__svfscanf_r+0x1ac>
   140cc:	08000513          	li	a0,128
   140d0:	264060ef          	jal	ra,1a334 <malloc>
   140d4:	fffff7b7          	lui	a5,0xfffff
   140d8:	b0478793          	addi	a5,a5,-1276 # ffffeb04 <__BSS_END__+0xfffcbfa8>
   140dc:	008787b3          	add	a5,a5,s0
   140e0:	0007ae83          	lw	t4,0(a5)
   140e4:	fffff7b7          	lui	a5,0xfffff
   140e8:	af878793          	addi	a5,a5,-1288 # ffffeaf8 <__BSS_END__+0xfffcbf9c>
   140ec:	008787b3          	add	a5,a5,s0
   140f0:	0007a303          	lw	t1,0(a5)
   140f4:	00050893          	mv	a7,a0
   140f8:	a8050263          	beqz	a0,1337c <__svfscanf_r+0x34c>
   140fc:	fffff7b7          	lui	a5,0xfffff
   14100:	b1478793          	addi	a5,a5,-1260 # ffffeb14 <__BSS_END__+0xfffcbfb8>
   14104:	008787b3          	add	a5,a5,s0
   14108:	fffff6b7          	lui	a3,0xfffff
   1410c:	0007a783          	lw	a5,0(a5)
   14110:	aec68693          	addi	a3,a3,-1300 # ffffeaec <__BSS_END__+0xfffcbf90>
   14114:	008686b3          	add	a3,a3,s0
   14118:	0006a683          	lw	a3,0(a3)
   1411c:	0067d983          	lhu	s3,6(a5)
   14120:	0047d703          	lhu	a4,4(a5)
   14124:	00a6a023          	sw	a0,0(a3)
   14128:	00e9e463          	bltu	s3,a4,14130 <__svfscanf_r+0x1100>
   1412c:	00c0106f          	j	15138 <__svfscanf_r+0x2108>
   14130:	0007a503          	lw	a0,0(a5)
   14134:	fffff7b7          	lui	a5,0xfffff
   14138:	b1478793          	addi	a5,a5,-1260 # ffffeb14 <__BSS_END__+0xfffcbfb8>
   1413c:	008787b3          	add	a5,a5,s0
   14140:	0007a783          	lw	a5,0(a5)
   14144:	00299713          	slli	a4,s3,0x2
   14148:	00198993          	addi	s3,s3,1
   1414c:	01379323          	sh	s3,6(a5)
   14150:	fffff7b7          	lui	a5,0xfffff
   14154:	aec78793          	addi	a5,a5,-1300 # ffffeaec <__BSS_END__+0xfffcbf90>
   14158:	008787b3          	add	a5,a5,s0
   1415c:	0007a783          	lw	a5,0(a5)
   14160:	00e50533          	add	a0,a0,a4
   14164:	fffff737          	lui	a4,0xfffff
   14168:	ae870713          	addi	a4,a4,-1304 # ffffeae8 <__BSS_END__+0xfffcbf8c>
   1416c:	00f52023          	sw	a5,0(a0)
   14170:	00870733          	add	a4,a4,s0
   14174:	02000793          	li	a5,32
   14178:	00088b13          	mv	s6,a7
   1417c:	00f72023          	sw	a5,0(a4)
   14180:	fffffab7          	lui	s5,0xfffff
   14184:	b40a8713          	addi	a4,s5,-1216 # ffffeb40 <__BSS_END__+0xfffcbfe4>
   14188:	00870bb3          	add	s7,a4,s0
   1418c:	fffff737          	lui	a4,0xfffff
   14190:	c50a8793          	addi	a5,s5,-944
   14194:	af870713          	addi	a4,a4,-1288 # ffffeaf8 <__BSS_END__+0xfffcbf9c>
   14198:	008787b3          	add	a5,a5,s0
   1419c:	00870733          	add	a4,a4,s0
   141a0:	00f72023          	sw	a5,0(a4)
   141a4:	fffff737          	lui	a4,0xfffff
   141a8:	b48a8793          	addi	a5,s5,-1208
   141ac:	b0470713          	addi	a4,a4,-1276 # ffffeb04 <__BSS_END__+0xfffcbfa8>
   141b0:	008787b3          	add	a5,a5,s0
   141b4:	00870733          	add	a4,a4,s0
   141b8:	00f72023          	sw	a5,0(a4)
   141bc:	fffff7b7          	lui	a5,0xfffff
   141c0:	ae078793          	addi	a5,a5,-1312 # ffffeae0 <__BSS_END__+0xfffcbf84>
   141c4:	008787b3          	add	a5,a5,s0
   141c8:	01d7a023          	sw	t4,0(a5)
   141cc:	fffff7b7          	lui	a5,0xfffff
   141d0:	ae478793          	addi	a5,a5,-1308 # ffffeae4 <__BSS_END__+0xfffcbf88>
   141d4:	008787b3          	add	a5,a5,s0
   141d8:	0117a023          	sw	a7,0(a5)
   141dc:	fffff7b7          	lui	a5,0xfffff
   141e0:	af078793          	addi	a5,a5,-1296 # ffffeaf0 <__BSS_END__+0xfffcbf94>
   141e4:	008787b3          	add	a5,a5,s0
   141e8:	0067a023          	sw	t1,0(a5)
   141ec:	fffff7b7          	lui	a5,0xfffff
   141f0:	b1c78793          	addi	a5,a5,-1252 # ffffeb1c <__BSS_END__+0xfffcbfc0>
   141f4:	008787b3          	add	a5,a5,s0
   141f8:	0007ac83          	lw	s9,0(a5)
   141fc:	00000993          	li	s3,0
   14200:	631050ef          	jal	ra,1a030 <__locale_mb_cur_max>
   14204:	95350a63          	beq	a0,s3,13358 <__svfscanf_r+0x328>
   14208:	000da703          	lw	a4,0(s11)
   1420c:	004da683          	lw	a3,4(s11)
   14210:	fffff537          	lui	a0,0xfffff
   14214:	00074583          	lbu	a1,0(a4)
   14218:	fc050793          	addi	a5,a0,-64 # ffffefc0 <__BSS_END__+0xfffcc464>
   1421c:	008787b3          	add	a5,a5,s0
   14220:	01378633          	add	a2,a5,s3
   14224:	00170713          	addi	a4,a4,1
   14228:	fff68693          	addi	a3,a3,-1
   1422c:	00eda023          	sw	a4,0(s11)
   14230:	c8b60823          	sb	a1,-880(a2)
   14234:	00dda223          	sw	a3,4(s11)
   14238:	00300713          	li	a4,3
   1423c:	00198993          	addi	s3,s3,1
   14240:	00e49c63          	bne	s1,a4,14258 <__svfscanf_r+0x1228>
   14244:	b4050793          	addi	a5,a0,-1216
   14248:	008787b3          	add	a5,a5,s0
   1424c:	0007a703          	lw	a4,0(a5)
   14250:	00400793          	li	a5,4
   14254:	00f70a63          	beq	a4,a5,14268 <__svfscanf_r+0x1238>
   14258:	00800613          	li	a2,8
   1425c:	00000593          	li	a1,0
   14260:	000b8513          	mv	a0,s7
   14264:	a10fc0ef          	jal	ra,10474 <memset>
   14268:	fffff7b7          	lui	a5,0xfffff
   1426c:	af878793          	addi	a5,a5,-1288 # ffffeaf8 <__BSS_END__+0xfffcbf9c>
   14270:	008787b3          	add	a5,a5,s0
   14274:	0007a603          	lw	a2,0(a5)
   14278:	00098693          	mv	a3,s3
   1427c:	000b8713          	mv	a4,s7
   14280:	000b0593          	mv	a1,s6
   14284:	000c8513          	mv	a0,s9
   14288:	039060ef          	jal	ra,1aac0 <_mbrtowc_r>
   1428c:	fffff7b7          	lui	a5,0xfffff
   14290:	af478793          	addi	a5,a5,-1292 # ffffeaf4 <__BSS_END__+0xfffcbf98>
   14294:	008787b3          	add	a5,a5,s0
   14298:	fff00693          	li	a3,-1
   1429c:	0137a023          	sw	s3,0(a5)
   142a0:	00050493          	mv	s1,a0
   142a4:	8ad50a63          	beq	a0,a3,13358 <__svfscanf_r+0x328>
   142a8:	00050463          	beqz	a0,142b0 <__svfscanf_r+0x1280>
   142ac:	2300106f          	j	154dc <__svfscanf_r+0x24ac>
   142b0:	000b2023          	sw	zero,0(s6)
   142b4:	00000c13          	li	s8,0
   142b8:	fffff7b7          	lui	a5,0xfffff
   142bc:	b0478793          	addi	a5,a5,-1276 # ffffeb04 <__BSS_END__+0xfffcbfa8>
   142c0:	008787b3          	add	a5,a5,s0
   142c4:	0007a503          	lw	a0,0(a5)
   142c8:	00800613          	li	a2,8
   142cc:	00000593          	li	a1,0
   142d0:	9a4fc0ef          	jal	ra,10474 <memset>
   142d4:	c2818693          	addi	a3,gp,-984 # 324e8 <__global_locale>
   142d8:	fffff7b7          	lui	a5,0xfffff
   142dc:	b0478793          	addi	a5,a5,-1276 # ffffeb04 <__BSS_END__+0xfffcbfa8>
   142e0:	008787b3          	add	a5,a5,s0
   142e4:	0e06a883          	lw	a7,224(a3)
   142e8:	0007a683          	lw	a3,0(a5)
   142ec:	b38a8793          	addi	a5,s5,-1224
   142f0:	000c0613          	mv	a2,s8
   142f4:	008785b3          	add	a1,a5,s0
   142f8:	000c8513          	mv	a0,s9
   142fc:	000880e7          	jalr	a7
   14300:	00100693          	li	a3,1
   14304:	00000c13          	li	s8,0
   14308:	00d51863          	bne	a0,a3,14318 <__svfscanf_r+0x12e8>
   1430c:	fc0a8793          	addi	a5,s5,-64
   14310:	00878733          	add	a4,a5,s0
   14314:	b7874c03          	lbu	s8,-1160(a4)
   14318:	fffff7b7          	lui	a5,0xfffff
   1431c:	fc078793          	addi	a5,a5,-64 # ffffefc0 <__BSS_END__+0xfffcc464>
   14320:	008787b3          	add	a5,a5,s0
   14324:	01878733          	add	a4,a5,s8
   14328:	b9074703          	lbu	a4,-1136(a4)
   1432c:	00071463          	bnez	a4,14334 <__svfscanf_r+0x1304>
   14330:	75c0106f          	j	15a8c <__svfscanf_r+0x2a5c>
   14334:	00300713          	li	a4,3
   14338:	013d0d33          	add	s10,s10,s3
   1433c:	56e48ee3          	beq	s1,a4,150b8 <__svfscanf_r+0x2088>
   14340:	fffff7b7          	lui	a5,0xfffff
   14344:	af078793          	addi	a5,a5,-1296 # ffffeaf0 <__BSS_END__+0xfffcbf94>
   14348:	008787b3          	add	a5,a5,s0
   1434c:	0007a783          	lw	a5,0(a5)
   14350:	fffa0a13          	addi	s4,s4,-1
   14354:	580798e3          	bnez	a5,150e4 <__svfscanf_r+0x20b4>
   14358:	fffff7b7          	lui	a5,0xfffff
   1435c:	aec78793          	addi	a5,a5,-1300 # ffffeaec <__BSS_END__+0xfffcbf90>
   14360:	008787b3          	add	a5,a5,s0
   14364:	0007a783          	lw	a5,0(a5)
   14368:	004b0b13          	addi	s6,s6,4
   1436c:	56078ce3          	beqz	a5,150e4 <__svfscanf_r+0x20b4>
   14370:	fffff7b7          	lui	a5,0xfffff
   14374:	ae478793          	addi	a5,a5,-1308 # ffffeae4 <__BSS_END__+0xfffcbf88>
   14378:	008787b3          	add	a5,a5,s0
   1437c:	0007a783          	lw	a5,0(a5)
   14380:	00000993          	li	s3,0
   14384:	40fb0c33          	sub	s8,s6,a5
   14388:	fffff7b7          	lui	a5,0xfffff
   1438c:	ae878793          	addi	a5,a5,-1304 # ffffeae8 <__BSS_END__+0xfffcbf8c>
   14390:	008787b3          	add	a5,a5,s0
   14394:	0007a783          	lw	a5,0(a5)
   14398:	402c5713          	srai	a4,s8,0x2
   1439c:	00f76463          	bltu	a4,a5,143a4 <__svfscanf_r+0x1374>
   143a0:	1ec0106f          	j	1558c <__svfscanf_r+0x255c>
   143a4:	004da703          	lw	a4,4(s11)
   143a8:	54e054e3          	blez	a4,150f0 <__svfscanf_r+0x20c0>
   143ac:	e40a1ae3          	bnez	s4,14200 <__svfscanf_r+0x11d0>
   143b0:	fffff7b7          	lui	a5,0xfffff
   143b4:	ae078793          	addi	a5,a5,-1312 # ffffeae0 <__BSS_END__+0xfffcbf84>
   143b8:	008787b3          	add	a5,a5,s0
   143bc:	0007ae83          	lw	t4,0(a5)
   143c0:	fffff7b7          	lui	a5,0xfffff
   143c4:	ae478793          	addi	a5,a5,-1308 # ffffeae4 <__BSS_END__+0xfffcbf88>
   143c8:	008787b3          	add	a5,a5,s0
   143cc:	0007a883          	lw	a7,0(a5)
   143d0:	fffff7b7          	lui	a5,0xfffff
   143d4:	af078793          	addi	a5,a5,-1296 # ffffeaf0 <__BSS_END__+0xfffcbf94>
   143d8:	008787b3          	add	a5,a5,s0
   143dc:	0007a303          	lw	t1,0(a5)
   143e0:	00030463          	beqz	t1,143e8 <__svfscanf_r+0x13b8>
   143e4:	ecdfe06f          	j	132b0 <__svfscanf_r+0x280>
   143e8:	fffff7b7          	lui	a5,0xfffff
   143ec:	aec78793          	addi	a5,a5,-1300 # ffffeaec <__BSS_END__+0xfffcbf90>
   143f0:	008787b3          	add	a5,a5,s0
   143f4:	0007a783          	lw	a5,0(a5)
   143f8:	000b2023          	sw	zero,0(s6)
   143fc:	040784e3          	beqz	a5,14c44 <__svfscanf_r+0x1c14>
   14400:	fffff7b7          	lui	a5,0xfffff
   14404:	ae878793          	addi	a5,a5,-1304 # ffffeae8 <__BSS_END__+0xfffcbf8c>
   14408:	008787b3          	add	a5,a5,s0
   1440c:	411b05b3          	sub	a1,s6,a7
   14410:	0007a783          	lw	a5,0(a5)
   14414:	4025d713          	srai	a4,a1,0x2
   14418:	00170713          	addi	a4,a4,1
   1441c:	02f774e3          	bgeu	a4,a5,14c44 <__svfscanf_r+0x1c14>
   14420:	fffff7b7          	lui	a5,0xfffff
   14424:	b0478793          	addi	a5,a5,-1276 # ffffeb04 <__BSS_END__+0xfffcbfa8>
   14428:	008787b3          	add	a5,a5,s0
   1442c:	01d7a023          	sw	t4,0(a5)
   14430:	fffff7b7          	lui	a5,0xfffff
   14434:	aec78793          	addi	a5,a5,-1300 # ffffeaec <__BSS_END__+0xfffcbf90>
   14438:	008787b3          	add	a5,a5,s0
   1443c:	0007a983          	lw	s3,0(a5)
   14440:	00458593          	addi	a1,a1,4
   14444:	0009a503          	lw	a0,0(s3)
   14448:	50d070ef          	jal	ra,1c154 <realloc>
   1444c:	fffff7b7          	lui	a5,0xfffff
   14450:	b0478793          	addi	a5,a5,-1276 # ffffeb04 <__BSS_END__+0xfffcbfa8>
   14454:	008787b3          	add	a5,a5,s0
   14458:	0007ae83          	lw	t4,0(a5)
   1445c:	7e050463          	beqz	a0,14c44 <__svfscanf_r+0x1c14>
   14460:	00a9a023          	sw	a0,0(s3)
   14464:	7e00006f          	j	14c44 <__svfscanf_r+0x1c14>
   14468:	fffff7b7          	lui	a5,0xfffff
   1446c:	b0478793          	addi	a5,a5,-1276 # ffffeb04 <__BSS_END__+0xfffcbfa8>
   14470:	008787b3          	add	a5,a5,s0
   14474:	01d7a023          	sw	t4,0(a5)
   14478:	fffff7b7          	lui	a5,0xfffff
   1447c:	b1c78793          	addi	a5,a5,-1252 # ffffeb1c <__BSS_END__+0xfffcbfc0>
   14480:	008787b3          	add	a5,a5,s0
   14484:	0007a503          	lw	a0,0(a5)
   14488:	780aea93          	ori	s5,s5,1920
   1448c:	431050ef          	jal	ra,1a0bc <_localeconv_r>
   14490:	00052783          	lw	a5,0(a0)
   14494:	fffff6b7          	lui	a3,0xfffff
   14498:	af468693          	addi	a3,a3,-1292 # ffffeaf4 <__BSS_END__+0xfffcbf98>
   1449c:	008686b3          	add	a3,a3,s0
   144a0:	00f6a023          	sw	a5,0(a3)
   144a4:	fffff7b7          	lui	a5,0xfffff
   144a8:	00001637          	lui	a2,0x1
   144ac:	b0478793          	addi	a5,a5,-1276 # ffffeb04 <__BSS_END__+0xfffcbfa8>
   144b0:	008787b3          	add	a5,a5,s0
   144b4:	fffa0713          	addi	a4,s4,-1
   144b8:	36c60593          	addi	a1,a2,876 # 136c <exit-0xed28>
   144bc:	0007ae83          	lw	t4,0(a5)
   144c0:	00000393          	li	t2,0
   144c4:	00e5fa63          	bgeu	a1,a4,144d8 <__svfscanf_r+0x14a8>
   144c8:	fffff3b7          	lui	t2,0xfffff
   144cc:	c9338393          	addi	t2,t2,-877 # ffffec93 <__BSS_END__+0xfffcc137>
   144d0:	007a03b3          	add	t2,s4,t2
   144d4:	36d60a13          	addi	s4,a2,877
   144d8:	fffff7b7          	lui	a5,0xfffff
   144dc:	aec78793          	addi	a5,a5,-1300 # ffffeaec <__BSS_END__+0xfffcbf90>
   144e0:	008787b3          	add	a5,a5,s0
   144e4:	0007a023          	sw	zero,0(a5)
   144e8:	fffff7b7          	lui	a5,0xfffff
   144ec:	b0478793          	addi	a5,a5,-1276 # ffffeb04 <__BSS_END__+0xfffcbfa8>
   144f0:	fffff337          	lui	t1,0xfffff
   144f4:	008787b3          	add	a5,a5,s0
   144f8:	c9030313          	addi	t1,t1,-880 # ffffec90 <__BSS_END__+0xfffcc134>
   144fc:	0007a023          	sw	zero,0(a5)
   14500:	fc030793          	addi	a5,t1,-64
   14504:	00878c33          	add	s8,a5,s0
   14508:	fffff7b7          	lui	a5,0xfffff
   1450c:	af878793          	addi	a5,a5,-1288 # ffffeaf8 <__BSS_END__+0xfffcbf9c>
   14510:	008787b3          	add	a5,a5,s0
   14514:	0097a023          	sw	s1,0(a5)
   14518:	fffff7b7          	lui	a5,0xfffff
   1451c:	af078793          	addi	a5,a5,-1296 # ffffeaf0 <__BSS_END__+0xfffcbf94>
   14520:	00000b13          	li	s6,0
   14524:	000302b7          	lui	t0,0x30
   14528:	008787b3          	add	a5,a5,s0
   1452c:	000b0493          	mv	s1,s6
   14530:	00000b93          	li	s7,0
   14534:	000a0b13          	mv	s6,s4
   14538:	00000c93          	li	s9,0
   1453c:	000a8a13          	mv	s4,s5
   14540:	00000993          	li	s3,0
   14544:	04e00f13          	li	t5,78
   14548:	61028293          	addi	t0,t0,1552 # 30610 <blanks.1+0x2a8>
   1454c:	0077a023          	sw	t2,0(a5)
   14550:	000e8a93          	mv	s5,t4
   14554:	000da703          	lw	a4,0(s11)
   14558:	00074583          	lbu	a1,0(a4)
   1455c:	fd558793          	addi	a5,a1,-43
   14560:	0ff7f793          	zext.b	a5,a5
   14564:	00ff6a63          	bltu	t5,a5,14578 <__svfscanf_r+0x1548>
   14568:	00279793          	slli	a5,a5,0x2
   1456c:	005787b3          	add	a5,a5,t0
   14570:	0007a783          	lw	a5,0(a5)
   14574:	00078067          	jr	a5
   14578:	fffff7b7          	lui	a5,0xfffff
   1457c:	af478793          	addi	a5,a5,-1292 # ffffeaf4 <__BSS_END__+0xfffcbf98>
   14580:	008787b3          	add	a5,a5,s0
   14584:	0007a783          	lw	a5,0(a5)
   14588:	0007c783          	lbu	a5,0(a5)
   1458c:	04b79663          	bne	a5,a1,145d8 <__svfscanf_r+0x15a8>
   14590:	200a7793          	andi	a5,s4,512
   14594:	04078263          	beqz	a5,145d8 <__svfscanf_r+0x15a8>
   14598:	fffff7b7          	lui	a5,0xfffff
   1459c:	b0478793          	addi	a5,a5,-1276 # ffffeb04 <__BSS_END__+0xfffcbfa8>
   145a0:	008787b3          	add	a5,a5,s0
   145a4:	d7fa7a13          	andi	s4,s4,-641
   145a8:	0137a023          	sw	s3,0(a5)
   145ac:	00bc0023          	sb	a1,0(s8)
   145b0:	fffb0b13          	addi	s6,s6,-1
   145b4:	001c0c13          	addi	s8,s8,1
   145b8:	004da783          	lw	a5,4(s11)
   145bc:	001d0d13          	addi	s10,s10,1
   145c0:	fff78793          	addi	a5,a5,-1
   145c4:	00fda223          	sw	a5,4(s11)
   145c8:	32f05063          	blez	a5,148e8 <__svfscanf_r+0x18b8>
   145cc:	00170713          	addi	a4,a4,1
   145d0:	00eda023          	sw	a4,0(s11)
   145d4:	f80b10e3          	bnez	s6,14554 <__svfscanf_r+0x1524>
   145d8:	fffff7b7          	lui	a5,0xfffff
   145dc:	af878793          	addi	a5,a5,-1288 # ffffeaf8 <__BSS_END__+0xfffcbf9c>
   145e0:	008787b3          	add	a5,a5,s0
   145e4:	000a8e93          	mv	t4,s5
   145e8:	00048b13          	mv	s6,s1
   145ec:	000a0a93          	mv	s5,s4
   145f0:	0007a483          	lw	s1,0(a5)
   145f4:	0a098863          	beqz	s3,146a4 <__svfscanf_r+0x1674>
   145f8:	effafa93          	andi	s5,s5,-257
   145fc:	0a80006f          	j	146a4 <__svfscanf_r+0x1674>
   14600:	017487b3          	add	a5,s1,s7
   14604:	fc079ae3          	bnez	a5,145d8 <__svfscanf_r+0x15a8>
   14608:	e7fa7a13          	andi	s4,s4,-385
   1460c:	00000b93          	li	s7,0
   14610:	00000493          	li	s1,0
   14614:	f99ff06f          	j	145ac <__svfscanf_r+0x157c>
   14618:	00100793          	li	a5,1
   1461c:	faf49ee3          	bne	s1,a5,145d8 <__svfscanf_r+0x15a8>
   14620:	00200493          	li	s1,2
   14624:	f89ff06f          	j	145ac <__svfscanf_r+0x157c>
   14628:	080a7793          	andi	a5,s4,128
   1462c:	fa0786e3          	beqz	a5,145d8 <__svfscanf_r+0x15a8>
   14630:	f7fa7a13          	andi	s4,s4,-129
   14634:	f79ff06f          	j	145ac <__svfscanf_r+0x157c>
   14638:	36049c63          	bnez	s1,149b0 <__svfscanf_r+0x1980>
   1463c:	00099a63          	bnez	s3,14650 <__svfscanf_r+0x1620>
   14640:	700a7793          	andi	a5,s4,1792
   14644:	70000513          	li	a0,1792
   14648:	00a79463          	bne	a5,a0,14650 <__svfscanf_r+0x1620>
   1464c:	3a40106f          	j	159f0 <__svfscanf_r+0x29c0>
   14650:	00100793          	li	a5,1
   14654:	00fb8663          	beq	s7,a5,14660 <__svfscanf_r+0x1630>
   14658:	00400793          	li	a5,4
   1465c:	f6fb9ee3          	bne	s7,a5,145d8 <__svfscanf_r+0x15a8>
   14660:	001b8b93          	addi	s7,s7,1
   14664:	0ffbfb93          	zext.b	s7,s7
   14668:	f45ff06f          	j	145ac <__svfscanf_r+0x157c>
   1466c:	300b9a63          	bnez	s7,14980 <__svfscanf_r+0x1950>
   14670:	72099a63          	bnez	s3,14da4 <__svfscanf_r+0x1d74>
   14674:	700a7793          	andi	a5,s4,1792
   14678:	70000513          	li	a0,1792
   1467c:	00a79463          	bne	a5,a0,14684 <__svfscanf_r+0x1654>
   14680:	37c0106f          	j	159fc <__svfscanf_r+0x29cc>
   14684:	fffff7b7          	lui	a5,0xfffff
   14688:	af878793          	addi	a5,a5,-1288 # ffffeaf8 <__BSS_END__+0xfffcbf9c>
   1468c:	008787b3          	add	a5,a5,s0
   14690:	00048b13          	mv	s6,s1
   14694:	0007a483          	lw	s1,0(a5)
   14698:	000a8e93          	mv	t4,s5
   1469c:	00000993          	li	s3,0
   146a0:	000a0a93          	mv	s5,s4
   146a4:	fffb0f93          	addi	t6,s6,-1
   146a8:	00100713          	li	a4,1
   146ac:	01f76463          	bltu	a4,t6,146b4 <__svfscanf_r+0x1684>
   146b0:	02d0106f          	j	15edc <__svfscanf_r+0x2eac>
   146b4:	fffb8713          	addi	a4,s7,-1
   146b8:	00600693          	li	a3,6
   146bc:	72e6fa63          	bgeu	a3,a4,14df0 <__svfscanf_r+0x1dc0>
   146c0:	100af713          	andi	a4,s5,256
   146c4:	06070663          	beqz	a4,14730 <__svfscanf_r+0x1700>
   146c8:	400af713          	andi	a4,s5,1024
   146cc:	00070463          	beqz	a4,146d4 <__svfscanf_r+0x16a4>
   146d0:	09d0106f          	j	15f6c <__svfscanf_r+0x2f3c>
   146d4:	fffc4583          	lbu	a1,-1(s8)
   146d8:	06500713          	li	a4,101
   146dc:	fffc0b13          	addi	s6,s8,-1
   146e0:	fffd0b93          	addi	s7,s10,-1
   146e4:	00e58663          	beq	a1,a4,146f0 <__svfscanf_r+0x16c0>
   146e8:	04500713          	li	a4,69
   146ec:	0ae596e3          	bne	a1,a4,14f98 <__svfscanf_r+0x1f68>
   146f0:	fffff7b7          	lui	a5,0xfffff
   146f4:	af878793          	addi	a5,a5,-1288 # ffffeaf8 <__BSS_END__+0xfffcbf9c>
   146f8:	008787b3          	add	a5,a5,s0
   146fc:	01d7a023          	sw	t4,0(a5)
   14700:	fffff7b7          	lui	a5,0xfffff
   14704:	b1c78793          	addi	a5,a5,-1252 # ffffeb1c <__BSS_END__+0xfffcbfc0>
   14708:	008787b3          	add	a5,a5,s0
   1470c:	0007a503          	lw	a0,0(a5)
   14710:	000d8613          	mv	a2,s11
   14714:	000b8d13          	mv	s10,s7
   14718:	0b10d0ef          	jal	ra,21fc8 <_ungetc_r>
   1471c:	fffff7b7          	lui	a5,0xfffff
   14720:	af878793          	addi	a5,a5,-1288 # ffffeaf8 <__BSS_END__+0xfffcbf9c>
   14724:	008787b3          	add	a5,a5,s0
   14728:	0007ae83          	lw	t4,0(a5)
   1472c:	000b0c13          	mv	s8,s6
   14730:	010af713          	andi	a4,s5,16
   14734:	00070463          	beqz	a4,1473c <__svfscanf_r+0x170c>
   14738:	b79fe06f          	j	132b0 <__svfscanf_r+0x280>
   1473c:	000c0023          	sb	zero,0(s8)
   14740:	600af713          	andi	a4,s5,1536
   14744:	40000693          	li	a3,1024
   14748:	00d71463          	bne	a4,a3,14750 <__svfscanf_r+0x1720>
   1474c:	7cd0006f          	j	15718 <__svfscanf_r+0x26e8>
   14750:	480c96e3          	bnez	s9,153dc <__svfscanf_r+0x23ac>
   14754:	fffff7b7          	lui	a5,0xfffff
   14758:	b0878793          	addi	a5,a5,-1272 # ffffeb08 <__BSS_END__+0xfffcbfac>
   1475c:	008787b3          	add	a5,a5,s0
   14760:	0007a783          	lw	a5,0(a5)
   14764:	002af713          	andi	a4,s5,2
   14768:	001afb93          	andi	s7,s5,1
   1476c:	00478993          	addi	s3,a5,4
   14770:	fffff7b7          	lui	a5,0xfffff
   14774:	b0478793          	addi	a5,a5,-1276 # ffffeb04 <__BSS_END__+0xfffcbfa8>
   14778:	008787b3          	add	a5,a5,s0
   1477c:	01d7a023          	sw	t4,0(a5)
   14780:	70070e63          	beqz	a4,14e9c <__svfscanf_r+0x1e6c>
   14784:	fffffab7          	lui	s5,0xfffff
   14788:	c50a8793          	addi	a5,s5,-944 # ffffec50 <__BSS_END__+0xfffcc0f4>
   1478c:	00878633          	add	a2,a5,s0
   14790:	fffff7b7          	lui	a5,0xfffff
   14794:	b1c78793          	addi	a5,a5,-1252 # ffffeb1c <__BSS_END__+0xfffcbfc0>
   14798:	008787b3          	add	a5,a5,s0
   1479c:	0007a583          	lw	a1,0(a5)
   147a0:	b20a8793          	addi	a5,s5,-1248
   147a4:	00878533          	add	a0,a5,s0
   147a8:	00000693          	li	a3,0
   147ac:	3800a0ef          	jal	ra,1eb2c <_strtold_r>
   147b0:	fc0a8793          	addi	a5,s5,-64
   147b4:	00878733          	add	a4,a5,s0
   147b8:	fffff7b7          	lui	a5,0xfffff
   147bc:	b0478793          	addi	a5,a5,-1276 # ffffeb04 <__BSS_END__+0xfffcbfa8>
   147c0:	008787b3          	add	a5,a5,s0
   147c4:	b6072503          	lw	a0,-1184(a4)
   147c8:	b6472583          	lw	a1,-1180(a4)
   147cc:	b6872603          	lw	a2,-1176(a4)
   147d0:	b6c72683          	lw	a3,-1172(a4)
   147d4:	0007ae83          	lw	t4,0(a5)
   147d8:	3c0b8ee3          	beqz	s7,153b4 <__svfscanf_r+0x2384>
   147dc:	00000b13          	li	s6,0
   147e0:	00000a93          	li	s5,0
   147e4:	fffff7b7          	lui	a5,0xfffff
   147e8:	b0878793          	addi	a5,a5,-1272 # ffffeb08 <__BSS_END__+0xfffcbfac>
   147ec:	008787b3          	add	a5,a5,s0
   147f0:	0007a783          	lw	a5,0(a5)
   147f4:	0007a703          	lw	a4,0(a5)
   147f8:	01672023          	sw	s6,0(a4)
   147fc:	01572223          	sw	s5,4(a4)
   14800:	fffff7b7          	lui	a5,0xfffff
   14804:	b1078793          	addi	a5,a5,-1264 # ffffeb10 <__BSS_END__+0xfffcbfb4>
   14808:	008787b3          	add	a5,a5,s0
   1480c:	0007a783          	lw	a5,0(a5)
   14810:	fffff737          	lui	a4,0xfffff
   14814:	b1070713          	addi	a4,a4,-1264 # ffffeb10 <__BSS_END__+0xfffcbfb4>
   14818:	00178793          	addi	a5,a5,1
   1481c:	00870733          	add	a4,a4,s0
   14820:	00f72023          	sw	a5,0(a4)
   14824:	fffff7b7          	lui	a5,0xfffff
   14828:	b0878793          	addi	a5,a5,-1272 # ffffeb08 <__BSS_END__+0xfffcbfac>
   1482c:	008787b3          	add	a5,a5,s0
   14830:	0137a023          	sw	s3,0(a5)
   14834:	a7dfe06f          	j	132b0 <__svfscanf_r+0x280>
   14838:	00200793          	li	a5,2
   1483c:	d8fb9ee3          	bne	s7,a5,145d8 <__svfscanf_r+0x15a8>
   14840:	00300b93          	li	s7,3
   14844:	d69ff06f          	j	145ac <__svfscanf_r+0x157c>
   14848:	500a7793          	andi	a5,s4,1280
   1484c:	40000693          	li	a3,1024
   14850:	00d78863          	beq	a5,a3,14860 <__svfscanf_r+0x1830>
   14854:	400a7793          	andi	a5,s4,1024
   14858:	d80780e3          	beqz	a5,145d8 <__svfscanf_r+0x15a8>
   1485c:	e20984e3          	beqz	s3,14684 <__svfscanf_r+0x1654>
   14860:	200a7793          	andi	a5,s4,512
   14864:	02079463          	bnez	a5,1488c <__svfscanf_r+0x185c>
   14868:	fffff7b7          	lui	a5,0xfffff
   1486c:	b0478793          	addi	a5,a5,-1276 # ffffeb04 <__BSS_END__+0xfffcbfa8>
   14870:	008787b3          	add	a5,a5,s0
   14874:	0007a783          	lw	a5,0(a5)
   14878:	40f98cb3          	sub	s9,s3,a5
   1487c:	fffff7b7          	lui	a5,0xfffff
   14880:	aec78793          	addi	a5,a5,-1300 # ffffeaec <__BSS_END__+0xfffcbf90>
   14884:	008787b3          	add	a5,a5,s0
   14888:	0187a023          	sw	s8,0(a5)
   1488c:	87fa7693          	andi	a3,s4,-1921
   14890:	1806ea13          	ori	s4,a3,384
   14894:	00000993          	li	s3,0
   14898:	d15ff06f          	j	145ac <__svfscanf_r+0x157c>
   1489c:	00700793          	li	a5,7
   148a0:	d2fb9ce3          	bne	s7,a5,145d8 <__svfscanf_r+0x15a8>
   148a4:	00800b93          	li	s7,8
   148a8:	d05ff06f          	j	145ac <__svfscanf_r+0x157c>
   148ac:	00600793          	li	a5,6
   148b0:	d2fb94e3          	bne	s7,a5,145d8 <__svfscanf_r+0x15a8>
   148b4:	00700b93          	li	s7,7
   148b8:	cf5ff06f          	j	145ac <__svfscanf_r+0x157c>
   148bc:	100a7793          	andi	a5,s4,256
   148c0:	d40780e3          	beqz	a5,14600 <__svfscanf_r+0x15d0>
   148c4:	fffff7b7          	lui	a5,0xfffff
   148c8:	af078793          	addi	a5,a5,-1296 # ffffeaf0 <__BSS_END__+0xfffcbf94>
   148cc:	008787b3          	add	a5,a5,s0
   148d0:	0007a783          	lw	a5,0(a5)
   148d4:	f7fa7a13          	andi	s4,s4,-129
   148d8:	00198993          	addi	s3,s3,1
   148dc:	4e079663          	bnez	a5,14dc8 <__svfscanf_r+0x1d98>
   148e0:	fffb0b13          	addi	s6,s6,-1
   148e4:	cd5ff06f          	j	145b8 <__svfscanf_r+0x1588>
   148e8:	fffff7b7          	lui	a5,0xfffff
   148ec:	b1c78793          	addi	a5,a5,-1252 # ffffeb1c <__BSS_END__+0xfffcbfc0>
   148f0:	008787b3          	add	a5,a5,s0
   148f4:	0007a503          	lw	a0,0(a5)
   148f8:	000d8593          	mv	a1,s11
   148fc:	5dd070ef          	jal	ra,1c6d8 <__srefill_r>
   14900:	000307b7          	lui	a5,0x30
   14904:	04e00f13          	li	t5,78
   14908:	61078293          	addi	t0,a5,1552 # 30610 <blanks.1+0x2a8>
   1490c:	cc0516e3          	bnez	a0,145d8 <__svfscanf_r+0x15a8>
   14910:	c40b12e3          	bnez	s6,14554 <__svfscanf_r+0x1524>
   14914:	cc5ff06f          	j	145d8 <__svfscanf_r+0x15a8>
   14918:	fffff7b7          	lui	a5,0xfffff
   1491c:	b0878793          	addi	a5,a5,-1272 # ffffeb08 <__BSS_END__+0xfffcbfac>
   14920:	008787b3          	add	a5,a5,s0
   14924:	0007a783          	lw	a5,0(a5)
   14928:	0007a703          	lw	a4,0(a5)
   1492c:	00a72023          	sw	a0,0(a4)
   14930:	fffff7b7          	lui	a5,0xfffff
   14934:	b1078793          	addi	a5,a5,-1264 # ffffeb10 <__BSS_END__+0xfffcbfb4>
   14938:	008787b3          	add	a5,a5,s0
   1493c:	0007a783          	lw	a5,0(a5)
   14940:	fffff737          	lui	a4,0xfffff
   14944:	b1070713          	addi	a4,a4,-1264 # ffffeb10 <__BSS_END__+0xfffcbfb4>
   14948:	00178793          	addi	a5,a5,1
   1494c:	00870733          	add	a4,a4,s0
   14950:	00f72023          	sw	a5,0(a4)
   14954:	fffff7b7          	lui	a5,0xfffff
   14958:	b0878793          	addi	a5,a5,-1272 # ffffeb08 <__BSS_END__+0xfffcbfac>
   1495c:	008787b3          	add	a5,a5,s0
   14960:	0187a023          	sw	s8,0(a5)
   14964:	fffff737          	lui	a4,0xfffff
   14968:	c5070793          	addi	a5,a4,-944 # ffffec50 <__BSS_END__+0xfffcc0f4>
   1496c:	00878733          	add	a4,a5,s0
   14970:	40ea8ab3          	sub	s5,s5,a4
   14974:	013a8ab3          	add	s5,s5,s3
   14978:	015d0d33          	add	s10,s10,s5
   1497c:	935fe06f          	j	132b0 <__svfscanf_r+0x280>
   14980:	ffdb8793          	addi	a5,s7,-3
   14984:	0fd7f793          	andi	a5,a5,253
   14988:	cc078ce3          	beqz	a5,14660 <__svfscanf_r+0x1630>
   1498c:	fffff7b7          	lui	a5,0xfffff
   14990:	af878793          	addi	a5,a5,-1288 # ffffeaf8 <__BSS_END__+0xfffcbf9c>
   14994:	008787b3          	add	a5,a5,s0
   14998:	000a8e93          	mv	t4,s5
   1499c:	00048b13          	mv	s6,s1
   149a0:	000a0a93          	mv	s5,s4
   149a4:	0007a483          	lw	s1,0(a5)
   149a8:	ce098ee3          	beqz	s3,146a4 <__svfscanf_r+0x1674>
   149ac:	c4dff06f          	j	145f8 <__svfscanf_r+0x15c8>
   149b0:	00200793          	li	a5,2
   149b4:	c8f49ee3          	bne	s1,a5,14650 <__svfscanf_r+0x1620>
   149b8:	00300493          	li	s1,3
   149bc:	bf1ff06f          	j	145ac <__svfscanf_r+0x157c>
   149c0:	5c031ae3          	bnez	t1,15794 <__svfscanf_r+0x2764>
   149c4:	fffff7b7          	lui	a5,0xfffff
   149c8:	b0878793          	addi	a5,a5,-1272 # ffffeb08 <__BSS_END__+0xfffcbfac>
   149cc:	008787b3          	add	a5,a5,s0
   149d0:	0007a783          	lw	a5,0(a5)
   149d4:	fffff737          	lui	a4,0xfffff
   149d8:	b0870713          	addi	a4,a4,-1272 # ffffeb08 <__BSS_END__+0xfffcbfac>
   149dc:	0007ab83          	lw	s7,0(a5)
   149e0:	00870733          	add	a4,a4,s0
   149e4:	00478793          	addi	a5,a5,4
   149e8:	080af893          	andi	a7,s5,128
   149ec:	00f72023          	sw	a5,0(a4)
   149f0:	00089463          	bnez	a7,149f8 <__svfscanf_r+0x19c8>
   149f4:	0500106f          	j	15a44 <__svfscanf_r+0x2a14>
   149f8:	fffff7b7          	lui	a5,0xfffff
   149fc:	b0478793          	addi	a5,a5,-1276 # ffffeb04 <__BSS_END__+0xfffcbfa8>
   14a00:	008787b3          	add	a5,a5,s0
   14a04:	01d7a023          	sw	t4,0(a5)
   14a08:	000b9463          	bnez	s7,14a10 <__svfscanf_r+0x19e0>
   14a0c:	fd0fe06f          	j	131dc <__svfscanf_r+0x1ac>
   14a10:	02000513          	li	a0,32
   14a14:	121050ef          	jal	ra,1a334 <malloc>
   14a18:	00050993          	mv	s3,a0
   14a1c:	00051463          	bnez	a0,14a24 <__svfscanf_r+0x19f4>
   14a20:	95dfe06f          	j	1337c <__svfscanf_r+0x34c>
   14a24:	fffff7b7          	lui	a5,0xfffff
   14a28:	b1478793          	addi	a5,a5,-1260 # ffffeb14 <__BSS_END__+0xfffcbfb8>
   14a2c:	008787b3          	add	a5,a5,s0
   14a30:	0007a783          	lw	a5,0(a5)
   14a34:	fffff6b7          	lui	a3,0xfffff
   14a38:	b0468693          	addi	a3,a3,-1276 # ffffeb04 <__BSS_END__+0xfffcbfa8>
   14a3c:	0067da83          	lhu	s5,6(a5)
   14a40:	0047d703          	lhu	a4,4(a5)
   14a44:	008686b3          	add	a3,a3,s0
   14a48:	00aba023          	sw	a0,0(s7)
   14a4c:	0006ae83          	lw	t4,0(a3)
   14a50:	5eeafe63          	bgeu	s5,a4,1504c <__svfscanf_r+0x201c>
   14a54:	0007a503          	lw	a0,0(a5)
   14a58:	fffff7b7          	lui	a5,0xfffff
   14a5c:	b1478793          	addi	a5,a5,-1260 # ffffeb14 <__BSS_END__+0xfffcbfb8>
   14a60:	008787b3          	add	a5,a5,s0
   14a64:	0007a783          	lw	a5,0(a5)
   14a68:	002a9713          	slli	a4,s5,0x2
   14a6c:	00e50533          	add	a0,a0,a4
   14a70:	001a8a93          	addi	s5,s5,1
   14a74:	01579323          	sh	s5,6(a5)
   14a78:	01752023          	sw	s7,0(a0)
   14a7c:	02000c13          	li	s8,32
   14a80:	fffff637          	lui	a2,0xfffff
   14a84:	fffff6b7          	lui	a3,0xfffff
   14a88:	fc060793          	addi	a5,a2,-64 # ffffefc0 <__BSS_END__+0xfffcc464>
   14a8c:	000da703          	lw	a4,0(s11)
   14a90:	b0468693          	addi	a3,a3,-1276 # ffffeb04 <__BSS_END__+0xfffcbfa8>
   14a94:	008787b3          	add	a5,a5,s0
   14a98:	008686b3          	add	a3,a3,s0
   14a9c:	00f6a023          	sw	a5,0(a3)
   14aa0:	00074603          	lbu	a2,0(a4)
   14aa4:	0006a783          	lw	a5,0(a3)
   14aa8:	00c78633          	add	a2,a5,a2
   14aac:	b9064603          	lbu	a2,-1136(a2)
   14ab0:	00061463          	bnez	a2,14ab8 <__svfscanf_r+0x1a88>
   14ab4:	f28fe06f          	j	131dc <__svfscanf_r+0x1ac>
   14ab8:	00098a93          	mv	s5,s3
   14abc:	000e8c93          	mv	s9,t4
   14ac0:	000b8b13          	mv	s6,s7
   14ac4:	0440006f          	j	14b08 <__svfscanf_r+0x1ad8>
   14ac8:	41578bb3          	sub	s7,a5,s5
   14acc:	00078993          	mv	s3,a5
   14ad0:	298bfae3          	bgeu	s7,s8,15564 <__svfscanf_r+0x2534>
   14ad4:	fffa0a13          	addi	s4,s4,-1
   14ad8:	3a0a0ee3          	beqz	s4,15694 <__svfscanf_r+0x2664>
   14adc:	004da783          	lw	a5,4(s11)
   14ae0:	20f05ce3          	blez	a5,154f8 <__svfscanf_r+0x24c8>
   14ae4:	000da703          	lw	a4,0(s11)
   14ae8:	fffff6b7          	lui	a3,0xfffff
   14aec:	b0468693          	addi	a3,a3,-1276 # ffffeb04 <__BSS_END__+0xfffcbfa8>
   14af0:	008686b3          	add	a3,a3,s0
   14af4:	00074783          	lbu	a5,0(a4)
   14af8:	0006a683          	lw	a3,0(a3)
   14afc:	00f687b3          	add	a5,a3,a5
   14b00:	b907c783          	lbu	a5,-1136(a5)
   14b04:	380788e3          	beqz	a5,15694 <__svfscanf_r+0x2664>
   14b08:	004da783          	lw	a5,4(s11)
   14b0c:	00170693          	addi	a3,a4,1
   14b10:	00dda023          	sw	a3,0(s11)
   14b14:	fff78793          	addi	a5,a5,-1
   14b18:	00fda223          	sw	a5,4(s11)
   14b1c:	00074703          	lbu	a4,0(a4)
   14b20:	00198793          	addi	a5,s3,1
   14b24:	00e98023          	sb	a4,0(s3)
   14b28:	fa0b10e3          	bnez	s6,14ac8 <__svfscanf_r+0x1a98>
   14b2c:	00078993          	mv	s3,a5
   14b30:	fa5ff06f          	j	14ad4 <__svfscanf_r+0x1aa4>
   14b34:	54031ae3          	bnez	t1,15888 <__svfscanf_r+0x2858>
   14b38:	fffff7b7          	lui	a5,0xfffff
   14b3c:	b0878793          	addi	a5,a5,-1272 # ffffeb08 <__BSS_END__+0xfffcbfac>
   14b40:	008787b3          	add	a5,a5,s0
   14b44:	0007a783          	lw	a5,0(a5)
   14b48:	fffff737          	lui	a4,0xfffff
   14b4c:	b0870713          	addi	a4,a4,-1272 # ffffeb08 <__BSS_END__+0xfffcbfac>
   14b50:	0007ab03          	lw	s6,0(a5)
   14b54:	00870733          	add	a4,a4,s0
   14b58:	00478793          	addi	a5,a5,4
   14b5c:	00f72023          	sw	a5,0(a4)
   14b60:	fffff7b7          	lui	a5,0xfffff
   14b64:	b0478793          	addi	a5,a5,-1276 # ffffeb04 <__BSS_END__+0xfffcbfa8>
   14b68:	008787b3          	add	a5,a5,s0
   14b6c:	080af893          	andi	a7,s5,128
   14b70:	01d7a023          	sw	t4,0(a5)
   14b74:	3e088263          	beqz	a7,14f58 <__svfscanf_r+0x1f28>
   14b78:	000b1463          	bnez	s6,14b80 <__svfscanf_r+0x1b50>
   14b7c:	e60fe06f          	j	131dc <__svfscanf_r+0x1ac>
   14b80:	000a0513          	mv	a0,s4
   14b84:	7b0050ef          	jal	ra,1a334 <malloc>
   14b88:	00050993          	mv	s3,a0
   14b8c:	00051463          	bnez	a0,14b94 <__svfscanf_r+0x1b64>
   14b90:	fecfe06f          	j	1337c <__svfscanf_r+0x34c>
   14b94:	fffff7b7          	lui	a5,0xfffff
   14b98:	b1478793          	addi	a5,a5,-1260 # ffffeb14 <__BSS_END__+0xfffcbfb8>
   14b9c:	008787b3          	add	a5,a5,s0
   14ba0:	0007a783          	lw	a5,0(a5)
   14ba4:	fffff6b7          	lui	a3,0xfffff
   14ba8:	b0468693          	addi	a3,a3,-1276 # ffffeb04 <__BSS_END__+0xfffcbfa8>
   14bac:	0067da83          	lhu	s5,6(a5)
   14bb0:	0047d703          	lhu	a4,4(a5)
   14bb4:	008686b3          	add	a3,a3,s0
   14bb8:	00ab2023          	sw	a0,0(s6)
   14bbc:	0006ae83          	lw	t4,0(a3)
   14bc0:	76eafce3          	bgeu	s5,a4,15b38 <__svfscanf_r+0x2b08>
   14bc4:	0007a503          	lw	a0,0(a5)
   14bc8:	fffff7b7          	lui	a5,0xfffff
   14bcc:	b0478793          	addi	a5,a5,-1276 # ffffeb04 <__BSS_END__+0xfffcbfa8>
   14bd0:	008787b3          	add	a5,a5,s0
   14bd4:	01d7a023          	sw	t4,0(a5)
   14bd8:	fffff7b7          	lui	a5,0xfffff
   14bdc:	b1478793          	addi	a5,a5,-1260 # ffffeb14 <__BSS_END__+0xfffcbfb8>
   14be0:	008787b3          	add	a5,a5,s0
   14be4:	0007a783          	lw	a5,0(a5)
   14be8:	002a9713          	slli	a4,s5,0x2
   14bec:	001a8a93          	addi	s5,s5,1
   14bf0:	01579323          	sh	s5,6(a5)
   14bf4:	fffff7b7          	lui	a5,0xfffff
   14bf8:	b1c78793          	addi	a5,a5,-1252 # ffffeb1c <__BSS_END__+0xfffcbfc0>
   14bfc:	00e50533          	add	a0,a0,a4
   14c00:	008787b3          	add	a5,a5,s0
   14c04:	01652023          	sw	s6,0(a0)
   14c08:	0007a503          	lw	a0,0(a5)
   14c0c:	00098593          	mv	a1,s3
   14c10:	000d8713          	mv	a4,s11
   14c14:	000a0693          	mv	a3,s4
   14c18:	00100613          	li	a2,1
   14c1c:	6ad010ef          	jal	ra,16ac8 <_fread_r>
   14c20:	fffff7b7          	lui	a5,0xfffff
   14c24:	b0478793          	addi	a5,a5,-1276 # ffffeb04 <__BSS_END__+0xfffcbfa8>
   14c28:	008787b3          	add	a5,a5,s0
   14c2c:	0007ae83          	lw	t4,0(a5)
   14c30:	00050993          	mv	s3,a0
   14c34:	00051463          	bnez	a0,14c3c <__svfscanf_r+0x1c0c>
   14c38:	e9cfe06f          	j	132d4 <__svfscanf_r+0x2a4>
   14c3c:	03456ae3          	bltu	a0,s4,15470 <__svfscanf_r+0x2440>
   14c40:	013d0d33          	add	s10,s10,s3
   14c44:	fffff7b7          	lui	a5,0xfffff
   14c48:	b1078793          	addi	a5,a5,-1264 # ffffeb10 <__BSS_END__+0xfffcbfb4>
   14c4c:	008787b3          	add	a5,a5,s0
   14c50:	0007a783          	lw	a5,0(a5)
   14c54:	fffff737          	lui	a4,0xfffff
   14c58:	b1070713          	addi	a4,a4,-1264 # ffffeb10 <__BSS_END__+0xfffcbfb4>
   14c5c:	00178793          	addi	a5,a5,1
   14c60:	00870733          	add	a4,a4,s0
   14c64:	00f72023          	sw	a5,0(a4)
   14c68:	e48fe06f          	j	132b0 <__svfscanf_r+0x280>
   14c6c:	720b1ce3          	bnez	s6,15ba4 <__svfscanf_r+0x2b74>
   14c70:	fffff7b7          	lui	a5,0xfffff
   14c74:	b0878793          	addi	a5,a5,-1272 # ffffeb08 <__BSS_END__+0xfffcbfac>
   14c78:	008787b3          	add	a5,a5,s0
   14c7c:	0007a783          	lw	a5,0(a5)
   14c80:	fffff737          	lui	a4,0xfffff
   14c84:	b0870713          	addi	a4,a4,-1272 # ffffeb08 <__BSS_END__+0xfffcbfac>
   14c88:	0007ab03          	lw	s6,0(a5)
   14c8c:	00870733          	add	a4,a4,s0
   14c90:	00478793          	addi	a5,a5,4
   14c94:	080af893          	andi	a7,s5,128
   14c98:	00f72023          	sw	a5,0(a4)
   14c9c:	4a0884e3          	beqz	a7,15944 <__svfscanf_r+0x2914>
   14ca0:	fffff7b7          	lui	a5,0xfffff
   14ca4:	b0478793          	addi	a5,a5,-1276 # ffffeb04 <__BSS_END__+0xfffcbfa8>
   14ca8:	008787b3          	add	a5,a5,s0
   14cac:	01d7a023          	sw	t4,0(a5)
   14cb0:	000b1463          	bnez	s6,14cb8 <__svfscanf_r+0x1c88>
   14cb4:	d28fe06f          	j	131dc <__svfscanf_r+0x1ac>
   14cb8:	02000513          	li	a0,32
   14cbc:	678050ef          	jal	ra,1a334 <malloc>
   14cc0:	00050993          	mv	s3,a0
   14cc4:	00051463          	bnez	a0,14ccc <__svfscanf_r+0x1c9c>
   14cc8:	eb4fe06f          	j	1337c <__svfscanf_r+0x34c>
   14ccc:	fffff7b7          	lui	a5,0xfffff
   14cd0:	b1478793          	addi	a5,a5,-1260 # ffffeb14 <__BSS_END__+0xfffcbfb8>
   14cd4:	008787b3          	add	a5,a5,s0
   14cd8:	0007a783          	lw	a5,0(a5)
   14cdc:	fffff6b7          	lui	a3,0xfffff
   14ce0:	b0468693          	addi	a3,a3,-1276 # ffffeb04 <__BSS_END__+0xfffcbfa8>
   14ce4:	0067da83          	lhu	s5,6(a5)
   14ce8:	0047d703          	lhu	a4,4(a5)
   14cec:	008686b3          	add	a3,a3,s0
   14cf0:	00ab2023          	sw	a0,0(s6)
   14cf4:	0006ae83          	lw	t4,0(a3)
   14cf8:	2eeaf463          	bgeu	s5,a4,14fe0 <__svfscanf_r+0x1fb0>
   14cfc:	0007a503          	lw	a0,0(a5)
   14d00:	fffff7b7          	lui	a5,0xfffff
   14d04:	b1478793          	addi	a5,a5,-1260 # ffffeb14 <__BSS_END__+0xfffcbfb8>
   14d08:	008787b3          	add	a5,a5,s0
   14d0c:	0007a783          	lw	a5,0(a5)
   14d10:	002a9713          	slli	a4,s5,0x2
   14d14:	00e50533          	add	a0,a0,a4
   14d18:	001a8a93          	addi	s5,s5,1
   14d1c:	01579323          	sh	s5,6(a5)
   14d20:	01652023          	sw	s6,0(a0)
   14d24:	02000c13          	li	s8,32
   14d28:	000da703          	lw	a4,0(s11)
   14d2c:	00074603          	lbu	a2,0(a4)
   14d30:	00c90633          	add	a2,s2,a2
   14d34:	00064603          	lbu	a2,0(a2)
   14d38:	00867613          	andi	a2,a2,8
   14d3c:	340612e3          	bnez	a2,15880 <__svfscanf_r+0x2850>
   14d40:	00098a93          	mv	s5,s3
   14d44:	000e8c93          	mv	s9,t4
   14d48:	004da783          	lw	a5,4(s11)
   14d4c:	00170693          	addi	a3,a4,1
   14d50:	00dda023          	sw	a3,0(s11)
   14d54:	fff78793          	addi	a5,a5,-1
   14d58:	00fda223          	sw	a5,4(s11)
   14d5c:	00074783          	lbu	a5,0(a4)
   14d60:	00198b93          	addi	s7,s3,1
   14d64:	00f98023          	sb	a5,0(s3)
   14d68:	000b0663          	beqz	s6,14d74 <__svfscanf_r+0x1d44>
   14d6c:	415b89b3          	sub	s3,s7,s5
   14d70:	4189f6e3          	bgeu	s3,s8,1597c <__svfscanf_r+0x294c>
   14d74:	fffa0a13          	addi	s4,s4,-1
   14d78:	140a06e3          	beqz	s4,156c4 <__svfscanf_r+0x2694>
   14d7c:	004da783          	lw	a5,4(s11)
   14d80:	12f054e3          	blez	a5,156a8 <__svfscanf_r+0x2678>
   14d84:	000da703          	lw	a4,0(s11)
   14d88:	00074783          	lbu	a5,0(a4)
   14d8c:	00f907b3          	add	a5,s2,a5
   14d90:	0007c783          	lbu	a5,0(a5)
   14d94:	0087f793          	andi	a5,a5,8
   14d98:	120796e3          	bnez	a5,156c4 <__svfscanf_r+0x2694>
   14d9c:	000b8993          	mv	s3,s7
   14da0:	fa9ff06f          	j	14d48 <__svfscanf_r+0x1d18>
   14da4:	fffff7b7          	lui	a5,0xfffff
   14da8:	af878793          	addi	a5,a5,-1288 # ffffeaf8 <__BSS_END__+0xfffcbf9c>
   14dac:	000a8e93          	mv	t4,s5
   14db0:	008787b3          	add	a5,a5,s0
   14db4:	000a0a93          	mv	s5,s4
   14db8:	00048b13          	mv	s6,s1
   14dbc:	effafa93          	andi	s5,s5,-257
   14dc0:	0007a483          	lw	s1,0(a5)
   14dc4:	8e1ff06f          	j	146a4 <__svfscanf_r+0x1674>
   14dc8:	fffff7b7          	lui	a5,0xfffff
   14dcc:	af078793          	addi	a5,a5,-1296 # ffffeaf0 <__BSS_END__+0xfffcbf94>
   14dd0:	008787b3          	add	a5,a5,s0
   14dd4:	0007a783          	lw	a5,0(a5)
   14dd8:	fffff6b7          	lui	a3,0xfffff
   14ddc:	af068693          	addi	a3,a3,-1296 # ffffeaf0 <__BSS_END__+0xfffcbf94>
   14de0:	fff78793          	addi	a5,a5,-1
   14de4:	008686b3          	add	a3,a3,s0
   14de8:	00f6a023          	sw	a5,0(a3)
   14dec:	fccff06f          	j	145b8 <__svfscanf_r+0x1588>
   14df0:	00200713          	li	a4,2
   14df4:	01776463          	bltu	a4,s7,14dfc <__svfscanf_r+0x1dcc>
   14df8:	1b80106f          	j	15fb0 <__svfscanf_r+0x2f80>
   14dfc:	00300713          	li	a4,3
   14e00:	8ceb80e3          	beq	s7,a4,146c0 <__svfscanf_r+0x1690>
   14e04:	ffcb8e13          	addi	t3,s7,-4
   14e08:	0ffe7b93          	zext.b	s7,t3
   14e0c:	fffbcb13          	not	s6,s7
   14e10:	016c0b33          	add	s6,s8,s6
   14e14:	000c0a13          	mv	s4,s8
   14e18:	000b8c13          	mv	s8,s7
   14e1c:	00098b93          	mv	s7,s3
   14e20:	000e8993          	mv	s3,t4
   14e24:	fffff7b7          	lui	a5,0xfffff
   14e28:	b1c78793          	addi	a5,a5,-1252 # ffffeb1c <__BSS_END__+0xfffcbfc0>
   14e2c:	008787b3          	add	a5,a5,s0
   14e30:	fffa4583          	lbu	a1,-1(s4)
   14e34:	0007a503          	lw	a0,0(a5)
   14e38:	fffa0a13          	addi	s4,s4,-1
   14e3c:	000d8613          	mv	a2,s11
   14e40:	1880d0ef          	jal	ra,21fc8 <_ungetc_r>
   14e44:	ff6a10e3          	bne	s4,s6,14e24 <__svfscanf_r+0x1df4>
   14e48:	00098e93          	mv	t4,s3
   14e4c:	fffd0813          	addi	a6,s10,-1
   14e50:	000b8993          	mv	s3,s7
   14e54:	000c0b93          	mv	s7,s8
   14e58:	41780d33          	sub	s10,a6,s7
   14e5c:	000a0c13          	mv	s8,s4
   14e60:	861ff06f          	j	146c0 <__svfscanf_r+0x1690>
   14e64:	fffff7b7          	lui	a5,0xfffff
   14e68:	af878793          	addi	a5,a5,-1288 # ffffeaf8 <__BSS_END__+0xfffcbf9c>
   14e6c:	008787b3          	add	a5,a5,s0
   14e70:	0007a783          	lw	a5,0(a5)
   14e74:	c7fb7b13          	andi	s6,s6,-897
   14e78:	00078e63          	beqz	a5,14e94 <__svfscanf_r+0x1e64>
   14e7c:	fffff6b7          	lui	a3,0xfffff
   14e80:	af868693          	addi	a3,a3,-1288 # ffffeaf8 <__BSS_END__+0xfffcbf9c>
   14e84:	fff78793          	addi	a5,a5,-1
   14e88:	008686b3          	add	a3,a3,s0
   14e8c:	00f6a023          	sw	a5,0(a3)
   14e90:	00148493          	addi	s1,s1,1
   14e94:	00198993          	addi	s3,s3,1
   14e98:	fadfe06f          	j	13e44 <__svfscanf_r+0xe14>
   14e9c:	fffff5b7          	lui	a1,0xfffff
   14ea0:	c5058793          	addi	a5,a1,-944 # ffffec50 <__BSS_END__+0xfffcc0f4>
   14ea4:	008785b3          	add	a1,a5,s0
   14ea8:	fffff7b7          	lui	a5,0xfffff
   14eac:	b1c78793          	addi	a5,a5,-1252 # ffffeb1c <__BSS_END__+0xfffcbfc0>
   14eb0:	008787b3          	add	a5,a5,s0
   14eb4:	0007a503          	lw	a0,0(a5)
   14eb8:	00000613          	li	a2,0
   14ebc:	6fc090ef          	jal	ra,1e5b8 <_strtod_r>
   14ec0:	fffff7b7          	lui	a5,0xfffff
   14ec4:	b0478793          	addi	a5,a5,-1276 # ffffeb04 <__BSS_END__+0xfffcbfa8>
   14ec8:	008787b3          	add	a5,a5,s0
   14ecc:	0007ae83          	lw	t4,0(a5)
   14ed0:	00050b13          	mv	s6,a0
   14ed4:	00058a93          	mv	s5,a1
   14ed8:	900b96e3          	bnez	s7,147e4 <__svfscanf_r+0x17b4>
   14edc:	fffff7b7          	lui	a5,0xfffff
   14ee0:	b0478793          	addi	a5,a5,-1276 # ffffeb04 <__BSS_END__+0xfffcbfa8>
   14ee4:	008787b3          	add	a5,a5,s0
   14ee8:	01d7a023          	sw	t4,0(a5)
   14eec:	00050613          	mv	a2,a0
   14ef0:	00058693          	mv	a3,a1
   14ef4:	360170ef          	jal	ra,2c254 <__unorddf2>
   14ef8:	fffff7b7          	lui	a5,0xfffff
   14efc:	b0878793          	addi	a5,a5,-1272 # ffffeb08 <__BSS_END__+0xfffcbfac>
   14f00:	008787b3          	add	a5,a5,s0
   14f04:	0007a783          	lw	a5,0(a5)
   14f08:	0007ab83          	lw	s7,0(a5)
   14f0c:	fffff7b7          	lui	a5,0xfffff
   14f10:	b0478793          	addi	a5,a5,-1276 # ffffeb04 <__BSS_END__+0xfffcbfa8>
   14f14:	008787b3          	add	a5,a5,s0
   14f18:	0007ae83          	lw	t4,0(a5)
   14f1c:	fffff7b7          	lui	a5,0xfffff
   14f20:	b0878793          	addi	a5,a5,-1272 # ffffeb08 <__BSS_END__+0xfffcbfac>
   14f24:	008787b3          	add	a5,a5,s0
   14f28:	01d7a023          	sw	t4,0(a5)
   14f2c:	00050463          	beqz	a0,14f34 <__svfscanf_r+0x1f04>
   14f30:	0dc0106f          	j	1600c <__svfscanf_r+0x2fdc>
   14f34:	000b0513          	mv	a0,s6
   14f38:	000a8593          	mv	a1,s5
   14f3c:	2851a0ef          	jal	ra,2f9c0 <__truncdfsf2>
   14f40:	fffff7b7          	lui	a5,0xfffff
   14f44:	b0878793          	addi	a5,a5,-1272 # ffffeb08 <__BSS_END__+0xfffcbfac>
   14f48:	008787b3          	add	a5,a5,s0
   14f4c:	0007ae83          	lw	t4,0(a5)
   14f50:	00aba023          	sw	a0,0(s7)
   14f54:	8adff06f          	j	14800 <__svfscanf_r+0x17d0>
   14f58:	fffff7b7          	lui	a5,0xfffff
   14f5c:	b1c78793          	addi	a5,a5,-1252 # ffffeb1c <__BSS_END__+0xfffcbfc0>
   14f60:	008787b3          	add	a5,a5,s0
   14f64:	0007a503          	lw	a0,0(a5)
   14f68:	000d8713          	mv	a4,s11
   14f6c:	000a0693          	mv	a3,s4
   14f70:	00100613          	li	a2,1
   14f74:	000b0593          	mv	a1,s6
   14f78:	351010ef          	jal	ra,16ac8 <_fread_r>
   14f7c:	fffff7b7          	lui	a5,0xfffff
   14f80:	b0478793          	addi	a5,a5,-1276 # ffffeb04 <__BSS_END__+0xfffcbfa8>
   14f84:	008787b3          	add	a5,a5,s0
   14f88:	0007ae83          	lw	t4,0(a5)
   14f8c:	00050993          	mv	s3,a0
   14f90:	ca0518e3          	bnez	a0,14c40 <__svfscanf_r+0x1c10>
   14f94:	bc4fe06f          	j	13358 <__svfscanf_r+0x328>
   14f98:	fffff7b7          	lui	a5,0xfffff
   14f9c:	af878793          	addi	a5,a5,-1288 # ffffeaf8 <__BSS_END__+0xfffcbf9c>
   14fa0:	008787b3          	add	a5,a5,s0
   14fa4:	01d7a023          	sw	t4,0(a5)
   14fa8:	fffff7b7          	lui	a5,0xfffff
   14fac:	b1c78793          	addi	a5,a5,-1252 # ffffeb1c <__BSS_END__+0xfffcbfc0>
   14fb0:	008787b3          	add	a5,a5,s0
   14fb4:	0007a503          	lw	a0,0(a5)
   14fb8:	000d8613          	mv	a2,s11
   14fbc:	ffec0b13          	addi	s6,s8,-2
   14fc0:	0080d0ef          	jal	ra,21fc8 <_ungetc_r>
   14fc4:	fffff7b7          	lui	a5,0xfffff
   14fc8:	af878793          	addi	a5,a5,-1288 # ffffeaf8 <__BSS_END__+0xfffcbf9c>
   14fcc:	008787b3          	add	a5,a5,s0
   14fd0:	ffec4583          	lbu	a1,-2(s8)
   14fd4:	0007ae83          	lw	t4,0(a5)
   14fd8:	ffed0b93          	addi	s7,s10,-2
   14fdc:	f14ff06f          	j	146f0 <__svfscanf_r+0x16c0>
   14fe0:	fffff7b7          	lui	a5,0xfffff
   14fe4:	b0478793          	addi	a5,a5,-1276 # ffffeb04 <__BSS_END__+0xfffcbfa8>
   14fe8:	008787b3          	add	a5,a5,s0
   14fec:	00010637          	lui	a2,0x10
   14ff0:	01d7a023          	sw	t4,0(a5)
   14ff4:	ff660613          	addi	a2,a2,-10 # fff6 <exit-0x9e>
   14ff8:	00e67463          	bgeu	a2,a4,15000 <__svfscanf_r+0x1fd0>
   14ffc:	b98fe06f          	j	13394 <__svfscanf_r+0x364>
   15000:	fffff7b7          	lui	a5,0xfffff
   15004:	b1478793          	addi	a5,a5,-1260 # ffffeb14 <__BSS_END__+0xfffcbfb8>
   15008:	008787b3          	add	a5,a5,s0
   1500c:	0007ac03          	lw	s8,0(a5)
   15010:	00870713          	addi	a4,a4,8
   15014:	01071b93          	slli	s7,a4,0x10
   15018:	000c2503          	lw	a0,0(s8)
   1501c:	010bdb93          	srli	s7,s7,0x10
   15020:	002b9593          	slli	a1,s7,0x2
   15024:	130070ef          	jal	ra,1c154 <realloc>
   15028:	00051463          	bnez	a0,15030 <__svfscanf_r+0x2000>
   1502c:	b68fe06f          	j	13394 <__svfscanf_r+0x364>
   15030:	fffff7b7          	lui	a5,0xfffff
   15034:	b0478793          	addi	a5,a5,-1276 # ffffeb04 <__BSS_END__+0xfffcbfa8>
   15038:	008787b3          	add	a5,a5,s0
   1503c:	0007ae83          	lw	t4,0(a5)
   15040:	00ac2023          	sw	a0,0(s8)
   15044:	017c1223          	sh	s7,4(s8)
   15048:	cb9ff06f          	j	14d00 <__svfscanf_r+0x1cd0>
   1504c:	fffff7b7          	lui	a5,0xfffff
   15050:	b0478793          	addi	a5,a5,-1276 # ffffeb04 <__BSS_END__+0xfffcbfa8>
   15054:	008787b3          	add	a5,a5,s0
   15058:	00010637          	lui	a2,0x10
   1505c:	01d7a023          	sw	t4,0(a5)
   15060:	ff660613          	addi	a2,a2,-10 # fff6 <exit-0x9e>
   15064:	00e67463          	bgeu	a2,a4,1506c <__svfscanf_r+0x203c>
   15068:	b2cfe06f          	j	13394 <__svfscanf_r+0x364>
   1506c:	fffff7b7          	lui	a5,0xfffff
   15070:	b1478793          	addi	a5,a5,-1260 # ffffeb14 <__BSS_END__+0xfffcbfb8>
   15074:	008787b3          	add	a5,a5,s0
   15078:	0007ac03          	lw	s8,0(a5)
   1507c:	00870713          	addi	a4,a4,8
   15080:	01071b13          	slli	s6,a4,0x10
   15084:	000c2503          	lw	a0,0(s8)
   15088:	010b5b13          	srli	s6,s6,0x10
   1508c:	002b1593          	slli	a1,s6,0x2
   15090:	0c4070ef          	jal	ra,1c154 <realloc>
   15094:	00051463          	bnez	a0,1509c <__svfscanf_r+0x206c>
   15098:	afcfe06f          	j	13394 <__svfscanf_r+0x364>
   1509c:	fffff7b7          	lui	a5,0xfffff
   150a0:	b0478793          	addi	a5,a5,-1276 # ffffeb04 <__BSS_END__+0xfffcbfa8>
   150a4:	008787b3          	add	a5,a5,s0
   150a8:	0007ae83          	lw	t4,0(a5)
   150ac:	00ac2023          	sw	a0,0(s8)
   150b0:	016c1223          	sh	s6,4(s8)
   150b4:	9a5ff06f          	j	14a58 <__svfscanf_r+0x1a28>
   150b8:	fffff7b7          	lui	a5,0xfffff
   150bc:	b4078793          	addi	a5,a5,-1216 # ffffeb40 <__BSS_END__+0xfffcbfe4>
   150c0:	008787b3          	add	a5,a5,s0
   150c4:	0007a683          	lw	a3,0(a5)
   150c8:	00400713          	li	a4,4
   150cc:	a6e69a63          	bne	a3,a4,14340 <__svfscanf_r+0x1310>
   150d0:	fffff7b7          	lui	a5,0xfffff
   150d4:	af078793          	addi	a5,a5,-1296 # ffffeaf0 <__BSS_END__+0xfffcbf94>
   150d8:	008787b3          	add	a5,a5,s0
   150dc:	0007a783          	lw	a5,0(a5)
   150e0:	a6078c63          	beqz	a5,14358 <__svfscanf_r+0x1328>
   150e4:	004da703          	lw	a4,4(s11)
   150e8:	00000993          	li	s3,0
   150ec:	ace04063          	bgtz	a4,143ac <__svfscanf_r+0x137c>
   150f0:	000d8593          	mv	a1,s11
   150f4:	000c8513          	mv	a0,s9
   150f8:	5e0070ef          	jal	ra,1c6d8 <__srefill_r>
   150fc:	aa050863          	beqz	a0,143ac <__svfscanf_r+0x137c>
   15100:	fffff7b7          	lui	a5,0xfffff
   15104:	ae078793          	addi	a5,a5,-1312 # ffffeae0 <__BSS_END__+0xfffcbf84>
   15108:	008787b3          	add	a5,a5,s0
   1510c:	0007ae83          	lw	t4,0(a5)
   15110:	fffff7b7          	lui	a5,0xfffff
   15114:	ae478793          	addi	a5,a5,-1308 # ffffeae4 <__BSS_END__+0xfffcbf88>
   15118:	008787b3          	add	a5,a5,s0
   1511c:	0007a883          	lw	a7,0(a5)
   15120:	fffff7b7          	lui	a5,0xfffff
   15124:	af078793          	addi	a5,a5,-1296 # ffffeaf0 <__BSS_END__+0xfffcbf94>
   15128:	008787b3          	add	a5,a5,s0
   1512c:	0007a303          	lw	t1,0(a5)
   15130:	aa098863          	beqz	s3,143e0 <__svfscanf_r+0x13b0>
   15134:	a24fe06f          	j	13358 <__svfscanf_r+0x328>
   15138:	fffff7b7          	lui	a5,0xfffff
   1513c:	af478793          	addi	a5,a5,-1292 # ffffeaf4 <__BSS_END__+0xfffcbf98>
   15140:	008787b3          	add	a5,a5,s0
   15144:	0067a023          	sw	t1,0(a5)
   15148:	fffff7b7          	lui	a5,0xfffff
   1514c:	af878793          	addi	a5,a5,-1288 # ffffeaf8 <__BSS_END__+0xfffcbf9c>
   15150:	008787b3          	add	a5,a5,s0
   15154:	00a7a023          	sw	a0,0(a5)
   15158:	fffff7b7          	lui	a5,0xfffff
   1515c:	b0478793          	addi	a5,a5,-1276 # ffffeb04 <__BSS_END__+0xfffcbfa8>
   15160:	008787b3          	add	a5,a5,s0
   15164:	00010637          	lui	a2,0x10
   15168:	01d7a023          	sw	t4,0(a5)
   1516c:	ff660613          	addi	a2,a2,-10 # fff6 <exit-0x9e>
   15170:	00e67463          	bgeu	a2,a4,15178 <__svfscanf_r+0x2148>
   15174:	a20fe06f          	j	13394 <__svfscanf_r+0x364>
   15178:	fffff7b7          	lui	a5,0xfffff
   1517c:	b1478793          	addi	a5,a5,-1260 # ffffeb14 <__BSS_END__+0xfffcbfb8>
   15180:	008787b3          	add	a5,a5,s0
   15184:	0007ab03          	lw	s6,0(a5)
   15188:	00870713          	addi	a4,a4,8
   1518c:	01071a93          	slli	s5,a4,0x10
   15190:	000b2503          	lw	a0,0(s6)
   15194:	010ada93          	srli	s5,s5,0x10
   15198:	002a9593          	slli	a1,s5,0x2
   1519c:	7b9060ef          	jal	ra,1c154 <realloc>
   151a0:	00051463          	bnez	a0,151a8 <__svfscanf_r+0x2178>
   151a4:	9f0fe06f          	j	13394 <__svfscanf_r+0x364>
   151a8:	fffff7b7          	lui	a5,0xfffff
   151ac:	af478793          	addi	a5,a5,-1292 # ffffeaf4 <__BSS_END__+0xfffcbf98>
   151b0:	008787b3          	add	a5,a5,s0
   151b4:	0007a303          	lw	t1,0(a5)
   151b8:	fffff7b7          	lui	a5,0xfffff
   151bc:	af878793          	addi	a5,a5,-1288 # ffffeaf8 <__BSS_END__+0xfffcbf9c>
   151c0:	008787b3          	add	a5,a5,s0
   151c4:	0007a883          	lw	a7,0(a5)
   151c8:	fffff7b7          	lui	a5,0xfffff
   151cc:	b0478793          	addi	a5,a5,-1276 # ffffeb04 <__BSS_END__+0xfffcbfa8>
   151d0:	008787b3          	add	a5,a5,s0
   151d4:	0007ae83          	lw	t4,0(a5)
   151d8:	00ab2023          	sw	a0,0(s6)
   151dc:	015b1223          	sh	s5,4(s6)
   151e0:	f55fe06f          	j	14134 <__svfscanf_r+0x1104>
   151e4:	fffff7b7          	lui	a5,0xfffff
   151e8:	b1c78793          	addi	a5,a5,-1252 # ffffeb1c <__BSS_END__+0xfffcbfc0>
   151ec:	008787b3          	add	a5,a5,s0
   151f0:	0007a503          	lw	a0,0(a5)
   151f4:	00048593          	mv	a1,s1
   151f8:	4e0070ef          	jal	ra,1c6d8 <__srefill_r>
   151fc:	00051463          	bnez	a0,15204 <__svfscanf_r+0x21d4>
   15200:	b95fe06f          	j	13d94 <__svfscanf_r+0xd64>
   15204:	fffff7b7          	lui	a5,0xfffff
   15208:	aec78793          	addi	a5,a5,-1300 # ffffeaec <__BSS_END__+0xfffcbf90>
   1520c:	008787b3          	add	a5,a5,s0
   15210:	0007ae83          	lw	t4,0(a5)
   15214:	fffff7b7          	lui	a5,0xfffff
   15218:	af478793          	addi	a5,a5,-1292 # ffffeaf4 <__BSS_END__+0xfffcbf98>
   1521c:	008787b3          	add	a5,a5,s0
   15220:	0007ae03          	lw	t3,0(a5)
   15224:	fffff7b7          	lui	a5,0xfffff
   15228:	af078793          	addi	a5,a5,-1296 # ffffeaf0 <__BSS_END__+0xfffcbf94>
   1522c:	008787b3          	add	a5,a5,s0
   15230:	0007a883          	lw	a7,0(a5)
   15234:	fffff7b7          	lui	a5,0xfffff
   15238:	af878793          	addi	a5,a5,-1288 # ffffeaf8 <__BSS_END__+0xfffcbf9c>
   1523c:	008787b3          	add	a5,a5,s0
   15240:	000c8313          	mv	t1,s9
   15244:	0007ac83          	lw	s9,0(a5)
   15248:	00048793          	mv	a5,s1
   1524c:	000d8493          	mv	s1,s11
   15250:	00078d93          	mv	s11,a5
   15254:	00099463          	bnez	s3,1525c <__svfscanf_r+0x222c>
   15258:	b91fe06f          	j	13de8 <__svfscanf_r+0xdb8>
   1525c:	8fcfe06f          	j	13358 <__svfscanf_r+0x328>
   15260:	fffff7b7          	lui	a5,0xfffff
