
./hello64_1.elf:     file format elf64-littleriscv


Disassembly of section .text:

00000000000100e8 <exit>:
   100e8:	1141                	addi	sp,sp,-16
   100ea:	4581                	li	a1,0
   100ec:	e022                	sd	s0,0(sp)
   100ee:	e406                	sd	ra,8(sp)
   100f0:	842a                	mv	s0,a0
   100f2:	0da020ef          	jal	ra,121cc <__call_exitprocs>
   100f6:	7481b503          	ld	a0,1864(gp) # 1f7a8 <_global_impure_ptr>
   100fa:	6d3c                	ld	a5,88(a0)
   100fc:	c391                	beqz	a5,10100 <exit+0x18>
   100fe:	9782                	jalr	a5
   10100:	8522                	mv	a0,s0
   10102:	6bf0a0ef          	jal	ra,1afc0 <_exit>

0000000000010106 <register_fini>:
   10106:	00000793          	li	a5,0
   1010a:	c791                	beqz	a5,10116 <register_fini+0x10>
   1010c:	6549                	lui	a0,0x12
   1010e:	71a50513          	addi	a0,a0,1818 # 1271a <__libc_fini_array>
   10112:	17c0206f          	j	1228e <atexit>
   10116:	8082                	ret

0000000000010118 <_start>:
   10118:	0000f197          	auipc	gp,0xf
   1011c:	f4818193          	addi	gp,gp,-184 # 1f060 <__global_pointer$>
   10120:	77018513          	addi	a0,gp,1904 # 1f7d0 <__malloc_max_total_mem>
   10124:	0000f617          	auipc	a2,0xf
   10128:	73c60613          	addi	a2,a2,1852 # 1f860 <__BSS_END__>
   1012c:	8e09                	sub	a2,a2,a0
   1012e:	4581                	li	a1,0
   10130:	15a000ef          	jal	ra,1028a <memset>
   10134:	00002517          	auipc	a0,0x2
   10138:	15a50513          	addi	a0,a0,346 # 1228e <atexit>
   1013c:	c519                	beqz	a0,1014a <_start+0x32>
   1013e:	00002517          	auipc	a0,0x2
   10142:	5dc50513          	addi	a0,a0,1500 # 1271a <__libc_fini_array>
   10146:	148020ef          	jal	ra,1228e <atexit>
   1014a:	0d6000ef          	jal	ra,10220 <__libc_init_array>
   1014e:	4502                	lw	a0,0(sp)
   10150:	002c                	addi	a1,sp,8
   10152:	4601                	li	a2,0
   10154:	086000ef          	jal	ra,101da <main>
   10158:	bf41                	j	100e8 <exit>

000000000001015a <__do_global_dtors_aux>:
   1015a:	1141                	addi	sp,sp,-16
   1015c:	e022                	sd	s0,0(sp)
   1015e:	7a01c783          	lbu	a5,1952(gp) # 1f800 <completed.1>
   10162:	e406                	sd	ra,8(sp)
   10164:	ef91                	bnez	a5,10180 <__do_global_dtors_aux+0x26>
   10166:	00000793          	li	a5,0
   1016a:	cb81                	beqz	a5,1017a <__do_global_dtors_aux+0x20>
   1016c:	6579                	lui	a0,0x1e
   1016e:	65050513          	addi	a0,a0,1616 # 1e650 <__FRAME_END__>
   10172:	00000097          	auipc	ra,0x0
   10176:	000000e7          	jalr	zero # 0 <exit-0x100e8>
   1017a:	4785                	li	a5,1
   1017c:	7af18023          	sb	a5,1952(gp) # 1f800 <completed.1>
   10180:	60a2                	ld	ra,8(sp)
   10182:	6402                	ld	s0,0(sp)
   10184:	0141                	addi	sp,sp,16
   10186:	8082                	ret

0000000000010188 <frame_dummy>:
   10188:	00000793          	li	a5,0
   1018c:	cb91                	beqz	a5,101a0 <frame_dummy+0x18>
   1018e:	6579                	lui	a0,0x1e
   10190:	7a818593          	addi	a1,gp,1960 # 1f808 <object.0>
   10194:	65050513          	addi	a0,a0,1616 # 1e650 <__FRAME_END__>
   10198:	00000317          	auipc	t1,0x0
   1019c:	00000067          	jr	zero # 0 <exit-0x100e8>
   101a0:	8082                	ret

00000000000101a2 <add_new_key>:
   101a2:	1101                	addi	sp,sp,-32
   101a4:	ec06                	sd	ra,24(sp)
   101a6:	e822                	sd	s0,16(sp)
   101a8:	1000                	addi	s0,sp,32
   101aa:	87aa                	mv	a5,a0
   101ac:	872e                	mv	a4,a1
   101ae:	fef42623          	sw	a5,-20(s0)
   101b2:	87ba                	mv	a5,a4
   101b4:	fef42423          	sw	a5,-24(s0)
   101b8:	fe842703          	lw	a4,-24(s0)
   101bc:	fec42783          	lw	a5,-20(s0)
   101c0:	863a                	mv	a2,a4
   101c2:	85be                	mv	a1,a5
   101c4:	67f1                	lui	a5,0x1c
   101c6:	76078513          	addi	a0,a5,1888 # 1c760 <__clzdi2+0x42>
   101ca:	18c000ef          	jal	ra,10356 <printf>
   101ce:	4781                	li	a5,0
   101d0:	853e                	mv	a0,a5
   101d2:	60e2                	ld	ra,24(sp)
   101d4:	6442                	ld	s0,16(sp)
   101d6:	6105                	addi	sp,sp,32
   101d8:	8082                	ret

00000000000101da <main>:
   101da:	1101                	addi	sp,sp,-32
   101dc:	ec06                	sd	ra,24(sp)
   101de:	e822                	sd	s0,16(sp)
   101e0:	1000                	addi	s0,sp,32
   101e2:	fe042623          	sw	zero,-20(s0)
   101e6:	67f1                	lui	a5,0x1c
   101e8:	77878513          	addi	a0,a5,1912 # 1c778 <__clzdi2+0x5a>
   101ec:	216000ef          	jal	ra,10402 <puts>
   101f0:	0c800593          	li	a1,200
   101f4:	06400513          	li	a0,100
   101f8:	fabff0ef          	jal	ra,101a2 <add_new_key>
   101fc:	87aa                	mv	a5,a0
   101fe:	fef42623          	sw	a5,-20(s0)
   10202:	12c00593          	li	a1,300
   10206:	0c800513          	li	a0,200
   1020a:	f99ff0ef          	jal	ra,101a2 <add_new_key>
   1020e:	87aa                	mv	a5,a0
   10210:	fef42623          	sw	a5,-20(s0)
   10214:	4781                	li	a5,0
   10216:	853e                	mv	a0,a5
   10218:	60e2                	ld	ra,24(sp)
   1021a:	6442                	ld	s0,16(sp)
   1021c:	6105                	addi	sp,sp,32
   1021e:	8082                	ret

0000000000010220 <__libc_init_array>:
   10220:	1101                	addi	sp,sp,-32
   10222:	e822                	sd	s0,16(sp)
   10224:	67f9                	lui	a5,0x1e
   10226:	6479                	lui	s0,0x1e
   10228:	e04a                	sd	s2,0(sp)
   1022a:	65478793          	addi	a5,a5,1620 # 1e654 <__preinit_array_end>
   1022e:	65440713          	addi	a4,s0,1620 # 1e654 <__preinit_array_end>
   10232:	ec06                	sd	ra,24(sp)
   10234:	e426                	sd	s1,8(sp)
   10236:	40e78933          	sub	s2,a5,a4
   1023a:	00e78d63          	beq	a5,a4,10254 <__libc_init_array+0x34>
   1023e:	40395913          	srai	s2,s2,0x3
   10242:	65440413          	addi	s0,s0,1620
   10246:	4481                	li	s1,0
   10248:	601c                	ld	a5,0(s0)
   1024a:	0485                	addi	s1,s1,1
   1024c:	0421                	addi	s0,s0,8
   1024e:	9782                	jalr	a5
   10250:	ff24ece3          	bltu	s1,s2,10248 <__libc_init_array+0x28>
   10254:	6479                	lui	s0,0x1e
   10256:	67f9                	lui	a5,0x1e
   10258:	66878793          	addi	a5,a5,1640 # 1e668 <__do_global_dtors_aux_fini_array_entry>
   1025c:	65840713          	addi	a4,s0,1624 # 1e658 <__init_array_start>
   10260:	40e78933          	sub	s2,a5,a4
   10264:	40395913          	srai	s2,s2,0x3
   10268:	00e78b63          	beq	a5,a4,1027e <__libc_init_array+0x5e>
   1026c:	65840413          	addi	s0,s0,1624
   10270:	4481                	li	s1,0
   10272:	601c                	ld	a5,0(s0)
   10274:	0485                	addi	s1,s1,1
   10276:	0421                	addi	s0,s0,8
   10278:	9782                	jalr	a5
   1027a:	ff24ece3          	bltu	s1,s2,10272 <__libc_init_array+0x52>
   1027e:	60e2                	ld	ra,24(sp)
   10280:	6442                	ld	s0,16(sp)
   10282:	64a2                	ld	s1,8(sp)
   10284:	6902                	ld	s2,0(sp)
   10286:	6105                	addi	sp,sp,32
   10288:	8082                	ret

000000000001028a <memset>:
   1028a:	433d                	li	t1,15
   1028c:	872a                	mv	a4,a0
   1028e:	02c37163          	bgeu	t1,a2,102b0 <memset+0x26>
   10292:	00f77793          	andi	a5,a4,15
   10296:	e3c1                	bnez	a5,10316 <memset+0x8c>
   10298:	e1bd                	bnez	a1,102fe <memset+0x74>
   1029a:	ff067693          	andi	a3,a2,-16
   1029e:	8a3d                	andi	a2,a2,15
   102a0:	96ba                	add	a3,a3,a4
   102a2:	e30c                	sd	a1,0(a4)
   102a4:	e70c                	sd	a1,8(a4)
   102a6:	0741                	addi	a4,a4,16
   102a8:	fed76de3          	bltu	a4,a3,102a2 <memset+0x18>
   102ac:	e211                	bnez	a2,102b0 <memset+0x26>
   102ae:	8082                	ret
   102b0:	40c306b3          	sub	a3,t1,a2
   102b4:	068a                	slli	a3,a3,0x2
   102b6:	00000297          	auipc	t0,0x0
   102ba:	9696                	add	a3,a3,t0
   102bc:	00a68067          	jr	10(a3)
   102c0:	00b70723          	sb	a1,14(a4)
   102c4:	00b706a3          	sb	a1,13(a4)
   102c8:	00b70623          	sb	a1,12(a4)
   102cc:	00b705a3          	sb	a1,11(a4)
   102d0:	00b70523          	sb	a1,10(a4)
   102d4:	00b704a3          	sb	a1,9(a4)
   102d8:	00b70423          	sb	a1,8(a4)
   102dc:	00b703a3          	sb	a1,7(a4)
   102e0:	00b70323          	sb	a1,6(a4)
   102e4:	00b702a3          	sb	a1,5(a4)
   102e8:	00b70223          	sb	a1,4(a4)
   102ec:	00b701a3          	sb	a1,3(a4)
   102f0:	00b70123          	sb	a1,2(a4)
   102f4:	00b700a3          	sb	a1,1(a4)
   102f8:	00b70023          	sb	a1,0(a4)
   102fc:	8082                	ret
   102fe:	0ff5f593          	zext.b	a1,a1
   10302:	00859693          	slli	a3,a1,0x8
   10306:	8dd5                	or	a1,a1,a3
   10308:	01059693          	slli	a3,a1,0x10
   1030c:	8dd5                	or	a1,a1,a3
   1030e:	02059693          	slli	a3,a1,0x20
   10312:	8dd5                	or	a1,a1,a3
   10314:	b759                	j	1029a <memset+0x10>
   10316:	00279693          	slli	a3,a5,0x2
   1031a:	00000297          	auipc	t0,0x0
   1031e:	9696                	add	a3,a3,t0
   10320:	8286                	mv	t0,ra
   10322:	fa2680e7          	jalr	-94(a3)
   10326:	8096                	mv	ra,t0
   10328:	17c1                	addi	a5,a5,-16
   1032a:	8f1d                	sub	a4,a4,a5
   1032c:	963e                	add	a2,a2,a5
   1032e:	f8c371e3          	bgeu	t1,a2,102b0 <memset+0x26>
   10332:	b79d                	j	10298 <memset+0xe>

0000000000010334 <_printf_r>:
   10334:	715d                	addi	sp,sp,-80
   10336:	f032                	sd	a2,32(sp)
   10338:	f436                	sd	a3,40(sp)
   1033a:	f83a                	sd	a4,48(sp)
   1033c:	fc3e                	sd	a5,56(sp)
   1033e:	e0c2                	sd	a6,64(sp)
   10340:	e4c6                	sd	a7,72(sp)
   10342:	862e                	mv	a2,a1
   10344:	690c                	ld	a1,16(a0)
   10346:	1014                	addi	a3,sp,32
   10348:	ec06                	sd	ra,24(sp)
   1034a:	e436                	sd	a3,8(sp)
   1034c:	14e000ef          	jal	ra,1049a <_vfprintf_r>
   10350:	60e2                	ld	ra,24(sp)
   10352:	6161                	addi	sp,sp,80
   10354:	8082                	ret

0000000000010356 <printf>:
   10356:	7581b303          	ld	t1,1880(gp) # 1f7b8 <_impure_ptr>
   1035a:	711d                	addi	sp,sp,-96
   1035c:	f832                	sd	a2,48(sp)
   1035e:	fc36                	sd	a3,56(sp)
   10360:	f42e                	sd	a1,40(sp)
   10362:	e0ba                	sd	a4,64(sp)
   10364:	e4be                	sd	a5,72(sp)
   10366:	e8c2                	sd	a6,80(sp)
   10368:	ecc6                	sd	a7,88(sp)
   1036a:	01033583          	ld	a1,16(t1) # 101a8 <add_new_key+0x6>
   1036e:	1034                	addi	a3,sp,40
   10370:	862a                	mv	a2,a0
   10372:	851a                	mv	a0,t1
   10374:	ec06                	sd	ra,24(sp)
   10376:	e436                	sd	a3,8(sp)
   10378:	122000ef          	jal	ra,1049a <_vfprintf_r>
   1037c:	60e2                	ld	ra,24(sp)
   1037e:	6125                	addi	sp,sp,96
   10380:	8082                	ret

0000000000010382 <_puts_r>:
   10382:	7159                	addi	sp,sp,-112
   10384:	f0a2                	sd	s0,96(sp)
   10386:	842a                	mv	s0,a0
   10388:	852e                	mv	a0,a1
   1038a:	eca6                	sd	s1,88(sp)
   1038c:	f486                	sd	ra,104(sp)
   1038e:	84ae                	mv	s1,a1
   10390:	07a000ef          	jal	ra,1040a <strlen>
   10394:	67f1                	lui	a5,0x1c
   10396:	78878793          	addi	a5,a5,1928 # 1c788 <__clzdi2+0x6a>
   1039a:	e0be                	sd	a5,64(sp)
   1039c:	4785                	li	a5,1
   1039e:	e4be                	sd	a5,72(sp)
   103a0:	4838                	lw	a4,80(s0)
   103a2:	181c                	addi	a5,sp,48
   103a4:	00150693          	addi	a3,a0,1
   103a8:	ec3e                	sd	a5,24(sp)
   103aa:	4789                	li	a5,2
   103ac:	f826                	sd	s1,48(sp)
   103ae:	fc2a                	sd	a0,56(sp)
   103b0:	f436                	sd	a3,40(sp)
   103b2:	d03e                	sw	a5,32(sp)
   103b4:	680c                	ld	a1,16(s0)
   103b6:	cf15                	beqz	a4,103f2 <_puts_r+0x70>
   103b8:	01059783          	lh	a5,16(a1)
   103bc:	03279713          	slli	a4,a5,0x32
   103c0:	00074d63          	bltz	a4,103da <_puts_r+0x58>
   103c4:	0ac5a703          	lw	a4,172(a1)
   103c8:	6689                	lui	a3,0x2
   103ca:	8fd5                	or	a5,a5,a3
   103cc:	76f9                	lui	a3,0xffffe
   103ce:	16fd                	addi	a3,a3,-1 # ffffffffffffdfff <__BSS_END__+0xfffffffffffde79f>
   103d0:	8f75                	and	a4,a4,a3
   103d2:	00f59823          	sh	a5,16(a1)
   103d6:	0ae5a623          	sw	a4,172(a1)
   103da:	0830                	addi	a2,sp,24
   103dc:	8522                	mv	a0,s0
   103de:	692020ef          	jal	ra,12a70 <__sfvwrite_r>
   103e2:	47a9                	li	a5,10
   103e4:	ed09                	bnez	a0,103fe <_puts_r+0x7c>
   103e6:	70a6                	ld	ra,104(sp)
   103e8:	7406                	ld	s0,96(sp)
   103ea:	64e6                	ld	s1,88(sp)
   103ec:	853e                	mv	a0,a5
   103ee:	6165                	addi	sp,sp,112
   103f0:	8082                	ret
   103f2:	8522                	mv	a0,s0
   103f4:	e42e                	sd	a1,8(sp)
   103f6:	2fc020ef          	jal	ra,126f2 <__sinit>
   103fa:	65a2                	ld	a1,8(sp)
   103fc:	bf75                	j	103b8 <_puts_r+0x36>
   103fe:	57fd                	li	a5,-1
   10400:	b7dd                	j	103e6 <_puts_r+0x64>

0000000000010402 <puts>:
   10402:	85aa                	mv	a1,a0
   10404:	7581b503          	ld	a0,1880(gp) # 1f7b8 <_impure_ptr>
   10408:	bfad                	j	10382 <_puts_r>

000000000001040a <strlen>:
   1040a:	00757793          	andi	a5,a0,7
   1040e:	872a                	mv	a4,a0
   10410:	eba9                	bnez	a5,10462 <strlen+0x58>
   10412:	7101b683          	ld	a3,1808(gp) # 1f770 <__SDATA_BEGIN__>
   10416:	55fd                	li	a1,-1
   10418:	6310                	ld	a2,0(a4)
   1041a:	0721                	addi	a4,a4,8
   1041c:	00d677b3          	and	a5,a2,a3
   10420:	97b6                	add	a5,a5,a3
   10422:	8fd1                	or	a5,a5,a2
   10424:	8fd5                	or	a5,a5,a3
   10426:	feb789e3          	beq	a5,a1,10418 <strlen+0xe>
   1042a:	ff874683          	lbu	a3,-8(a4)
   1042e:	40a707b3          	sub	a5,a4,a0
   10432:	c6a9                	beqz	a3,1047c <strlen+0x72>
   10434:	ff974683          	lbu	a3,-7(a4)
   10438:	ce9d                	beqz	a3,10476 <strlen+0x6c>
   1043a:	ffa74683          	lbu	a3,-6(a4)
   1043e:	c6a9                	beqz	a3,10488 <strlen+0x7e>
   10440:	ffb74683          	lbu	a3,-5(a4)
   10444:	ce9d                	beqz	a3,10482 <strlen+0x78>
   10446:	ffc74683          	lbu	a3,-4(a4)
   1044a:	c2b1                	beqz	a3,1048e <strlen+0x84>
   1044c:	ffd74683          	lbu	a3,-3(a4)
   10450:	c2b1                	beqz	a3,10494 <strlen+0x8a>
   10452:	ffe74503          	lbu	a0,-2(a4)
   10456:	00a03533          	snez	a0,a0
   1045a:	953e                	add	a0,a0,a5
   1045c:	1579                	addi	a0,a0,-2
   1045e:	8082                	ret
   10460:	dacd                	beqz	a3,10412 <strlen+0x8>
   10462:	00074783          	lbu	a5,0(a4)
   10466:	0705                	addi	a4,a4,1
   10468:	00777693          	andi	a3,a4,7
   1046c:	fbf5                	bnez	a5,10460 <strlen+0x56>
   1046e:	8f09                	sub	a4,a4,a0
   10470:	fff70513          	addi	a0,a4,-1
   10474:	8082                	ret
   10476:	ff978513          	addi	a0,a5,-7
   1047a:	8082                	ret
   1047c:	ff878513          	addi	a0,a5,-8
   10480:	8082                	ret
   10482:	ffb78513          	addi	a0,a5,-5
   10486:	8082                	ret
   10488:	ffa78513          	addi	a0,a5,-6
   1048c:	8082                	ret
   1048e:	ffc78513          	addi	a0,a5,-4
   10492:	8082                	ret
   10494:	ffd78513          	addi	a0,a5,-3
   10498:	8082                	ret

000000000001049a <_vfprintf_r>:
   1049a:	d9010113          	addi	sp,sp,-624
   1049e:	26113423          	sd	ra,616(sp)
   104a2:	25213823          	sd	s2,592(sp)
   104a6:	25413023          	sd	s4,576(sp)
   104aa:	21b13423          	sd	s11,520(sp)
   104ae:	892e                	mv	s2,a1
   104b0:	8db2                	mv	s11,a2
   104b2:	ec36                	sd	a3,24(sp)
   104b4:	26813023          	sd	s0,608(sp)
   104b8:	24913c23          	sd	s1,600(sp)
   104bc:	25313423          	sd	s3,584(sp)
   104c0:	23513c23          	sd	s5,568(sp)
   104c4:	23613823          	sd	s6,560(sp)
   104c8:	23713423          	sd	s7,552(sp)
   104cc:	23813023          	sd	s8,544(sp)
   104d0:	21913c23          	sd	s9,536(sp)
   104d4:	21a13823          	sd	s10,528(sp)
   104d8:	8a2a                	mv	s4,a0
   104da:	2d9040ef          	jal	ra,14fb2 <_localeconv_r>
   104de:	611c                	ld	a5,0(a0)
   104e0:	853e                	mv	a0,a5
   104e2:	e13e                	sd	a5,128(sp)
   104e4:	f27ff0ef          	jal	ra,1040a <strlen>
   104e8:	fcaa                	sd	a0,120(sp)
   104ea:	f982                	sd	zero,240(sp)
   104ec:	fd82                	sd	zero,248(sp)
   104ee:	000a0663          	beqz	s4,104fa <_vfprintf_r+0x60>
   104f2:	050a2783          	lw	a5,80(s4)
   104f6:	5a078c63          	beqz	a5,10aae <_vfprintf_r+0x614>
   104fa:	01091783          	lh	a5,16(s2)
   104fe:	03279713          	slli	a4,a5,0x32
   10502:	02074163          	bltz	a4,10524 <_vfprintf_r+0x8a>
   10506:	0ac92703          	lw	a4,172(s2)
   1050a:	6689                	lui	a3,0x2
   1050c:	8fd5                	or	a5,a5,a3
   1050e:	76f9                	lui	a3,0xffffe
   10510:	0107979b          	slliw	a5,a5,0x10
   10514:	16fd                	addi	a3,a3,-1 # ffffffffffffdfff <__BSS_END__+0xfffffffffffde79f>
   10516:	4107d79b          	sraiw	a5,a5,0x10
   1051a:	8f75                	and	a4,a4,a3
   1051c:	00f91823          	sh	a5,16(s2)
   10520:	0ae92623          	sw	a4,172(s2)
   10524:	0087f713          	andi	a4,a5,8
   10528:	26070363          	beqz	a4,1078e <_vfprintf_r+0x2f4>
   1052c:	01893703          	ld	a4,24(s2)
   10530:	24070f63          	beqz	a4,1078e <_vfprintf_r+0x2f4>
   10534:	8be9                	andi	a5,a5,26
   10536:	4729                	li	a4,10
   10538:	26e78863          	beq	a5,a4,107a8 <_vfprintf_r+0x30e>
   1053c:	67f1                	lui	a5,0x1c
   1053e:	7ec78793          	addi	a5,a5,2028 # 1c7ec <__clzdi2+0xce>
   10542:	f83e                	sd	a5,48(sp)
   10544:	000dc783          	lbu	a5,0(s11)
   10548:	18010b13          	addi	s6,sp,384
   1054c:	6c75                	lui	s8,0x1d
   1054e:	e25a                	sd	s6,256(sp)
   10550:	ea02                	sd	zero,272(sp)
   10552:	10012423          	sw	zero,264(sp)
   10556:	f402                	sd	zero,40(sp)
   10558:	fc02                	sd	zero,56(sp)
   1055a:	e902                	sd	zero,144(sp)
   1055c:	f882                	sd	zero,112(sp)
   1055e:	e502                	sd	zero,136(sp)
   10560:	ed02                	sd	zero,152(sp)
   10562:	e402                	sd	zero,8(sp)
   10564:	835a                	mv	t1,s6
   10566:	9f0c0c13          	addi	s8,s8,-1552 # 1c9f0 <zeroes.0>
   1056a:	1c078363          	beqz	a5,10730 <_vfprintf_r+0x296>
   1056e:	846e                	mv	s0,s11
   10570:	02500713          	li	a4,37
   10574:	30e78263          	beq	a5,a4,10878 <_vfprintf_r+0x3de>
   10578:	00144783          	lbu	a5,1(s0)
   1057c:	0405                	addi	s0,s0,1
   1057e:	fbfd                	bnez	a5,10574 <_vfprintf_r+0xda>
   10580:	41b404bb          	subw	s1,s0,s11
   10584:	1a048663          	beqz	s1,10730 <_vfprintf_r+0x296>
   10588:	6cd2                	ld	s9,272(sp)
   1058a:	10812783          	lw	a5,264(sp)
   1058e:	01b33023          	sd	s11,0(t1)
   10592:	009c8733          	add	a4,s9,s1
   10596:	2785                	addiw	a5,a5,1
   10598:	00933423          	sd	s1,8(t1)
   1059c:	ea3a                	sd	a4,272(sp)
   1059e:	10f12423          	sw	a5,264(sp)
   105a2:	0007871b          	sext.w	a4,a5
   105a6:	479d                	li	a5,7
   105a8:	0341                	addi	t1,t1,16
   105aa:	2ce7ce63          	blt	a5,a4,10886 <_vfprintf_r+0x3ec>
   105ae:	6722                	ld	a4,8(sp)
   105b0:	00044783          	lbu	a5,0(s0)
   105b4:	9f25                	addw	a4,a4,s1
   105b6:	e43a                	sd	a4,8(sp)
   105b8:	16078c63          	beqz	a5,10730 <_vfprintf_r+0x296>
   105bc:	00144e03          	lbu	t3,1(s0)
   105c0:	0c0107a3          	sb	zero,207(sp)
   105c4:	0405                	addi	s0,s0,1
   105c6:	5efd                	li	t4,-1
   105c8:	4a81                	li	s5,0
   105ca:	4481                	li	s1,0
   105cc:	05a00993          	li	s3,90
   105d0:	0405                	addi	s0,s0,1
   105d2:	000e0d1b          	sext.w	s10,t3
   105d6:	fe0d079b          	addiw	a5,s10,-32
   105da:	0007871b          	sext.w	a4,a5
   105de:	04e9e563          	bltu	s3,a4,10628 <_vfprintf_r+0x18e>
   105e2:	02079713          	slli	a4,a5,0x20
   105e6:	01e75793          	srli	a5,a4,0x1e
   105ea:	7742                	ld	a4,48(sp)
   105ec:	97ba                	add	a5,a5,a4
   105ee:	439c                	lw	a5,0(a5)
   105f0:	8782                	jr	a5
   105f2:	4a81                	li	s5,0
   105f4:	4625                	li	a2,9
   105f6:	00044703          	lbu	a4,0(s0)
   105fa:	002a979b          	slliw	a5,s5,0x2
   105fe:	015787bb          	addw	a5,a5,s5
   10602:	fd0d0e1b          	addiw	t3,s10,-48
   10606:	0017979b          	slliw	a5,a5,0x1
   1060a:	fd07069b          	addiw	a3,a4,-48
   1060e:	0405                	addi	s0,s0,1
   10610:	00fe0abb          	addw	s5,t3,a5
   10614:	00070d1b          	sext.w	s10,a4
   10618:	fcd67fe3          	bgeu	a2,a3,105f6 <_vfprintf_r+0x15c>
   1061c:	fe0d079b          	addiw	a5,s10,-32
   10620:	0007871b          	sext.w	a4,a5
   10624:	fae9ffe3          	bgeu	s3,a4,105e2 <_vfprintf_r+0x148>
   10628:	100d0463          	beqz	s10,10730 <_vfprintf_r+0x296>
   1062c:	11a10c23          	sb	s10,280(sp)
   10630:	0c0107a3          	sb	zero,207(sp)
   10634:	4985                	li	s3,1
   10636:	4b85                	li	s7,1
   10638:	11810d93          	addi	s11,sp,280
   1063c:	f002                	sd	zero,32(sp)
   1063e:	4e81                	li	t4,0
   10640:	ec82                	sd	zero,88(sp)
   10642:	f482                	sd	zero,104(sp)
   10644:	f082                	sd	zero,96(sp)
   10646:	0024ff13          	andi	t5,s1,2
   1064a:	000f0363          	beqz	t5,10650 <_vfprintf_r+0x1b6>
   1064e:	2989                	addiw	s3,s3,2
   10650:	0844f893          	andi	a7,s1,132
   10654:	00089663          	bnez	a7,10660 <_vfprintf_r+0x1c6>
   10658:	413a8cbb          	subw	s9,s5,s3
   1065c:	0b9043e3          	bgtz	s9,10f02 <_vfprintf_r+0xa68>
   10660:	0cf14783          	lbu	a5,207(sp)
   10664:	6cd2                	ld	s9,272(sp)
   10666:	c78d                	beqz	a5,10690 <_vfprintf_r+0x1f6>
   10668:	10812783          	lw	a5,264(sp)
   1066c:	0cf10713          	addi	a4,sp,207
   10670:	00e33023          	sd	a4,0(t1)
   10674:	2785                	addiw	a5,a5,1
   10676:	4705                	li	a4,1
   10678:	0c85                	addi	s9,s9,1
   1067a:	00e33423          	sd	a4,8(t1)
   1067e:	10f12423          	sw	a5,264(sp)
   10682:	0007871b          	sext.w	a4,a5
   10686:	ea66                	sd	s9,272(sp)
   10688:	479d                	li	a5,7
   1068a:	0341                	addi	t1,t1,16
   1068c:	28e7ca63          	blt	a5,a4,10920 <_vfprintf_r+0x486>
   10690:	020f0563          	beqz	t5,106ba <_vfprintf_r+0x220>
   10694:	10812783          	lw	a5,264(sp)
   10698:	0998                	addi	a4,sp,208
   1069a:	00e33023          	sd	a4,0(t1)
   1069e:	2785                	addiw	a5,a5,1
   106a0:	4709                	li	a4,2
   106a2:	0c89                	addi	s9,s9,2
   106a4:	00e33423          	sd	a4,8(t1)
   106a8:	10f12423          	sw	a5,264(sp)
   106ac:	0007871b          	sext.w	a4,a5
   106b0:	ea66                	sd	s9,272(sp)
   106b2:	479d                	li	a5,7
   106b4:	0341                	addi	t1,t1,16
   106b6:	0ee7c6e3          	blt	a5,a4,10fa2 <_vfprintf_r+0xb08>
   106ba:	08000793          	li	a5,128
   106be:	6ef88e63          	beq	a7,a5,10dba <_vfprintf_r+0x920>
   106c2:	417e86bb          	subw	a3,t4,s7
   106c6:	78d04063          	bgtz	a3,10e46 <_vfprintf_r+0x9ac>
   106ca:	1004f793          	andi	a5,s1,256
   106ce:	5e079263          	bnez	a5,10cb2 <_vfprintf_r+0x818>
   106d2:	10812783          	lw	a5,264(sp)
   106d6:	019b8733          	add	a4,s7,s9
   106da:	01b33023          	sd	s11,0(t1)
   106de:	0017869b          	addiw	a3,a5,1
   106e2:	87b6                	mv	a5,a3
   106e4:	01733423          	sd	s7,8(t1)
   106e8:	10f12423          	sw	a5,264(sp)
   106ec:	ea3a                	sd	a4,272(sp)
   106ee:	479d                	li	a5,7
   106f0:	30d7c363          	blt	a5,a3,109f6 <_vfprintf_r+0x55c>
   106f4:	0341                	addi	t1,t1,16
   106f6:	8891                	andi	s1,s1,4
   106f8:	c489                	beqz	s1,10702 <_vfprintf_r+0x268>
   106fa:	413a84bb          	subw	s1,s5,s3
   106fe:	0c9040e3          	bgtz	s1,10fbe <_vfprintf_r+0xb24>
   10702:	87d6                	mv	a5,s5
   10704:	013ad363          	bge	s5,s3,1070a <_vfprintf_r+0x270>
   10708:	87ce                	mv	a5,s3
   1070a:	66a2                	ld	a3,8(sp)
   1070c:	9fb5                	addw	a5,a5,a3
   1070e:	e43e                	sd	a5,8(sp)
   10710:	7a071a63          	bnez	a4,10ec4 <_vfprintf_r+0xa2a>
   10714:	7782                	ld	a5,32(sp)
   10716:	10012423          	sw	zero,264(sp)
   1071a:	c789                	beqz	a5,10724 <_vfprintf_r+0x28a>
   1071c:	7582                	ld	a1,32(sp)
   1071e:	8552                	mv	a0,s4
   10720:	102020ef          	jal	ra,12822 <_free_r>
   10724:	835a                	mv	t1,s6
   10726:	8da2                	mv	s11,s0
   10728:	000dc783          	lbu	a5,0(s11)
   1072c:	e40791e3          	bnez	a5,1056e <_vfprintf_r+0xd4>
   10730:	67d2                	ld	a5,272(sp)
   10732:	c399                	beqz	a5,10738 <_vfprintf_r+0x29e>
   10734:	3400106f          	j	11a74 <_vfprintf_r+0x15da>
   10738:	01095783          	lhu	a5,16(s2)
   1073c:	0407f793          	andi	a5,a5,64
   10740:	c399                	beqz	a5,10746 <_vfprintf_r+0x2ac>
   10742:	6c60106f          	j	11e08 <_vfprintf_r+0x196e>
   10746:	26813083          	ld	ra,616(sp)
   1074a:	26013403          	ld	s0,608(sp)
   1074e:	6522                	ld	a0,8(sp)
   10750:	25813483          	ld	s1,600(sp)
   10754:	25013903          	ld	s2,592(sp)
   10758:	24813983          	ld	s3,584(sp)
   1075c:	24013a03          	ld	s4,576(sp)
   10760:	23813a83          	ld	s5,568(sp)
   10764:	23013b03          	ld	s6,560(sp)
   10768:	22813b83          	ld	s7,552(sp)
   1076c:	22013c03          	ld	s8,544(sp)
   10770:	21813c83          	ld	s9,536(sp)
   10774:	21013d03          	ld	s10,528(sp)
   10778:	20813d83          	ld	s11,520(sp)
   1077c:	27010113          	addi	sp,sp,624
   10780:	8082                	ret
   10782:	0104e493          	ori	s1,s1,16
   10786:	00044e03          	lbu	t3,0(s0)
   1078a:	2481                	sext.w	s1,s1
   1078c:	b591                	j	105d0 <_vfprintf_r+0x136>
   1078e:	85ca                	mv	a1,s2
   10790:	8552                	mv	a0,s4
   10792:	15f010ef          	jal	ra,120f0 <__swsetup_r>
   10796:	c119                	beqz	a0,1079c <_vfprintf_r+0x302>
   10798:	6700106f          	j	11e08 <_vfprintf_r+0x196e>
   1079c:	01091783          	lh	a5,16(s2)
   107a0:	4729                	li	a4,10
   107a2:	8be9                	andi	a5,a5,26
   107a4:	d8e79ce3          	bne	a5,a4,1053c <_vfprintf_r+0xa2>
   107a8:	01291783          	lh	a5,18(s2)
   107ac:	d807c8e3          	bltz	a5,1053c <_vfprintf_r+0xa2>
   107b0:	66e2                	ld	a3,24(sp)
   107b2:	866e                	mv	a2,s11
   107b4:	85ca                	mv	a1,s2
   107b6:	8552                	mv	a0,s4
   107b8:	09d010ef          	jal	ra,12054 <__sbprintf>
   107bc:	e42a                	sd	a0,8(sp)
   107be:	b761                	j	10746 <_vfprintf_r+0x2ac>
   107c0:	0104e493          	ori	s1,s1,16
   107c4:	2481                	sext.w	s1,s1
   107c6:	66e2                	ld	a3,24(sp)
   107c8:	0204f793          	andi	a5,s1,32
   107cc:	00868713          	addi	a4,a3,8
   107d0:	24078c63          	beqz	a5,10a28 <_vfprintf_r+0x58e>
   107d4:	629c                	ld	a5,0(a3)
   107d6:	89be                	mv	s3,a5
   107d8:	2607ca63          	bltz	a5,10a4c <_vfprintf_r+0x5b2>
   107dc:	57fd                	li	a5,-1
   107de:	2efe80e3          	beq	t4,a5,112be <_vfprintf_r+0xe24>
   107e2:	f7f4fc93          	andi	s9,s1,-129
   107e6:	2c81                	sext.w	s9,s9
   107e8:	72099ce3          	bnez	s3,11720 <_vfprintf_r+0x1286>
   107ec:	000e8463          	beqz	t4,107f4 <_vfprintf_r+0x35a>
   107f0:	6f20106f          	j	11ee2 <_vfprintf_r+0x1a48>
   107f4:	4b81                	li	s7,0
   107f6:	ec3a                	sd	a4,24(sp)
   107f8:	84e6                	mv	s1,s9
   107fa:	17c10d93          	addi	s11,sp,380
   107fe:	0cf14783          	lbu	a5,207(sp)
   10802:	000b899b          	sext.w	s3,s7
   10806:	01dbd463          	bge	s7,t4,1080e <_vfprintf_r+0x374>
   1080a:	000e899b          	sext.w	s3,t4
   1080e:	f002                	sd	zero,32(sp)
   10810:	ec82                	sd	zero,88(sp)
   10812:	f482                	sd	zero,104(sp)
   10814:	f082                	sd	zero,96(sp)
   10816:	e20788e3          	beqz	a5,10646 <_vfprintf_r+0x1ac>
   1081a:	2985                	addiw	s3,s3,1
   1081c:	b52d                	j	10646 <_vfprintf_r+0x1ac>
   1081e:	0104e493          	ori	s1,s1,16
   10822:	2481                	sext.w	s1,s1
   10824:	66e2                	ld	a3,24(sp)
   10826:	0204f793          	andi	a5,s1,32
   1082a:	00868713          	addi	a4,a3,8
   1082e:	1c078e63          	beqz	a5,10a0a <_vfprintf_r+0x570>
   10832:	0006b983          	ld	s3,0(a3)
   10836:	bff4fc93          	andi	s9,s1,-1025
   1083a:	2c81                	sext.w	s9,s9
   1083c:	ec3a                	sd	a4,24(sp)
   1083e:	4781                	li	a5,0
   10840:	4701                	li	a4,0
   10842:	0ce107a3          	sb	a4,207(sp)
   10846:	577d                	li	a4,-1
   10848:	20ee8e63          	beq	t4,a4,10a64 <_vfprintf_r+0x5ca>
   1084c:	f7fcf493          	andi	s1,s9,-129
   10850:	2481                	sext.w	s1,s1
   10852:	68099863          	bnez	s3,10ee2 <_vfprintf_r+0xa48>
   10856:	520e9563          	bnez	t4,10d80 <_vfprintf_r+0x8e6>
   1085a:	1e0794e3          	bnez	a5,11242 <_vfprintf_r+0xda8>
   1085e:	001cfb93          	andi	s7,s9,1
   10862:	17c10d93          	addi	s11,sp,380
   10866:	f80b8ce3          	beqz	s7,107fe <_vfprintf_r+0x364>
   1086a:	03000793          	li	a5,48
   1086e:	16f10da3          	sb	a5,379(sp)
   10872:	17b10d93          	addi	s11,sp,379
   10876:	b761                	j	107fe <_vfprintf_r+0x364>
   10878:	41b404bb          	subw	s1,s0,s11
   1087c:	d00496e3          	bnez	s1,10588 <_vfprintf_r+0xee>
   10880:	00044783          	lbu	a5,0(s0)
   10884:	bb15                	j	105b8 <_vfprintf_r+0x11e>
   10886:	0210                	addi	a2,sp,256
   10888:	85ca                	mv	a1,s2
   1088a:	8552                	mv	a0,s4
   1088c:	0b4080ef          	jal	ra,18940 <__sprint_r>
   10890:	ea0514e3          	bnez	a0,10738 <_vfprintf_r+0x29e>
   10894:	835a                	mv	t1,s6
   10896:	bb21                	j	105ae <_vfprintf_r+0x114>
   10898:	0084f793          	andi	a5,s1,8
   1089c:	200784e3          	beqz	a5,112a4 <_vfprintf_r+0xe0a>
   108a0:	67e2                	ld	a5,24(sp)
   108a2:	07bd                	addi	a5,a5,15
   108a4:	ff07f713          	andi	a4,a5,-16
   108a8:	631c                	ld	a5,0(a4)
   108aa:	670c                	ld	a1,8(a4)
   108ac:	0741                	addi	a4,a4,16
   108ae:	ec3a                	sd	a4,24(sp)
   108b0:	1988                	addi	a0,sp,240
   108b2:	f01a                	sd	t1,32(sp)
   108b4:	e876                	sd	t4,16(sp)
   108b6:	f9be                	sd	a5,240(sp)
   108b8:	fdae                	sd	a1,248(sp)
   108ba:	6b0040ef          	jal	ra,14f6a <_ldcheck>
   108be:	cdaa                	sw	a0,216(sp)
   108c0:	4789                	li	a5,2
   108c2:	6ec2                	ld	t4,16(sp)
   108c4:	7302                	ld	t1,32(sp)
   108c6:	66f500e3          	beq	a0,a5,11726 <_vfprintf_r+0x128c>
   108ca:	4785                	li	a5,1
   108cc:	00f51463          	bne	a0,a5,108d4 <_vfprintf_r+0x43a>
   108d0:	7730006f          	j	11842 <_vfprintf_r+0x13a8>
   108d4:	06100793          	li	a5,97
   108d8:	38fd05e3          	beq	s10,a5,11462 <_vfprintf_r+0xfc8>
   108dc:	04100793          	li	a5,65
   108e0:	05800713          	li	a4,88
   108e4:	38fd01e3          	beq	s10,a5,11466 <_vfprintf_r+0xfcc>
   108e8:	57fd                	li	a5,-1
   108ea:	00fe9463          	bne	t4,a5,108f2 <_vfprintf_r+0x458>
   108ee:	5ee0106f          	j	11edc <_vfprintf_r+0x1a42>
   108f2:	fdfd7793          	andi	a5,s10,-33
   108f6:	04700713          	li	a4,71
   108fa:	00e79463          	bne	a5,a4,10902 <_vfprintf_r+0x468>
   108fe:	5d00106f          	j	11ece <_vfprintf_r+0x1a34>
   10902:	1004e793          	ori	a5,s1,256
   10906:	7bee                	ld	s7,248(sp)
   10908:	2781                	sext.w	a5,a5
   1090a:	f13e                	sd	a5,160(sp)
   1090c:	e8a6                	sd	s1,80(sp)
   1090e:	79ce                	ld	s3,240(sp)
   10910:	000bd463          	bgez	s7,10918 <_vfprintf_r+0x47e>
   10914:	1780106f          	j	11a8c <_vfprintf_r+0x15f2>
   10918:	f902                	sd	zero,176(sp)
   1091a:	f002                	sd	zero,32(sp)
   1091c:	3890006f          	j	114a4 <_vfprintf_r+0x100a>
   10920:	0210                	addi	a2,sp,256
   10922:	85ca                	mv	a1,s2
   10924:	8552                	mv	a0,s4
   10926:	e4f6                	sd	t4,72(sp)
   10928:	e0c6                	sd	a7,64(sp)
   1092a:	e87a                	sd	t5,16(sp)
   1092c:	014080ef          	jal	ra,18940 <__sprint_r>
   10930:	5a051163          	bnez	a0,10ed2 <_vfprintf_r+0xa38>
   10934:	6cd2                	ld	s9,272(sp)
   10936:	6ea6                	ld	t4,72(sp)
   10938:	6886                	ld	a7,64(sp)
   1093a:	6f42                	ld	t5,16(sp)
   1093c:	835a                	mv	t1,s6
   1093e:	bb89                	j	10690 <_vfprintf_r+0x1f6>
   10940:	7722                	ld	a4,40(sp)
   10942:	4785                	li	a5,1
   10944:	10812683          	lw	a3,264(sp)
   10948:	01030b93          	addi	s7,t1,16
   1094c:	02e7d4e3          	bge	a5,a4,11174 <_vfprintf_r+0xcda>
   10950:	2685                	addiw	a3,a3,1
   10952:	4785                	li	a5,1
   10954:	001c8713          	addi	a4,s9,1
   10958:	00f33423          	sd	a5,8(t1)
   1095c:	10d12423          	sw	a3,264(sp)
   10960:	0006879b          	sext.w	a5,a3
   10964:	01b33023          	sd	s11,0(t1)
   10968:	ea3a                	sd	a4,272(sp)
   1096a:	469d                	li	a3,7
   1096c:	4ef6c0e3          	blt	a3,a5,1164c <_vfprintf_r+0x11b2>
   10970:	0017869b          	addiw	a3,a5,1
   10974:	77e6                	ld	a5,120(sp)
   10976:	10d12423          	sw	a3,264(sp)
   1097a:	0bc1                	addi	s7,s7,16
   1097c:	00e78d33          	add	s10,a5,a4
   10980:	670a                	ld	a4,128(sp)
   10982:	fefbbc23          	sd	a5,-8(s7)
   10986:	ea6a                	sd	s10,272(sp)
   10988:	0006879b          	sext.w	a5,a3
   1098c:	feebb823          	sd	a4,-16(s7)
   10990:	469d                	li	a3,7
   10992:	4cf6cae3          	blt	a3,a5,11666 <_vfprintf_r+0x11cc>
   10996:	754e                	ld	a0,240(sp)
   10998:	75ee                	ld	a1,248(sp)
   1099a:	4681                	li	a3,0
   1099c:	4601                	li	a2,0
   1099e:	e83e                	sd	a5,16(sp)
   109a0:	7e60a0ef          	jal	ra,1b186 <__eqtf2>
   109a4:	77a2                	ld	a5,40(sp)
   109a6:	fff7869b          	addiw	a3,a5,-1
   109aa:	67c2                	ld	a5,16(sp)
   109ac:	000504e3          	beqz	a0,111b4 <_vfprintf_r+0xd1a>
   109b0:	2785                	addiw	a5,a5,1
   109b2:	001d8813          	addi	a6,s11,1
   109b6:	863e                	mv	a2,a5
   109b8:	9d36                	add	s10,s10,a3
   109ba:	010bb023          	sd	a6,0(s7)
   109be:	00dbb423          	sd	a3,8(s7)
   109c2:	ea6a                	sd	s10,272(sp)
   109c4:	10c12423          	sw	a2,264(sp)
   109c8:	469d                	li	a3,7
   109ca:	0bc1                	addi	s7,s7,16
   109cc:	7cf6c763          	blt	a3,a5,1119a <_vfprintf_r+0xd00>
   109d0:	664a                	ld	a2,144(sp)
   109d2:	2785                	addiw	a5,a5,1
   109d4:	1194                	addi	a3,sp,224
   109d6:	01a60733          	add	a4,a2,s10
   109da:	00dbb023          	sd	a3,0(s7)
   109de:	10f12423          	sw	a5,264(sp)
   109e2:	0007869b          	sext.w	a3,a5
   109e6:	00cbb423          	sd	a2,8(s7)
   109ea:	ea3a                	sd	a4,272(sp)
   109ec:	479d                	li	a5,7
   109ee:	010b8313          	addi	t1,s7,16
   109f2:	d0d7d2e3          	bge	a5,a3,106f6 <_vfprintf_r+0x25c>
   109f6:	0210                	addi	a2,sp,256
   109f8:	85ca                	mv	a1,s2
   109fa:	8552                	mv	a0,s4
   109fc:	745070ef          	jal	ra,18940 <__sprint_r>
   10a00:	4c051963          	bnez	a0,10ed2 <_vfprintf_r+0xa38>
   10a04:	6752                	ld	a4,272(sp)
   10a06:	835a                	mv	t1,s6
   10a08:	b1fd                	j	106f6 <_vfprintf_r+0x25c>
   10a0a:	0104f793          	andi	a5,s1,16
   10a0e:	06079fe3          	bnez	a5,1128c <_vfprintf_r+0xdf2>
   10a12:	66e2                	ld	a3,24(sp)
   10a14:	0404f793          	andi	a5,s1,64
   10a18:	0006a983          	lw	s3,0(a3)
   10a1c:	600781e3          	beqz	a5,1181e <_vfprintf_r+0x1384>
   10a20:	19c2                	slli	s3,s3,0x30
   10a22:	0309d993          	srli	s3,s3,0x30
   10a26:	bd01                	j	10836 <_vfprintf_r+0x39c>
   10a28:	0104f793          	andi	a5,s1,16
   10a2c:	04079be3          	bnez	a5,11282 <_vfprintf_r+0xde8>
   10a30:	66e2                	ld	a3,24(sp)
   10a32:	0404f793          	andi	a5,s1,64
   10a36:	0006a983          	lw	s3,0(a3)
   10a3a:	5c0780e3          	beqz	a5,117fa <_vfprintf_r+0x1360>
   10a3e:	0109999b          	slliw	s3,s3,0x10
   10a42:	4109d99b          	sraiw	s3,s3,0x10
   10a46:	87ce                	mv	a5,s3
   10a48:	d807dae3          	bgez	a5,107dc <_vfprintf_r+0x342>
   10a4c:	ec3a                	sd	a4,24(sp)
   10a4e:	02d00713          	li	a4,45
   10a52:	0ce107a3          	sb	a4,207(sp)
   10a56:	577d                	li	a4,-1
   10a58:	413009b3          	neg	s3,s3
   10a5c:	8ca6                	mv	s9,s1
   10a5e:	4785                	li	a5,1
   10a60:	deee96e3          	bne	t4,a4,1084c <_vfprintf_r+0x3b2>
   10a64:	4705                	li	a4,1
   10a66:	48e78263          	beq	a5,a4,10eea <_vfprintf_r+0xa50>
   10a6a:	4709                	li	a4,2
   10a6c:	32e78363          	beq	a5,a4,10d92 <_vfprintf_r+0x8f8>
   10a70:	17c10b93          	addi	s7,sp,380
   10a74:	8dde                	mv	s11,s7
   10a76:	0079f793          	andi	a5,s3,7
   10a7a:	03078793          	addi	a5,a5,48
   10a7e:	fefd8fa3          	sb	a5,-1(s11)
   10a82:	0039d993          	srli	s3,s3,0x3
   10a86:	876e                	mv	a4,s11
   10a88:	1dfd                	addi	s11,s11,-1
   10a8a:	fe0996e3          	bnez	s3,10a76 <_vfprintf_r+0x5dc>
   10a8e:	001cf693          	andi	a3,s9,1
   10a92:	32068063          	beqz	a3,10db2 <_vfprintf_r+0x918>
   10a96:	03000693          	li	a3,48
   10a9a:	30d78c63          	beq	a5,a3,10db2 <_vfprintf_r+0x918>
   10a9e:	1779                	addi	a4,a4,-2
   10aa0:	fedd8fa3          	sb	a3,-1(s11)
   10aa4:	40eb8bbb          	subw	s7,s7,a4
   10aa8:	84e6                	mv	s1,s9
   10aaa:	8dba                	mv	s11,a4
   10aac:	bb89                	j	107fe <_vfprintf_r+0x364>
   10aae:	8552                	mv	a0,s4
   10ab0:	443010ef          	jal	ra,126f2 <__sinit>
   10ab4:	b499                	j	104fa <_vfprintf_r+0x60>
   10ab6:	67e2                	ld	a5,24(sp)
   10ab8:	0c0107a3          	sb	zero,207(sp)
   10abc:	0007bd83          	ld	s11,0(a5)
   10ac0:	00878c93          	addi	s9,a5,8
   10ac4:	120d8be3          	beqz	s11,113fa <_vfprintf_r+0xf60>
   10ac8:	57fd                	li	a5,-1
   10aca:	48fe8fe3          	beq	t4,a5,11768 <_vfprintf_r+0x12ce>
   10ace:	8676                	mv	a2,t4
   10ad0:	4581                	li	a1,0
   10ad2:	856e                	mv	a0,s11
   10ad4:	ec1a                	sd	t1,24(sp)
   10ad6:	e876                	sd	t4,16(sp)
   10ad8:	475040ef          	jal	ra,1574c <memchr>
   10adc:	f02a                	sd	a0,32(sp)
   10ade:	6ec2                	ld	t4,16(sp)
   10ae0:	6362                	ld	t1,24(sp)
   10ae2:	e119                	bnez	a0,10ae8 <_vfprintf_r+0x64e>
   10ae4:	2300106f          	j	11d14 <_vfprintf_r+0x187a>
   10ae8:	7782                	ld	a5,32(sp)
   10aea:	ec66                	sd	s9,24(sp)
   10aec:	f002                	sd	zero,32(sp)
   10aee:	41b78bbb          	subw	s7,a5,s11
   10af2:	0cf14783          	lbu	a5,207(sp)
   10af6:	fffbc993          	not	s3,s7
   10afa:	43f9d993          	srai	s3,s3,0x3f
   10afe:	ec82                	sd	zero,88(sp)
   10b00:	f482                	sd	zero,104(sp)
   10b02:	f082                	sd	zero,96(sp)
   10b04:	0179f9b3          	and	s3,s3,s7
   10b08:	4e81                	li	t4,0
   10b0a:	d00798e3          	bnez	a5,1081a <_vfprintf_r+0x380>
   10b0e:	be25                	j	10646 <_vfprintf_r+0x1ac>
   10b10:	6762                	ld	a4,24(sp)
   10b12:	0c0107a3          	sb	zero,207(sp)
   10b16:	4985                	li	s3,1
   10b18:	431c                	lw	a5,0(a4)
   10b1a:	0721                	addi	a4,a4,8
   10b1c:	ec3a                	sd	a4,24(sp)
   10b1e:	10f10c23          	sb	a5,280(sp)
   10b22:	4b85                	li	s7,1
   10b24:	11810d93          	addi	s11,sp,280
   10b28:	be11                	j	1063c <_vfprintf_r+0x1a2>
   10b2a:	67e2                	ld	a5,24(sp)
   10b2c:	0007aa83          	lw	s5,0(a5)
   10b30:	00878d13          	addi	s10,a5,8
   10b34:	720ad263          	bgez	s5,11258 <_vfprintf_r+0xdbe>
   10b38:	41500abb          	negw	s5,s5
   10b3c:	ec6a                	sd	s10,24(sp)
   10b3e:	0044e493          	ori	s1,s1,4
   10b42:	00044e03          	lbu	t3,0(s0)
   10b46:	2481                	sext.w	s1,s1
   10b48:	b461                	j	105d0 <_vfprintf_r+0x136>
   10b4a:	02b00793          	li	a5,43
   10b4e:	00044e03          	lbu	t3,0(s0)
   10b52:	0cf107a3          	sb	a5,207(sp)
   10b56:	bcad                	j	105d0 <_vfprintf_r+0x136>
   10b58:	0804e493          	ori	s1,s1,128
   10b5c:	00044e03          	lbu	t3,0(s0)
   10b60:	2481                	sext.w	s1,s1
   10b62:	b4bd                	j	105d0 <_vfprintf_r+0x136>
   10b64:	00044d03          	lbu	s10,0(s0)
   10b68:	02a00693          	li	a3,42
   10b6c:	00140793          	addi	a5,s0,1
   10b70:	00dd1463          	bne	s10,a3,10b78 <_vfprintf_r+0x6de>
   10b74:	4a00106f          	j	12014 <_vfprintf_r+0x1b7a>
   10b78:	fd0d071b          	addiw	a4,s10,-48
   10b7c:	4625                	li	a2,9
   10b7e:	843e                	mv	s0,a5
   10b80:	4e81                	li	t4,0
   10b82:	46a5                	li	a3,9
   10b84:	a4e669e3          	bltu	a2,a4,105d6 <_vfprintf_r+0x13c>
   10b88:	00044d03          	lbu	s10,0(s0)
   10b8c:	002e979b          	slliw	a5,t4,0x2
   10b90:	01d787bb          	addw	a5,a5,t4
   10b94:	0017979b          	slliw	a5,a5,0x1
   10b98:	00e78ebb          	addw	t4,a5,a4
   10b9c:	fd0d071b          	addiw	a4,s10,-48
   10ba0:	0405                	addi	s0,s0,1
   10ba2:	fee6f3e3          	bgeu	a3,a4,10b88 <_vfprintf_r+0x6ee>
   10ba6:	bc05                	j	105d6 <_vfprintf_r+0x13c>
   10ba8:	8552                	mv	a0,s4
   10baa:	f01a                	sd	t1,32(sp)
   10bac:	e876                	sd	t4,16(sp)
   10bae:	404040ef          	jal	ra,14fb2 <_localeconv_r>
   10bb2:	651c                	ld	a5,8(a0)
   10bb4:	853e                	mv	a0,a5
   10bb6:	ed3e                	sd	a5,152(sp)
   10bb8:	853ff0ef          	jal	ra,1040a <strlen>
   10bbc:	87aa                	mv	a5,a0
   10bbe:	8552                	mv	a0,s4
   10bc0:	8bbe                	mv	s7,a5
   10bc2:	e53e                	sd	a5,136(sp)
   10bc4:	3ee040ef          	jal	ra,14fb2 <_localeconv_r>
   10bc8:	6918                	ld	a4,16(a0)
   10bca:	6ec2                	ld	t4,16(sp)
   10bcc:	7302                	ld	t1,32(sp)
   10bce:	f8ba                	sd	a4,112(sp)
   10bd0:	00044e03          	lbu	t3,0(s0)
   10bd4:	9e0b8ee3          	beqz	s7,105d0 <_vfprintf_r+0x136>
   10bd8:	9e070ce3          	beqz	a4,105d0 <_vfprintf_r+0x136>
   10bdc:	00074783          	lbu	a5,0(a4)
   10be0:	9e0788e3          	beqz	a5,105d0 <_vfprintf_r+0x136>
   10be4:	4004e493          	ori	s1,s1,1024
   10be8:	2481                	sext.w	s1,s1
   10bea:	b2dd                	j	105d0 <_vfprintf_r+0x136>
   10bec:	0014e493          	ori	s1,s1,1
   10bf0:	00044e03          	lbu	t3,0(s0)
   10bf4:	2481                	sext.w	s1,s1
   10bf6:	bae9                	j	105d0 <_vfprintf_r+0x136>
   10bf8:	0cf14783          	lbu	a5,207(sp)
   10bfc:	00044e03          	lbu	t3,0(s0)
   10c00:	9c0798e3          	bnez	a5,105d0 <_vfprintf_r+0x136>
   10c04:	02000793          	li	a5,32
   10c08:	0cf107a3          	sb	a5,207(sp)
   10c0c:	b2d1                	j	105d0 <_vfprintf_r+0x136>
   10c0e:	0084e493          	ori	s1,s1,8
   10c12:	00044e03          	lbu	t3,0(s0)
   10c16:	2481                	sext.w	s1,s1
   10c18:	ba65                	j	105d0 <_vfprintf_r+0x136>
   10c1a:	0104ec93          	ori	s9,s1,16
   10c1e:	2c81                	sext.w	s9,s9
   10c20:	66e2                	ld	a3,24(sp)
   10c22:	020cf793          	andi	a5,s9,32
   10c26:	00868713          	addi	a4,a3,8
   10c2a:	5e078b63          	beqz	a5,11220 <_vfprintf_r+0xd86>
   10c2e:	0006b983          	ld	s3,0(a3)
   10c32:	4785                	li	a5,1
   10c34:	ec3a                	sd	a4,24(sp)
   10c36:	b129                	j	10840 <_vfprintf_r+0x3a6>
   10c38:	0204e493          	ori	s1,s1,32
   10c3c:	00044e03          	lbu	t3,0(s0)
   10c40:	2481                	sext.w	s1,s1
   10c42:	b279                	j	105d0 <_vfprintf_r+0x136>
   10c44:	6762                	ld	a4,24(sp)
   10c46:	77e1                	lui	a5,0xffff8
   10c48:	8307c793          	xori	a5,a5,-2000
   10c4c:	0cf11823          	sh	a5,208(sp)
   10c50:	00870793          	addi	a5,a4,8
   10c54:	ec3e                	sd	a5,24(sp)
   10c56:	67f1                	lui	a5,0x1c
   10c58:	7c878793          	addi	a5,a5,1992 # 1c7c8 <__clzdi2+0xaa>
   10c5c:	0024ec93          	ori	s9,s1,2
   10c60:	fc3e                	sd	a5,56(sp)
   10c62:	00073983          	ld	s3,0(a4)
   10c66:	2c81                	sext.w	s9,s9
   10c68:	4789                	li	a5,2
   10c6a:	07800d13          	li	s10,120
   10c6e:	bec9                	j	10840 <_vfprintf_r+0x3a6>
   10c70:	6762                	ld	a4,24(sp)
   10c72:	0204f793          	andi	a5,s1,32
   10c76:	6318                	ld	a4,0(a4)
   10c78:	5e078563          	beqz	a5,11262 <_vfprintf_r+0xdc8>
   10c7c:	67a2                	ld	a5,8(sp)
   10c7e:	e31c                	sd	a5,0(a4)
   10c80:	67e2                	ld	a5,24(sp)
   10c82:	8da2                	mv	s11,s0
   10c84:	07a1                	addi	a5,a5,8
   10c86:	ec3e                	sd	a5,24(sp)
   10c88:	b445                	j	10728 <_vfprintf_r+0x28e>
   10c8a:	00044e03          	lbu	t3,0(s0)
   10c8e:	06c00793          	li	a5,108
   10c92:	74fe0263          	beq	t3,a5,113d6 <_vfprintf_r+0xf3c>
   10c96:	0104e493          	ori	s1,s1,16
   10c9a:	2481                	sext.w	s1,s1
   10c9c:	ba15                	j	105d0 <_vfprintf_r+0x136>
   10c9e:	00044e03          	lbu	t3,0(s0)
   10ca2:	06800793          	li	a5,104
   10ca6:	72fe0063          	beq	t3,a5,113c6 <_vfprintf_r+0xf2c>
   10caa:	0404e493          	ori	s1,s1,64
   10cae:	2481                	sext.w	s1,s1
   10cb0:	b205                	j	105d0 <_vfprintf_r+0x136>
   10cb2:	06500793          	li	a5,101
   10cb6:	c9a7d5e3          	bge	a5,s10,10940 <_vfprintf_r+0x4a6>
   10cba:	754e                	ld	a0,240(sp)
   10cbc:	75ee                	ld	a1,248(sp)
   10cbe:	4601                	li	a2,0
   10cc0:	4681                	li	a3,0
   10cc2:	e81a                	sd	t1,16(sp)
   10cc4:	4c20a0ef          	jal	ra,1b186 <__eqtf2>
   10cc8:	6342                	ld	t1,16(sp)
   10cca:	36051c63          	bnez	a0,11042 <_vfprintf_r+0xba8>
   10cce:	10812783          	lw	a5,264(sp)
   10cd2:	6771                	lui	a4,0x1c
   10cd4:	7e870713          	addi	a4,a4,2024 # 1c7e8 <__clzdi2+0xca>
   10cd8:	2785                	addiw	a5,a5,1
   10cda:	00e33023          	sd	a4,0(t1)
   10cde:	0c85                	addi	s9,s9,1
   10ce0:	4705                	li	a4,1
   10ce2:	00e33423          	sd	a4,8(t1)
   10ce6:	10f12423          	sw	a5,264(sp)
   10cea:	0007871b          	sext.w	a4,a5
   10cee:	ea66                	sd	s9,272(sp)
   10cf0:	479d                	li	a5,7
   10cf2:	0341                	addi	t1,t1,16
   10cf4:	20e7c3e3          	blt	a5,a4,116fa <_vfprintf_r+0x1260>
   10cf8:	47ee                	lw	a5,216(sp)
   10cfa:	7722                	ld	a4,40(sp)
   10cfc:	54e7d863          	bge	a5,a4,1124c <_vfprintf_r+0xdb2>
   10d00:	76e6                	ld	a3,120(sp)
   10d02:	10812783          	lw	a5,264(sp)
   10d06:	660a                	ld	a2,128(sp)
   10d08:	01968733          	add	a4,a3,s9
   10d0c:	2785                	addiw	a5,a5,1
   10d0e:	00d33423          	sd	a3,8(t1)
   10d12:	00c33023          	sd	a2,0(t1)
   10d16:	0007869b          	sext.w	a3,a5
   10d1a:	10f12423          	sw	a5,264(sp)
   10d1e:	ea3a                	sd	a4,272(sp)
   10d20:	479d                	li	a5,7
   10d22:	0341                	addi	t1,t1,16
   10d24:	6cd7c163          	blt	a5,a3,113e6 <_vfprintf_r+0xf4c>
   10d28:	77a2                	ld	a5,40(sp)
   10d2a:	fff78b9b          	addiw	s7,a5,-1
   10d2e:	9d7054e3          	blez	s7,106f6 <_vfprintf_r+0x25c>
   10d32:	6cf5                	lui	s9,0x1d
   10d34:	46c1                	li	a3,16
   10d36:	10812783          	lw	a5,264(sp)
   10d3a:	9f0c8c93          	addi	s9,s9,-1552 # 1c9f0 <zeroes.0>
   10d3e:	4dc1                	li	s11,16
   10d40:	4d1d                	li	s10,7
   10d42:	0176c763          	blt	a3,s7,10d50 <_vfprintf_r+0x8b6>
   10d46:	1cb0006f          	j	11710 <_vfprintf_r+0x1276>
   10d4a:	3bc1                	addiw	s7,s7,-16
   10d4c:	1d7dd2e3          	bge	s11,s7,11710 <_vfprintf_r+0x1276>
   10d50:	2785                	addiw	a5,a5,1
   10d52:	0741                	addi	a4,a4,16
   10d54:	01933023          	sd	s9,0(t1)
   10d58:	01b33423          	sd	s11,8(t1)
   10d5c:	ea3a                	sd	a4,272(sp)
   10d5e:	10f12423          	sw	a5,264(sp)
   10d62:	0341                	addi	t1,t1,16
   10d64:	fefd53e3          	bge	s10,a5,10d4a <_vfprintf_r+0x8b0>
   10d68:	0210                	addi	a2,sp,256
   10d6a:	85ca                	mv	a1,s2
   10d6c:	8552                	mv	a0,s4
   10d6e:	3d3070ef          	jal	ra,18940 <__sprint_r>
   10d72:	16051063          	bnez	a0,10ed2 <_vfprintf_r+0xa38>
   10d76:	6752                	ld	a4,272(sp)
   10d78:	10812783          	lw	a5,264(sp)
   10d7c:	835a                	mv	t1,s6
   10d7e:	b7f1                	j	10d4a <_vfprintf_r+0x8b0>
   10d80:	4705                	li	a4,1
   10d82:	00e79463          	bne	a5,a4,10d8a <_vfprintf_r+0x8f0>
   10d86:	7db0006f          	j	11d60 <_vfprintf_r+0x18c6>
   10d8a:	4709                	li	a4,2
   10d8c:	8ca6                	mv	s9,s1
   10d8e:	cee791e3          	bne	a5,a4,10a70 <_vfprintf_r+0x5d6>
   10d92:	17c10b93          	addi	s7,sp,380
   10d96:	8dde                	mv	s11,s7
   10d98:	7762                	ld	a4,56(sp)
   10d9a:	00f9f793          	andi	a5,s3,15
   10d9e:	1dfd                	addi	s11,s11,-1
   10da0:	97ba                	add	a5,a5,a4
   10da2:	0007c783          	lbu	a5,0(a5)
   10da6:	0049d993          	srli	s3,s3,0x4
   10daa:	00fd8023          	sb	a5,0(s11)
   10dae:	fe0995e3          	bnez	s3,10d98 <_vfprintf_r+0x8fe>
   10db2:	41bb8bbb          	subw	s7,s7,s11
   10db6:	84e6                	mv	s1,s9
   10db8:	b499                	j	107fe <_vfprintf_r+0x364>
   10dba:	413a86bb          	subw	a3,s5,s3
   10dbe:	90d052e3          	blez	a3,106c2 <_vfprintf_r+0x228>
   10dc2:	8766                	mv	a4,s9
   10dc4:	4641                	li	a2,16
   10dc6:	6cf5                	lui	s9,0x1d
   10dc8:	10812783          	lw	a5,264(sp)
   10dcc:	9f0c8c93          	addi	s9,s9,-1552 # 1c9f0 <zeroes.0>
   10dd0:	48c1                	li	a7,16
   10dd2:	4f1d                	li	t5,7
   10dd4:	00d64663          	blt	a2,a3,10de0 <_vfprintf_r+0x946>
   10dd8:	a099                	j	10e1e <_vfprintf_r+0x984>
   10dda:	36c1                	addiw	a3,a3,-16
   10ddc:	04d8d163          	bge	a7,a3,10e1e <_vfprintf_r+0x984>
   10de0:	2785                	addiw	a5,a5,1
   10de2:	0741                	addi	a4,a4,16
   10de4:	01933023          	sd	s9,0(t1)
   10de8:	01133423          	sd	a7,8(t1)
   10dec:	ea3a                	sd	a4,272(sp)
   10dee:	10f12423          	sw	a5,264(sp)
   10df2:	0341                	addi	t1,t1,16
   10df4:	feff53e3          	bge	t5,a5,10dda <_vfprintf_r+0x940>
   10df8:	0210                	addi	a2,sp,256
   10dfa:	85ca                	mv	a1,s2
   10dfc:	8552                	mv	a0,s4
   10dfe:	e0b6                	sd	a3,64(sp)
   10e00:	e876                	sd	t4,16(sp)
   10e02:	33f070ef          	jal	ra,18940 <__sprint_r>
   10e06:	e571                	bnez	a0,10ed2 <_vfprintf_r+0xa38>
   10e08:	6686                	ld	a3,64(sp)
   10e0a:	48c1                	li	a7,16
   10e0c:	6752                	ld	a4,272(sp)
   10e0e:	36c1                	addiw	a3,a3,-16
   10e10:	10812783          	lw	a5,264(sp)
   10e14:	6ec2                	ld	t4,16(sp)
   10e16:	835a                	mv	t1,s6
   10e18:	4f1d                	li	t5,7
   10e1a:	fcd8c3e3          	blt	a7,a3,10de0 <_vfprintf_r+0x946>
   10e1e:	2785                	addiw	a5,a5,1
   10e20:	9736                	add	a4,a4,a3
   10e22:	00d33423          	sd	a3,8(t1)
   10e26:	10f12423          	sw	a5,264(sp)
   10e2a:	0007869b          	sext.w	a3,a5
   10e2e:	01933023          	sd	s9,0(t1)
   10e32:	ea3a                	sd	a4,272(sp)
   10e34:	479d                	li	a5,7
   10e36:	52d7c263          	blt	a5,a3,1135a <_vfprintf_r+0xec0>
   10e3a:	417e86bb          	subw	a3,t4,s7
   10e3e:	0341                	addi	t1,t1,16
   10e40:	8cba                	mv	s9,a4
   10e42:	88d054e3          	blez	a3,106ca <_vfprintf_r+0x230>
   10e46:	8766                	mv	a4,s9
   10e48:	4641                	li	a2,16
   10e4a:	6cf5                	lui	s9,0x1d
   10e4c:	10812783          	lw	a5,264(sp)
   10e50:	9f0c8c93          	addi	s9,s9,-1552 # 1c9f0 <zeroes.0>
   10e54:	04d65663          	bge	a2,a3,10ea0 <_vfprintf_r+0xa06>
   10e58:	8ce2                	mv	s9,s8
   10e5a:	48c1                	li	a7,16
   10e5c:	4e9d                	li	t4,7
   10e5e:	a021                	j	10e66 <_vfprintf_r+0x9cc>
   10e60:	36c1                	addiw	a3,a3,-16
   10e62:	02d8df63          	bge	a7,a3,10ea0 <_vfprintf_r+0xa06>
   10e66:	2785                	addiw	a5,a5,1
   10e68:	0741                	addi	a4,a4,16
   10e6a:	01833023          	sd	s8,0(t1)
   10e6e:	01133423          	sd	a7,8(t1)
   10e72:	ea3a                	sd	a4,272(sp)
   10e74:	10f12423          	sw	a5,264(sp)
   10e78:	0341                	addi	t1,t1,16
   10e7a:	fefed3e3          	bge	t4,a5,10e60 <_vfprintf_r+0x9c6>
   10e7e:	0210                	addi	a2,sp,256
   10e80:	85ca                	mv	a1,s2
   10e82:	8552                	mv	a0,s4
   10e84:	e836                	sd	a3,16(sp)
   10e86:	2bb070ef          	jal	ra,18940 <__sprint_r>
   10e8a:	e521                	bnez	a0,10ed2 <_vfprintf_r+0xa38>
   10e8c:	66c2                	ld	a3,16(sp)
   10e8e:	48c1                	li	a7,16
   10e90:	6752                	ld	a4,272(sp)
   10e92:	36c1                	addiw	a3,a3,-16
   10e94:	10812783          	lw	a5,264(sp)
   10e98:	835a                	mv	t1,s6
   10e9a:	4e9d                	li	t4,7
   10e9c:	fcd8c5e3          	blt	a7,a3,10e66 <_vfprintf_r+0x9cc>
   10ea0:	2785                	addiw	a5,a5,1
   10ea2:	9736                	add	a4,a4,a3
   10ea4:	00d33423          	sd	a3,8(t1)
   10ea8:	10f12423          	sw	a5,264(sp)
   10eac:	0007869b          	sext.w	a3,a5
   10eb0:	01933023          	sd	s9,0(t1)
   10eb4:	ea3a                	sd	a4,272(sp)
   10eb6:	479d                	li	a5,7
   10eb8:	34d7c963          	blt	a5,a3,1120a <_vfprintf_r+0xd70>
   10ebc:	0341                	addi	t1,t1,16
   10ebe:	8cba                	mv	s9,a4
   10ec0:	80bff06f          	j	106ca <_vfprintf_r+0x230>
   10ec4:	0210                	addi	a2,sp,256
   10ec6:	85ca                	mv	a1,s2
   10ec8:	8552                	mv	a0,s4
   10eca:	277070ef          	jal	ra,18940 <__sprint_r>
   10ece:	840503e3          	beqz	a0,10714 <_vfprintf_r+0x27a>
   10ed2:	7782                	ld	a5,32(sp)
   10ed4:	860782e3          	beqz	a5,10738 <_vfprintf_r+0x29e>
   10ed8:	85be                	mv	a1,a5
   10eda:	8552                	mv	a0,s4
   10edc:	147010ef          	jal	ra,12822 <_free_r>
   10ee0:	b8a1                	j	10738 <_vfprintf_r+0x29e>
   10ee2:	4705                	li	a4,1
   10ee4:	8ca6                	mv	s9,s1
   10ee6:	b8e792e3          	bne	a5,a4,10a6a <_vfprintf_r+0x5d0>
   10eea:	47a5                	li	a5,9
   10eec:	3d37ee63          	bltu	a5,s3,112c8 <_vfprintf_r+0xe2e>
   10ef0:	0309899b          	addiw	s3,s3,48
   10ef4:	17310da3          	sb	s3,379(sp)
   10ef8:	84e6                	mv	s1,s9
   10efa:	4b85                	li	s7,1
   10efc:	17b10d93          	addi	s11,sp,379
   10f00:	b8fd                	j	107fe <_vfprintf_r+0x364>
   10f02:	46c1                	li	a3,16
   10f04:	6752                	ld	a4,272(sp)
   10f06:	10812783          	lw	a5,264(sp)
   10f0a:	6396d3e3          	bge	a3,s9,11d30 <_vfprintf_r+0x1896>
   10f0e:	66f5                	lui	a3,0x1d
   10f10:	a0068693          	addi	a3,a3,-1536 # 1ca00 <blanks.1>
   10f14:	4fc1                	li	t6,16
   10f16:	429d                	li	t0,7
   10f18:	a021                	j	10f20 <_vfprintf_r+0xa86>
   10f1a:	3cc1                	addiw	s9,s9,-16
   10f1c:	059fd563          	bge	t6,s9,10f66 <_vfprintf_r+0xacc>
   10f20:	2785                	addiw	a5,a5,1
   10f22:	0741                	addi	a4,a4,16
   10f24:	00d33023          	sd	a3,0(t1)
   10f28:	01f33423          	sd	t6,8(t1)
   10f2c:	ea3a                	sd	a4,272(sp)
   10f2e:	10f12423          	sw	a5,264(sp)
   10f32:	0341                	addi	t1,t1,16
   10f34:	fef2d3e3          	bge	t0,a5,10f1a <_vfprintf_r+0xa80>
   10f38:	0210                	addi	a2,sp,256
   10f3a:	85ca                	mv	a1,s2
   10f3c:	8552                	mv	a0,s4
   10f3e:	e8b6                	sd	a3,80(sp)
   10f40:	e4f6                	sd	t4,72(sp)
   10f42:	e0c6                	sd	a7,64(sp)
   10f44:	e87a                	sd	t5,16(sp)
   10f46:	1fb070ef          	jal	ra,18940 <__sprint_r>
   10f4a:	f541                	bnez	a0,10ed2 <_vfprintf_r+0xa38>
   10f4c:	4fc1                	li	t6,16
   10f4e:	3cc1                	addiw	s9,s9,-16
   10f50:	6752                	ld	a4,272(sp)
   10f52:	10812783          	lw	a5,264(sp)
   10f56:	66c6                	ld	a3,80(sp)
   10f58:	6ea6                	ld	t4,72(sp)
   10f5a:	6886                	ld	a7,64(sp)
   10f5c:	6f42                	ld	t5,16(sp)
   10f5e:	835a                	mv	t1,s6
   10f60:	429d                	li	t0,7
   10f62:	fb9fcfe3          	blt	t6,s9,10f20 <_vfprintf_r+0xa86>
   10f66:	2785                	addiw	a5,a5,1
   10f68:	9766                	add	a4,a4,s9
   10f6a:	00d33023          	sd	a3,0(t1)
   10f6e:	01933423          	sd	s9,8(t1)
   10f72:	ea3a                	sd	a4,272(sp)
   10f74:	10f12423          	sw	a5,264(sp)
   10f78:	0007871b          	sext.w	a4,a5
   10f7c:	479d                	li	a5,7
   10f7e:	0341                	addi	t1,t1,16
   10f80:	eee7d063          	bge	a5,a4,10660 <_vfprintf_r+0x1c6>
   10f84:	0210                	addi	a2,sp,256
   10f86:	85ca                	mv	a1,s2
   10f88:	8552                	mv	a0,s4
   10f8a:	e4f6                	sd	t4,72(sp)
   10f8c:	e0c6                	sd	a7,64(sp)
   10f8e:	e87a                	sd	t5,16(sp)
   10f90:	1b1070ef          	jal	ra,18940 <__sprint_r>
   10f94:	fd1d                	bnez	a0,10ed2 <_vfprintf_r+0xa38>
   10f96:	6ea6                	ld	t4,72(sp)
   10f98:	6886                	ld	a7,64(sp)
   10f9a:	6f42                	ld	t5,16(sp)
   10f9c:	835a                	mv	t1,s6
   10f9e:	ec2ff06f          	j	10660 <_vfprintf_r+0x1c6>
   10fa2:	0210                	addi	a2,sp,256
   10fa4:	85ca                	mv	a1,s2
   10fa6:	8552                	mv	a0,s4
   10fa8:	e0f6                	sd	t4,64(sp)
   10faa:	e846                	sd	a7,16(sp)
   10fac:	195070ef          	jal	ra,18940 <__sprint_r>
   10fb0:	f10d                	bnez	a0,10ed2 <_vfprintf_r+0xa38>
   10fb2:	6cd2                	ld	s9,272(sp)
   10fb4:	6e86                	ld	t4,64(sp)
   10fb6:	68c2                	ld	a7,16(sp)
   10fb8:	835a                	mv	t1,s6
   10fba:	f00ff06f          	j	106ba <_vfprintf_r+0x220>
   10fbe:	46c1                	li	a3,16
   10fc0:	10812783          	lw	a5,264(sp)
   10fc4:	5e96d5e3          	bge	a3,s1,11dae <_vfprintf_r+0x1914>
   10fc8:	66f5                	lui	a3,0x1d
   10fca:	a0068693          	addi	a3,a3,-1536 # 1ca00 <blanks.1>
   10fce:	4bc1                	li	s7,16
   10fd0:	4c9d                	li	s9,7
   10fd2:	a021                	j	10fda <_vfprintf_r+0xb40>
   10fd4:	34c1                	addiw	s1,s1,-16
   10fd6:	029bde63          	bge	s7,s1,11012 <_vfprintf_r+0xb78>
   10fda:	2785                	addiw	a5,a5,1
   10fdc:	0741                	addi	a4,a4,16
   10fde:	00d33023          	sd	a3,0(t1)
   10fe2:	01733423          	sd	s7,8(t1)
   10fe6:	ea3a                	sd	a4,272(sp)
   10fe8:	10f12423          	sw	a5,264(sp)
   10fec:	0341                	addi	t1,t1,16
   10fee:	fefcd3e3          	bge	s9,a5,10fd4 <_vfprintf_r+0xb3a>
   10ff2:	0210                	addi	a2,sp,256
   10ff4:	85ca                	mv	a1,s2
   10ff6:	8552                	mv	a0,s4
   10ff8:	e836                	sd	a3,16(sp)
   10ffa:	147070ef          	jal	ra,18940 <__sprint_r>
   10ffe:	ec051ae3          	bnez	a0,10ed2 <_vfprintf_r+0xa38>
   11002:	34c1                	addiw	s1,s1,-16
   11004:	6752                	ld	a4,272(sp)
   11006:	10812783          	lw	a5,264(sp)
   1100a:	66c2                	ld	a3,16(sp)
   1100c:	835a                	mv	t1,s6
   1100e:	fc9bc6e3          	blt	s7,s1,10fda <_vfprintf_r+0xb40>
   11012:	2785                	addiw	a5,a5,1
   11014:	9726                	add	a4,a4,s1
   11016:	00d33023          	sd	a3,0(t1)
   1101a:	10f12423          	sw	a5,264(sp)
   1101e:	0007869b          	sext.w	a3,a5
   11022:	00933423          	sd	s1,8(t1)
   11026:	ea3a                	sd	a4,272(sp)
   11028:	479d                	li	a5,7
   1102a:	ecd7dc63          	bge	a5,a3,10702 <_vfprintf_r+0x268>
   1102e:	0210                	addi	a2,sp,256
   11030:	85ca                	mv	a1,s2
   11032:	8552                	mv	a0,s4
   11034:	10d070ef          	jal	ra,18940 <__sprint_r>
   11038:	e8051de3          	bnez	a0,10ed2 <_vfprintf_r+0xa38>
   1103c:	6752                	ld	a4,272(sp)
   1103e:	ec4ff06f          	j	10702 <_vfprintf_r+0x268>
   11042:	466e                	lw	a2,216(sp)
   11044:	62c05e63          	blez	a2,11680 <_vfprintf_r+0x11e6>
   11048:	7722                	ld	a4,40(sp)
   1104a:	7686                	ld	a3,96(sp)
   1104c:	00ed87b3          	add	a5,s11,a4
   11050:	e0be                	sd	a5,64(sp)
   11052:	87b6                	mv	a5,a3
   11054:	2ed74d63          	blt	a4,a3,1134e <_vfprintf_r+0xeb4>
   11058:	00078b9b          	sext.w	s7,a5
   1105c:	03705263          	blez	s7,11080 <_vfprintf_r+0xbe6>
   11060:	10812703          	lw	a4,264(sp)
   11064:	9cde                	add	s9,s9,s7
   11066:	01b33023          	sd	s11,0(t1)
   1106a:	0017069b          	addiw	a3,a4,1
   1106e:	01733423          	sd	s7,8(t1)
   11072:	ea66                	sd	s9,272(sp)
   11074:	10d12423          	sw	a3,264(sp)
   11078:	471d                	li	a4,7
   1107a:	0341                	addi	t1,t1,16
   1107c:	18d747e3          	blt	a4,a3,11a0a <_vfprintf_r+0x1570>
   11080:	fffbc713          	not	a4,s7
   11084:	977d                	srai	a4,a4,0x3f
   11086:	00ebf7b3          	and	a5,s7,a4
   1108a:	7706                	ld	a4,96(sp)
   1108c:	40f70bbb          	subw	s7,a4,a5
   11090:	39704163          	bgtz	s7,11412 <_vfprintf_r+0xf78>
   11094:	7706                	ld	a4,96(sp)
   11096:	4004f793          	andi	a5,s1,1024
   1109a:	9dba                	add	s11,s11,a4
   1109c:	7e079163          	bnez	a5,1187e <_vfprintf_r+0x13e4>
   110a0:	47ee                	lw	a5,216(sp)
   110a2:	76a2                	ld	a3,40(sp)
   110a4:	00d7c663          	blt	a5,a3,110b0 <_vfprintf_r+0xc16>
   110a8:	0014f713          	andi	a4,s1,1
   110ac:	16070ce3          	beqz	a4,11a24 <_vfprintf_r+0x158a>
   110b0:	7666                	ld	a2,120(sp)
   110b2:	10812683          	lw	a3,264(sp)
   110b6:	658a                	ld	a1,128(sp)
   110b8:	01960733          	add	a4,a2,s9
   110bc:	2685                	addiw	a3,a3,1
   110be:	00c33423          	sd	a2,8(t1)
   110c2:	00b33023          	sd	a1,0(t1)
   110c6:	0006861b          	sext.w	a2,a3
   110ca:	10d12423          	sw	a3,264(sp)
   110ce:	ea3a                	sd	a4,272(sp)
   110d0:	469d                	li	a3,7
   110d2:	0341                	addi	t1,t1,16
   110d4:	3ec6c1e3          	blt	a3,a2,11cb6 <_vfprintf_r+0x181c>
   110d8:	6686                	ld	a3,64(sp)
   110da:	41b68bb3          	sub	s7,a3,s11
   110de:	76a2                	ld	a3,40(sp)
   110e0:	000b861b          	sext.w	a2,s7
   110e4:	40f687bb          	subw	a5,a3,a5
   110e8:	00c7d363          	bge	a5,a2,110ee <_vfprintf_r+0xc54>
   110ec:	8bbe                	mv	s7,a5
   110ee:	000b8c9b          	sext.w	s9,s7
   110f2:	03905263          	blez	s9,11116 <_vfprintf_r+0xc7c>
   110f6:	10812683          	lw	a3,264(sp)
   110fa:	9766                	add	a4,a4,s9
   110fc:	01b33023          	sd	s11,0(t1)
   11100:	0016861b          	addiw	a2,a3,1
   11104:	01933423          	sd	s9,8(t1)
   11108:	ea3a                	sd	a4,272(sp)
   1110a:	10c12423          	sw	a2,264(sp)
   1110e:	469d                	li	a3,7
   11110:	0341                	addi	t1,t1,16
   11112:	42c6c8e3          	blt	a3,a2,11d42 <_vfprintf_r+0x18a8>
   11116:	fffcc693          	not	a3,s9
   1111a:	96fd                	srai	a3,a3,0x3f
   1111c:	00dcfcb3          	and	s9,s9,a3
   11120:	41978bbb          	subw	s7,a5,s9
   11124:	dd705963          	blez	s7,106f6 <_vfprintf_r+0x25c>
   11128:	6cf5                	lui	s9,0x1d
   1112a:	46c1                	li	a3,16
   1112c:	10812783          	lw	a5,264(sp)
   11130:	9f0c8c93          	addi	s9,s9,-1552 # 1c9f0 <zeroes.0>
   11134:	4dc1                	li	s11,16
   11136:	4d1d                	li	s10,7
   11138:	0176c663          	blt	a3,s7,11144 <_vfprintf_r+0xcaa>
   1113c:	abd1                	j	11710 <_vfprintf_r+0x1276>
   1113e:	3bc1                	addiw	s7,s7,-16
   11140:	5d7dd863          	bge	s11,s7,11710 <_vfprintf_r+0x1276>
   11144:	2785                	addiw	a5,a5,1
   11146:	0741                	addi	a4,a4,16
   11148:	01933023          	sd	s9,0(t1)
   1114c:	01b33423          	sd	s11,8(t1)
   11150:	ea3a                	sd	a4,272(sp)
   11152:	10f12423          	sw	a5,264(sp)
   11156:	0341                	addi	t1,t1,16
   11158:	fefd53e3          	bge	s10,a5,1113e <_vfprintf_r+0xca4>
   1115c:	0210                	addi	a2,sp,256
   1115e:	85ca                	mv	a1,s2
   11160:	8552                	mv	a0,s4
   11162:	7de070ef          	jal	ra,18940 <__sprint_r>
   11166:	d60516e3          	bnez	a0,10ed2 <_vfprintf_r+0xa38>
   1116a:	6752                	ld	a4,272(sp)
   1116c:	10812783          	lw	a5,264(sp)
   11170:	835a                	mv	t1,s6
   11172:	b7f1                	j	1113e <_vfprintf_r+0xca4>
   11174:	0014f713          	andi	a4,s1,1
   11178:	fc071c63          	bnez	a4,10950 <_vfprintf_r+0x4b6>
   1117c:	2685                	addiw	a3,a3,1
   1117e:	001c8d13          	addi	s10,s9,1
   11182:	00f33423          	sd	a5,8(t1)
   11186:	10d12423          	sw	a3,264(sp)
   1118a:	0006879b          	sext.w	a5,a3
   1118e:	01b33023          	sd	s11,0(t1)
   11192:	ea6a                	sd	s10,272(sp)
   11194:	469d                	li	a3,7
   11196:	82f6dde3          	bge	a3,a5,109d0 <_vfprintf_r+0x536>
   1119a:	0210                	addi	a2,sp,256
   1119c:	85ca                	mv	a1,s2
   1119e:	8552                	mv	a0,s4
   111a0:	7a0070ef          	jal	ra,18940 <__sprint_r>
   111a4:	d20517e3          	bnez	a0,10ed2 <_vfprintf_r+0xa38>
   111a8:	6d52                	ld	s10,272(sp)
   111aa:	10812783          	lw	a5,264(sp)
   111ae:	8bda                	mv	s7,s6
   111b0:	821ff06f          	j	109d0 <_vfprintf_r+0x536>
   111b4:	7722                	ld	a4,40(sp)
   111b6:	4605                	li	a2,1
   111b8:	80e65ce3          	bge	a2,a4,109d0 <_vfprintf_r+0x536>
   111bc:	6cf5                	lui	s9,0x1d
   111be:	4645                	li	a2,17
   111c0:	9f0c8c93          	addi	s9,s9,-1552 # 1c9f0 <zeroes.0>
   111c4:	4841                	li	a6,16
   111c6:	4d9d                	li	s11,7
   111c8:	00e64663          	blt	a2,a4,111d4 <_vfprintf_r+0xd3a>
   111cc:	abc1                	j	1179c <_vfprintf_r+0x1302>
   111ce:	36c1                	addiw	a3,a3,-16
   111d0:	5cd85663          	bge	a6,a3,1179c <_vfprintf_r+0x1302>
   111d4:	2785                	addiw	a5,a5,1
   111d6:	0d41                	addi	s10,s10,16
   111d8:	019bb023          	sd	s9,0(s7)
   111dc:	010bb423          	sd	a6,8(s7)
   111e0:	ea6a                	sd	s10,272(sp)
   111e2:	10f12423          	sw	a5,264(sp)
   111e6:	0bc1                	addi	s7,s7,16
   111e8:	fefdd3e3          	bge	s11,a5,111ce <_vfprintf_r+0xd34>
   111ec:	0210                	addi	a2,sp,256
   111ee:	85ca                	mv	a1,s2
   111f0:	8552                	mv	a0,s4
   111f2:	e836                	sd	a3,16(sp)
   111f4:	74c070ef          	jal	ra,18940 <__sprint_r>
   111f8:	cc051de3          	bnez	a0,10ed2 <_vfprintf_r+0xa38>
   111fc:	6d52                	ld	s10,272(sp)
   111fe:	10812783          	lw	a5,264(sp)
   11202:	66c2                	ld	a3,16(sp)
   11204:	8bda                	mv	s7,s6
   11206:	4841                	li	a6,16
   11208:	b7d9                	j	111ce <_vfprintf_r+0xd34>
   1120a:	0210                	addi	a2,sp,256
   1120c:	85ca                	mv	a1,s2
   1120e:	8552                	mv	a0,s4
   11210:	730070ef          	jal	ra,18940 <__sprint_r>
   11214:	ca051fe3          	bnez	a0,10ed2 <_vfprintf_r+0xa38>
   11218:	6cd2                	ld	s9,272(sp)
   1121a:	835a                	mv	t1,s6
   1121c:	caeff06f          	j	106ca <_vfprintf_r+0x230>
   11220:	010cf793          	andi	a5,s9,16
   11224:	ebad                	bnez	a5,11296 <_vfprintf_r+0xdfc>
   11226:	66e2                	ld	a3,24(sp)
   11228:	040cf793          	andi	a5,s9,64
   1122c:	0006a983          	lw	s3,0(a3)
   11230:	5e078f63          	beqz	a5,1182e <_vfprintf_r+0x1394>
   11234:	19c2                	slli	s3,s3,0x30
   11236:	0309d993          	srli	s3,s3,0x30
   1123a:	ec3a                	sd	a4,24(sp)
   1123c:	4785                	li	a5,1
   1123e:	e02ff06f          	j	10840 <_vfprintf_r+0x3a6>
   11242:	4b81                	li	s7,0
   11244:	17c10d93          	addi	s11,sp,380
   11248:	db6ff06f          	j	107fe <_vfprintf_r+0x364>
   1124c:	0014f793          	andi	a5,s1,1
   11250:	8766                	mv	a4,s9
   11252:	ca078263          	beqz	a5,106f6 <_vfprintf_r+0x25c>
   11256:	b46d                	j	10d00 <_vfprintf_r+0x866>
   11258:	00044e03          	lbu	t3,0(s0)
   1125c:	ec6a                	sd	s10,24(sp)
   1125e:	b72ff06f          	j	105d0 <_vfprintf_r+0x136>
   11262:	0104f793          	andi	a5,s1,16
   11266:	a0079be3          	bnez	a5,10c7c <_vfprintf_r+0x7e2>
   1126a:	0404f793          	andi	a5,s1,64
   1126e:	7e079263          	bnez	a5,11a52 <_vfprintf_r+0x15b8>
   11272:	2004f493          	andi	s1,s1,512
   11276:	67a2                	ld	a5,8(sp)
   11278:	440482e3          	beqz	s1,11ebc <_vfprintf_r+0x1a22>
   1127c:	00f70023          	sb	a5,0(a4)
   11280:	b401                	j	10c80 <_vfprintf_r+0x7e6>
   11282:	67e2                	ld	a5,24(sp)
   11284:	639c                	ld	a5,0(a5)
   11286:	89be                	mv	s3,a5
   11288:	d50ff06f          	j	107d8 <_vfprintf_r+0x33e>
   1128c:	67e2                	ld	a5,24(sp)
   1128e:	0007b983          	ld	s3,0(a5)
   11292:	da4ff06f          	j	10836 <_vfprintf_r+0x39c>
   11296:	67e2                	ld	a5,24(sp)
   11298:	ec3a                	sd	a4,24(sp)
   1129a:	0007b983          	ld	s3,0(a5)
   1129e:	4785                	li	a5,1
   112a0:	da0ff06f          	j	10840 <_vfprintf_r+0x3a6>
   112a4:	67e2                	ld	a5,24(sp)
   112a6:	f01a                	sd	t1,32(sp)
   112a8:	e876                	sd	t4,16(sp)
   112aa:	2388                	fld	fa0,0(a5)
   112ac:	07a1                	addi	a5,a5,8
   112ae:	ec3e                	sd	a5,24(sp)
   112b0:	1300b0ef          	jal	ra,1c3e0 <__extenddftf2>
   112b4:	7302                	ld	t1,32(sp)
   112b6:	6ec2                	ld	t4,16(sp)
   112b8:	87aa                	mv	a5,a0
   112ba:	df6ff06f          	j	108b0 <_vfprintf_r+0x416>
   112be:	ec3a                	sd	a4,24(sp)
   112c0:	47a5                	li	a5,9
   112c2:	8ca6                	mv	s9,s1
   112c4:	c337f6e3          	bgeu	a5,s3,10ef0 <_vfprintf_r+0xa56>
   112c8:	17c10b93          	addi	s7,sp,380
   112cc:	400cf713          	andi	a4,s9,1024
   112d0:	f402                	sd	zero,40(sp)
   112d2:	865e                	mv	a2,s7
   112d4:	44a9                	li	s1,10
   112d6:	46a5                	li	a3,9
   112d8:	0ff00893          	li	a7,255
   112dc:	a039                	j	112ea <_vfprintf_r+0xe50>
   112de:	0299d7b3          	divu	a5,s3,s1
   112e2:	ad36f8e3          	bgeu	a3,s3,10db2 <_vfprintf_r+0x918>
   112e6:	89be                	mv	s3,a5
   112e8:	866e                	mv	a2,s11
   112ea:	75a2                	ld	a1,40(sp)
   112ec:	fff60d93          	addi	s11,a2,-1
   112f0:	2585                	addiw	a1,a1,1
   112f2:	f42e                	sd	a1,40(sp)
   112f4:	0299f7b3          	remu	a5,s3,s1
   112f8:	0307879b          	addiw	a5,a5,48
   112fc:	fef60fa3          	sb	a5,-1(a2)
   11300:	df79                	beqz	a4,112de <_vfprintf_r+0xe44>
   11302:	77c6                	ld	a5,112(sp)
   11304:	0007c783          	lbu	a5,0(a5)
   11308:	fcf59be3          	bne	a1,a5,112de <_vfprintf_r+0xe44>
   1130c:	fd1789e3          	beq	a5,a7,112de <_vfprintf_r+0xe44>
   11310:	ab36f1e3          	bgeu	a3,s3,10db2 <_vfprintf_r+0x918>
   11314:	67aa                	ld	a5,136(sp)
   11316:	65ea                	ld	a1,152(sp)
   11318:	e0ba                	sd	a4,64(sp)
   1131a:	40fd8db3          	sub	s11,s11,a5
   1131e:	863e                	mv	a2,a5
   11320:	856e                	mv	a0,s11
   11322:	f01a                	sd	t1,32(sp)
   11324:	e876                	sd	t4,16(sp)
   11326:	22d050ef          	jal	ra,16d52 <strncpy>
   1132a:	7746                	ld	a4,112(sp)
   1132c:	47a9                	li	a5,10
   1132e:	02f9d7b3          	divu	a5,s3,a5
   11332:	00174603          	lbu	a2,1(a4)
   11336:	6ec2                	ld	t4,16(sp)
   11338:	7302                	ld	t1,32(sp)
   1133a:	00c03633          	snez	a2,a2
   1133e:	9732                	add	a4,a4,a2
   11340:	f8ba                	sd	a4,112(sp)
   11342:	f402                	sd	zero,40(sp)
   11344:	6706                	ld	a4,64(sp)
   11346:	46a5                	li	a3,9
   11348:	0ff00893          	li	a7,255
   1134c:	bf69                	j	112e6 <_vfprintf_r+0xe4c>
   1134e:	87ba                	mv	a5,a4
   11350:	00078b9b          	sext.w	s7,a5
   11354:	d17046e3          	bgtz	s7,11060 <_vfprintf_r+0xbc6>
   11358:	b325                	j	11080 <_vfprintf_r+0xbe6>
   1135a:	0210                	addi	a2,sp,256
   1135c:	85ca                	mv	a1,s2
   1135e:	8552                	mv	a0,s4
   11360:	e876                	sd	t4,16(sp)
   11362:	5de070ef          	jal	ra,18940 <__sprint_r>
   11366:	b60516e3          	bnez	a0,10ed2 <_vfprintf_r+0xa38>
   1136a:	6cd2                	ld	s9,272(sp)
   1136c:	6ec2                	ld	t4,16(sp)
   1136e:	835a                	mv	t1,s6
   11370:	b52ff06f          	j	106c2 <_vfprintf_r+0x228>
   11374:	8ca6                	mv	s9,s1
   11376:	b06d                	j	10c20 <_vfprintf_r+0x786>
   11378:	67f1                	lui	a5,0x1c
   1137a:	7b078793          	addi	a5,a5,1968 # 1c7b0 <__clzdi2+0x92>
   1137e:	fc3e                	sd	a5,56(sp)
   11380:	66e2                	ld	a3,24(sp)
   11382:	0204f793          	andi	a5,s1,32
   11386:	00868713          	addi	a4,a3,8
   1138a:	2a078a63          	beqz	a5,1163e <_vfprintf_r+0x11a4>
   1138e:	0006b983          	ld	s3,0(a3)
   11392:	0014f793          	andi	a5,s1,1
   11396:	cf81                	beqz	a5,113ae <_vfprintf_r+0xf14>
   11398:	00098b63          	beqz	s3,113ae <_vfprintf_r+0xf14>
   1139c:	0024e493          	ori	s1,s1,2
   113a0:	03000793          	li	a5,48
   113a4:	0cf10823          	sb	a5,208(sp)
   113a8:	0da108a3          	sb	s10,209(sp)
   113ac:	2481                	sext.w	s1,s1
   113ae:	bff4fc93          	andi	s9,s1,-1025
   113b2:	2c81                	sext.w	s9,s9
   113b4:	ec3a                	sd	a4,24(sp)
   113b6:	4789                	li	a5,2
   113b8:	c88ff06f          	j	10840 <_vfprintf_r+0x3a6>
   113bc:	67f1                	lui	a5,0x1c
   113be:	7c878793          	addi	a5,a5,1992 # 1c7c8 <__clzdi2+0xaa>
   113c2:	fc3e                	sd	a5,56(sp)
   113c4:	bf75                	j	11380 <_vfprintf_r+0xee6>
   113c6:	2004e493          	ori	s1,s1,512
   113ca:	00144e03          	lbu	t3,1(s0)
   113ce:	2481                	sext.w	s1,s1
   113d0:	0405                	addi	s0,s0,1
   113d2:	9feff06f          	j	105d0 <_vfprintf_r+0x136>
   113d6:	0204e493          	ori	s1,s1,32
   113da:	00144e03          	lbu	t3,1(s0)
   113de:	2481                	sext.w	s1,s1
   113e0:	0405                	addi	s0,s0,1
   113e2:	9eeff06f          	j	105d0 <_vfprintf_r+0x136>
   113e6:	0210                	addi	a2,sp,256
   113e8:	85ca                	mv	a1,s2
   113ea:	8552                	mv	a0,s4
   113ec:	554070ef          	jal	ra,18940 <__sprint_r>
   113f0:	ae0511e3          	bnez	a0,10ed2 <_vfprintf_r+0xa38>
   113f4:	6752                	ld	a4,272(sp)
   113f6:	835a                	mv	t1,s6
   113f8:	ba05                	j	10d28 <_vfprintf_r+0x88e>
   113fa:	4799                	li	a5,6
   113fc:	000e8b9b          	sext.w	s7,t4
   11400:	63d7e063          	bltu	a5,t4,11a20 <_vfprintf_r+0x1586>
   11404:	6871                	lui	a6,0x1c
   11406:	89de                	mv	s3,s7
   11408:	ec66                	sd	s9,24(sp)
   1140a:	7e080d93          	addi	s11,a6,2016 # 1c7e0 <__clzdi2+0xc2>
   1140e:	a2eff06f          	j	1063c <_vfprintf_r+0x1a2>
   11412:	8766                	mv	a4,s9
   11414:	4641                	li	a2,16
   11416:	6cf5                	lui	s9,0x1d
   11418:	10812683          	lw	a3,264(sp)
   1141c:	9f0c8c93          	addi	s9,s9,-1552 # 1c9f0 <zeroes.0>
   11420:	48c1                	li	a7,16
   11422:	4d1d                	li	s10,7
   11424:	01764663          	blt	a2,s7,11430 <_vfprintf_r+0xf96>
   11428:	a915                	j	1185c <_vfprintf_r+0x13c2>
   1142a:	3bc1                	addiw	s7,s7,-16
   1142c:	4378d863          	bge	a7,s7,1185c <_vfprintf_r+0x13c2>
   11430:	2685                	addiw	a3,a3,1
   11432:	0741                	addi	a4,a4,16
   11434:	01933023          	sd	s9,0(t1)
   11438:	01133423          	sd	a7,8(t1)
   1143c:	ea3a                	sd	a4,272(sp)
   1143e:	10d12423          	sw	a3,264(sp)
   11442:	0341                	addi	t1,t1,16
   11444:	fedd53e3          	bge	s10,a3,1142a <_vfprintf_r+0xf90>
   11448:	0210                	addi	a2,sp,256
   1144a:	85ca                	mv	a1,s2
   1144c:	8552                	mv	a0,s4
   1144e:	4f2070ef          	jal	ra,18940 <__sprint_r>
   11452:	a80510e3          	bnez	a0,10ed2 <_vfprintf_r+0xa38>
   11456:	6752                	ld	a4,272(sp)
   11458:	10812683          	lw	a3,264(sp)
   1145c:	835a                	mv	t1,s6
   1145e:	48c1                	li	a7,16
   11460:	b7e9                	j	1142a <_vfprintf_r+0xf90>
   11462:	07800713          	li	a4,120
   11466:	0024e793          	ori	a5,s1,2
   1146a:	03000693          	li	a3,48
   1146e:	2781                	sext.w	a5,a5
   11470:	0ce108a3          	sb	a4,209(sp)
   11474:	0cd10823          	sb	a3,208(sp)
   11478:	06300713          	li	a4,99
   1147c:	e8be                	sd	a5,80(sp)
   1147e:	f002                	sd	zero,32(sp)
   11480:	11810d93          	addi	s11,sp,280
   11484:	63d74a63          	blt	a4,t4,11ab8 <_vfprintf_r+0x161e>
   11488:	1024e493          	ori	s1,s1,258
   1148c:	7bee                	ld	s7,248(sp)
   1148e:	0004879b          	sext.w	a5,s1
   11492:	f13e                	sd	a5,160(sp)
   11494:	f902                	sd	zero,176(sp)
   11496:	79ce                	ld	s3,240(sp)
   11498:	5e0bcb63          	bltz	s7,11a8e <_vfprintf_r+0x15f4>
   1149c:	06100793          	li	a5,97
   114a0:	24fd0ae3          	beq	s10,a5,11ef4 <_vfprintf_r+0x1a5a>
   114a4:	fbfd079b          	addiw	a5,s10,-65
   114a8:	0007869b          	sext.w	a3,a5
   114ac:	02500713          	li	a4,37
   114b0:	00d76c63          	bltu	a4,a3,114c8 <_vfprintf_r+0x102e>
   114b4:	02079713          	slli	a4,a5,0x20
   114b8:	01e75793          	srli	a5,a4,0x1e
   114bc:	6775                	lui	a4,0x1d
   114be:	95870713          	addi	a4,a4,-1704 # 1c958 <__clzdi2+0x23a>
   114c2:	97ba                	add	a5,a5,a4
   114c4:	439c                	lw	a5,0(a5)
   114c6:	8782                	jr	a5
   114c8:	8776                	mv	a4,t4
   114ca:	4689                	li	a3,2
   114cc:	09bc                	addi	a5,sp,216
   114ce:	0e810893          	addi	a7,sp,232
   114d2:	0dc10813          	addi	a6,sp,220
   114d6:	85ce                	mv	a1,s3
   114d8:	865e                	mv	a2,s7
   114da:	8552                	mv	a0,s4
   114dc:	e09a                	sd	t1,64(sp)
   114de:	f476                	sd	t4,40(sp)
   114e0:	e83a                	sd	a4,16(sp)
   114e2:	455020ef          	jal	ra,14136 <_ldtoa_r>
   114e6:	06700793          	li	a5,103
   114ea:	6742                	ld	a4,16(sp)
   114ec:	7ea2                	ld	t4,40(sp)
   114ee:	6306                	ld	t1,64(sp)
   114f0:	8daa                	mv	s11,a0
   114f2:	5efd0163          	beq	s10,a5,11ad4 <_vfprintf_r+0x163a>
   114f6:	04700793          	li	a5,71
   114fa:	5cfd0d63          	beq	s10,a5,11ad4 <_vfprintf_r+0x163a>
   114fe:	fdfd7c93          	andi	s9,s10,-33
   11502:	04600793          	li	a5,70
   11506:	00e504b3          	add	s1,a0,a4
   1150a:	7cfc8763          	beq	s9,a5,11cd8 <_vfprintf_r+0x183e>
   1150e:	4601                	li	a2,0
   11510:	4681                	li	a3,0
   11512:	854e                	mv	a0,s3
   11514:	85de                	mv	a1,s7
   11516:	f41a                	sd	t1,40(sp)
   11518:	e876                	sd	t4,16(sp)
   1151a:	46d090ef          	jal	ra,1b186 <__eqtf2>
   1151e:	6ec2                	ld	t4,16(sp)
   11520:	7322                	ld	t1,40(sp)
   11522:	87a6                	mv	a5,s1
   11524:	cd11                	beqz	a0,11540 <_vfprintf_r+0x10a6>
   11526:	77ae                	ld	a5,232(sp)
   11528:	0097fc63          	bgeu	a5,s1,11540 <_vfprintf_r+0x10a6>
   1152c:	03000693          	li	a3,48
   11530:	00178713          	addi	a4,a5,1
   11534:	f5ba                	sd	a4,232(sp)
   11536:	00d78023          	sb	a3,0(a5)
   1153a:	77ae                	ld	a5,232(sp)
   1153c:	fe97eae3          	bltu	a5,s1,11530 <_vfprintf_r+0x1096>
   11540:	41b787bb          	subw	a5,a5,s11
   11544:	f43e                	sd	a5,40(sp)
   11546:	47ee                	lw	a5,216(sp)
   11548:	04700713          	li	a4,71
   1154c:	f0be                	sd	a5,96(sp)
   1154e:	6eec8263          	beq	s9,a4,11c32 <_vfprintf_r+0x1798>
   11552:	04600713          	li	a4,70
   11556:	02ec8fe3          	beq	s9,a4,11d94 <_vfprintf_r+0x18fa>
   1155a:	fff78e9b          	addiw	t4,a5,-1
   1155e:	cdf6                	sw	t4,216(sp)
   11560:	06100713          	li	a4,97
   11564:	26ed09e3          	beq	s10,a4,11fd6 <_vfprintf_r+0x1b3c>
   11568:	04100693          	li	a3,65
   1156c:	05000713          	li	a4,80
   11570:	6cdd1b63          	bne	s10,a3,11c46 <_vfprintf_r+0x17ac>
   11574:	4685                	li	a3,1
   11576:	0ee10023          	sb	a4,224(sp)
   1157a:	02b00713          	li	a4,43
   1157e:	000ed763          	bgez	t4,1158c <_vfprintf_r+0x10f2>
   11582:	4e85                	li	t4,1
   11584:	40fe8ebb          	subw	t4,t4,a5
   11588:	02d00713          	li	a4,45
   1158c:	0ee100a3          	sb	a4,225(sp)
   11590:	47a5                	li	a5,9
   11592:	11d7d0e3          	bge	a5,t4,11e92 <_vfprintf_r+0x19f8>
   11596:	0ef10893          	addi	a7,sp,239
   1159a:	8646                	mv	a2,a7
   1159c:	45a9                	li	a1,10
   1159e:	06300f13          	li	t5,99
   115a2:	02bee7bb          	remw	a5,t4,a1
   115a6:	8532                	mv	a0,a2
   115a8:	8776                	mv	a4,t4
   115aa:	167d                	addi	a2,a2,-1
   115ac:	0307879b          	addiw	a5,a5,48
   115b0:	fef50fa3          	sb	a5,-1(a0)
   115b4:	02becebb          	divw	t4,t4,a1
   115b8:	feef45e3          	blt	t5,a4,115a2 <_vfprintf_r+0x1108>
   115bc:	030e869b          	addiw	a3,t4,48
   115c0:	ffe50793          	addi	a5,a0,-2
   115c4:	fed60fa3          	sb	a3,-1(a2)
   115c8:	2517f2e3          	bgeu	a5,a7,1200c <_vfprintf_r+0x1b72>
   115cc:	0e210713          	addi	a4,sp,226
   115d0:	0007c683          	lbu	a3,0(a5)
   115d4:	0785                	addi	a5,a5,1
   115d6:	0705                	addi	a4,a4,1
   115d8:	fed70fa3          	sb	a3,-1(a4)
   115dc:	ff179ae3          	bne	a5,a7,115d0 <_vfprintf_r+0x1136>
   115e0:	0f110793          	addi	a5,sp,241
   115e4:	0e210713          	addi	a4,sp,226
   115e8:	8f89                	sub	a5,a5,a0
   115ea:	97ba                	add	a5,a5,a4
   115ec:	1198                	addi	a4,sp,224
   115ee:	9f99                	subw	a5,a5,a4
   115f0:	e93e                	sd	a5,144(sp)
   115f2:	67ca                	ld	a5,144(sp)
   115f4:	76a2                	ld	a3,40(sp)
   115f6:	4705                	li	a4,1
   115f8:	00f68bbb          	addw	s7,a3,a5
   115fc:	87de                	mv	a5,s7
   115fe:	0ed755e3          	bge	a4,a3,11ee8 <_vfprintf_r+0x1a4e>
   11602:	7766                	ld	a4,120(sp)
   11604:	00e78bbb          	addw	s7,a5,a4
   11608:	67c6                	ld	a5,80(sp)
   1160a:	fffbc993          	not	s3,s7
   1160e:	43f9d993          	srai	s3,s3,0x3f
   11612:	bff7f493          	andi	s1,a5,-1025
   11616:	2481                	sext.w	s1,s1
   11618:	013bf9b3          	and	s3,s7,s3
   1161c:	1004e493          	ori	s1,s1,256
   11620:	2981                	sext.w	s3,s3
   11622:	ec82                	sd	zero,88(sp)
   11624:	f482                	sd	zero,104(sp)
   11626:	f082                	sd	zero,96(sp)
   11628:	77ca                	ld	a5,176(sp)
   1162a:	62078263          	beqz	a5,11c4e <_vfprintf_r+0x17b4>
   1162e:	02d00793          	li	a5,45
   11632:	0cf107a3          	sb	a5,207(sp)
   11636:	4e81                	li	t4,0
   11638:	2985                	addiw	s3,s3,1
   1163a:	80cff06f          	j	10646 <_vfprintf_r+0x1ac>
   1163e:	0104f793          	andi	a5,s1,16
   11642:	c3cd                	beqz	a5,116e4 <_vfprintf_r+0x124a>
   11644:	67e2                	ld	a5,24(sp)
   11646:	0007b983          	ld	s3,0(a5)
   1164a:	b3a1                	j	11392 <_vfprintf_r+0xef8>
   1164c:	0210                	addi	a2,sp,256
   1164e:	85ca                	mv	a1,s2
   11650:	8552                	mv	a0,s4
   11652:	2ee070ef          	jal	ra,18940 <__sprint_r>
   11656:	86051ee3          	bnez	a0,10ed2 <_vfprintf_r+0xa38>
   1165a:	6752                	ld	a4,272(sp)
   1165c:	10812783          	lw	a5,264(sp)
   11660:	8bda                	mv	s7,s6
   11662:	b0eff06f          	j	10970 <_vfprintf_r+0x4d6>
   11666:	0210                	addi	a2,sp,256
   11668:	85ca                	mv	a1,s2
   1166a:	8552                	mv	a0,s4
   1166c:	2d4070ef          	jal	ra,18940 <__sprint_r>
   11670:	860511e3          	bnez	a0,10ed2 <_vfprintf_r+0xa38>
   11674:	6d52                	ld	s10,272(sp)
   11676:	10812783          	lw	a5,264(sp)
   1167a:	8bda                	mv	s7,s6
   1167c:	b1aff06f          	j	10996 <_vfprintf_r+0x4fc>
   11680:	10812783          	lw	a5,264(sp)
   11684:	66f1                	lui	a3,0x1c
   11686:	7e868693          	addi	a3,a3,2024 # 1c7e8 <__clzdi2+0xca>
   1168a:	2785                	addiw	a5,a5,1
   1168c:	00d33023          	sd	a3,0(t1)
   11690:	001c8713          	addi	a4,s9,1
   11694:	4685                	li	a3,1
   11696:	00d33423          	sd	a3,8(t1)
   1169a:	10f12423          	sw	a5,264(sp)
   1169e:	0007869b          	sext.w	a3,a5
   116a2:	ea3a                	sd	a4,272(sp)
   116a4:	479d                	li	a5,7
   116a6:	0341                	addi	t1,t1,16
   116a8:	34d7c263          	blt	a5,a3,119ec <_vfprintf_r+0x1552>
   116ac:	0e061f63          	bnez	a2,117aa <_vfprintf_r+0x1310>
   116b0:	76a2                	ld	a3,40(sp)
   116b2:	0014f793          	andi	a5,s1,1
   116b6:	8fd5                	or	a5,a5,a3
   116b8:	e399                	bnez	a5,116be <_vfprintf_r+0x1224>
   116ba:	83cff06f          	j	106f6 <_vfprintf_r+0x25c>
   116be:	10812783          	lw	a5,264(sp)
   116c2:	76e6                	ld	a3,120(sp)
   116c4:	660a                	ld	a2,128(sp)
   116c6:	0017859b          	addiw	a1,a5,1
   116ca:	9736                	add	a4,a4,a3
   116cc:	00c33023          	sd	a2,0(t1)
   116d0:	00d33423          	sd	a3,8(t1)
   116d4:	ea3a                	sd	a4,272(sp)
   116d6:	10b12423          	sw	a1,264(sp)
   116da:	479d                	li	a5,7
   116dc:	3cb7c163          	blt	a5,a1,11a9e <_vfprintf_r+0x1604>
   116e0:	0341                	addi	t1,t1,16
   116e2:	a8c5                	j	117d2 <_vfprintf_r+0x1338>
   116e4:	66e2                	ld	a3,24(sp)
   116e6:	0404f793          	andi	a5,s1,64
   116ea:	0006a983          	lw	s3,0(a3)
   116ee:	12078163          	beqz	a5,11810 <_vfprintf_r+0x1376>
   116f2:	19c2                	slli	s3,s3,0x30
   116f4:	0309d993          	srli	s3,s3,0x30
   116f8:	b969                	j	11392 <_vfprintf_r+0xef8>
   116fa:	0210                	addi	a2,sp,256
   116fc:	85ca                	mv	a1,s2
   116fe:	8552                	mv	a0,s4
   11700:	240070ef          	jal	ra,18940 <__sprint_r>
   11704:	fc051763          	bnez	a0,10ed2 <_vfprintf_r+0xa38>
   11708:	6cd2                	ld	s9,272(sp)
   1170a:	835a                	mv	t1,s6
   1170c:	decff06f          	j	10cf8 <_vfprintf_r+0x85e>
   11710:	0017869b          	addiw	a3,a5,1
   11714:	87b6                	mv	a5,a3
   11716:	975e                	add	a4,a4,s7
   11718:	01933023          	sd	s9,0(t1)
   1171c:	fc9fe06f          	j	106e4 <_vfprintf_r+0x24a>
   11720:	ec3a                	sd	a4,24(sp)
   11722:	fc8ff06f          	j	10eea <_vfprintf_r+0xa50>
   11726:	754e                	ld	a0,240(sp)
   11728:	75ee                	ld	a1,248(sp)
   1172a:	4601                	li	a2,0
   1172c:	4681                	li	a3,0
   1172e:	e81a                	sd	t1,16(sp)
   11730:	3b1090ef          	jal	ra,1b2e0 <__letf2>
   11734:	6342                	ld	t1,16(sp)
   11736:	58054c63          	bltz	a0,11cce <_vfprintf_r+0x1834>
   1173a:	0cf14783          	lbu	a5,207(sp)
   1173e:	04700713          	li	a4,71
   11742:	2da75063          	bge	a4,s10,11a02 <_vfprintf_r+0x1568>
   11746:	6871                	lui	a6,0x1c
   11748:	79880d93          	addi	s11,a6,1944 # 1c798 <__clzdi2+0x7a>
   1174c:	f7f4f493          	andi	s1,s1,-129
   11750:	f002                	sd	zero,32(sp)
   11752:	ec82                	sd	zero,88(sp)
   11754:	f482                	sd	zero,104(sp)
   11756:	f082                	sd	zero,96(sp)
   11758:	2481                	sext.w	s1,s1
   1175a:	498d                	li	s3,3
   1175c:	4b8d                	li	s7,3
   1175e:	4e81                	li	t4,0
   11760:	8a079d63          	bnez	a5,1081a <_vfprintf_r+0x380>
   11764:	ee3fe06f          	j	10646 <_vfprintf_r+0x1ac>
   11768:	856e                	mv	a0,s11
   1176a:	e81a                	sd	t1,16(sp)
   1176c:	c9ffe0ef          	jal	ra,1040a <strlen>
   11770:	00050b9b          	sext.w	s7,a0
   11774:	0cf14783          	lbu	a5,207(sp)
   11778:	fffbc993          	not	s3,s7
   1177c:	43f9d993          	srai	s3,s3,0x3f
   11780:	ec66                	sd	s9,24(sp)
   11782:	f002                	sd	zero,32(sp)
   11784:	ec82                	sd	zero,88(sp)
   11786:	f482                	sd	zero,104(sp)
   11788:	f082                	sd	zero,96(sp)
   1178a:	6342                	ld	t1,16(sp)
   1178c:	0179f9b3          	and	s3,s3,s7
   11790:	4e81                	li	t4,0
   11792:	c399                	beqz	a5,11798 <_vfprintf_r+0x12fe>
   11794:	886ff06f          	j	1081a <_vfprintf_r+0x380>
   11798:	eaffe06f          	j	10646 <_vfprintf_r+0x1ac>
   1179c:	2785                	addiw	a5,a5,1
   1179e:	863e                	mv	a2,a5
   117a0:	9d36                	add	s10,s10,a3
   117a2:	019bb023          	sd	s9,0(s7)
   117a6:	a18ff06f          	j	109be <_vfprintf_r+0x524>
   117aa:	10812783          	lw	a5,264(sp)
   117ae:	76e6                	ld	a3,120(sp)
   117b0:	658a                	ld	a1,128(sp)
   117b2:	0341                	addi	t1,t1,16
   117b4:	9736                	add	a4,a4,a3
   117b6:	feb33823          	sd	a1,-16(t1)
   117ba:	0017859b          	addiw	a1,a5,1
   117be:	fed33c23          	sd	a3,-8(t1)
   117c2:	ea3a                	sd	a4,272(sp)
   117c4:	10b12423          	sw	a1,264(sp)
   117c8:	479d                	li	a5,7
   117ca:	2cb7ca63          	blt	a5,a1,11a9e <_vfprintf_r+0x1604>
   117ce:	5e064563          	bltz	a2,11db8 <_vfprintf_r+0x191e>
   117d2:	76a2                	ld	a3,40(sp)
   117d4:	0015879b          	addiw	a5,a1,1
   117d8:	10f12423          	sw	a5,264(sp)
   117dc:	9736                	add	a4,a4,a3
   117de:	00d33423          	sd	a3,8(t1)
   117e2:	01b33023          	sd	s11,0(t1)
   117e6:	0007869b          	sext.w	a3,a5
   117ea:	ea3a                	sd	a4,272(sp)
   117ec:	479d                	li	a5,7
   117ee:	00d7c463          	blt	a5,a3,117f6 <_vfprintf_r+0x135c>
   117f2:	f03fe06f          	j	106f4 <_vfprintf_r+0x25a>
   117f6:	a00ff06f          	j	109f6 <_vfprintf_r+0x55c>
   117fa:	2004f793          	andi	a5,s1,512
   117fe:	26078363          	beqz	a5,11a64 <_vfprintf_r+0x15ca>
   11802:	0189999b          	slliw	s3,s3,0x18
   11806:	4189d99b          	sraiw	s3,s3,0x18
   1180a:	87ce                	mv	a5,s3
   1180c:	fcdfe06f          	j	107d8 <_vfprintf_r+0x33e>
   11810:	2004f793          	andi	a5,s1,512
   11814:	24078463          	beqz	a5,11a5c <_vfprintf_r+0x15c2>
   11818:	0ff9f993          	zext.b	s3,s3
   1181c:	be9d                	j	11392 <_vfprintf_r+0xef8>
   1181e:	2004f793          	andi	a5,s1,512
   11822:	24078463          	beqz	a5,11a6a <_vfprintf_r+0x15d0>
   11826:	0ff9f993          	zext.b	s3,s3
   1182a:	80cff06f          	j	10836 <_vfprintf_r+0x39c>
   1182e:	200cf793          	andi	a5,s9,512
   11832:	20078963          	beqz	a5,11a44 <_vfprintf_r+0x15aa>
   11836:	0ff9f993          	zext.b	s3,s3
   1183a:	ec3a                	sd	a4,24(sp)
   1183c:	4785                	li	a5,1
   1183e:	802ff06f          	j	10840 <_vfprintf_r+0x3a6>
   11842:	77ee                	ld	a5,248(sp)
   11844:	2207cf63          	bltz	a5,11a82 <_vfprintf_r+0x15e8>
   11848:	0cf14783          	lbu	a5,207(sp)
   1184c:	04700713          	li	a4,71
   11850:	4fa75563          	bge	a4,s10,11d3a <_vfprintf_r+0x18a0>
   11854:	6871                	lui	a6,0x1c
   11856:	7a880d93          	addi	s11,a6,1960 # 1c7a8 <__clzdi2+0x8a>
   1185a:	bdcd                	j	1174c <_vfprintf_r+0x12b2>
   1185c:	0016861b          	addiw	a2,a3,1
   11860:	975e                	add	a4,a4,s7
   11862:	01933023          	sd	s9,0(t1)
   11866:	01733423          	sd	s7,8(t1)
   1186a:	ea3a                	sd	a4,272(sp)
   1186c:	10c12423          	sw	a2,264(sp)
   11870:	479d                	li	a5,7
   11872:	26c7ca63          	blt	a5,a2,11ae6 <_vfprintf_r+0x164c>
   11876:	0341                	addi	t1,t1,16
   11878:	8cba                	mv	s9,a4
   1187a:	81bff06f          	j	11094 <_vfprintf_r+0xbfa>
   1187e:	77a6                	ld	a5,104(sp)
   11880:	6ef5                	lui	t4,0x1d
   11882:	4e1d                	li	t3,7
   11884:	4bc1                	li	s7,16
   11886:	9f0e8d13          	addi	s10,t4,-1552 # 1c9f0 <zeroes.0>
   1188a:	c7d9                	beqz	a5,11918 <_vfprintf_r+0x147e>
   1188c:	67e6                	ld	a5,88(sp)
   1188e:	12078663          	beqz	a5,119ba <_vfprintf_r+0x1520>
   11892:	67e6                	ld	a5,88(sp)
   11894:	37fd                	addiw	a5,a5,-1
   11896:	ecbe                	sd	a5,88(sp)
   11898:	672a                	ld	a4,136(sp)
   1189a:	10812783          	lw	a5,264(sp)
   1189e:	66ea                	ld	a3,152(sp)
   118a0:	9cba                	add	s9,s9,a4
   118a2:	2785                	addiw	a5,a5,1
   118a4:	00e33423          	sd	a4,8(t1)
   118a8:	00d33023          	sd	a3,0(t1)
   118ac:	ea66                	sd	s9,272(sp)
   118ae:	0007871b          	sext.w	a4,a5
   118b2:	10f12423          	sw	a5,264(sp)
   118b6:	0341                	addi	t1,t1,16
   118b8:	0eee4663          	blt	t3,a4,119a4 <_vfprintf_r+0x150a>
   118bc:	77c6                	ld	a5,112(sp)
   118be:	0007c603          	lbu	a2,0(a5)
   118c2:	6786                	ld	a5,64(sp)
   118c4:	41b78733          	sub	a4,a5,s11
   118c8:	0007069b          	sext.w	a3,a4
   118cc:	0006079b          	sext.w	a5,a2
   118d0:	00d65363          	bge	a2,a3,118d6 <_vfprintf_r+0x143c>
   118d4:	873e                	mv	a4,a5
   118d6:	2701                	sext.w	a4,a4
   118d8:	02e05663          	blez	a4,11904 <_vfprintf_r+0x146a>
   118dc:	10812783          	lw	a5,264(sp)
   118e0:	9cba                	add	s9,s9,a4
   118e2:	01b33023          	sd	s11,0(t1)
   118e6:	0017869b          	addiw	a3,a5,1
   118ea:	00e33423          	sd	a4,8(t1)
   118ee:	ea66                	sd	s9,272(sp)
   118f0:	10d12423          	sw	a3,264(sp)
   118f4:	0cde4a63          	blt	t3,a3,119c8 <_vfprintf_r+0x152e>
   118f8:	77c6                	ld	a5,112(sp)
   118fa:	0341                	addi	t1,t1,16
   118fc:	0007c603          	lbu	a2,0(a5)
   11900:	0006079b          	sext.w	a5,a2
   11904:	fff74693          	not	a3,a4
   11908:	96fd                	srai	a3,a3,0x3f
   1190a:	8f75                	and	a4,a4,a3
   1190c:	9f99                	subw	a5,a5,a4
   1190e:	00f04d63          	bgtz	a5,11928 <_vfprintf_r+0x148e>
   11912:	9db2                	add	s11,s11,a2
   11914:	77a6                	ld	a5,104(sp)
   11916:	fbbd                	bnez	a5,1188c <_vfprintf_r+0x13f2>
   11918:	67e6                	ld	a5,88(sp)
   1191a:	ffa5                	bnez	a5,11892 <_vfprintf_r+0x13f8>
   1191c:	6786                	ld	a5,64(sp)
   1191e:	f9b7f163          	bgeu	a5,s11,110a0 <_vfprintf_r+0xc06>
   11922:	8dbe                	mv	s11,a5
   11924:	f7cff06f          	j	110a0 <_vfprintf_r+0xc06>
   11928:	8766                	mv	a4,s9
   1192a:	6cf5                	lui	s9,0x1d
   1192c:	10812683          	lw	a3,264(sp)
   11930:	9f0c8c93          	addi	s9,s9,-1552 # 1c9f0 <zeroes.0>
   11934:	04fbd463          	bge	s7,a5,1197c <_vfprintf_r+0x14e2>
   11938:	8cea                	mv	s9,s10
   1193a:	a021                	j	11942 <_vfprintf_r+0x14a8>
   1193c:	37c1                	addiw	a5,a5,-16
   1193e:	02fbdf63          	bge	s7,a5,1197c <_vfprintf_r+0x14e2>
   11942:	2685                	addiw	a3,a3,1
   11944:	0741                	addi	a4,a4,16
   11946:	01a33023          	sd	s10,0(t1)
   1194a:	01733423          	sd	s7,8(t1)
   1194e:	ea3a                	sd	a4,272(sp)
   11950:	10d12423          	sw	a3,264(sp)
   11954:	0341                	addi	t1,t1,16
   11956:	fede53e3          	bge	t3,a3,1193c <_vfprintf_r+0x14a2>
   1195a:	0210                	addi	a2,sp,256
   1195c:	85ca                	mv	a1,s2
   1195e:	8552                	mv	a0,s4
   11960:	e83e                	sd	a5,16(sp)
   11962:	7df060ef          	jal	ra,18940 <__sprint_r>
   11966:	d6051663          	bnez	a0,10ed2 <_vfprintf_r+0xa38>
   1196a:	67c2                	ld	a5,16(sp)
   1196c:	6752                	ld	a4,272(sp)
   1196e:	10812683          	lw	a3,264(sp)
   11972:	37c1                	addiw	a5,a5,-16
   11974:	835a                	mv	t1,s6
   11976:	4e1d                	li	t3,7
   11978:	fcfbc5e3          	blt	s7,a5,11942 <_vfprintf_r+0x14a8>
   1197c:	2685                	addiw	a3,a3,1
   1197e:	973e                	add	a4,a4,a5
   11980:	00f33423          	sd	a5,8(t1)
   11984:	01933023          	sd	s9,0(t1)
   11988:	ea3a                	sd	a4,272(sp)
   1198a:	0006879b          	sext.w	a5,a3
   1198e:	10d12423          	sw	a3,264(sp)
   11992:	30fe4363          	blt	t3,a5,11c98 <_vfprintf_r+0x17fe>
   11996:	77c6                	ld	a5,112(sp)
   11998:	0341                	addi	t1,t1,16
   1199a:	8cba                	mv	s9,a4
   1199c:	0007c603          	lbu	a2,0(a5)
   119a0:	9db2                	add	s11,s11,a2
   119a2:	bf8d                	j	11914 <_vfprintf_r+0x147a>
   119a4:	0210                	addi	a2,sp,256
   119a6:	85ca                	mv	a1,s2
   119a8:	8552                	mv	a0,s4
   119aa:	797060ef          	jal	ra,18940 <__sprint_r>
   119ae:	d2051263          	bnez	a0,10ed2 <_vfprintf_r+0xa38>
   119b2:	6cd2                	ld	s9,272(sp)
   119b4:	835a                	mv	t1,s6
   119b6:	4e1d                	li	t3,7
   119b8:	b711                	j	118bc <_vfprintf_r+0x1422>
   119ba:	77c6                	ld	a5,112(sp)
   119bc:	17fd                	addi	a5,a5,-1
   119be:	f8be                	sd	a5,112(sp)
   119c0:	77a6                	ld	a5,104(sp)
   119c2:	37fd                	addiw	a5,a5,-1
   119c4:	f4be                	sd	a5,104(sp)
   119c6:	bdc9                	j	11898 <_vfprintf_r+0x13fe>
   119c8:	0210                	addi	a2,sp,256
   119ca:	85ca                	mv	a1,s2
   119cc:	8552                	mv	a0,s4
   119ce:	e83a                	sd	a4,16(sp)
   119d0:	771060ef          	jal	ra,18940 <__sprint_r>
   119d4:	ce051f63          	bnez	a0,10ed2 <_vfprintf_r+0xa38>
   119d8:	77c6                	ld	a5,112(sp)
   119da:	6cd2                	ld	s9,272(sp)
   119dc:	6742                	ld	a4,16(sp)
   119de:	0007c603          	lbu	a2,0(a5)
   119e2:	835a                	mv	t1,s6
   119e4:	4e1d                	li	t3,7
   119e6:	0006079b          	sext.w	a5,a2
   119ea:	bf29                	j	11904 <_vfprintf_r+0x146a>
   119ec:	0210                	addi	a2,sp,256
   119ee:	85ca                	mv	a1,s2
   119f0:	8552                	mv	a0,s4
   119f2:	74f060ef          	jal	ra,18940 <__sprint_r>
   119f6:	cc051e63          	bnez	a0,10ed2 <_vfprintf_r+0xa38>
   119fa:	466e                	lw	a2,216(sp)
   119fc:	6752                	ld	a4,272(sp)
   119fe:	835a                	mv	t1,s6
   11a00:	b175                	j	116ac <_vfprintf_r+0x1212>
   11a02:	6871                	lui	a6,0x1c
   11a04:	79080d93          	addi	s11,a6,1936 # 1c790 <__clzdi2+0x72>
   11a08:	b391                	j	1174c <_vfprintf_r+0x12b2>
   11a0a:	0210                	addi	a2,sp,256
   11a0c:	85ca                	mv	a1,s2
   11a0e:	8552                	mv	a0,s4
   11a10:	731060ef          	jal	ra,18940 <__sprint_r>
   11a14:	ca051f63          	bnez	a0,10ed2 <_vfprintf_r+0xa38>
   11a18:	6cd2                	ld	s9,272(sp)
   11a1a:	835a                	mv	t1,s6
   11a1c:	e64ff06f          	j	11080 <_vfprintf_r+0xbe6>
   11a20:	4b99                	li	s7,6
   11a22:	b2cd                	j	11404 <_vfprintf_r+0xf6a>
   11a24:	6706                	ld	a4,64(sp)
   11a26:	40f687bb          	subw	a5,a3,a5
   11a2a:	41b70bb3          	sub	s7,a4,s11
   11a2e:	000b861b          	sext.w	a2,s7
   11a32:	8766                	mv	a4,s9
   11a34:	000b8c9b          	sext.w	s9,s7
   11a38:	ecc7df63          	bge	a5,a2,11116 <_vfprintf_r+0xc7c>
   11a3c:	00078c9b          	sext.w	s9,a5
   11a40:	ed6ff06f          	j	11116 <_vfprintf_r+0xc7c>
   11a44:	1982                	slli	s3,s3,0x20
   11a46:	0209d993          	srli	s3,s3,0x20
   11a4a:	ec3a                	sd	a4,24(sp)
   11a4c:	4785                	li	a5,1
   11a4e:	df3fe06f          	j	10840 <_vfprintf_r+0x3a6>
   11a52:	67a2                	ld	a5,8(sp)
   11a54:	00f71023          	sh	a5,0(a4)
   11a58:	a28ff06f          	j	10c80 <_vfprintf_r+0x7e6>
   11a5c:	1982                	slli	s3,s3,0x20
   11a5e:	0209d993          	srli	s3,s3,0x20
   11a62:	ba05                	j	11392 <_vfprintf_r+0xef8>
   11a64:	87ce                	mv	a5,s3
   11a66:	d73fe06f          	j	107d8 <_vfprintf_r+0x33e>
   11a6a:	1982                	slli	s3,s3,0x20
   11a6c:	0209d993          	srli	s3,s3,0x20
   11a70:	dc7fe06f          	j	10836 <_vfprintf_r+0x39c>
   11a74:	0210                	addi	a2,sp,256
   11a76:	85ca                	mv	a1,s2
   11a78:	8552                	mv	a0,s4
   11a7a:	6c7060ef          	jal	ra,18940 <__sprint_r>
   11a7e:	cbbfe06f          	j	10738 <_vfprintf_r+0x29e>
   11a82:	02d00793          	li	a5,45
   11a86:	0cf107a3          	sb	a5,207(sp)
   11a8a:	b3c9                	j	1184c <_vfprintf_r+0x13b2>
   11a8c:	f002                	sd	zero,32(sp)
   11a8e:	57fd                	li	a5,-1
   11a90:	17fe                	slli	a5,a5,0x3f
   11a92:	00fbcbb3          	xor	s7,s7,a5
   11a96:	02d00793          	li	a5,45
   11a9a:	f93e                	sd	a5,176(sp)
   11a9c:	b401                	j	1149c <_vfprintf_r+0x1002>
   11a9e:	0210                	addi	a2,sp,256
   11aa0:	85ca                	mv	a1,s2
   11aa2:	8552                	mv	a0,s4
   11aa4:	69d060ef          	jal	ra,18940 <__sprint_r>
   11aa8:	c2051563          	bnez	a0,10ed2 <_vfprintf_r+0xa38>
   11aac:	466e                	lw	a2,216(sp)
   11aae:	6752                	ld	a4,272(sp)
   11ab0:	10812583          	lw	a1,264(sp)
   11ab4:	835a                	mv	t1,s6
   11ab6:	bb21                	j	117ce <_vfprintf_r+0x1334>
   11ab8:	001e859b          	addiw	a1,t4,1
   11abc:	8552                	mv	a0,s4
   11abe:	f01a                	sd	t1,32(sp)
   11ac0:	e876                	sd	t4,16(sp)
   11ac2:	698030ef          	jal	ra,1515a <_malloc_r>
   11ac6:	6ec2                	ld	t4,16(sp)
   11ac8:	7302                	ld	t1,32(sp)
   11aca:	8daa                	mv	s11,a0
   11acc:	56050463          	beqz	a0,12034 <_vfprintf_r+0x1b9a>
   11ad0:	f02a                	sd	a0,32(sp)
   11ad2:	ba5d                	j	11488 <_vfprintf_r+0xfee>
   11ad4:	67c6                	ld	a5,80(sp)
   11ad6:	8b85                	andi	a5,a5,1
   11ad8:	14078863          	beqz	a5,11c28 <_vfprintf_r+0x178e>
   11adc:	00ed84b3          	add	s1,s11,a4
   11ae0:	04700c93          	li	s9,71
   11ae4:	b42d                	j	1150e <_vfprintf_r+0x1074>
   11ae6:	0210                	addi	a2,sp,256
   11ae8:	85ca                	mv	a1,s2
   11aea:	8552                	mv	a0,s4
   11aec:	655060ef          	jal	ra,18940 <__sprint_r>
   11af0:	be051163          	bnez	a0,10ed2 <_vfprintf_r+0xa38>
   11af4:	6cd2                	ld	s9,272(sp)
   11af6:	835a                	mv	t1,s6
   11af8:	d9cff06f          	j	11094 <_vfprintf_r+0xbfa>
   11afc:	001e871b          	addiw	a4,t4,1
   11b00:	4689                	li	a3,2
   11b02:	b2e9                	j	114cc <_vfprintf_r+0x1032>
   11b04:	8776                	mv	a4,t4
   11b06:	468d                	li	a3,3
   11b08:	b2d1                	j	114cc <_vfprintf_r+0x1032>
   11b0a:	85de                	mv	a1,s7
   11b0c:	854e                	mv	a0,s3
   11b0e:	e09a                	sd	t1,64(sp)
   11b10:	f476                	sd	t4,40(sp)
   11b12:	1930a0ef          	jal	ra,1c4a4 <__trunctfdf2>
   11b16:	09a8                	addi	a0,sp,216
   11b18:	779040ef          	jal	ra,16a90 <frexp>
   11b1c:	0c50a0ef          	jal	ra,1c3e0 <__extenddftf2>
   11b20:	67f5                	lui	a5,0x1d
   11b22:	a187b683          	ld	a3,-1512(a5) # 1ca18 <blanks.1+0x18>
   11b26:	4601                	li	a2,0
   11b28:	079090ef          	jal	ra,1b3a0 <__multf3>
   11b2c:	4601                	li	a2,0
   11b2e:	4681                	li	a3,0
   11b30:	8baa                	mv	s7,a0
   11b32:	e82e                	sd	a1,16(sp)
   11b34:	652090ef          	jal	ra,1b186 <__eqtf2>
   11b38:	7ea2                	ld	t4,40(sp)
   11b3a:	6306                	ld	t1,64(sp)
   11b3c:	e119                	bnez	a0,11b42 <_vfprintf_r+0x16a8>
   11b3e:	4785                	li	a5,1
   11b40:	cdbe                	sw	a5,216(sp)
   11b42:	67f1                	lui	a5,0x1c
   11b44:	7b078793          	addi	a5,a5,1968 # 1c7b0 <__clzdi2+0x92>
   11b48:	e4be                	sd	a5,72(sp)
   11b4a:	6775                	lui	a4,0x1d
   11b4c:	a2873703          	ld	a4,-1496(a4) # 1ca28 <blanks.1+0x28>
   11b50:	020e9793          	slli	a5,t4,0x20
   11b54:	9381                	srli	a5,a5,0x20
   11b56:	0785                	addi	a5,a5,1
   11b58:	f53a                	sd	a4,168(sp)
   11b5a:	97ee                	add	a5,a5,s11
   11b5c:	000e871b          	sext.w	a4,t4
   11b60:	fd3a                	sd	a4,184(sp)
   11b62:	f0be                	sd	a5,96(sp)
   11b64:	8cee                	mv	s9,s11
   11b66:	a809                	j	11b78 <_vfprintf_r+0x16de>
   11b68:	4601                	li	a2,0
   11b6a:	4681                	li	a3,0
   11b6c:	61a090ef          	jal	ra,1b186 <__eqtf2>
   11b70:	7ea2                	ld	t4,40(sp)
   11b72:	6306                	ld	t1,64(sp)
   11b74:	34050763          	beqz	a0,11ec2 <_vfprintf_r+0x1a28>
   11b78:	76aa                	ld	a3,168(sp)
   11b7a:	65c2                	ld	a1,16(sp)
   11b7c:	4601                	li	a2,0
   11b7e:	855e                	mv	a0,s7
   11b80:	e09a                	sd	t1,64(sp)
   11b82:	f476                	sd	t4,40(sp)
   11b84:	01d090ef          	jal	ra,1b3a0 <__multf3>
   11b88:	8bae                	mv	s7,a1
   11b8a:	89aa                	mv	s3,a0
   11b8c:	76e0a0ef          	jal	ra,1c2fa <__fixtfsi>
   11b90:	0005049b          	sext.w	s1,a0
   11b94:	8526                	mv	a0,s1
   11b96:	7f40a0ef          	jal	ra,1c38a <__floatsitf>
   11b9a:	862a                	mv	a2,a0
   11b9c:	86ae                	mv	a3,a1
   11b9e:	854e                	mv	a0,s3
   11ba0:	85de                	mv	a1,s7
   11ba2:	621090ef          	jal	ra,1b9c2 <__subtf3>
   11ba6:	67a6                	ld	a5,72(sp)
   11ba8:	f4e6                	sd	s9,104(sp)
   11baa:	0c85                	addi	s9,s9,1
   11bac:	00978733          	add	a4,a5,s1
   11bb0:	00074703          	lbu	a4,0(a4)
   11bb4:	7786                	ld	a5,96(sp)
   11bb6:	ecaa                	sd	a0,88(sp)
   11bb8:	feec8fa3          	sb	a4,-1(s9)
   11bbc:	e82e                	sd	a1,16(sp)
   11bbe:	7ea2                	ld	t4,40(sp)
   11bc0:	6306                	ld	t1,64(sp)
   11bc2:	8baa                	mv	s7,a0
   11bc4:	89ae                	mv	s3,a1
   11bc6:	fb9791e3          	bne	a5,s9,11b68 <_vfprintf_r+0x16ce>
   11bca:	5bfd                	li	s7,-1
   11bcc:	6775                	lui	a4,0x1d
   11bce:	a3873783          	ld	a5,-1480(a4) # 1ca38 <blanks.1+0x38>
   11bd2:	6566                	ld	a0,88(sp)
   11bd4:	4601                	li	a2,0
   11bd6:	86be                	mv	a3,a5
   11bd8:	85ce                	mv	a1,s3
   11bda:	e09a                	sd	t1,64(sp)
   11bdc:	f476                	sd	t4,40(sp)
   11bde:	e83e                	sd	a5,16(sp)
   11be0:	640090ef          	jal	ra,1b220 <__getf2>
   11be4:	7ea2                	ld	t4,40(sp)
   11be6:	6306                	ld	t1,64(sp)
   11be8:	24a04d63          	bgtz	a0,11e42 <_vfprintf_r+0x19a8>
   11bec:	66c2                	ld	a3,16(sp)
   11bee:	6566                	ld	a0,88(sp)
   11bf0:	4601                	li	a2,0
   11bf2:	85ce                	mv	a1,s3
   11bf4:	592090ef          	jal	ra,1b186 <__eqtf2>
   11bf8:	7ea2                	ld	t4,40(sp)
   11bfa:	6306                	ld	t1,64(sp)
   11bfc:	e501                	bnez	a0,11c04 <_vfprintf_r+0x176a>
   11bfe:	8885                	andi	s1,s1,1
   11c00:	24049163          	bnez	s1,11e42 <_vfprintf_r+0x19a8>
   11c04:	001b871b          	addiw	a4,s7,1
   11c08:	9766                	add	a4,a4,s9
   11c0a:	03000693          	li	a3,48
   11c0e:	260bca63          	bltz	s7,11e82 <_vfprintf_r+0x19e8>
   11c12:	0c85                	addi	s9,s9,1
   11c14:	fedc8fa3          	sb	a3,-1(s9)
   11c18:	ff971de3          	bne	a4,s9,11c12 <_vfprintf_r+0x1778>
   11c1c:	41b707bb          	subw	a5,a4,s11
   11c20:	f43e                	sd	a5,40(sp)
   11c22:	fdfd7c93          	andi	s9,s10,-33
   11c26:	b205                	j	11546 <_vfprintf_r+0x10ac>
   11c28:	772e                	ld	a4,232(sp)
   11c2a:	47ee                	lw	a5,216(sp)
   11c2c:	41b7073b          	subw	a4,a4,s11
   11c30:	f43a                	sd	a4,40(sp)
   11c32:	5775                	li	a4,-3
   11c34:	f0be                	sd	a5,96(sp)
   11c36:	00e7c463          	blt	a5,a4,11c3e <_vfprintf_r+0x17a4>
   11c3a:	02fed263          	bge	t4,a5,11c5e <_vfprintf_r+0x17c4>
   11c3e:	fff78e9b          	addiw	t4,a5,-1
   11c42:	3d79                	addiw	s10,s10,-2
   11c44:	cdf6                	sw	t4,216(sp)
   11c46:	0ffd7713          	zext.b	a4,s10
   11c4a:	4681                	li	a3,0
   11c4c:	b22d                	j	11576 <_vfprintf_r+0x10dc>
   11c4e:	0cf14783          	lbu	a5,207(sp)
   11c52:	4e81                	li	t4,0
   11c54:	c399                	beqz	a5,11c5a <_vfprintf_r+0x17c0>
   11c56:	bc5fe06f          	j	1081a <_vfprintf_r+0x380>
   11c5a:	9edfe06f          	j	10646 <_vfprintf_r+0x1ac>
   11c5e:	7722                	ld	a4,40(sp)
   11c60:	10e7c363          	blt	a5,a4,11d66 <_vfprintf_r+0x18cc>
   11c64:	6746                	ld	a4,80(sp)
   11c66:	8bbe                	mv	s7,a5
   11c68:	8b05                	andi	a4,a4,1
   11c6a:	c701                	beqz	a4,11c72 <_vfprintf_r+0x17d8>
   11c6c:	7766                	ld	a4,120(sp)
   11c6e:	00f70bbb          	addw	s7,a4,a5
   11c72:	6746                	ld	a4,80(sp)
   11c74:	40077713          	andi	a4,a4,1024
   11c78:	c319                	beqz	a4,11c7e <_vfprintf_r+0x17e4>
   11c7a:	2af04e63          	bgtz	a5,11f36 <_vfprintf_r+0x1a9c>
   11c7e:	fffbc993          	not	s3,s7
   11c82:	43f9d993          	srai	s3,s3,0x3f
   11c86:	748a                	ld	s1,160(sp)
   11c88:	013bf9b3          	and	s3,s7,s3
   11c8c:	2981                	sext.w	s3,s3
   11c8e:	06700d13          	li	s10,103
   11c92:	ec82                	sd	zero,88(sp)
   11c94:	f482                	sd	zero,104(sp)
   11c96:	ba49                	j	11628 <_vfprintf_r+0x118e>
   11c98:	0210                	addi	a2,sp,256
   11c9a:	85ca                	mv	a1,s2
   11c9c:	8552                	mv	a0,s4
   11c9e:	4a3060ef          	jal	ra,18940 <__sprint_r>
   11ca2:	a2051863          	bnez	a0,10ed2 <_vfprintf_r+0xa38>
   11ca6:	77c6                	ld	a5,112(sp)
   11ca8:	6cd2                	ld	s9,272(sp)
   11caa:	835a                	mv	t1,s6
   11cac:	0007c603          	lbu	a2,0(a5)
   11cb0:	4e1d                	li	t3,7
   11cb2:	9db2                	add	s11,s11,a2
   11cb4:	b185                	j	11914 <_vfprintf_r+0x147a>
   11cb6:	0210                	addi	a2,sp,256
   11cb8:	85ca                	mv	a1,s2
   11cba:	8552                	mv	a0,s4
   11cbc:	485060ef          	jal	ra,18940 <__sprint_r>
   11cc0:	a0051963          	bnez	a0,10ed2 <_vfprintf_r+0xa38>
   11cc4:	47ee                	lw	a5,216(sp)
   11cc6:	6752                	ld	a4,272(sp)
   11cc8:	835a                	mv	t1,s6
   11cca:	c0eff06f          	j	110d8 <_vfprintf_r+0xc3e>
   11cce:	02d00793          	li	a5,45
   11cd2:	0cf107a3          	sb	a5,207(sp)
   11cd6:	b4a5                	j	1173e <_vfprintf_r+0x12a4>
   11cd8:	00054683          	lbu	a3,0(a0)
   11cdc:	03000793          	li	a5,48
   11ce0:	00f68663          	beq	a3,a5,11cec <_vfprintf_r+0x1852>
   11ce4:	476e                	lw	a4,216(sp)
   11ce6:	94ba                	add	s1,s1,a4
   11ce8:	827ff06f          	j	1150e <_vfprintf_r+0x1074>
   11cec:	4601                	li	a2,0
   11cee:	4681                	li	a3,0
   11cf0:	854e                	mv	a0,s3
   11cf2:	85de                	mv	a1,s7
   11cf4:	f41a                	sd	t1,40(sp)
   11cf6:	e876                	sd	t4,16(sp)
   11cf8:	e0ba                	sd	a4,64(sp)
   11cfa:	48c090ef          	jal	ra,1b186 <__eqtf2>
   11cfe:	6ec2                	ld	t4,16(sp)
   11d00:	7322                	ld	t1,40(sp)
   11d02:	d16d                	beqz	a0,11ce4 <_vfprintf_r+0x184a>
   11d04:	6706                	ld	a4,64(sp)
   11d06:	4785                	li	a5,1
   11d08:	40e7873b          	subw	a4,a5,a4
   11d0c:	cdba                	sw	a4,216(sp)
   11d0e:	94ba                	add	s1,s1,a4
   11d10:	ffeff06f          	j	1150e <_vfprintf_r+0x1074>
   11d14:	0cf14783          	lbu	a5,207(sp)
   11d18:	ec66                	sd	s9,24(sp)
   11d1a:	ec82                	sd	zero,88(sp)
   11d1c:	f482                	sd	zero,104(sp)
   11d1e:	f082                	sd	zero,96(sp)
   11d20:	89f6                	mv	s3,t4
   11d22:	8bf6                	mv	s7,t4
   11d24:	4e81                	li	t4,0
   11d26:	c399                	beqz	a5,11d2c <_vfprintf_r+0x1892>
   11d28:	af3fe06f          	j	1081a <_vfprintf_r+0x380>
   11d2c:	91bfe06f          	j	10646 <_vfprintf_r+0x1ac>
   11d30:	66f5                	lui	a3,0x1d
   11d32:	a0068693          	addi	a3,a3,-1536 # 1ca00 <blanks.1>
   11d36:	a30ff06f          	j	10f66 <_vfprintf_r+0xacc>
   11d3a:	6871                	lui	a6,0x1c
   11d3c:	7a080d93          	addi	s11,a6,1952 # 1c7a0 <__clzdi2+0x82>
   11d40:	b431                	j	1174c <_vfprintf_r+0x12b2>
   11d42:	0210                	addi	a2,sp,256
   11d44:	85ca                	mv	a1,s2
   11d46:	8552                	mv	a0,s4
   11d48:	3f9060ef          	jal	ra,18940 <__sprint_r>
   11d4c:	98051363          	bnez	a0,10ed2 <_vfprintf_r+0xa38>
   11d50:	47ee                	lw	a5,216(sp)
   11d52:	76a2                	ld	a3,40(sp)
   11d54:	6752                	ld	a4,272(sp)
   11d56:	835a                	mv	t1,s6
   11d58:	40f687bb          	subw	a5,a3,a5
   11d5c:	bbaff06f          	j	11116 <_vfprintf_r+0xc7c>
   11d60:	8ca6                	mv	s9,s1
   11d62:	98eff06f          	j	10ef0 <_vfprintf_r+0xa56>
   11d66:	7722                	ld	a4,40(sp)
   11d68:	77e6                	ld	a5,120(sp)
   11d6a:	06700d13          	li	s10,103
   11d6e:	00e78bbb          	addw	s7,a5,a4
   11d72:	7706                	ld	a4,96(sp)
   11d74:	22e05c63          	blez	a4,11fac <_vfprintf_r+0x1b12>
   11d78:	67c6                	ld	a5,80(sp)
   11d7a:	4007f793          	andi	a5,a5,1024
   11d7e:	1a079e63          	bnez	a5,11f3a <_vfprintf_r+0x1aa0>
   11d82:	fffbc993          	not	s3,s7
   11d86:	43f9d993          	srai	s3,s3,0x3f
   11d8a:	013bf9b3          	and	s3,s7,s3
   11d8e:	748a                	ld	s1,160(sp)
   11d90:	2981                	sext.w	s3,s3
   11d92:	b701                	j	11c92 <_vfprintf_r+0x17f8>
   11d94:	67c6                	ld	a5,80(sp)
   11d96:	7706                	ld	a4,96(sp)
   11d98:	8b85                	andi	a5,a5,1
   11d9a:	00fee7b3          	or	a5,t4,a5
   11d9e:	24e05063          	blez	a4,11fde <_vfprintf_r+0x1b44>
   11da2:	22079263          	bnez	a5,11fc6 <_vfprintf_r+0x1b2c>
   11da6:	7b86                	ld	s7,96(sp)
   11da8:	06600d13          	li	s10,102
   11dac:	b7f1                	j	11d78 <_vfprintf_r+0x18de>
   11dae:	66f5                	lui	a3,0x1d
   11db0:	a0068693          	addi	a3,a3,-1536 # 1ca00 <blanks.1>
   11db4:	a5eff06f          	j	11012 <_vfprintf_r+0xb78>
   11db8:	6cf5                	lui	s9,0x1d
   11dba:	57c1                	li	a5,-16
   11dbc:	40c00bbb          	negw	s7,a2
   11dc0:	9f0c8c93          	addi	s9,s9,-1552 # 1c9f0 <zeroes.0>
   11dc4:	46c1                	li	a3,16
   11dc6:	4d1d                	li	s10,7
   11dc8:	00f64663          	blt	a2,a5,11dd4 <_vfprintf_r+0x193a>
   11dcc:	a091                	j	11e10 <_vfprintf_r+0x1976>
   11dce:	3bc1                	addiw	s7,s7,-16
   11dd0:	0576d063          	bge	a3,s7,11e10 <_vfprintf_r+0x1976>
   11dd4:	2585                	addiw	a1,a1,1
   11dd6:	0741                	addi	a4,a4,16
   11dd8:	01933023          	sd	s9,0(t1)
   11ddc:	00d33423          	sd	a3,8(t1)
   11de0:	ea3a                	sd	a4,272(sp)
   11de2:	10b12423          	sw	a1,264(sp)
   11de6:	0341                	addi	t1,t1,16
   11de8:	febd53e3          	bge	s10,a1,11dce <_vfprintf_r+0x1934>
   11dec:	0210                	addi	a2,sp,256
   11dee:	85ca                	mv	a1,s2
   11df0:	8552                	mv	a0,s4
   11df2:	34f060ef          	jal	ra,18940 <__sprint_r>
   11df6:	c119                	beqz	a0,11dfc <_vfprintf_r+0x1962>
   11df8:	8daff06f          	j	10ed2 <_vfprintf_r+0xa38>
   11dfc:	6752                	ld	a4,272(sp)
   11dfe:	10812583          	lw	a1,264(sp)
   11e02:	835a                	mv	t1,s6
   11e04:	46c1                	li	a3,16
   11e06:	b7e1                	j	11dce <_vfprintf_r+0x1934>
   11e08:	57fd                	li	a5,-1
   11e0a:	e43e                	sd	a5,8(sp)
   11e0c:	93bfe06f          	j	10746 <_vfprintf_r+0x2ac>
   11e10:	2585                	addiw	a1,a1,1
   11e12:	975e                	add	a4,a4,s7
   11e14:	01933023          	sd	s9,0(t1)
   11e18:	01733423          	sd	s7,8(t1)
   11e1c:	ea3a                	sd	a4,272(sp)
   11e1e:	10b12423          	sw	a1,264(sp)
   11e22:	479d                	li	a5,7
   11e24:	8ab7dee3          	bge	a5,a1,116e0 <_vfprintf_r+0x1246>
   11e28:	0210                	addi	a2,sp,256
   11e2a:	85ca                	mv	a1,s2
   11e2c:	8552                	mv	a0,s4
   11e2e:	313060ef          	jal	ra,18940 <__sprint_r>
   11e32:	c119                	beqz	a0,11e38 <_vfprintf_r+0x199e>
   11e34:	89eff06f          	j	10ed2 <_vfprintf_r+0xa38>
   11e38:	6752                	ld	a4,272(sp)
   11e3a:	10812583          	lw	a1,264(sp)
   11e3e:	835a                	mv	t1,s6
   11e40:	ba49                	j	117d2 <_vfprintf_r+0x1338>
   11e42:	77a6                	ld	a5,104(sp)
   11e44:	8766                	mv	a4,s9
   11e46:	f5be                	sd	a5,232(sp)
   11e48:	67a6                	ld	a5,72(sp)
   11e4a:	fffcc683          	lbu	a3,-1(s9)
   11e4e:	00f7c603          	lbu	a2,15(a5)
   11e52:	00d61e63          	bne	a2,a3,11e6e <_vfprintf_r+0x19d4>
   11e56:	03000593          	li	a1,48
   11e5a:	feb70fa3          	sb	a1,-1(a4)
   11e5e:	772e                	ld	a4,232(sp)
   11e60:	fff70693          	addi	a3,a4,-1
   11e64:	f5b6                	sd	a3,232(sp)
   11e66:	fff74683          	lbu	a3,-1(a4)
   11e6a:	fed608e3          	beq	a2,a3,11e5a <_vfprintf_r+0x19c0>
   11e6e:	0016861b          	addiw	a2,a3,1
   11e72:	03900593          	li	a1,57
   11e76:	0ff67613          	zext.b	a2,a2
   11e7a:	00b68663          	beq	a3,a1,11e86 <_vfprintf_r+0x19ec>
   11e7e:	fec70fa3          	sb	a2,-1(a4)
   11e82:	8766                	mv	a4,s9
   11e84:	bb61                	j	11c1c <_vfprintf_r+0x1782>
   11e86:	67a6                	ld	a5,72(sp)
   11e88:	00a7c603          	lbu	a2,10(a5)
   11e8c:	fec70fa3          	sb	a2,-1(a4)
   11e90:	bfcd                	j	11e82 <_vfprintf_r+0x19e8>
   11e92:	0e210793          	addi	a5,sp,226
   11e96:	e699                	bnez	a3,11ea4 <_vfprintf_r+0x1a0a>
   11e98:	03000793          	li	a5,48
   11e9c:	0ef10123          	sb	a5,226(sp)
   11ea0:	0e310793          	addi	a5,sp,227
   11ea4:	0418                	addi	a4,sp,512
   11ea6:	030e8e9b          	addiw	t4,t4,48
   11eaa:	40e78733          	sub	a4,a5,a4
   11eae:	01d78023          	sb	t4,0(a5)
   11eb2:	1217079b          	addiw	a5,a4,289
   11eb6:	e93e                	sd	a5,144(sp)
   11eb8:	f3aff06f          	j	115f2 <_vfprintf_r+0x1158>
   11ebc:	c31c                	sw	a5,0(a4)
   11ebe:	dc3fe06f          	j	10c80 <_vfprintf_r+0x7e6>
   11ec2:	77ea                	ld	a5,184(sp)
   11ec4:	00fd8bbb          	addw	s7,s11,a5
   11ec8:	419b8bbb          	subw	s7,s7,s9
   11ecc:	b301                	j	11bcc <_vfprintf_r+0x1732>
   11ece:	000e8463          	beqz	t4,11ed6 <_vfprintf_r+0x1a3c>
   11ed2:	a31fe06f          	j	10902 <_vfprintf_r+0x468>
   11ed6:	4e85                	li	t4,1
   11ed8:	a2bfe06f          	j	10902 <_vfprintf_r+0x468>
   11edc:	4e99                	li	t4,6
   11ede:	a25fe06f          	j	10902 <_vfprintf_r+0x468>
   11ee2:	ec3a                	sd	a4,24(sp)
   11ee4:	80cff06f          	j	10ef0 <_vfprintf_r+0xa56>
   11ee8:	6746                	ld	a4,80(sp)
   11eea:	8b05                	andi	a4,a4,1
   11eec:	f0070e63          	beqz	a4,11608 <_vfprintf_r+0x116e>
   11ef0:	f12ff06f          	j	11602 <_vfprintf_r+0x1168>
   11ef4:	85de                	mv	a1,s7
   11ef6:	854e                	mv	a0,s3
   11ef8:	e09a                	sd	t1,64(sp)
   11efa:	f476                	sd	t4,40(sp)
   11efc:	5a80a0ef          	jal	ra,1c4a4 <__trunctfdf2>
   11f00:	09a8                	addi	a0,sp,216
   11f02:	38f040ef          	jal	ra,16a90 <frexp>
   11f06:	4da0a0ef          	jal	ra,1c3e0 <__extenddftf2>
   11f0a:	67f5                	lui	a5,0x1d
   11f0c:	a187b683          	ld	a3,-1512(a5) # 1ca18 <blanks.1+0x18>
   11f10:	4601                	li	a2,0
   11f12:	48e090ef          	jal	ra,1b3a0 <__multf3>
   11f16:	4601                	li	a2,0
   11f18:	4681                	li	a3,0
   11f1a:	8baa                	mv	s7,a0
   11f1c:	e82e                	sd	a1,16(sp)
   11f1e:	268090ef          	jal	ra,1b186 <__eqtf2>
   11f22:	7ea2                	ld	t4,40(sp)
   11f24:	6306                	ld	t1,64(sp)
   11f26:	e119                	bnez	a0,11f2c <_vfprintf_r+0x1a92>
   11f28:	4785                	li	a5,1
   11f2a:	cdbe                	sw	a5,216(sp)
   11f2c:	67f1                	lui	a5,0x1c
   11f2e:	7c878793          	addi	a5,a5,1992 # 1c7c8 <__clzdi2+0xaa>
   11f32:	e4be                	sd	a5,72(sp)
   11f34:	b919                	j	11b4a <_vfprintf_r+0x16b0>
   11f36:	06700d13          	li	s10,103
   11f3a:	77c6                	ld	a5,112(sp)
   11f3c:	0ff00713          	li	a4,255
   11f40:	ec82                	sd	zero,88(sp)
   11f42:	0007c783          	lbu	a5,0(a5)
   11f46:	f482                	sd	zero,104(sp)
   11f48:	02e78863          	beq	a5,a4,11f78 <_vfprintf_r+0x1ade>
   11f4c:	0ff00693          	li	a3,255
   11f50:	7606                	ld	a2,96(sp)
   11f52:	0007871b          	sext.w	a4,a5
   11f56:	02c7d163          	bge	a5,a2,11f78 <_vfprintf_r+0x1ade>
   11f5a:	75c6                	ld	a1,112(sp)
   11f5c:	40e6073b          	subw	a4,a2,a4
   11f60:	f0ba                	sd	a4,96(sp)
   11f62:	0015c783          	lbu	a5,1(a1)
   11f66:	cf85                	beqz	a5,11f9e <_vfprintf_r+0x1b04>
   11f68:	7726                	ld	a4,104(sp)
   11f6a:	2705                	addiw	a4,a4,1
   11f6c:	f4ba                	sd	a4,104(sp)
   11f6e:	00158713          	addi	a4,a1,1
   11f72:	f8ba                	sd	a4,112(sp)
   11f74:	fcd79ee3          	bne	a5,a3,11f50 <_vfprintf_r+0x1ab6>
   11f78:	7726                	ld	a4,104(sp)
   11f7a:	67e6                	ld	a5,88(sp)
   11f7c:	748a                	ld	s1,160(sp)
   11f7e:	9fb9                	addw	a5,a5,a4
   11f80:	672a                	ld	a4,136(sp)
   11f82:	02e787bb          	mulw	a5,a5,a4
   11f86:	017787bb          	addw	a5,a5,s7
   11f8a:	00078b9b          	sext.w	s7,a5
   11f8e:	fffbc713          	not	a4,s7
   11f92:	977d                	srai	a4,a4,0x3f
   11f94:	8ff9                	and	a5,a5,a4
   11f96:	0007899b          	sext.w	s3,a5
   11f9a:	e8eff06f          	j	11628 <_vfprintf_r+0x118e>
   11f9e:	6766                	ld	a4,88(sp)
   11fa0:	77c6                	ld	a5,112(sp)
   11fa2:	2705                	addiw	a4,a4,1
   11fa4:	0007c783          	lbu	a5,0(a5)
   11fa8:	ecba                	sd	a4,88(sp)
   11faa:	b7e9                	j	11f74 <_vfprintf_r+0x1ada>
   11fac:	40eb87bb          	subw	a5,s7,a4
   11fb0:	2785                	addiw	a5,a5,1
   11fb2:	00078b9b          	sext.w	s7,a5
   11fb6:	fffbc713          	not	a4,s7
   11fba:	977d                	srai	a4,a4,0x3f
   11fbc:	8ff9                	and	a5,a5,a4
   11fbe:	748a                	ld	s1,160(sp)
   11fc0:	0007899b          	sext.w	s3,a5
   11fc4:	b1f9                	j	11c92 <_vfprintf_r+0x17f8>
   11fc6:	77e6                	ld	a5,120(sp)
   11fc8:	06600d13          	li	s10,102
   11fcc:	00e78bbb          	addw	s7,a5,a4
   11fd0:	01db8bbb          	addw	s7,s7,t4
   11fd4:	b355                	j	11d78 <_vfprintf_r+0x18de>
   11fd6:	07000713          	li	a4,112
   11fda:	d9aff06f          	j	11574 <_vfprintf_r+0x10da>
   11fde:	e799                	bnez	a5,11fec <_vfprintf_r+0x1b52>
   11fe0:	748a                	ld	s1,160(sp)
   11fe2:	4985                	li	s3,1
   11fe4:	06600d13          	li	s10,102
   11fe8:	4b85                	li	s7,1
   11fea:	b165                	j	11c92 <_vfprintf_r+0x17f8>
   11fec:	77e6                	ld	a5,120(sp)
   11fee:	748a                	ld	s1,160(sp)
   11ff0:	06600d13          	li	s10,102
   11ff4:	2785                	addiw	a5,a5,1
   11ff6:	01d787bb          	addw	a5,a5,t4
   11ffa:	00078b9b          	sext.w	s7,a5
   11ffe:	fffbc713          	not	a4,s7
   12002:	977d                	srai	a4,a4,0x3f
   12004:	8ff9                	and	a5,a5,a4
   12006:	0007899b          	sext.w	s3,a5
   1200a:	b161                	j	11c92 <_vfprintf_r+0x17f8>
   1200c:	4789                	li	a5,2
   1200e:	e93e                	sd	a5,144(sp)
   12010:	de2ff06f          	j	115f2 <_vfprintf_r+0x1158>
   12014:	66e2                	ld	a3,24(sp)
   12016:	4298                	lw	a4,0(a3)
   12018:	00868d13          	addi	s10,a3,8
   1201c:	86ba                	mv	a3,a4
   1201e:	00075363          	bgez	a4,12024 <_vfprintf_r+0x1b8a>
   12022:	56fd                	li	a3,-1
   12024:	00144e03          	lbu	t3,1(s0)
   12028:	00068e9b          	sext.w	t4,a3
   1202c:	ec6a                	sd	s10,24(sp)
   1202e:	843e                	mv	s0,a5
   12030:	da0fe06f          	j	105d0 <_vfprintf_r+0x136>
   12034:	01095783          	lhu	a5,16(s2)
   12038:	0407e793          	ori	a5,a5,64
   1203c:	00f91823          	sh	a5,16(s2)
   12040:	ef8fe06f          	j	10738 <_vfprintf_r+0x29e>

0000000000012044 <vfprintf>:
   12044:	87aa                	mv	a5,a0
   12046:	7581b503          	ld	a0,1880(gp) # 1f7b8 <_impure_ptr>
   1204a:	86b2                	mv	a3,a2
   1204c:	862e                	mv	a2,a1
   1204e:	85be                	mv	a1,a5
   12050:	c4afe06f          	j	1049a <_vfprintf_r>

0000000000012054 <__sbprintf>:
   12054:	01059783          	lh	a5,16(a1)
   12058:	0125d703          	lhu	a4,18(a1)
   1205c:	0ac5a303          	lw	t1,172(a1)
   12060:	9bf5                	andi	a5,a5,-3
   12062:	0107979b          	slliw	a5,a5,0x10
   12066:	0305b883          	ld	a7,48(a1)
   1206a:	0405b803          	ld	a6,64(a1)
   1206e:	0107171b          	slliw	a4,a4,0x10
   12072:	0107d79b          	srliw	a5,a5,0x10
   12076:	b3010113          	addi	sp,sp,-1232
   1207a:	8fd9                	or	a5,a5,a4
   1207c:	4c813023          	sd	s0,1216(sp)
   12080:	40000713          	li	a4,1024
   12084:	c83e                	sw	a5,16(sp)
   12086:	842e                	mv	s0,a1
   12088:	191c                	addi	a5,sp,176
   1208a:	858a                	mv	a1,sp
   1208c:	4a913c23          	sd	s1,1208(sp)
   12090:	4b213823          	sd	s2,1200(sp)
   12094:	4c113423          	sd	ra,1224(sp)
   12098:	892a                	mv	s2,a0
   1209a:	d71a                	sw	t1,172(sp)
   1209c:	f846                	sd	a7,48(sp)
   1209e:	e0c2                	sd	a6,64(sp)
   120a0:	e03e                	sd	a5,0(sp)
   120a2:	ec3e                	sd	a5,24(sp)
   120a4:	c63a                	sw	a4,12(sp)
   120a6:	d03a                	sw	a4,32(sp)
   120a8:	d402                	sw	zero,40(sp)
   120aa:	bf0fe0ef          	jal	ra,1049a <_vfprintf_r>
   120ae:	84aa                	mv	s1,a0
   120b0:	02055963          	bgez	a0,120e2 <__sbprintf+0x8e>
   120b4:	01015783          	lhu	a5,16(sp)
   120b8:	0407f793          	andi	a5,a5,64
   120bc:	c799                	beqz	a5,120ca <__sbprintf+0x76>
   120be:	01045783          	lhu	a5,16(s0)
   120c2:	0407e793          	ori	a5,a5,64
   120c6:	00f41823          	sh	a5,16(s0)
   120ca:	4c813083          	ld	ra,1224(sp)
   120ce:	4c013403          	ld	s0,1216(sp)
   120d2:	4b013903          	ld	s2,1200(sp)
   120d6:	8526                	mv	a0,s1
   120d8:	4b813483          	ld	s1,1208(sp)
   120dc:	4d010113          	addi	sp,sp,1232
   120e0:	8082                	ret
   120e2:	858a                	mv	a1,sp
   120e4:	854a                	mv	a0,s2
   120e6:	336000ef          	jal	ra,1241c <_fflush_r>
   120ea:	d569                	beqz	a0,120b4 <__sbprintf+0x60>
   120ec:	54fd                	li	s1,-1
   120ee:	b7d9                	j	120b4 <__sbprintf+0x60>

00000000000120f0 <__swsetup_r>:
   120f0:	7581b783          	ld	a5,1880(gp) # 1f7b8 <_impure_ptr>
   120f4:	1101                	addi	sp,sp,-32
   120f6:	e822                	sd	s0,16(sp)
   120f8:	e426                	sd	s1,8(sp)
   120fa:	ec06                	sd	ra,24(sp)
   120fc:	84aa                	mv	s1,a0
   120fe:	842e                	mv	s0,a1
   12100:	c399                	beqz	a5,12106 <__swsetup_r+0x16>
   12102:	4bb8                	lw	a4,80(a5)
   12104:	cb29                	beqz	a4,12156 <__swsetup_r+0x66>
   12106:	01041783          	lh	a5,16(s0)
   1210a:	0087f713          	andi	a4,a5,8
   1210e:	cf21                	beqz	a4,12166 <__swsetup_r+0x76>
   12110:	6c18                	ld	a4,24(s0)
   12112:	c735                	beqz	a4,1217e <__swsetup_r+0x8e>
   12114:	0017f693          	andi	a3,a5,1
   12118:	ce91                	beqz	a3,12134 <__swsetup_r+0x44>
   1211a:	5014                	lw	a3,32(s0)
   1211c:	00042623          	sw	zero,12(s0)
   12120:	4501                	li	a0,0
   12122:	40d006bb          	negw	a3,a3
   12126:	d414                	sw	a3,40(s0)
   12128:	cf11                	beqz	a4,12144 <__swsetup_r+0x54>
   1212a:	60e2                	ld	ra,24(sp)
   1212c:	6442                	ld	s0,16(sp)
   1212e:	64a2                	ld	s1,8(sp)
   12130:	6105                	addi	sp,sp,32
   12132:	8082                	ret
   12134:	0027f693          	andi	a3,a5,2
   12138:	4601                	li	a2,0
   1213a:	e291                	bnez	a3,1213e <__swsetup_r+0x4e>
   1213c:	5010                	lw	a2,32(s0)
   1213e:	c450                	sw	a2,12(s0)
   12140:	4501                	li	a0,0
   12142:	f765                	bnez	a4,1212a <__swsetup_r+0x3a>
   12144:	0807f713          	andi	a4,a5,128
   12148:	d36d                	beqz	a4,1212a <__swsetup_r+0x3a>
   1214a:	0407e793          	ori	a5,a5,64
   1214e:	00f41823          	sh	a5,16(s0)
   12152:	557d                	li	a0,-1
   12154:	bfd9                	j	1212a <__swsetup_r+0x3a>
   12156:	853e                	mv	a0,a5
   12158:	59a000ef          	jal	ra,126f2 <__sinit>
   1215c:	01041783          	lh	a5,16(s0)
   12160:	0087f713          	andi	a4,a5,8
   12164:	f755                	bnez	a4,12110 <__swsetup_r+0x20>
   12166:	0107f713          	andi	a4,a5,16
   1216a:	cf21                	beqz	a4,121c2 <__swsetup_r+0xd2>
   1216c:	0047f713          	andi	a4,a5,4
   12170:	e70d                	bnez	a4,1219a <__swsetup_r+0xaa>
   12172:	6c18                	ld	a4,24(s0)
   12174:	0087e793          	ori	a5,a5,8
   12178:	00f41823          	sh	a5,16(s0)
   1217c:	ff41                	bnez	a4,12114 <__swsetup_r+0x24>
   1217e:	2807f693          	andi	a3,a5,640
   12182:	20000613          	li	a2,512
   12186:	f8c687e3          	beq	a3,a2,12114 <__swsetup_r+0x24>
   1218a:	85a2                	mv	a1,s0
   1218c:	8526                	mv	a0,s1
   1218e:	631020ef          	jal	ra,14fbe <__smakebuf_r>
   12192:	01041783          	lh	a5,16(s0)
   12196:	6c18                	ld	a4,24(s0)
   12198:	bfb5                	j	12114 <__swsetup_r+0x24>
   1219a:	6c2c                	ld	a1,88(s0)
   1219c:	cd81                	beqz	a1,121b4 <__swsetup_r+0xc4>
   1219e:	07440713          	addi	a4,s0,116
   121a2:	00e58763          	beq	a1,a4,121b0 <__swsetup_r+0xc0>
   121a6:	8526                	mv	a0,s1
   121a8:	67a000ef          	jal	ra,12822 <_free_r>
   121ac:	01041783          	lh	a5,16(s0)
   121b0:	04043c23          	sd	zero,88(s0)
   121b4:	6c18                	ld	a4,24(s0)
   121b6:	fdb7f793          	andi	a5,a5,-37
   121ba:	00042423          	sw	zero,8(s0)
   121be:	e018                	sd	a4,0(s0)
   121c0:	bf55                	j	12174 <__swsetup_r+0x84>
   121c2:	4725                	li	a4,9
   121c4:	c098                	sw	a4,0(s1)
   121c6:	0407e793          	ori	a5,a5,64
   121ca:	b751                	j	1214e <__swsetup_r+0x5e>

00000000000121cc <__call_exitprocs>:
   121cc:	715d                	addi	sp,sp,-80
   121ce:	f052                	sd	s4,32(sp)
   121d0:	7481ba03          	ld	s4,1864(gp) # 1f7a8 <_global_impure_ptr>
   121d4:	f84a                	sd	s2,48(sp)
   121d6:	e486                	sd	ra,72(sp)
   121d8:	1f8a3903          	ld	s2,504(s4)
   121dc:	e0a2                	sd	s0,64(sp)
   121de:	fc26                	sd	s1,56(sp)
   121e0:	f44e                	sd	s3,40(sp)
   121e2:	ec56                	sd	s5,24(sp)
   121e4:	e85a                	sd	s6,16(sp)
   121e6:	e45e                	sd	s7,8(sp)
   121e8:	e062                	sd	s8,0(sp)
   121ea:	02090863          	beqz	s2,1221a <__call_exitprocs+0x4e>
   121ee:	8b2a                	mv	s6,a0
   121f0:	8bae                	mv	s7,a1
   121f2:	4a85                	li	s5,1
   121f4:	59fd                	li	s3,-1
   121f6:	00892483          	lw	s1,8(s2)
   121fa:	fff4841b          	addiw	s0,s1,-1
   121fe:	00044e63          	bltz	s0,1221a <__call_exitprocs+0x4e>
   12202:	048e                	slli	s1,s1,0x3
   12204:	94ca                	add	s1,s1,s2
   12206:	020b8663          	beqz	s7,12232 <__call_exitprocs+0x66>
   1220a:	2084b783          	ld	a5,520(s1)
   1220e:	03778263          	beq	a5,s7,12232 <__call_exitprocs+0x66>
   12212:	347d                	addiw	s0,s0,-1
   12214:	14e1                	addi	s1,s1,-8
   12216:	ff3418e3          	bne	s0,s3,12206 <__call_exitprocs+0x3a>
   1221a:	60a6                	ld	ra,72(sp)
   1221c:	6406                	ld	s0,64(sp)
   1221e:	74e2                	ld	s1,56(sp)
   12220:	7942                	ld	s2,48(sp)
   12222:	79a2                	ld	s3,40(sp)
   12224:	7a02                	ld	s4,32(sp)
   12226:	6ae2                	ld	s5,24(sp)
   12228:	6b42                	ld	s6,16(sp)
   1222a:	6ba2                	ld	s7,8(sp)
   1222c:	6c02                	ld	s8,0(sp)
   1222e:	6161                	addi	sp,sp,80
   12230:	8082                	ret
   12232:	00892783          	lw	a5,8(s2)
   12236:	6498                	ld	a4,8(s1)
   12238:	37fd                	addiw	a5,a5,-1
   1223a:	04878463          	beq	a5,s0,12282 <__call_exitprocs+0xb6>
   1223e:	0004b423          	sd	zero,8(s1)
   12242:	db61                	beqz	a4,12212 <__call_exitprocs+0x46>
   12244:	31092783          	lw	a5,784(s2)
   12248:	008a96bb          	sllw	a3,s5,s0
   1224c:	00892c03          	lw	s8,8(s2)
   12250:	8ff5                	and	a5,a5,a3
   12252:	2781                	sext.w	a5,a5
   12254:	ef89                	bnez	a5,1226e <__call_exitprocs+0xa2>
   12256:	9702                	jalr	a4
   12258:	00892703          	lw	a4,8(s2)
   1225c:	1f8a3783          	ld	a5,504(s4)
   12260:	01871463          	bne	a4,s8,12268 <__call_exitprocs+0x9c>
   12264:	fb2787e3          	beq	a5,s2,12212 <__call_exitprocs+0x46>
   12268:	dbcd                	beqz	a5,1221a <__call_exitprocs+0x4e>
   1226a:	893e                	mv	s2,a5
   1226c:	b769                	j	121f6 <__call_exitprocs+0x2a>
   1226e:	31492783          	lw	a5,788(s2)
   12272:	1084b583          	ld	a1,264(s1)
   12276:	8ff5                	and	a5,a5,a3
   12278:	2781                	sext.w	a5,a5
   1227a:	e799                	bnez	a5,12288 <__call_exitprocs+0xbc>
   1227c:	855a                	mv	a0,s6
   1227e:	9702                	jalr	a4
   12280:	bfe1                	j	12258 <__call_exitprocs+0x8c>
   12282:	00892423          	sw	s0,8(s2)
   12286:	bf75                	j	12242 <__call_exitprocs+0x76>
   12288:	852e                	mv	a0,a1
   1228a:	9702                	jalr	a4
   1228c:	b7f1                	j	12258 <__call_exitprocs+0x8c>

000000000001228e <atexit>:
   1228e:	85aa                	mv	a1,a0
   12290:	4681                	li	a3,0
   12292:	4601                	li	a2,0
   12294:	4501                	li	a0,0
   12296:	4140706f          	j	196aa <__register_exitproc>

000000000001229a <__sflush_r>:
   1229a:	01059783          	lh	a5,16(a1)
   1229e:	7179                	addi	sp,sp,-48
   122a0:	f022                	sd	s0,32(sp)
   122a2:	e44e                	sd	s3,8(sp)
   122a4:	f406                	sd	ra,40(sp)
   122a6:	ec26                	sd	s1,24(sp)
   122a8:	e84a                	sd	s2,16(sp)
   122aa:	0087f713          	andi	a4,a5,8
   122ae:	842e                	mv	s0,a1
   122b0:	89aa                	mv	s3,a0
   122b2:	e369                	bnez	a4,12374 <__sflush_r+0xda>
   122b4:	6705                	lui	a4,0x1
   122b6:	80070713          	addi	a4,a4,-2048 # 800 <exit-0xf8e8>
   122ba:	4594                	lw	a3,8(a1)
   122bc:	8f5d                	or	a4,a4,a5
   122be:	00e59823          	sh	a4,16(a1)
   122c2:	10d05463          	blez	a3,123ca <__sflush_r+0x130>
   122c6:	04843803          	ld	a6,72(s0)
   122ca:	08080d63          	beqz	a6,12364 <__sflush_r+0xca>
   122ce:	83b1                	srli	a5,a5,0xc
   122d0:	0009a483          	lw	s1,0(s3)
   122d4:	8b85                	andi	a5,a5,1
   122d6:	0009a023          	sw	zero,0(s3)
   122da:	780c                	ld	a1,48(s0)
   122dc:	efe5                	bnez	a5,123d4 <__sflush_r+0x13a>
   122de:	4601                	li	a2,0
   122e0:	4685                	li	a3,1
   122e2:	854e                	mv	a0,s3
   122e4:	9802                	jalr	a6
   122e6:	57fd                	li	a5,-1
   122e8:	862a                	mv	a2,a0
   122ea:	10f50863          	beq	a0,a5,123fa <__sflush_r+0x160>
   122ee:	01041703          	lh	a4,16(s0)
   122f2:	04843803          	ld	a6,72(s0)
   122f6:	780c                	ld	a1,48(s0)
   122f8:	8b11                	andi	a4,a4,4
   122fa:	c719                	beqz	a4,12308 <__sflush_r+0x6e>
   122fc:	4418                	lw	a4,8(s0)
   122fe:	6c3c                	ld	a5,88(s0)
   12300:	8e19                	sub	a2,a2,a4
   12302:	c399                	beqz	a5,12308 <__sflush_r+0x6e>
   12304:	583c                	lw	a5,112(s0)
   12306:	8e1d                	sub	a2,a2,a5
   12308:	4681                	li	a3,0
   1230a:	854e                	mv	a0,s3
   1230c:	9802                	jalr	a6
   1230e:	57fd                	li	a5,-1
   12310:	0cf51463          	bne	a0,a5,123d8 <__sflush_r+0x13e>
   12314:	0009a683          	lw	a3,0(s3)
   12318:	47f5                	li	a5,29
   1231a:	08d7ea63          	bltu	a5,a3,123ae <__sflush_r+0x114>
   1231e:	dfc00737          	lui	a4,0xdfc00
   12322:	1779                	addi	a4,a4,-2 # ffffffffdfbffffe <__BSS_END__+0xffffffffdfbe079e>
   12324:	40d75733          	sra	a4,a4,a3
   12328:	8b05                	andi	a4,a4,1
   1232a:	01041783          	lh	a5,16(s0)
   1232e:	e351                	bnez	a4,123b2 <__sflush_r+0x118>
   12330:	6c10                	ld	a2,24(s0)
   12332:	777d                	lui	a4,0xfffff
   12334:	7ff70713          	addi	a4,a4,2047 # fffffffffffff7ff <__BSS_END__+0xfffffffffffdff9f>
   12338:	8f7d                	and	a4,a4,a5
   1233a:	83b1                	srli	a5,a5,0xc
   1233c:	00e41823          	sh	a4,16(s0)
   12340:	00042423          	sw	zero,8(s0)
   12344:	e010                	sd	a2,0(s0)
   12346:	8b85                	andi	a5,a5,1
   12348:	e7f9                	bnez	a5,12416 <__sflush_r+0x17c>
   1234a:	6c2c                	ld	a1,88(s0)
   1234c:	0099a023          	sw	s1,0(s3)
   12350:	c991                	beqz	a1,12364 <__sflush_r+0xca>
   12352:	07440793          	addi	a5,s0,116
   12356:	00f58563          	beq	a1,a5,12360 <__sflush_r+0xc6>
   1235a:	854e                	mv	a0,s3
   1235c:	4c6000ef          	jal	ra,12822 <_free_r>
   12360:	04043c23          	sd	zero,88(s0)
   12364:	4501                	li	a0,0
   12366:	70a2                	ld	ra,40(sp)
   12368:	7402                	ld	s0,32(sp)
   1236a:	64e2                	ld	s1,24(sp)
   1236c:	6942                	ld	s2,16(sp)
   1236e:	69a2                	ld	s3,8(sp)
   12370:	6145                	addi	sp,sp,48
   12372:	8082                	ret
   12374:	0185b903          	ld	s2,24(a1)
   12378:	fe0906e3          	beqz	s2,12364 <__sflush_r+0xca>
   1237c:	6184                	ld	s1,0(a1)
   1237e:	8b8d                	andi	a5,a5,3
   12380:	0125b023          	sd	s2,0(a1)
   12384:	412484bb          	subw	s1,s1,s2
   12388:	4701                	li	a4,0
   1238a:	e391                	bnez	a5,1238e <__sflush_r+0xf4>
   1238c:	5198                	lw	a4,32(a1)
   1238e:	c458                	sw	a4,12(s0)
   12390:	00904663          	bgtz	s1,1239c <__sflush_r+0x102>
   12394:	bfc1                	j	12364 <__sflush_r+0xca>
   12396:	992a                	add	s2,s2,a0
   12398:	fc9056e3          	blez	s1,12364 <__sflush_r+0xca>
   1239c:	603c                	ld	a5,64(s0)
   1239e:	780c                	ld	a1,48(s0)
   123a0:	86a6                	mv	a3,s1
   123a2:	864a                	mv	a2,s2
   123a4:	854e                	mv	a0,s3
   123a6:	9782                	jalr	a5
   123a8:	9c89                	subw	s1,s1,a0
   123aa:	fea046e3          	bgtz	a0,12396 <__sflush_r+0xfc>
   123ae:	01041783          	lh	a5,16(s0)
   123b2:	0407e793          	ori	a5,a5,64
   123b6:	70a2                	ld	ra,40(sp)
   123b8:	00f41823          	sh	a5,16(s0)
   123bc:	7402                	ld	s0,32(sp)
   123be:	64e2                	ld	s1,24(sp)
   123c0:	6942                	ld	s2,16(sp)
   123c2:	69a2                	ld	s3,8(sp)
   123c4:	557d                	li	a0,-1
   123c6:	6145                	addi	sp,sp,48
   123c8:	8082                	ret
   123ca:	59b4                	lw	a3,112(a1)
   123cc:	eed04de3          	bgtz	a3,122c6 <__sflush_r+0x2c>
   123d0:	4501                	li	a0,0
   123d2:	bf51                	j	12366 <__sflush_r+0xcc>
   123d4:	6850                	ld	a2,144(s0)
   123d6:	b70d                	j	122f8 <__sflush_r+0x5e>
   123d8:	01041783          	lh	a5,16(s0)
   123dc:	6c14                	ld	a3,24(s0)
   123de:	777d                	lui	a4,0xfffff
   123e0:	7ff70713          	addi	a4,a4,2047 # fffffffffffff7ff <__BSS_END__+0xfffffffffffdff9f>
   123e4:	8f7d                	and	a4,a4,a5
   123e6:	83b1                	srli	a5,a5,0xc
   123e8:	00e41823          	sh	a4,16(s0)
   123ec:	00042423          	sw	zero,8(s0)
   123f0:	e014                	sd	a3,0(s0)
   123f2:	8b85                	andi	a5,a5,1
   123f4:	dbb9                	beqz	a5,1234a <__sflush_r+0xb0>
   123f6:	e848                	sd	a0,144(s0)
   123f8:	bf89                	j	1234a <__sflush_r+0xb0>
   123fa:	0009a783          	lw	a5,0(s3)
   123fe:	ee0788e3          	beqz	a5,122ee <__sflush_r+0x54>
   12402:	4775                	li	a4,29
   12404:	00e78563          	beq	a5,a4,1240e <__sflush_r+0x174>
   12408:	4759                	li	a4,22
   1240a:	fae792e3          	bne	a5,a4,123ae <__sflush_r+0x114>
   1240e:	0099a023          	sw	s1,0(s3)
   12412:	4501                	li	a0,0
   12414:	bf89                	j	12366 <__sflush_r+0xcc>
   12416:	fa95                	bnez	a3,1234a <__sflush_r+0xb0>
   12418:	e848                	sd	a0,144(s0)
   1241a:	bf05                	j	1234a <__sflush_r+0xb0>

000000000001241c <_fflush_r>:
   1241c:	1101                	addi	sp,sp,-32
   1241e:	e822                	sd	s0,16(sp)
   12420:	ec06                	sd	ra,24(sp)
   12422:	842a                	mv	s0,a0
   12424:	c119                	beqz	a0,1242a <_fflush_r+0xe>
   12426:	493c                	lw	a5,80(a0)
   12428:	cb89                	beqz	a5,1243a <_fflush_r+0x1e>
   1242a:	01059783          	lh	a5,16(a1)
   1242e:	ef89                	bnez	a5,12448 <_fflush_r+0x2c>
   12430:	60e2                	ld	ra,24(sp)
   12432:	6442                	ld	s0,16(sp)
   12434:	4501                	li	a0,0
   12436:	6105                	addi	sp,sp,32
   12438:	8082                	ret
   1243a:	e42e                	sd	a1,8(sp)
   1243c:	2b6000ef          	jal	ra,126f2 <__sinit>
   12440:	65a2                	ld	a1,8(sp)
   12442:	01059783          	lh	a5,16(a1)
   12446:	d7ed                	beqz	a5,12430 <_fflush_r+0x14>
   12448:	8522                	mv	a0,s0
   1244a:	6442                	ld	s0,16(sp)
   1244c:	60e2                	ld	ra,24(sp)
   1244e:	6105                	addi	sp,sp,32
   12450:	b5a9                	j	1229a <__sflush_r>

0000000000012452 <fflush>:
   12452:	cd1d                	beqz	a0,12490 <fflush+0x3e>
   12454:	1101                	addi	sp,sp,-32
   12456:	e822                	sd	s0,16(sp)
   12458:	842a                	mv	s0,a0
   1245a:	7581b503          	ld	a0,1880(gp) # 1f7b8 <_impure_ptr>
   1245e:	ec06                	sd	ra,24(sp)
   12460:	c119                	beqz	a0,12466 <fflush+0x14>
   12462:	493c                	lw	a5,80(a0)
   12464:	cf91                	beqz	a5,12480 <fflush+0x2e>
   12466:	01041783          	lh	a5,16(s0)
   1246a:	e791                	bnez	a5,12476 <fflush+0x24>
   1246c:	60e2                	ld	ra,24(sp)
   1246e:	6442                	ld	s0,16(sp)
   12470:	4501                	li	a0,0
   12472:	6105                	addi	sp,sp,32
   12474:	8082                	ret
   12476:	85a2                	mv	a1,s0
   12478:	6442                	ld	s0,16(sp)
   1247a:	60e2                	ld	ra,24(sp)
   1247c:	6105                	addi	sp,sp,32
   1247e:	bd31                	j	1229a <__sflush_r>
   12480:	e42a                	sd	a0,8(sp)
   12482:	270000ef          	jal	ra,126f2 <__sinit>
   12486:	01041783          	lh	a5,16(s0)
   1248a:	6522                	ld	a0,8(sp)
   1248c:	d3e5                	beqz	a5,1246c <fflush+0x1a>
   1248e:	b7e5                	j	12476 <fflush+0x24>
   12490:	7481b503          	ld	a0,1864(gp) # 1f7a8 <_global_impure_ptr>
   12494:	65c9                	lui	a1,0x12
   12496:	41c58593          	addi	a1,a1,1052 # 1241c <_fflush_r>
   1249a:	1810006f          	j	12e1a <_fwalk_reent>

000000000001249e <__fp_lock>:
   1249e:	4501                	li	a0,0
   124a0:	8082                	ret

00000000000124a2 <_cleanup_r>:
   124a2:	65e9                	lui	a1,0x1a
   124a4:	85058593          	addi	a1,a1,-1968 # 19850 <_fclose_r>
   124a8:	1730006f          	j	12e1a <_fwalk_reent>

00000000000124ac <__fp_unlock>:
   124ac:	4501                	li	a0,0
   124ae:	8082                	ret

00000000000124b0 <__sinit.part.0>:
   124b0:	7139                	addi	sp,sp,-64
   124b2:	67c9                	lui	a5,0x12
   124b4:	fc06                	sd	ra,56(sp)
   124b6:	f822                	sd	s0,48(sp)
   124b8:	f426                	sd	s1,40(sp)
   124ba:	f04a                	sd	s2,32(sp)
   124bc:	ec4e                	sd	s3,24(sp)
   124be:	e852                	sd	s4,16(sp)
   124c0:	e456                	sd	s5,8(sp)
   124c2:	e05a                	sd	s6,0(sp)
   124c4:	6500                	ld	s0,8(a0)
   124c6:	4a278793          	addi	a5,a5,1186 # 124a2 <_cleanup_r>
   124ca:	ed3c                	sd	a5,88(a0)
   124cc:	53850713          	addi	a4,a0,1336
   124d0:	478d                	li	a5,3
   124d2:	52e53823          	sd	a4,1328(a0)
   124d6:	52f52423          	sw	a5,1320(a0)
   124da:	52053023          	sd	zero,1312(a0)
   124de:	4791                	li	a5,4
   124e0:	892a                	mv	s2,a0
   124e2:	c81c                	sw	a5,16(s0)
   124e4:	4621                	li	a2,8
   124e6:	4581                	li	a1,0
   124e8:	00043023          	sd	zero,0(s0)
   124ec:	00043423          	sd	zero,8(s0)
   124f0:	0a042623          	sw	zero,172(s0)
   124f4:	00043c23          	sd	zero,24(s0)
   124f8:	02042023          	sw	zero,32(s0)
   124fc:	02042423          	sw	zero,40(s0)
   12500:	0a440513          	addi	a0,s0,164
   12504:	d87fd0ef          	jal	ra,1028a <memset>
   12508:	6b5d                	lui	s6,0x17
   1250a:	01093483          	ld	s1,16(s2)
   1250e:	6add                	lui	s5,0x17
   12510:	6a5d                	lui	s4,0x17
   12512:	69dd                	lui	s3,0x17
   12514:	bccb0b13          	addi	s6,s6,-1076 # 16bcc <__sread>
   12518:	c08a8a93          	addi	s5,s5,-1016 # 16c08 <__swrite>
   1251c:	c5ca0a13          	addi	s4,s4,-932 # 16c5c <__sseek>
   12520:	cae98993          	addi	s3,s3,-850 # 16cae <__sclose>
   12524:	67c1                	lui	a5,0x10
   12526:	03643c23          	sd	s6,56(s0)
   1252a:	05543023          	sd	s5,64(s0)
   1252e:	05443423          	sd	s4,72(s0)
   12532:	05343823          	sd	s3,80(s0)
   12536:	f800                	sd	s0,48(s0)
   12538:	07a5                	addi	a5,a5,9 # 10009 <exit-0xdf>
   1253a:	c89c                	sw	a5,16(s1)
   1253c:	4621                	li	a2,8
   1253e:	4581                	li	a1,0
   12540:	0004b023          	sd	zero,0(s1)
   12544:	0004b423          	sd	zero,8(s1)
   12548:	0a04a623          	sw	zero,172(s1)
   1254c:	0004bc23          	sd	zero,24(s1)
   12550:	0204a023          	sw	zero,32(s1)
   12554:	0204a423          	sw	zero,40(s1)
   12558:	0a448513          	addi	a0,s1,164
   1255c:	d2ffd0ef          	jal	ra,1028a <memset>
   12560:	01893403          	ld	s0,24(s2)
   12564:	000207b7          	lui	a5,0x20
   12568:	0364bc23          	sd	s6,56(s1)
   1256c:	0554b023          	sd	s5,64(s1)
   12570:	0544b423          	sd	s4,72(s1)
   12574:	0534b823          	sd	s3,80(s1)
   12578:	f884                	sd	s1,48(s1)
   1257a:	07c9                	addi	a5,a5,18 # 20012 <__BSS_END__+0x7b2>
   1257c:	c81c                	sw	a5,16(s0)
   1257e:	00043023          	sd	zero,0(s0)
   12582:	00043423          	sd	zero,8(s0)
   12586:	0a042623          	sw	zero,172(s0)
   1258a:	00043c23          	sd	zero,24(s0)
   1258e:	02042023          	sw	zero,32(s0)
   12592:	02042423          	sw	zero,40(s0)
   12596:	0a440513          	addi	a0,s0,164
   1259a:	4621                	li	a2,8
   1259c:	4581                	li	a1,0
   1259e:	cedfd0ef          	jal	ra,1028a <memset>
   125a2:	70e2                	ld	ra,56(sp)
   125a4:	03643c23          	sd	s6,56(s0)
   125a8:	05543023          	sd	s5,64(s0)
   125ac:	05443423          	sd	s4,72(s0)
   125b0:	05343823          	sd	s3,80(s0)
   125b4:	f800                	sd	s0,48(s0)
   125b6:	7442                	ld	s0,48(sp)
   125b8:	4785                	li	a5,1
   125ba:	04f92823          	sw	a5,80(s2)
   125be:	74a2                	ld	s1,40(sp)
   125c0:	7902                	ld	s2,32(sp)
   125c2:	69e2                	ld	s3,24(sp)
   125c4:	6a42                	ld	s4,16(sp)
   125c6:	6aa2                	ld	s5,8(sp)
   125c8:	6b02                	ld	s6,0(sp)
   125ca:	6121                	addi	sp,sp,64
   125cc:	8082                	ret

00000000000125ce <__sfmoreglue>:
   125ce:	1101                	addi	sp,sp,-32
   125d0:	e426                	sd	s1,8(sp)
   125d2:	0b000793          	li	a5,176
   125d6:	fff5849b          	addiw	s1,a1,-1
   125da:	02f484b3          	mul	s1,s1,a5
   125de:	e04a                	sd	s2,0(sp)
   125e0:	892e                	mv	s2,a1
   125e2:	e822                	sd	s0,16(sp)
   125e4:	ec06                	sd	ra,24(sp)
   125e6:	0c848593          	addi	a1,s1,200
   125ea:	371020ef          	jal	ra,1515a <_malloc_r>
   125ee:	842a                	mv	s0,a0
   125f0:	cd01                	beqz	a0,12608 <__sfmoreglue+0x3a>
   125f2:	0561                	addi	a0,a0,24
   125f4:	00043023          	sd	zero,0(s0)
   125f8:	01242423          	sw	s2,8(s0)
   125fc:	e808                	sd	a0,16(s0)
   125fe:	0b048613          	addi	a2,s1,176
   12602:	4581                	li	a1,0
   12604:	c87fd0ef          	jal	ra,1028a <memset>
   12608:	60e2                	ld	ra,24(sp)
   1260a:	8522                	mv	a0,s0
   1260c:	6442                	ld	s0,16(sp)
   1260e:	64a2                	ld	s1,8(sp)
   12610:	6902                	ld	s2,0(sp)
   12612:	6105                	addi	sp,sp,32
   12614:	8082                	ret

0000000000012616 <__sfp>:
   12616:	7179                	addi	sp,sp,-48
   12618:	ec26                	sd	s1,24(sp)
   1261a:	7481b483          	ld	s1,1864(gp) # 1f7a8 <_global_impure_ptr>
   1261e:	e84a                	sd	s2,16(sp)
   12620:	f406                	sd	ra,40(sp)
   12622:	48bc                	lw	a5,80(s1)
   12624:	f022                	sd	s0,32(sp)
   12626:	e44e                	sd	s3,8(sp)
   12628:	892a                	mv	s2,a0
   1262a:	cfbd                	beqz	a5,126a8 <__sfp+0x92>
   1262c:	52048493          	addi	s1,s1,1312
   12630:	0b000993          	li	s3,176
   12634:	4498                	lw	a4,8(s1)
   12636:	6880                	ld	s0,16(s1)
   12638:	06e05463          	blez	a4,126a0 <__sfp+0x8a>
   1263c:	1702                	slli	a4,a4,0x20
   1263e:	9301                	srli	a4,a4,0x20
   12640:	03370733          	mul	a4,a4,s3
   12644:	9722                	add	a4,a4,s0
   12646:	a029                	j	12650 <__sfp+0x3a>
   12648:	0b040413          	addi	s0,s0,176
   1264c:	04e40a63          	beq	s0,a4,126a0 <__sfp+0x8a>
   12650:	01041783          	lh	a5,16(s0)
   12654:	fbf5                	bnez	a5,12648 <__sfp+0x32>
   12656:	77c1                	lui	a5,0xffff0
   12658:	0785                	addi	a5,a5,1 # ffffffffffff0001 <__BSS_END__+0xfffffffffffd07a1>
   1265a:	c81c                	sw	a5,16(s0)
   1265c:	0a042623          	sw	zero,172(s0)
   12660:	00043023          	sd	zero,0(s0)
   12664:	00043423          	sd	zero,8(s0)
   12668:	00043c23          	sd	zero,24(s0)
   1266c:	02042023          	sw	zero,32(s0)
   12670:	02042423          	sw	zero,40(s0)
   12674:	4621                	li	a2,8
   12676:	4581                	li	a1,0
   12678:	0a440513          	addi	a0,s0,164
   1267c:	c0ffd0ef          	jal	ra,1028a <memset>
   12680:	04043c23          	sd	zero,88(s0)
   12684:	06042023          	sw	zero,96(s0)
   12688:	06043c23          	sd	zero,120(s0)
   1268c:	08042023          	sw	zero,128(s0)
   12690:	70a2                	ld	ra,40(sp)
   12692:	8522                	mv	a0,s0
   12694:	7402                	ld	s0,32(sp)
   12696:	64e2                	ld	s1,24(sp)
   12698:	6942                	ld	s2,16(sp)
   1269a:	69a2                	ld	s3,8(sp)
   1269c:	6145                	addi	sp,sp,48
   1269e:	8082                	ret
   126a0:	6080                	ld	s0,0(s1)
   126a2:	c419                	beqz	s0,126b0 <__sfp+0x9a>
   126a4:	84a2                	mv	s1,s0
   126a6:	b779                	j	12634 <__sfp+0x1e>
   126a8:	8526                	mv	a0,s1
   126aa:	e07ff0ef          	jal	ra,124b0 <__sinit.part.0>
   126ae:	bfbd                	j	1262c <__sfp+0x16>
   126b0:	2d800593          	li	a1,728
   126b4:	854a                	mv	a0,s2
   126b6:	2a5020ef          	jal	ra,1515a <_malloc_r>
   126ba:	842a                	mv	s0,a0
   126bc:	cd19                	beqz	a0,126da <__sfp+0xc4>
   126be:	0561                	addi	a0,a0,24
   126c0:	4791                	li	a5,4
   126c2:	00043023          	sd	zero,0(s0)
   126c6:	c41c                	sw	a5,8(s0)
   126c8:	e808                	sd	a0,16(s0)
   126ca:	2c000613          	li	a2,704
   126ce:	4581                	li	a1,0
   126d0:	bbbfd0ef          	jal	ra,1028a <memset>
   126d4:	e080                	sd	s0,0(s1)
   126d6:	84a2                	mv	s1,s0
   126d8:	bfb1                	j	12634 <__sfp+0x1e>
   126da:	0004b023          	sd	zero,0(s1)
   126de:	47b1                	li	a5,12
   126e0:	00f92023          	sw	a5,0(s2)
   126e4:	b775                	j	12690 <__sfp+0x7a>

00000000000126e6 <_cleanup>:
   126e6:	7481b503          	ld	a0,1864(gp) # 1f7a8 <_global_impure_ptr>
   126ea:	65e9                	lui	a1,0x1a
   126ec:	85058593          	addi	a1,a1,-1968 # 19850 <_fclose_r>
   126f0:	a72d                	j	12e1a <_fwalk_reent>

00000000000126f2 <__sinit>:
   126f2:	493c                	lw	a5,80(a0)
   126f4:	c391                	beqz	a5,126f8 <__sinit+0x6>
   126f6:	8082                	ret
   126f8:	bb65                	j	124b0 <__sinit.part.0>

00000000000126fa <__sfp_lock_acquire>:
   126fa:	8082                	ret

00000000000126fc <__sfp_lock_release>:
   126fc:	8082                	ret

00000000000126fe <__sinit_lock_acquire>:
   126fe:	8082                	ret

0000000000012700 <__sinit_lock_release>:
   12700:	8082                	ret

0000000000012702 <__fp_lock_all>:
   12702:	7581b503          	ld	a0,1880(gp) # 1f7b8 <_impure_ptr>
   12706:	65c9                	lui	a1,0x12
   12708:	49e58593          	addi	a1,a1,1182 # 1249e <__fp_lock>
   1270c:	ad49                	j	12d9e <_fwalk>

000000000001270e <__fp_unlock_all>:
   1270e:	7581b503          	ld	a0,1880(gp) # 1f7b8 <_impure_ptr>
   12712:	65c9                	lui	a1,0x12
   12714:	4ac58593          	addi	a1,a1,1196 # 124ac <__fp_unlock>
   12718:	a559                	j	12d9e <_fwalk>

000000000001271a <__libc_fini_array>:
   1271a:	1101                	addi	sp,sp,-32
   1271c:	e822                	sd	s0,16(sp)
   1271e:	67f9                	lui	a5,0x1e
   12720:	6479                	lui	s0,0x1e
   12722:	66878793          	addi	a5,a5,1640 # 1e668 <__do_global_dtors_aux_fini_array_entry>
   12726:	67040413          	addi	s0,s0,1648 # 1e670 <impure_data>
   1272a:	8c1d                	sub	s0,s0,a5
   1272c:	e426                	sd	s1,8(sp)
   1272e:	ec06                	sd	ra,24(sp)
   12730:	40345493          	srai	s1,s0,0x3
   12734:	c881                	beqz	s1,12744 <__libc_fini_array+0x2a>
   12736:	1461                	addi	s0,s0,-8
   12738:	943e                	add	s0,s0,a5
   1273a:	601c                	ld	a5,0(s0)
   1273c:	14fd                	addi	s1,s1,-1
   1273e:	1461                	addi	s0,s0,-8
   12740:	9782                	jalr	a5
   12742:	fce5                	bnez	s1,1273a <__libc_fini_array+0x20>
   12744:	60e2                	ld	ra,24(sp)
   12746:	6442                	ld	s0,16(sp)
   12748:	64a2                	ld	s1,8(sp)
   1274a:	6105                	addi	sp,sp,32
   1274c:	8082                	ret

000000000001274e <_malloc_trim_r>:
   1274e:	7179                	addi	sp,sp,-48
   12750:	e44e                	sd	s3,8(sp)
   12752:	0001f9b7          	lui	s3,0x1f
   12756:	f022                	sd	s0,32(sp)
   12758:	ec26                	sd	s1,24(sp)
   1275a:	e84a                	sd	s2,16(sp)
   1275c:	e052                	sd	s4,0(sp)
   1275e:	f406                	sd	ra,40(sp)
   12760:	8a2e                	mv	s4,a1
   12762:	892a                	mv	s2,a0
   12764:	db898993          	addi	s3,s3,-584 # 1edb8 <__malloc_av_>
   12768:	290030ef          	jal	ra,159f8 <__malloc_lock>
   1276c:	0109b703          	ld	a4,16(s3)
   12770:	6785                	lui	a5,0x1
   12772:	fdf78413          	addi	s0,a5,-33 # fdf <exit-0xf109>
   12776:	6704                	ld	s1,8(a4)
   12778:	98f1                	andi	s1,s1,-4
   1277a:	9426                	add	s0,s0,s1
   1277c:	41440433          	sub	s0,s0,s4
   12780:	8031                	srli	s0,s0,0xc
   12782:	147d                	addi	s0,s0,-1
   12784:	0432                	slli	s0,s0,0xc
   12786:	00f44b63          	blt	s0,a5,1279c <_malloc_trim_r+0x4e>
   1278a:	4581                	li	a1,0
   1278c:	854a                	mv	a0,s2
   1278e:	37c040ef          	jal	ra,16b0a <_sbrk_r>
   12792:	0109b783          	ld	a5,16(s3)
   12796:	97a6                	add	a5,a5,s1
   12798:	00f50e63          	beq	a0,a5,127b4 <_malloc_trim_r+0x66>
   1279c:	854a                	mv	a0,s2
   1279e:	25c030ef          	jal	ra,159fa <__malloc_unlock>
   127a2:	70a2                	ld	ra,40(sp)
   127a4:	7402                	ld	s0,32(sp)
   127a6:	64e2                	ld	s1,24(sp)
   127a8:	6942                	ld	s2,16(sp)
   127aa:	69a2                	ld	s3,8(sp)
   127ac:	6a02                	ld	s4,0(sp)
   127ae:	4501                	li	a0,0
   127b0:	6145                	addi	sp,sp,48
   127b2:	8082                	ret
   127b4:	408005b3          	neg	a1,s0
   127b8:	854a                	mv	a0,s2
   127ba:	350040ef          	jal	ra,16b0a <_sbrk_r>
   127be:	57fd                	li	a5,-1
   127c0:	02f50b63          	beq	a0,a5,127f6 <_malloc_trim_r+0xa8>
   127c4:	000207b7          	lui	a5,0x20
   127c8:	83878793          	addi	a5,a5,-1992 # 1f838 <__malloc_current_mallinfo>
   127cc:	4398                	lw	a4,0(a5)
   127ce:	0109b683          	ld	a3,16(s3)
   127d2:	8c81                	sub	s1,s1,s0
   127d4:	0014e493          	ori	s1,s1,1
   127d8:	9f01                	subw	a4,a4,s0
   127da:	854a                	mv	a0,s2
   127dc:	e684                	sd	s1,8(a3)
   127de:	c398                	sw	a4,0(a5)
   127e0:	21a030ef          	jal	ra,159fa <__malloc_unlock>
   127e4:	70a2                	ld	ra,40(sp)
   127e6:	7402                	ld	s0,32(sp)
   127e8:	64e2                	ld	s1,24(sp)
   127ea:	6942                	ld	s2,16(sp)
   127ec:	69a2                	ld	s3,8(sp)
   127ee:	6a02                	ld	s4,0(sp)
   127f0:	4505                	li	a0,1
   127f2:	6145                	addi	sp,sp,48
   127f4:	8082                	ret
   127f6:	4581                	li	a1,0
   127f8:	854a                	mv	a0,s2
   127fa:	310040ef          	jal	ra,16b0a <_sbrk_r>
   127fe:	0109b703          	ld	a4,16(s3)
   12802:	46fd                	li	a3,31
   12804:	40e507b3          	sub	a5,a0,a4
   12808:	f8f6dae3          	bge	a3,a5,1279c <_malloc_trim_r+0x4e>
   1280c:	7601b683          	ld	a3,1888(gp) # 1f7c0 <__malloc_sbrk_base>
   12810:	0017e793          	ori	a5,a5,1
   12814:	e71c                	sd	a5,8(a4)
   12816:	8d15                	sub	a0,a0,a3
   12818:	000206b7          	lui	a3,0x20
   1281c:	82a6ac23          	sw	a0,-1992(a3) # 1f838 <__malloc_current_mallinfo>
   12820:	bfb5                	j	1279c <_malloc_trim_r+0x4e>

0000000000012822 <_free_r>:
   12822:	12058563          	beqz	a1,1294c <_free_r+0x12a>
   12826:	1101                	addi	sp,sp,-32
   12828:	e822                	sd	s0,16(sp)
   1282a:	e426                	sd	s1,8(sp)
   1282c:	842e                	mv	s0,a1
   1282e:	84aa                	mv	s1,a0
   12830:	ec06                	sd	ra,24(sp)
   12832:	1c6030ef          	jal	ra,159f8 <__malloc_lock>
   12836:	ff843503          	ld	a0,-8(s0)
   1283a:	ff040713          	addi	a4,s0,-16
   1283e:	0001f5b7          	lui	a1,0x1f
   12842:	ffe57793          	andi	a5,a0,-2
   12846:	00f70633          	add	a2,a4,a5
   1284a:	db858593          	addi	a1,a1,-584 # 1edb8 <__malloc_av_>
   1284e:	6614                	ld	a3,8(a2)
   12850:	0105b803          	ld	a6,16(a1)
   12854:	9af1                	andi	a3,a3,-4
   12856:	12c80e63          	beq	a6,a2,12992 <_free_r+0x170>
   1285a:	e614                	sd	a3,8(a2)
   1285c:	8905                	andi	a0,a0,1
   1285e:	00d60833          	add	a6,a2,a3
   12862:	e149                	bnez	a0,128e4 <_free_r+0xc2>
   12864:	ff043303          	ld	t1,-16(s0)
   12868:	00883803          	ld	a6,8(a6)
   1286c:	0001f537          	lui	a0,0x1f
   12870:	40670733          	sub	a4,a4,t1
   12874:	01073883          	ld	a7,16(a4)
   12878:	dc850513          	addi	a0,a0,-568 # 1edc8 <__malloc_av_+0x10>
   1287c:	979a                	add	a5,a5,t1
   1287e:	00187813          	andi	a6,a6,1
   12882:	0ea88b63          	beq	a7,a0,12978 <_free_r+0x156>
   12886:	01873303          	ld	t1,24(a4)
   1288a:	0068bc23          	sd	t1,24(a7)
   1288e:	01133823          	sd	a7,16(t1)
   12892:	12080963          	beqz	a6,129c4 <_free_r+0x1a2>
   12896:	0017e693          	ori	a3,a5,1
   1289a:	e714                	sd	a3,8(a4)
   1289c:	e21c                	sd	a5,0(a2)
   1289e:	1ff00693          	li	a3,511
   128a2:	04f6ee63          	bltu	a3,a5,128fe <_free_r+0xdc>
   128a6:	838d                	srli	a5,a5,0x3
   128a8:	0017869b          	addiw	a3,a5,1
   128ac:	0016969b          	slliw	a3,a3,0x1
   128b0:	068e                	slli	a3,a3,0x3
   128b2:	0085b803          	ld	a6,8(a1)
   128b6:	96ae                	add	a3,a3,a1
   128b8:	6288                	ld	a0,0(a3)
   128ba:	4027d61b          	sraiw	a2,a5,0x2
   128be:	4785                	li	a5,1
   128c0:	00c797b3          	sll	a5,a5,a2
   128c4:	0107e7b3          	or	a5,a5,a6
   128c8:	ff068613          	addi	a2,a3,-16
   128cc:	ef10                	sd	a2,24(a4)
   128ce:	eb08                	sd	a0,16(a4)
   128d0:	e59c                	sd	a5,8(a1)
   128d2:	e298                	sd	a4,0(a3)
   128d4:	ed18                	sd	a4,24(a0)
   128d6:	6442                	ld	s0,16(sp)
   128d8:	60e2                	ld	ra,24(sp)
   128da:	8526                	mv	a0,s1
   128dc:	64a2                	ld	s1,8(sp)
   128de:	6105                	addi	sp,sp,32
   128e0:	11a0306f          	j	159fa <__malloc_unlock>
   128e4:	00883503          	ld	a0,8(a6)
   128e8:	8905                	andi	a0,a0,1
   128ea:	c135                	beqz	a0,1294e <_free_r+0x12c>
   128ec:	0017e693          	ori	a3,a5,1
   128f0:	fed43c23          	sd	a3,-8(s0)
   128f4:	e21c                	sd	a5,0(a2)
   128f6:	1ff00693          	li	a3,511
   128fa:	faf6f6e3          	bgeu	a3,a5,128a6 <_free_r+0x84>
   128fe:	0097d693          	srli	a3,a5,0x9
   12902:	4611                	li	a2,4
   12904:	0cd66263          	bltu	a2,a3,129c8 <_free_r+0x1a6>
   12908:	0067d693          	srli	a3,a5,0x6
   1290c:	0396851b          	addiw	a0,a3,57
   12910:	0015151b          	slliw	a0,a0,0x1
   12914:	0386861b          	addiw	a2,a3,56
   12918:	050e                	slli	a0,a0,0x3
   1291a:	952e                	add	a0,a0,a1
   1291c:	6114                	ld	a3,0(a0)
   1291e:	1541                	addi	a0,a0,-16
   12920:	00d51663          	bne	a0,a3,1292c <_free_r+0x10a>
   12924:	a0ed                	j	12a0e <_free_r+0x1ec>
   12926:	6a94                	ld	a3,16(a3)
   12928:	00d50663          	beq	a0,a3,12934 <_free_r+0x112>
   1292c:	6690                	ld	a2,8(a3)
   1292e:	9a71                	andi	a2,a2,-4
   12930:	fec7ebe3          	bltu	a5,a2,12926 <_free_r+0x104>
   12934:	6e88                	ld	a0,24(a3)
   12936:	ef08                	sd	a0,24(a4)
   12938:	eb14                	sd	a3,16(a4)
   1293a:	6442                	ld	s0,16(sp)
   1293c:	e918                	sd	a4,16(a0)
   1293e:	60e2                	ld	ra,24(sp)
   12940:	8526                	mv	a0,s1
   12942:	64a2                	ld	s1,8(sp)
   12944:	ee98                	sd	a4,24(a3)
   12946:	6105                	addi	sp,sp,32
   12948:	0b20306f          	j	159fa <__malloc_unlock>
   1294c:	8082                	ret
   1294e:	0001f537          	lui	a0,0x1f
   12952:	97b6                	add	a5,a5,a3
   12954:	dc850513          	addi	a0,a0,-568 # 1edc8 <__malloc_av_+0x10>
   12958:	6a14                	ld	a3,16(a2)
   1295a:	0aa68063          	beq	a3,a0,129fa <_free_r+0x1d8>
   1295e:	01863803          	ld	a6,24(a2)
   12962:	0017e513          	ori	a0,a5,1
   12966:	00f70633          	add	a2,a4,a5
   1296a:	0106bc23          	sd	a6,24(a3)
   1296e:	00d83823          	sd	a3,16(a6)
   12972:	e708                	sd	a0,8(a4)
   12974:	e21c                	sd	a5,0(a2)
   12976:	b725                	j	1289e <_free_r+0x7c>
   12978:	0e081763          	bnez	a6,12a66 <_free_r+0x244>
   1297c:	6a0c                	ld	a1,16(a2)
   1297e:	6e10                	ld	a2,24(a2)
   12980:	96be                	add	a3,a3,a5
   12982:	0016e793          	ori	a5,a3,1
   12986:	ed90                	sd	a2,24(a1)
   12988:	ea0c                	sd	a1,16(a2)
   1298a:	e71c                	sd	a5,8(a4)
   1298c:	9736                	add	a4,a4,a3
   1298e:	e314                	sd	a3,0(a4)
   12990:	b799                	j	128d6 <_free_r+0xb4>
   12992:	8905                	andi	a0,a0,1
   12994:	96be                	add	a3,a3,a5
   12996:	e909                	bnez	a0,129a8 <_free_r+0x186>
   12998:	ff043503          	ld	a0,-16(s0)
   1299c:	8f09                	sub	a4,a4,a0
   1299e:	6f1c                	ld	a5,24(a4)
   129a0:	6b10                	ld	a2,16(a4)
   129a2:	96aa                	add	a3,a3,a0
   129a4:	ee1c                	sd	a5,24(a2)
   129a6:	eb90                	sd	a2,16(a5)
   129a8:	0016e613          	ori	a2,a3,1
   129ac:	7681b783          	ld	a5,1896(gp) # 1f7c8 <__malloc_trim_threshold>
   129b0:	e710                	sd	a2,8(a4)
   129b2:	e998                	sd	a4,16(a1)
   129b4:	f2f6e1e3          	bltu	a3,a5,128d6 <_free_r+0xb4>
   129b8:	7801b583          	ld	a1,1920(gp) # 1f7e0 <__malloc_top_pad>
   129bc:	8526                	mv	a0,s1
   129be:	d91ff0ef          	jal	ra,1274e <_malloc_trim_r>
   129c2:	bf11                	j	128d6 <_free_r+0xb4>
   129c4:	97b6                	add	a5,a5,a3
   129c6:	bf49                	j	12958 <_free_r+0x136>
   129c8:	4651                	li	a2,20
   129ca:	02d67063          	bgeu	a2,a3,129ea <_free_r+0x1c8>
   129ce:	05400613          	li	a2,84
   129d2:	04d66963          	bltu	a2,a3,12a24 <_free_r+0x202>
   129d6:	00c7d693          	srli	a3,a5,0xc
   129da:	06f6851b          	addiw	a0,a3,111
   129de:	0015151b          	slliw	a0,a0,0x1
   129e2:	06e6861b          	addiw	a2,a3,110
   129e6:	050e                	slli	a0,a0,0x3
   129e8:	bf0d                	j	1291a <_free_r+0xf8>
   129ea:	05c6851b          	addiw	a0,a3,92
   129ee:	0015151b          	slliw	a0,a0,0x1
   129f2:	05b6861b          	addiw	a2,a3,91
   129f6:	050e                	slli	a0,a0,0x3
   129f8:	b70d                	j	1291a <_free_r+0xf8>
   129fa:	f598                	sd	a4,40(a1)
   129fc:	f198                	sd	a4,32(a1)
   129fe:	0017e693          	ori	a3,a5,1
   12a02:	ef08                	sd	a0,24(a4)
   12a04:	eb08                	sd	a0,16(a4)
   12a06:	e714                	sd	a3,8(a4)
   12a08:	973e                	add	a4,a4,a5
   12a0a:	e31c                	sd	a5,0(a4)
   12a0c:	b5e9                	j	128d6 <_free_r+0xb4>
   12a0e:	0085b803          	ld	a6,8(a1)
   12a12:	4026561b          	sraiw	a2,a2,0x2
   12a16:	4785                	li	a5,1
   12a18:	00c797b3          	sll	a5,a5,a2
   12a1c:	0107e7b3          	or	a5,a5,a6
   12a20:	e59c                	sd	a5,8(a1)
   12a22:	bf11                	j	12936 <_free_r+0x114>
   12a24:	15400613          	li	a2,340
   12a28:	00d66c63          	bltu	a2,a3,12a40 <_free_r+0x21e>
   12a2c:	00f7d693          	srli	a3,a5,0xf
   12a30:	0786851b          	addiw	a0,a3,120
   12a34:	0015151b          	slliw	a0,a0,0x1
   12a38:	0776861b          	addiw	a2,a3,119
   12a3c:	050e                	slli	a0,a0,0x3
   12a3e:	bdf1                	j	1291a <_free_r+0xf8>
   12a40:	55400613          	li	a2,1364
   12a44:	00d66c63          	bltu	a2,a3,12a5c <_free_r+0x23a>
   12a48:	0127d693          	srli	a3,a5,0x12
   12a4c:	07d6851b          	addiw	a0,a3,125
   12a50:	0015151b          	slliw	a0,a0,0x1
   12a54:	07c6861b          	addiw	a2,a3,124
   12a58:	050e                	slli	a0,a0,0x3
   12a5a:	b5c1                	j	1291a <_free_r+0xf8>
   12a5c:	7f000513          	li	a0,2032
   12a60:	07e00613          	li	a2,126
   12a64:	bd5d                	j	1291a <_free_r+0xf8>
   12a66:	0017e693          	ori	a3,a5,1
   12a6a:	e714                	sd	a3,8(a4)
   12a6c:	e21c                	sd	a5,0(a2)
   12a6e:	b5a5                	j	128d6 <_free_r+0xb4>

0000000000012a70 <__sfvwrite_r>:
   12a70:	6a1c                	ld	a5,16(a2)
   12a72:	1a078a63          	beqz	a5,12c26 <__sfvwrite_r+0x1b6>
   12a76:	01059703          	lh	a4,16(a1)
   12a7a:	711d                	addi	sp,sp,-96
   12a7c:	e8a2                	sd	s0,80(sp)
   12a7e:	f852                	sd	s4,48(sp)
   12a80:	f05a                	sd	s6,32(sp)
   12a82:	ec86                	sd	ra,88(sp)
   12a84:	e4a6                	sd	s1,72(sp)
   12a86:	e0ca                	sd	s2,64(sp)
   12a88:	fc4e                	sd	s3,56(sp)
   12a8a:	f456                	sd	s5,40(sp)
   12a8c:	ec5e                	sd	s7,24(sp)
   12a8e:	e862                	sd	s8,16(sp)
   12a90:	e466                	sd	s9,8(sp)
   12a92:	00877793          	andi	a5,a4,8
   12a96:	8b32                	mv	s6,a2
   12a98:	8a2a                	mv	s4,a0
   12a9a:	842e                	mv	s0,a1
   12a9c:	c3b5                	beqz	a5,12b00 <__sfvwrite_r+0x90>
   12a9e:	6d9c                	ld	a5,24(a1)
   12aa0:	c3a5                	beqz	a5,12b00 <__sfvwrite_r+0x90>
   12aa2:	00277793          	andi	a5,a4,2
   12aa6:	000b3483          	ld	s1,0(s6)
   12aaa:	cba5                	beqz	a5,12b1a <__sfvwrite_r+0xaa>
   12aac:	603c                	ld	a5,64(s0)
   12aae:	780c                	ld	a1,48(s0)
   12ab0:	80000ab7          	lui	s5,0x80000
   12ab4:	4981                	li	s3,0
   12ab6:	4901                	li	s2,0
   12ab8:	c00aca93          	xori	s5,s5,-1024
   12abc:	864e                	mv	a2,s3
   12abe:	8552                	mv	a0,s4
   12ac0:	02090a63          	beqz	s2,12af4 <__sfvwrite_r+0x84>
   12ac4:	86ca                	mv	a3,s2
   12ac6:	012af363          	bgeu	s5,s2,12acc <__sfvwrite_r+0x5c>
   12aca:	86d6                	mv	a3,s5
   12acc:	2681                	sext.w	a3,a3
   12ace:	9782                	jalr	a5
   12ad0:	14a05363          	blez	a0,12c16 <__sfvwrite_r+0x1a6>
   12ad4:	010b3783          	ld	a5,16(s6)
   12ad8:	99aa                	add	s3,s3,a0
   12ada:	40a90933          	sub	s2,s2,a0
   12ade:	8f89                	sub	a5,a5,a0
   12ae0:	00fb3823          	sd	a5,16(s6)
   12ae4:	10078663          	beqz	a5,12bf0 <__sfvwrite_r+0x180>
   12ae8:	603c                	ld	a5,64(s0)
   12aea:	780c                	ld	a1,48(s0)
   12aec:	864e                	mv	a2,s3
   12aee:	8552                	mv	a0,s4
   12af0:	fc091ae3          	bnez	s2,12ac4 <__sfvwrite_r+0x54>
   12af4:	0004b983          	ld	s3,0(s1)
   12af8:	0084b903          	ld	s2,8(s1)
   12afc:	04c1                	addi	s1,s1,16
   12afe:	bf7d                	j	12abc <__sfvwrite_r+0x4c>
   12b00:	85a2                	mv	a1,s0
   12b02:	8552                	mv	a0,s4
   12b04:	decff0ef          	jal	ra,120f0 <__swsetup_r>
   12b08:	10051d63          	bnez	a0,12c22 <__sfvwrite_r+0x1b2>
   12b0c:	01041703          	lh	a4,16(s0)
   12b10:	000b3483          	ld	s1,0(s6)
   12b14:	00277793          	andi	a5,a4,2
   12b18:	fbd1                	bnez	a5,12aac <__sfvwrite_r+0x3c>
   12b1a:	00177793          	andi	a5,a4,1
   12b1e:	eba5                	bnez	a5,12b8e <__sfvwrite_r+0x11e>
   12b20:	00c42b83          	lw	s7,12(s0)
   12b24:	601c                	ld	a5,0(s0)
   12b26:	80000ab7          	lui	s5,0x80000
   12b2a:	4c01                	li	s8,0
   12b2c:	4901                	li	s2,0
   12b2e:	fffaca93          	not	s5,s5
   12b32:	853e                	mv	a0,a5
   12b34:	04090763          	beqz	s2,12b82 <__sfvwrite_r+0x112>
   12b38:	20077693          	andi	a3,a4,512
   12b3c:	12068963          	beqz	a3,12c6e <__sfvwrite_r+0x1fe>
   12b40:	19797863          	bgeu	s2,s7,12cd0 <__sfvwrite_r+0x260>
   12b44:	8cca                	mv	s9,s2
   12b46:	8bca                	mv	s7,s2
   12b48:	865e                	mv	a2,s7
   12b4a:	85e2                	mv	a1,s8
   12b4c:	5d5020ef          	jal	ra,15920 <memmove>
   12b50:	4458                	lw	a4,12(s0)
   12b52:	601c                	ld	a5,0(s0)
   12b54:	89ca                	mv	s3,s2
   12b56:	4197073b          	subw	a4,a4,s9
   12b5a:	97de                	add	a5,a5,s7
   12b5c:	c458                	sw	a4,12(s0)
   12b5e:	e01c                	sd	a5,0(s0)
   12b60:	4901                	li	s2,0
   12b62:	010b3783          	ld	a5,16(s6)
   12b66:	9c4e                	add	s8,s8,s3
   12b68:	413787b3          	sub	a5,a5,s3
   12b6c:	00fb3823          	sd	a5,16(s6)
   12b70:	c3c1                	beqz	a5,12bf0 <__sfvwrite_r+0x180>
   12b72:	601c                	ld	a5,0(s0)
   12b74:	01041703          	lh	a4,16(s0)
   12b78:	00c42b83          	lw	s7,12(s0)
   12b7c:	853e                	mv	a0,a5
   12b7e:	fa091de3          	bnez	s2,12b38 <__sfvwrite_r+0xc8>
   12b82:	0004bc03          	ld	s8,0(s1)
   12b86:	0084b903          	ld	s2,8(s1)
   12b8a:	04c1                	addi	s1,s1,16
   12b8c:	b75d                	j	12b32 <__sfvwrite_r+0xc2>
   12b8e:	4981                	li	s3,0
   12b90:	4501                	li	a0,0
   12b92:	4c81                	li	s9,0
   12b94:	4c01                	li	s8,0
   12b96:	080c0a63          	beqz	s8,12c2a <__sfvwrite_r+0x1ba>
   12b9a:	c145                	beqz	a0,12c3a <__sfvwrite_r+0x1ca>
   12b9c:	8bce                	mv	s7,s3
   12b9e:	013c7363          	bgeu	s8,s3,12ba4 <__sfvwrite_r+0x134>
   12ba2:	8be2                	mv	s7,s8
   12ba4:	6008                	ld	a0,0(s0)
   12ba6:	6c18                	ld	a4,24(s0)
   12ba8:	445c                	lw	a5,12(s0)
   12baa:	5014                	lw	a3,32(s0)
   12bac:	895e                	mv	s2,s7
   12bae:	00a77663          	bgeu	a4,a0,12bba <__sfvwrite_r+0x14a>
   12bb2:	00d78abb          	addw	s5,a5,a3
   12bb6:	097acd63          	blt	s5,s7,12c50 <__sfvwrite_r+0x1e0>
   12bba:	18dbc763          	blt	s7,a3,12d48 <__sfvwrite_r+0x2d8>
   12bbe:	603c                	ld	a5,64(s0)
   12bc0:	780c                	ld	a1,48(s0)
   12bc2:	8666                	mv	a2,s9
   12bc4:	8552                	mv	a0,s4
   12bc6:	9782                	jalr	a5
   12bc8:	892a                	mv	s2,a0
   12bca:	04a05663          	blez	a0,12c16 <__sfvwrite_r+0x1a6>
   12bce:	0005079b          	sext.w	a5,a0
   12bd2:	40f989bb          	subw	s3,s3,a5
   12bd6:	4505                	li	a0,1
   12bd8:	02098a63          	beqz	s3,12c0c <__sfvwrite_r+0x19c>
   12bdc:	010b3783          	ld	a5,16(s6)
   12be0:	9cca                	add	s9,s9,s2
   12be2:	412c0c33          	sub	s8,s8,s2
   12be6:	412787b3          	sub	a5,a5,s2
   12bea:	00fb3823          	sd	a5,16(s6)
   12bee:	f7c5                	bnez	a5,12b96 <__sfvwrite_r+0x126>
   12bf0:	4501                	li	a0,0
   12bf2:	60e6                	ld	ra,88(sp)
   12bf4:	6446                	ld	s0,80(sp)
   12bf6:	64a6                	ld	s1,72(sp)
   12bf8:	6906                	ld	s2,64(sp)
   12bfa:	79e2                	ld	s3,56(sp)
   12bfc:	7a42                	ld	s4,48(sp)
   12bfe:	7aa2                	ld	s5,40(sp)
   12c00:	7b02                	ld	s6,32(sp)
   12c02:	6be2                	ld	s7,24(sp)
   12c04:	6c42                	ld	s8,16(sp)
   12c06:	6ca2                	ld	s9,8(sp)
   12c08:	6125                	addi	sp,sp,96
   12c0a:	8082                	ret
   12c0c:	85a2                	mv	a1,s0
   12c0e:	8552                	mv	a0,s4
   12c10:	80dff0ef          	jal	ra,1241c <_fflush_r>
   12c14:	d561                	beqz	a0,12bdc <__sfvwrite_r+0x16c>
   12c16:	01041783          	lh	a5,16(s0)
   12c1a:	0407e793          	ori	a5,a5,64
   12c1e:	00f41823          	sh	a5,16(s0)
   12c22:	557d                	li	a0,-1
   12c24:	b7f9                	j	12bf2 <__sfvwrite_r+0x182>
   12c26:	4501                	li	a0,0
   12c28:	8082                	ret
   12c2a:	0084bc03          	ld	s8,8(s1)
   12c2e:	87a6                	mv	a5,s1
   12c30:	04c1                	addi	s1,s1,16
   12c32:	fe0c0ce3          	beqz	s8,12c2a <__sfvwrite_r+0x1ba>
   12c36:	0007bc83          	ld	s9,0(a5)
   12c3a:	8662                	mv	a2,s8
   12c3c:	45a9                	li	a1,10
   12c3e:	8566                	mv	a0,s9
   12c40:	30d020ef          	jal	ra,1574c <memchr>
   12c44:	14050463          	beqz	a0,12d8c <__sfvwrite_r+0x31c>
   12c48:	0505                	addi	a0,a0,1
   12c4a:	419509bb          	subw	s3,a0,s9
   12c4e:	b7b9                	j	12b9c <__sfvwrite_r+0x12c>
   12c50:	85e6                	mv	a1,s9
   12c52:	8656                	mv	a2,s5
   12c54:	4cd020ef          	jal	ra,15920 <memmove>
   12c58:	601c                	ld	a5,0(s0)
   12c5a:	85a2                	mv	a1,s0
   12c5c:	8552                	mv	a0,s4
   12c5e:	97d6                	add	a5,a5,s5
   12c60:	e01c                	sd	a5,0(s0)
   12c62:	fbaff0ef          	jal	ra,1241c <_fflush_r>
   12c66:	f945                	bnez	a0,12c16 <__sfvwrite_r+0x1a6>
   12c68:	87d6                	mv	a5,s5
   12c6a:	8956                	mv	s2,s5
   12c6c:	b79d                	j	12bd2 <__sfvwrite_r+0x162>
   12c6e:	6c18                	ld	a4,24(s0)
   12c70:	02f76763          	bltu	a4,a5,12c9e <__sfvwrite_r+0x22e>
   12c74:	5018                	lw	a4,32(s0)
   12c76:	02e96463          	bltu	s2,a4,12c9e <__sfvwrite_r+0x22e>
   12c7a:	86ca                	mv	a3,s2
   12c7c:	012af363          	bgeu	s5,s2,12c82 <__sfvwrite_r+0x212>
   12c80:	86d6                	mv	a3,s5
   12c82:	02e6e73b          	remw	a4,a3,a4
   12c86:	603c                	ld	a5,64(s0)
   12c88:	780c                	ld	a1,48(s0)
   12c8a:	8662                	mv	a2,s8
   12c8c:	8552                	mv	a0,s4
   12c8e:	9e99                	subw	a3,a3,a4
   12c90:	9782                	jalr	a5
   12c92:	89aa                	mv	s3,a0
   12c94:	f8a051e3          	blez	a0,12c16 <__sfvwrite_r+0x1a6>
   12c98:	41390933          	sub	s2,s2,s3
   12c9c:	b5d9                	j	12b62 <__sfvwrite_r+0xf2>
   12c9e:	89de                	mv	s3,s7
   12ca0:	01797363          	bgeu	s2,s7,12ca6 <__sfvwrite_r+0x236>
   12ca4:	89ca                	mv	s3,s2
   12ca6:	853e                	mv	a0,a5
   12ca8:	864e                	mv	a2,s3
   12caa:	85e2                	mv	a1,s8
   12cac:	475020ef          	jal	ra,15920 <memmove>
   12cb0:	4458                	lw	a4,12(s0)
   12cb2:	601c                	ld	a5,0(s0)
   12cb4:	413706bb          	subw	a3,a4,s3
   12cb8:	97ce                	add	a5,a5,s3
   12cba:	c454                	sw	a3,12(s0)
   12cbc:	e01c                	sd	a5,0(s0)
   12cbe:	fee9                	bnez	a3,12c98 <__sfvwrite_r+0x228>
   12cc0:	85a2                	mv	a1,s0
   12cc2:	8552                	mv	a0,s4
   12cc4:	f58ff0ef          	jal	ra,1241c <_fflush_r>
   12cc8:	f539                	bnez	a0,12c16 <__sfvwrite_r+0x1a6>
   12cca:	41390933          	sub	s2,s2,s3
   12cce:	bd51                	j	12b62 <__sfvwrite_r+0xf2>
   12cd0:	48077693          	andi	a3,a4,1152
   12cd4:	cac1                	beqz	a3,12d64 <__sfvwrite_r+0x2f4>
   12cd6:	5010                	lw	a2,32(s0)
   12cd8:	6c0c                	ld	a1,24(s0)
   12cda:	0016169b          	slliw	a3,a2,0x1
   12cde:	9eb1                	addw	a3,a3,a2
   12ce0:	8f8d                	sub	a5,a5,a1
   12ce2:	01f6d99b          	srliw	s3,a3,0x1f
   12ce6:	00078b9b          	sext.w	s7,a5
   12cea:	00d989bb          	addw	s3,s3,a3
   12cee:	001b8693          	addi	a3,s7,1
   12cf2:	4019d99b          	sraiw	s3,s3,0x1
   12cf6:	96ca                	add	a3,a3,s2
   12cf8:	00d9f563          	bgeu	s3,a3,12d02 <__sfvwrite_r+0x292>
   12cfc:	2785                	addiw	a5,a5,1
   12cfe:	012789bb          	addw	s3,a5,s2
   12d02:	40077713          	andi	a4,a4,1024
   12d06:	c32d                	beqz	a4,12d68 <__sfvwrite_r+0x2f8>
   12d08:	85ce                	mv	a1,s3
   12d0a:	8552                	mv	a0,s4
   12d0c:	44e020ef          	jal	ra,1515a <_malloc_r>
   12d10:	8caa                	mv	s9,a0
   12d12:	c141                	beqz	a0,12d92 <__sfvwrite_r+0x322>
   12d14:	6c0c                	ld	a1,24(s0)
   12d16:	865e                	mv	a2,s7
   12d18:	2c3020ef          	jal	ra,157da <memcpy>
   12d1c:	01045783          	lhu	a5,16(s0)
   12d20:	b7f7f793          	andi	a5,a5,-1153
   12d24:	0807e793          	ori	a5,a5,128
   12d28:	00f41823          	sh	a5,16(s0)
   12d2c:	017c8533          	add	a0,s9,s7
   12d30:	41798bbb          	subw	s7,s3,s7
   12d34:	01943c23          	sd	s9,24(s0)
   12d38:	01742623          	sw	s7,12(s0)
   12d3c:	e008                	sd	a0,0(s0)
   12d3e:	03342023          	sw	s3,32(s0)
   12d42:	8cca                	mv	s9,s2
   12d44:	8bca                	mv	s7,s2
   12d46:	b509                	j	12b48 <__sfvwrite_r+0xd8>
   12d48:	865e                	mv	a2,s7
   12d4a:	85e6                	mv	a1,s9
   12d4c:	3d5020ef          	jal	ra,15920 <memmove>
   12d50:	4454                	lw	a3,12(s0)
   12d52:	6018                	ld	a4,0(s0)
   12d54:	000b879b          	sext.w	a5,s7
   12d58:	417686bb          	subw	a3,a3,s7
   12d5c:	975e                	add	a4,a4,s7
   12d5e:	c454                	sw	a3,12(s0)
   12d60:	e018                	sd	a4,0(s0)
   12d62:	bd85                	j	12bd2 <__sfvwrite_r+0x162>
   12d64:	8cde                	mv	s9,s7
   12d66:	b3cd                	j	12b48 <__sfvwrite_r+0xd8>
   12d68:	864e                	mv	a2,s3
   12d6a:	8552                	mv	a0,s4
   12d6c:	137030ef          	jal	ra,166a2 <_realloc_r>
   12d70:	8caa                	mv	s9,a0
   12d72:	fd4d                	bnez	a0,12d2c <__sfvwrite_r+0x2bc>
   12d74:	6c0c                	ld	a1,24(s0)
   12d76:	8552                	mv	a0,s4
   12d78:	aabff0ef          	jal	ra,12822 <_free_r>
   12d7c:	01041783          	lh	a5,16(s0)
   12d80:	4731                	li	a4,12
   12d82:	00ea2023          	sw	a4,0(s4)
   12d86:	f7f7f793          	andi	a5,a5,-129
   12d8a:	bd41                	j	12c1a <__sfvwrite_r+0x1aa>
   12d8c:	001c099b          	addiw	s3,s8,1
   12d90:	b531                	j	12b9c <__sfvwrite_r+0x12c>
   12d92:	4731                	li	a4,12
   12d94:	01041783          	lh	a5,16(s0)
   12d98:	00ea2023          	sw	a4,0(s4)
   12d9c:	bdbd                	j	12c1a <__sfvwrite_r+0x1aa>

0000000000012d9e <_fwalk>:
   12d9e:	715d                	addi	sp,sp,-80
   12da0:	f84a                	sd	s2,48(sp)
   12da2:	f44e                	sd	s3,40(sp)
   12da4:	f052                	sd	s4,32(sp)
   12da6:	ec56                	sd	s5,24(sp)
   12da8:	e85a                	sd	s6,16(sp)
   12daa:	e45e                	sd	s7,8(sp)
   12dac:	e486                	sd	ra,72(sp)
   12dae:	e0a2                	sd	s0,64(sp)
   12db0:	fc26                	sd	s1,56(sp)
   12db2:	8aae                	mv	s5,a1
   12db4:	52050993          	addi	s3,a0,1312
   12db8:	4901                	li	s2,0
   12dba:	0b000b13          	li	s6,176
   12dbe:	4b85                	li	s7,1
   12dc0:	5a7d                	li	s4,-1
   12dc2:	0089a483          	lw	s1,8(s3)
   12dc6:	0109b403          	ld	s0,16(s3)
   12dca:	02905863          	blez	s1,12dfa <_fwalk+0x5c>
   12dce:	1482                	slli	s1,s1,0x20
   12dd0:	9081                	srli	s1,s1,0x20
   12dd2:	036484b3          	mul	s1,s1,s6
   12dd6:	94a2                	add	s1,s1,s0
   12dd8:	01045783          	lhu	a5,16(s0)
   12ddc:	00fbfb63          	bgeu	s7,a5,12df2 <_fwalk+0x54>
   12de0:	01241783          	lh	a5,18(s0)
   12de4:	8522                	mv	a0,s0
   12de6:	01478663          	beq	a5,s4,12df2 <_fwalk+0x54>
   12dea:	9a82                	jalr	s5
   12dec:	01256933          	or	s2,a0,s2
   12df0:	2901                	sext.w	s2,s2
   12df2:	0b040413          	addi	s0,s0,176
   12df6:	fe8491e3          	bne	s1,s0,12dd8 <_fwalk+0x3a>
   12dfa:	0009b983          	ld	s3,0(s3)
   12dfe:	fc0992e3          	bnez	s3,12dc2 <_fwalk+0x24>
   12e02:	60a6                	ld	ra,72(sp)
   12e04:	6406                	ld	s0,64(sp)
   12e06:	74e2                	ld	s1,56(sp)
   12e08:	79a2                	ld	s3,40(sp)
   12e0a:	7a02                	ld	s4,32(sp)
   12e0c:	6ae2                	ld	s5,24(sp)
   12e0e:	6b42                	ld	s6,16(sp)
   12e10:	6ba2                	ld	s7,8(sp)
   12e12:	854a                	mv	a0,s2
   12e14:	7942                	ld	s2,48(sp)
   12e16:	6161                	addi	sp,sp,80
   12e18:	8082                	ret

0000000000012e1a <_fwalk_reent>:
   12e1a:	715d                	addi	sp,sp,-80
   12e1c:	f84a                	sd	s2,48(sp)
   12e1e:	f44e                	sd	s3,40(sp)
   12e20:	f052                	sd	s4,32(sp)
   12e22:	ec56                	sd	s5,24(sp)
   12e24:	e85a                	sd	s6,16(sp)
   12e26:	e45e                	sd	s7,8(sp)
   12e28:	e062                	sd	s8,0(sp)
   12e2a:	e486                	sd	ra,72(sp)
   12e2c:	e0a2                	sd	s0,64(sp)
   12e2e:	fc26                	sd	s1,56(sp)
   12e30:	89aa                	mv	s3,a0
   12e32:	8b2e                	mv	s6,a1
   12e34:	52050a13          	addi	s4,a0,1312
   12e38:	4901                	li	s2,0
   12e3a:	0b000b93          	li	s7,176
   12e3e:	4c05                	li	s8,1
   12e40:	5afd                	li	s5,-1
   12e42:	008a2483          	lw	s1,8(s4)
   12e46:	010a3403          	ld	s0,16(s4)
   12e4a:	02905963          	blez	s1,12e7c <_fwalk_reent+0x62>
   12e4e:	1482                	slli	s1,s1,0x20
   12e50:	9081                	srli	s1,s1,0x20
   12e52:	037484b3          	mul	s1,s1,s7
   12e56:	94a2                	add	s1,s1,s0
   12e58:	01045783          	lhu	a5,16(s0)
   12e5c:	00fc7c63          	bgeu	s8,a5,12e74 <_fwalk_reent+0x5a>
   12e60:	01241783          	lh	a5,18(s0)
   12e64:	85a2                	mv	a1,s0
   12e66:	854e                	mv	a0,s3
   12e68:	01578663          	beq	a5,s5,12e74 <_fwalk_reent+0x5a>
   12e6c:	9b02                	jalr	s6
   12e6e:	01256933          	or	s2,a0,s2
   12e72:	2901                	sext.w	s2,s2
   12e74:	0b040413          	addi	s0,s0,176
   12e78:	fe8490e3          	bne	s1,s0,12e58 <_fwalk_reent+0x3e>
   12e7c:	000a3a03          	ld	s4,0(s4)
   12e80:	fc0a11e3          	bnez	s4,12e42 <_fwalk_reent+0x28>
   12e84:	60a6                	ld	ra,72(sp)
   12e86:	6406                	ld	s0,64(sp)
   12e88:	74e2                	ld	s1,56(sp)
   12e8a:	79a2                	ld	s3,40(sp)
   12e8c:	7a02                	ld	s4,32(sp)
   12e8e:	6ae2                	ld	s5,24(sp)
   12e90:	6b42                	ld	s6,16(sp)
   12e92:	6ba2                	ld	s7,8(sp)
   12e94:	6c02                	ld	s8,0(sp)
   12e96:	854a                	mv	a0,s2
   12e98:	7942                	ld	s2,48(sp)
   12e9a:	6161                	addi	sp,sp,80
   12e9c:	8082                	ret

0000000000012e9e <eshdn1>:
   12e9e:	00450693          	addi	a3,a0,4
   12ea2:	4701                	li	a4,0
   12ea4:	0569                	addi	a0,a0,26
   12ea6:	7861                	lui	a6,0xffff8
   12ea8:	0006d783          	lhu	a5,0(a3)
   12eac:	0017f613          	andi	a2,a5,1
   12eb0:	c219                	beqz	a2,12eb6 <eshdn1+0x18>
   12eb2:	00176713          	ori	a4,a4,1
   12eb6:	00277613          	andi	a2,a4,2
   12eba:	8385                	srli	a5,a5,0x1
   12ebc:	0017171b          	slliw	a4,a4,0x1
   12ec0:	0107e5b3          	or	a1,a5,a6
   12ec4:	c601                	beqz	a2,12ecc <eshdn1+0x2e>
   12ec6:	03059793          	slli	a5,a1,0x30
   12eca:	93c1                	srli	a5,a5,0x30
   12ecc:	00f69023          	sh	a5,0(a3)
   12ed0:	1742                	slli	a4,a4,0x30
   12ed2:	0689                	addi	a3,a3,2
   12ed4:	9341                	srli	a4,a4,0x30
   12ed6:	fcd519e3          	bne	a0,a3,12ea8 <eshdn1+0xa>
   12eda:	8082                	ret

0000000000012edc <eshup1>:
   12edc:	01850693          	addi	a3,a0,24
   12ee0:	4701                	li	a4,0
   12ee2:	0509                	addi	a0,a0,2
   12ee4:	0006d783          	lhu	a5,0(a3)
   12ee8:	00f7d613          	srli	a2,a5,0xf
   12eec:	0017979b          	slliw	a5,a5,0x1
   12ef0:	c219                	beqz	a2,12ef6 <eshup1+0x1a>
   12ef2:	00176713          	ori	a4,a4,1
   12ef6:	00277613          	andi	a2,a4,2
   12efa:	17c2                	slli	a5,a5,0x30
   12efc:	0017171b          	slliw	a4,a4,0x1
   12f00:	93c1                	srli	a5,a5,0x30
   12f02:	c219                	beqz	a2,12f08 <eshup1+0x2c>
   12f04:	0017e793          	ori	a5,a5,1
   12f08:	00f69023          	sh	a5,0(a3)
   12f0c:	1742                	slli	a4,a4,0x30
   12f0e:	16f9                	addi	a3,a3,-2
   12f10:	9341                	srli	a4,a4,0x30
   12f12:	fcd519e3          	bne	a0,a3,12ee4 <eshup1+0x8>
   12f16:	8082                	ret

0000000000012f18 <m16m>:
   12f18:	1101                	addi	sp,sp,-32
   12f1a:	6e41                	lui	t3,0x10
   12f1c:	00011b23          	sh	zero,22(sp)
   12f20:	00011c23          	sh	zero,24(sp)
   12f24:	05e1                	addi	a1,a1,24
   12f26:	083c                	addi	a5,sp,24
   12f28:	00410813          	addi	a6,sp,4
   12f2c:	1e7d                	addi	t3,t3,-1 # ffff <exit-0xe9>
   12f2e:	0005d703          	lhu	a4,0(a1)
   12f32:	17f9                	addi	a5,a5,-2
   12f34:	15f9                	addi	a1,a1,-2
   12f36:	c705                	beqz	a4,12f5e <m16m+0x46>
   12f38:	02a70733          	mul	a4,a4,a0
   12f3c:	0027d883          	lhu	a7,2(a5)
   12f40:	0007d303          	lhu	t1,0(a5)
   12f44:	01c776b3          	and	a3,a4,t3
   12f48:	96c6                	add	a3,a3,a7
   12f4a:	8341                	srli	a4,a4,0x10
   12f4c:	0106d893          	srli	a7,a3,0x10
   12f50:	971a                	add	a4,a4,t1
   12f52:	9746                	add	a4,a4,a7
   12f54:	00e79023          	sh	a4,0(a5)
   12f58:	00d79123          	sh	a3,2(a5)
   12f5c:	8341                	srli	a4,a4,0x10
   12f5e:	fee79f23          	sh	a4,-2(a5)
   12f62:	fd0796e3          	bne	a5,a6,12f2e <m16m+0x16>
   12f66:	0611                	addi	a2,a2,4
   12f68:	01a10693          	addi	a3,sp,26
   12f6c:	0007d703          	lhu	a4,0(a5)
   12f70:	0789                	addi	a5,a5,2
   12f72:	0609                	addi	a2,a2,2
   12f74:	fee61f23          	sh	a4,-2(a2)
   12f78:	fef69ae3          	bne	a3,a5,12f6c <m16m+0x54>
   12f7c:	6105                	addi	sp,sp,32
   12f7e:	8082                	ret

0000000000012f80 <emovo.constprop.0>:
   12f80:	00055703          	lhu	a4,0(a0)
   12f84:	00255783          	lhu	a5,2(a0)
   12f88:	c319                	beqz	a4,12f8e <emovo.constprop.0+0xe>
   12f8a:	6721                	lui	a4,0x8
   12f8c:	8fd9                	or	a5,a5,a4
   12f8e:	00f59923          	sh	a5,18(a1)
   12f92:	00255703          	lhu	a4,2(a0)
   12f96:	67a1                	lui	a5,0x8
   12f98:	17fd                	addi	a5,a5,-1 # 7fff <exit-0x80e9>
   12f9a:	00f70f63          	beq	a4,a5,12fb8 <emovo.constprop.0+0x38>
   12f9e:	00650793          	addi	a5,a0,6
   12fa2:	05c1                	addi	a1,a1,16
   12fa4:	0561                	addi	a0,a0,24
   12fa6:	0007d703          	lhu	a4,0(a5)
   12faa:	0789                	addi	a5,a5,2
   12fac:	15f9                	addi	a1,a1,-2
   12fae:	00e59123          	sh	a4,2(a1)
   12fb2:	fea79ae3          	bne	a5,a0,12fa6 <emovo.constprop.0+0x26>
   12fb6:	8082                	ret
   12fb8:	00650793          	addi	a5,a0,6
   12fbc:	0569                	addi	a0,a0,26
   12fbe:	0007d703          	lhu	a4,0(a5)
   12fc2:	0789                	addi	a5,a5,2
   12fc4:	e31d                	bnez	a4,12fea <emovo.constprop.0+0x6a>
   12fc6:	fef51ce3          	bne	a0,a5,12fbe <emovo.constprop.0+0x3e>
   12fca:	01258713          	addi	a4,a1,18
   12fce:	87ae                	mv	a5,a1
   12fd0:	0789                	addi	a5,a5,2
   12fd2:	fe079f23          	sh	zero,-2(a5)
   12fd6:	fee79de3          	bne	a5,a4,12fd0 <emovo.constprop.0+0x50>
   12fda:	0125d783          	lhu	a5,18(a1)
   12fde:	6721                	lui	a4,0x8
   12fe0:	177d                	addi	a4,a4,-1 # 7fff <exit-0x80e9>
   12fe2:	8fd9                	or	a5,a5,a4
   12fe4:	00f59923          	sh	a5,18(a1)
   12fe8:	8082                	ret
   12fea:	01058713          	addi	a4,a1,16
   12fee:	87ae                	mv	a5,a1
   12ff0:	0789                	addi	a5,a5,2
   12ff2:	fe079f23          	sh	zero,-2(a5)
   12ff6:	fee79de3          	bne	a5,a4,12ff0 <emovo.constprop.0+0x70>
   12ffa:	77f1                	lui	a5,0xffffc
   12ffc:	00f59823          	sh	a5,16(a1)
   13000:	77e1                	lui	a5,0xffff8
   13002:	fff7c793          	not	a5,a5
   13006:	00f59923          	sh	a5,18(a1)
   1300a:	8082                	ret

000000000001300c <enormlz>:
   1300c:	00455783          	lhu	a5,4(a0)
   13010:	1101                	addi	sp,sp,-32
   13012:	e426                	sd	s1,8(sp)
   13014:	ec06                	sd	ra,24(sp)
   13016:	e822                	sd	s0,16(sp)
   13018:	e04a                	sd	s2,0(sp)
   1301a:	84aa                	mv	s1,a0
   1301c:	efd1                	bnez	a5,130b8 <enormlz+0xac>
   1301e:	00655783          	lhu	a5,6(a0)
   13022:	4401                	li	s0,0
   13024:	00f7d713          	srli	a4,a5,0xf
   13028:	e349                	bnez	a4,130aa <enormlz+0x9e>
   1302a:	01850693          	addi	a3,a0,24
   1302e:	0a000613          	li	a2,160
   13032:	e395                	bnez	a5,13056 <enormlz+0x4a>
   13034:	00448793          	addi	a5,s1,4
   13038:	0027d703          	lhu	a4,2(a5) # ffffffffffff8002 <__BSS_END__+0xfffffffffffd87a2>
   1303c:	0789                	addi	a5,a5,2
   1303e:	fee79f23          	sh	a4,-2(a5)
   13042:	fed79be3          	bne	a5,a3,13038 <enormlz+0x2c>
   13046:	00049c23          	sh	zero,24(s1)
   1304a:	2441                	addiw	s0,s0,16
   1304c:	04c40f63          	beq	s0,a2,130aa <enormlz+0x9e>
   13050:	0064d783          	lhu	a5,6(s1)
   13054:	d3e5                	beqz	a5,13034 <enormlz+0x28>
   13056:	0ff00713          	li	a4,255
   1305a:	02f76b63          	bltu	a4,a5,13090 <enormlz+0x84>
   1305e:	01848813          	addi	a6,s1,24
   13062:	00248593          	addi	a1,s1,2
   13066:	0ff00513          	li	a0,255
   1306a:	4781                	li	a5,0
   1306c:	8742                	mv	a4,a6
   1306e:	00075683          	lhu	a3,0(a4)
   13072:	1779                	addi	a4,a4,-2
   13074:	0086961b          	slliw	a2,a3,0x8
   13078:	8fd1                	or	a5,a5,a2
   1307a:	00f71123          	sh	a5,2(a4)
   1307e:	0086d793          	srli	a5,a3,0x8
   13082:	feb716e3          	bne	a4,a1,1306e <enormlz+0x62>
   13086:	0064d783          	lhu	a5,6(s1)
   1308a:	2421                	addiw	s0,s0,8
   1308c:	fcf57fe3          	bgeu	a0,a5,1306a <enormlz+0x5e>
   13090:	0a000913          	li	s2,160
   13094:	a801                	j	130a4 <enormlz+0x98>
   13096:	2405                	addiw	s0,s0,1
   13098:	e45ff0ef          	jal	ra,12edc <eshup1>
   1309c:	00894763          	blt	s2,s0,130aa <enormlz+0x9e>
   130a0:	0064d783          	lhu	a5,6(s1)
   130a4:	83bd                	srli	a5,a5,0xf
   130a6:	8526                	mv	a0,s1
   130a8:	d7fd                	beqz	a5,13096 <enormlz+0x8a>
   130aa:	60e2                	ld	ra,24(sp)
   130ac:	8522                	mv	a0,s0
   130ae:	6442                	ld	s0,16(sp)
   130b0:	64a2                	ld	s1,8(sp)
   130b2:	6902                	ld	s2,0(sp)
   130b4:	6105                	addi	sp,sp,32
   130b6:	8082                	ret
   130b8:	0ff00713          	li	a4,255
   130bc:	4401                	li	s0,0
   130be:	02f76563          	bltu	a4,a5,130e8 <enormlz+0xdc>
   130c2:	f6f00913          	li	s2,-145
   130c6:	a801                	j	130d6 <enormlz+0xca>
   130c8:	347d                	addiw	s0,s0,-1
   130ca:	dd5ff0ef          	jal	ra,12e9e <eshdn1>
   130ce:	fd240ee3          	beq	s0,s2,130aa <enormlz+0x9e>
   130d2:	0044d783          	lhu	a5,4(s1)
   130d6:	8526                	mv	a0,s1
   130d8:	fbe5                	bnez	a5,130c8 <enormlz+0xbc>
   130da:	60e2                	ld	ra,24(sp)
   130dc:	8522                	mv	a0,s0
   130de:	6442                	ld	s0,16(sp)
   130e0:	64a2                	ld	s1,8(sp)
   130e2:	6902                	ld	s2,0(sp)
   130e4:	6105                	addi	sp,sp,32
   130e6:	8082                	ret
   130e8:	00450713          	addi	a4,a0,4
   130ec:	01a50593          	addi	a1,a0,26
   130f0:	4781                	li	a5,0
   130f2:	00075683          	lhu	a3,0(a4)
   130f6:	0709                	addi	a4,a4,2
   130f8:	0086d61b          	srliw	a2,a3,0x8
   130fc:	8fd1                	or	a5,a5,a2
   130fe:	0086969b          	slliw	a3,a3,0x8
   13102:	fef71f23          	sh	a5,-2(a4)
   13106:	03069793          	slli	a5,a3,0x30
   1310a:	93c1                	srli	a5,a5,0x30
   1310c:	feb713e3          	bne	a4,a1,130f2 <enormlz+0xe6>
   13110:	0044d783          	lhu	a5,4(s1)
   13114:	5461                	li	s0,-8
   13116:	b775                	j	130c2 <enormlz+0xb6>

0000000000013118 <eshift.part.0>:
   13118:	7179                	addi	sp,sp,-48
   1311a:	f022                	sd	s0,32(sp)
   1311c:	ec26                	sd	s1,24(sp)
   1311e:	f406                	sd	ra,40(sp)
   13120:	e84a                	sd	s2,16(sp)
   13122:	e44e                	sd	s3,8(sp)
   13124:	84ae                	mv	s1,a1
   13126:	842a                	mv	s0,a0
   13128:	0605cb63          	bltz	a1,1319e <eshift.part.0+0x86>
   1312c:	47bd                	li	a5,15
   1312e:	862e                	mv	a2,a1
   13130:	0511                	addi	a0,a0,4
   13132:	01840693          	addi	a3,s0,24
   13136:	45bd                	li	a1,15
   13138:	0297d063          	bge	a5,s1,13158 <eshift.part.0+0x40>
   1313c:	87aa                	mv	a5,a0
   1313e:	0027d703          	lhu	a4,2(a5)
   13142:	0789                	addi	a5,a5,2
   13144:	fee79f23          	sh	a4,-2(a5)
   13148:	fef69be3          	bne	a3,a5,1313e <eshift.part.0+0x26>
   1314c:	00041c23          	sh	zero,24(s0)
   13150:	3641                	addiw	a2,a2,-16
   13152:	fec5c5e3          	blt	a1,a2,1313c <eshift.part.0+0x24>
   13156:	88bd                	andi	s1,s1,15
   13158:	479d                	li	a5,7
   1315a:	0297d463          	bge	a5,s1,13182 <eshift.part.0+0x6a>
   1315e:	01840713          	addi	a4,s0,24
   13162:	00240593          	addi	a1,s0,2
   13166:	4781                	li	a5,0
   13168:	00075683          	lhu	a3,0(a4)
   1316c:	1779                	addi	a4,a4,-2
   1316e:	0086961b          	slliw	a2,a3,0x8
   13172:	8fd1                	or	a5,a5,a2
   13174:	00f71123          	sh	a5,2(a4)
   13178:	0086d793          	srli	a5,a3,0x8
   1317c:	feb716e3          	bne	a4,a1,13168 <eshift.part.0+0x50>
   13180:	34e1                	addiw	s1,s1,-8
   13182:	c491                	beqz	s1,1318e <eshift.part.0+0x76>
   13184:	34fd                	addiw	s1,s1,-1
   13186:	8522                	mv	a0,s0
   13188:	d55ff0ef          	jal	ra,12edc <eshup1>
   1318c:	fce5                	bnez	s1,13184 <eshift.part.0+0x6c>
   1318e:	4501                	li	a0,0
   13190:	70a2                	ld	ra,40(sp)
   13192:	7402                	ld	s0,32(sp)
   13194:	64e2                	ld	s1,24(sp)
   13196:	6942                	ld	s2,16(sp)
   13198:	69a2                	ld	s3,8(sp)
   1319a:	6145                	addi	sp,sp,48
   1319c:	8082                	ret
   1319e:	57c5                	li	a5,-15
   131a0:	40b0093b          	negw	s2,a1
   131a4:	4981                	li	s3,0
   131a6:	01850593          	addi	a1,a0,24
   131aa:	00450693          	addi	a3,a0,4
   131ae:	463d                	li	a2,15
   131b0:	0af4d463          	bge	s1,a5,13258 <eshift.part.0+0x140>
   131b4:	01845703          	lhu	a4,24(s0)
   131b8:	87ae                	mv	a5,a1
   131ba:	00e9e9b3          	or	s3,s3,a4
   131be:	ffe7d703          	lhu	a4,-2(a5)
   131c2:	17f9                	addi	a5,a5,-2
   131c4:	00e79123          	sh	a4,2(a5)
   131c8:	fed79be3          	bne	a5,a3,131be <eshift.part.0+0xa6>
   131cc:	00041223          	sh	zero,4(s0)
   131d0:	3941                	addiw	s2,s2,-16
   131d2:	ff2641e3          	blt	a2,s2,131b4 <eshift.part.0+0x9c>
   131d6:	5941                	li	s2,-16
   131d8:	5745                	li	a4,-15
   131da:	4099093b          	subw	s2,s2,s1
   131de:	4781                	li	a5,0
   131e0:	06e4c763          	blt	s1,a4,1324e <eshift.part.0+0x136>
   131e4:	00f9093b          	addw	s2,s2,a5
   131e8:	479d                	li	a5,7
   131ea:	0327d963          	bge	a5,s2,1321c <eshift.part.0+0x104>
   131ee:	01844783          	lbu	a5,24(s0)
   131f2:	01a40593          	addi	a1,s0,26
   131f6:	00f9e9b3          	or	s3,s3,a5
   131fa:	4781                	li	a5,0
   131fc:	0006d703          	lhu	a4,0(a3)
   13200:	0689                	addi	a3,a3,2
   13202:	0087561b          	srliw	a2,a4,0x8
   13206:	8fd1                	or	a5,a5,a2
   13208:	0087171b          	slliw	a4,a4,0x8
   1320c:	fef69f23          	sh	a5,-2(a3)
   13210:	03071793          	slli	a5,a4,0x30
   13214:	93c1                	srli	a5,a5,0x30
   13216:	feb693e3          	bne	a3,a1,131fc <eshift.part.0+0xe4>
   1321a:	3961                	addiw	s2,s2,-8
   1321c:	01303533          	snez	a0,s3
   13220:	f60908e3          	beqz	s2,13190 <eshift.part.0+0x78>
   13224:	01845783          	lhu	a5,24(s0)
   13228:	397d                	addiw	s2,s2,-1
   1322a:	8522                	mv	a0,s0
   1322c:	8b85                	andi	a5,a5,1
   1322e:	00f9e9b3          	or	s3,s3,a5
   13232:	c6dff0ef          	jal	ra,12e9e <eshdn1>
   13236:	fe0917e3          	bnez	s2,13224 <eshift.part.0+0x10c>
   1323a:	70a2                	ld	ra,40(sp)
   1323c:	7402                	ld	s0,32(sp)
   1323e:	2981                	sext.w	s3,s3
   13240:	64e2                	ld	s1,24(sp)
   13242:	6942                	ld	s2,16(sp)
   13244:	01303533          	snez	a0,s3
   13248:	69a2                	ld	s3,8(sp)
   1324a:	6145                	addi	sp,sp,48
   1324c:	8082                	ret
   1324e:	ff097793          	andi	a5,s2,-16
   13252:	40f007bb          	negw	a5,a5
   13256:	b779                	j	131e4 <eshift.part.0+0xcc>
   13258:	57e5                	li	a5,-7
   1325a:	f8f4cae3          	blt	s1,a5,131ee <eshift.part.0+0xd6>
   1325e:	b7d9                	j	13224 <eshift.part.0+0x10c>

0000000000013260 <emovi>:
   13260:	01255783          	lhu	a5,18(a0)
   13264:	66a1                	lui	a3,0x8
   13266:	16fd                	addi	a3,a3,-1 # 7fff <exit-0x80e9>
   13268:	00f7d79b          	srliw	a5,a5,0xf
   1326c:	40f007bb          	negw	a5,a5
   13270:	00f59023          	sh	a5,0(a1)
   13274:	01255703          	lhu	a4,18(a0)
   13278:	01050793          	addi	a5,a0,16
   1327c:	8f75                	and	a4,a4,a3
   1327e:	00e59123          	sh	a4,2(a1)
   13282:	0007061b          	sext.w	a2,a4
   13286:	02d70263          	beq	a4,a3,132aa <emovi+0x4a>
   1328a:	00658713          	addi	a4,a1,6
   1328e:	00059223          	sh	zero,4(a1)
   13292:	1579                	addi	a0,a0,-2
   13294:	0007d683          	lhu	a3,0(a5)
   13298:	17f9                	addi	a5,a5,-2
   1329a:	0709                	addi	a4,a4,2
   1329c:	fed71f23          	sh	a3,-2(a4)
   132a0:	fea79ae3          	bne	a5,a0,13294 <emovi+0x34>
   132a4:	00059c23          	sh	zero,24(a1)
   132a8:	8082                	ret
   132aa:	01255703          	lhu	a4,18(a0)
   132ae:	8f71                	and	a4,a4,a2
   132b0:	00c71b63          	bne	a4,a2,132c6 <emovi+0x66>
   132b4:	01250613          	addi	a2,a0,18
   132b8:	872a                	mv	a4,a0
   132ba:	00075683          	lhu	a3,0(a4)
   132be:	0709                	addi	a4,a4,2
   132c0:	ee81                	bnez	a3,132d8 <emovi+0x78>
   132c2:	fec71ce3          	bne	a4,a2,132ba <emovi+0x5a>
   132c6:	00458793          	addi	a5,a1,4
   132ca:	05e9                	addi	a1,a1,26
   132cc:	0789                	addi	a5,a5,2
   132ce:	fe079f23          	sh	zero,-2(a5)
   132d2:	feb79de3          	bne	a5,a1,132cc <emovi+0x6c>
   132d6:	8082                	ret
   132d8:	00658713          	addi	a4,a1,6
   132dc:	00059223          	sh	zero,4(a1)
   132e0:	1571                	addi	a0,a0,-4
   132e2:	0007d683          	lhu	a3,0(a5)
   132e6:	17f9                	addi	a5,a5,-2
   132e8:	0709                	addi	a4,a4,2
   132ea:	fed71f23          	sh	a3,-2(a4)
   132ee:	fef51ae3          	bne	a0,a5,132e2 <emovi+0x82>
   132f2:	8082                	ret

00000000000132f4 <ecmp>:
   132f4:	01255783          	lhu	a5,18(a0)
   132f8:	715d                	addi	sp,sp,-80
   132fa:	e0a2                	sd	s0,64(sp)
   132fc:	fff7c793          	not	a5,a5
   13300:	e486                	sd	ra,72(sp)
   13302:	03179713          	slli	a4,a5,0x31
   13306:	842e                	mv	s0,a1
   13308:	eb11                	bnez	a4,1331c <ecmp+0x28>
   1330a:	01250693          	addi	a3,a0,18
   1330e:	87aa                	mv	a5,a0
   13310:	0007d703          	lhu	a4,0(a5)
   13314:	0789                	addi	a5,a5,2
   13316:	eb25                	bnez	a4,13386 <ecmp+0x92>
   13318:	fed79ce3          	bne	a5,a3,13310 <ecmp+0x1c>
   1331c:	01245783          	lhu	a5,18(s0)
   13320:	fff7c793          	not	a5,a5
   13324:	03179713          	slli	a4,a5,0x31
   13328:	c331                	beqz	a4,1336c <ecmp+0x78>
   1332a:	858a                	mv	a1,sp
   1332c:	f35ff0ef          	jal	ra,13260 <emovi>
   13330:	100c                	addi	a1,sp,32
   13332:	8522                	mv	a0,s0
   13334:	f2dff0ef          	jal	ra,13260 <emovi>
   13338:	00015583          	lhu	a1,0(sp)
   1333c:	02015783          	lhu	a5,32(sp)
   13340:	04b78863          	beq	a5,a1,13390 <ecmp+0x9c>
   13344:	00210793          	addi	a5,sp,2
   13348:	02210713          	addi	a4,sp,34
   1334c:	0830                	addi	a2,sp,24
   1334e:	0007d683          	lhu	a3,0(a5)
   13352:	0789                	addi	a5,a5,2
   13354:	eab5                	bnez	a3,133c8 <ecmp+0xd4>
   13356:	00075683          	lhu	a3,0(a4)
   1335a:	0709                	addi	a4,a4,2
   1335c:	e6b5                	bnez	a3,133c8 <ecmp+0xd4>
   1335e:	fef618e3          	bne	a2,a5,1334e <ecmp+0x5a>
   13362:	4501                	li	a0,0
   13364:	60a6                	ld	ra,72(sp)
   13366:	6406                	ld	s0,64(sp)
   13368:	6161                	addi	sp,sp,80
   1336a:	8082                	ret
   1336c:	87a2                	mv	a5,s0
   1336e:	0007d703          	lhu	a4,0(a5)
   13372:	01240693          	addi	a3,s0,18
   13376:	0789                	addi	a5,a5,2
   13378:	e719                	bnez	a4,13386 <ecmp+0x92>
   1337a:	fad788e3          	beq	a5,a3,1332a <ecmp+0x36>
   1337e:	0007d703          	lhu	a4,0(a5)
   13382:	0789                	addi	a5,a5,2
   13384:	db7d                	beqz	a4,1337a <ecmp+0x86>
   13386:	60a6                	ld	ra,72(sp)
   13388:	6406                	ld	s0,64(sp)
   1338a:	5579                	li	a0,-2
   1338c:	6161                	addi	sp,sp,80
   1338e:	8082                	ret
   13390:	557d                	li	a0,-1
   13392:	c1a9                	beqz	a1,133d4 <ecmp+0xe0>
   13394:	878a                	mv	a5,sp
   13396:	0007d603          	lhu	a2,0(a5)
   1339a:	02015683          	lhu	a3,32(sp)
   1339e:	1018                	addi	a4,sp,32
   133a0:	082c                	addi	a1,sp,24
   133a2:	0789                	addi	a5,a5,2
   133a4:	0709                	addi	a4,a4,2
   133a6:	00d61c63          	bne	a2,a3,133be <ecmp+0xca>
   133aa:	fab78ce3          	beq	a5,a1,13362 <ecmp+0x6e>
   133ae:	0007d603          	lhu	a2,0(a5)
   133b2:	00075683          	lhu	a3,0(a4)
   133b6:	0789                	addi	a5,a5,2
   133b8:	0709                	addi	a4,a4,2
   133ba:	fed608e3          	beq	a2,a3,133aa <ecmp+0xb6>
   133be:	fac6e3e3          	bltu	a3,a2,13364 <ecmp+0x70>
   133c2:	40a0053b          	negw	a0,a0
   133c6:	bf79                	j	13364 <ecmp+0x70>
   133c8:	e981                	bnez	a1,133d8 <ecmp+0xe4>
   133ca:	60a6                	ld	ra,72(sp)
   133cc:	6406                	ld	s0,64(sp)
   133ce:	4505                	li	a0,1
   133d0:	6161                	addi	sp,sp,80
   133d2:	8082                	ret
   133d4:	4505                	li	a0,1
   133d6:	bf7d                	j	13394 <ecmp+0xa0>
   133d8:	557d                	li	a0,-1
   133da:	b769                	j	13364 <ecmp+0x70>

00000000000133dc <emdnorm>:
   133dc:	7139                	addi	sp,sp,-64
   133de:	f822                	sd	s0,48(sp)
   133e0:	f426                	sd	s1,40(sp)
   133e2:	f04a                	sd	s2,32(sp)
   133e4:	ec4e                	sd	s3,24(sp)
   133e6:	e852                	sd	s4,16(sp)
   133e8:	e456                	sd	s5,8(sp)
   133ea:	8936                	mv	s2,a3
   133ec:	843e                	mv	s0,a5
   133ee:	fc06                	sd	ra,56(sp)
   133f0:	84aa                	mv	s1,a0
   133f2:	89ae                	mv	s3,a1
   133f4:	8a32                	mv	s4,a2
   133f6:	8aba                	mv	s5,a4
   133f8:	c15ff0ef          	jal	ra,1300c <enormlz>
   133fc:	09000793          	li	a5,144
   13400:	40a90933          	sub	s2,s2,a0
   13404:	12a7d863          	bge	a5,a0,13534 <emdnorm+0x158>
   13408:	67a1                	lui	a5,0x8
   1340a:	17f9                	addi	a5,a5,-2 # 7ffe <exit-0x80ea>
   1340c:	2327dd63          	bge	a5,s2,13646 <emdnorm+0x26a>
   13410:	1a0a8c63          	beqz	s5,135c8 <emdnorm+0x1ec>
   13414:	00442a83          	lw	s5,4(s0)
   13418:	401c                	lw	a5,0(s0)
   1341a:	20fa8363          	beq	s5,a5,13620 <emdnorm+0x244>
   1341e:	01a40713          	addi	a4,s0,26
   13422:	03440793          	addi	a5,s0,52
   13426:	0709                	addi	a4,a4,2
   13428:	fe071f23          	sh	zero,-2(a4)
   1342c:	fee79de3          	bne	a5,a4,13426 <emdnorm+0x4a>
   13430:	03800793          	li	a5,56
   13434:	2afa8f63          	beq	s5,a5,136f2 <emdnorm+0x316>
   13438:	1557d663          	bge	a5,s5,13584 <emdnorm+0x1a8>
   1343c:	04000793          	li	a5,64
   13440:	20fa8c63          	beq	s5,a5,13658 <emdnorm+0x27c>
   13444:	07100793          	li	a5,113
   13448:	2cfa9d63          	bne	s5,a5,13722 <emdnorm+0x346>
   1344c:	400087b7          	lui	a5,0x40008
   13450:	46a9                	li	a3,10
   13452:	7761                	lui	a4,0xffff8
   13454:	17fd                	addi	a5,a5,-1 # 40007fff <__BSS_END__+0x3ffe879f>
   13456:	c414                	sw	a3,8(s0)
   13458:	c85c                	sw	a5,20(s0)
   1345a:	00e41c23          	sh	a4,24(s0)
   1345e:	c454                	sw	a3,12(s0)
   13460:	02e41723          	sh	a4,46(s0)
   13464:	01542023          	sw	s5,0(s0)
   13468:	1b205263          	blez	s2,1360c <emdnorm+0x230>
   1346c:	0144d603          	lhu	a2,20(s1)
   13470:	01448593          	addi	a1,s1,20
   13474:	47ad                	li	a5,11
   13476:	1646                	slli	a2,a2,0x31
   13478:	9245                	srli	a2,a2,0x31
   1347a:	4731                	li	a4,12
   1347c:	9f1d                	subw	a4,a4,a5
   1347e:	1702                	slli	a4,a4,0x20
   13480:	9301                	srli	a4,a4,0x20
   13482:	973e                	add	a4,a4,a5
   13484:	0706                	slli	a4,a4,0x1
   13486:	0786                	slli	a5,a5,0x1
   13488:	00248693          	addi	a3,s1,2
   1348c:	97a6                	add	a5,a5,s1
   1348e:	9736                	add	a4,a4,a3
   13490:	0007d683          	lhu	a3,0(a5)
   13494:	c299                	beqz	a3,1349a <emdnorm+0xbe>
   13496:	00166613          	ori	a2,a2,1
   1349a:	00079023          	sh	zero,0(a5)
   1349e:	0789                	addi	a5,a5,2
   134a0:	fef718e3          	bne	a4,a5,13490 <emdnorm+0xb4>
   134a4:	0005d703          	lhu	a4,0(a1)
   134a8:	01445683          	lhu	a3,20(s0)
   134ac:	fff6c693          	not	a3,a3
   134b0:	8f75                	and	a4,a4,a3
   134b2:	00e59023          	sh	a4,0(a1)
   134b6:	01645783          	lhu	a5,22(s0)
   134ba:	00c7f733          	and	a4,a5,a2
   134be:	c721                	beqz	a4,13506 <emdnorm+0x12a>
   134c0:	00c79d63          	bne	a5,a2,134da <emdnorm+0xfe>
   134c4:	22099463          	bnez	s3,136ec <emdnorm+0x310>
   134c8:	445c                	lw	a5,12(s0)
   134ca:	01845703          	lhu	a4,24(s0)
   134ce:	0786                	slli	a5,a5,0x1
   134d0:	97a6                	add	a5,a5,s1
   134d2:	0007d783          	lhu	a5,0(a5)
   134d6:	8ff9                	and	a5,a5,a4
   134d8:	c79d                	beqz	a5,13506 <emdnorm+0x12a>
   134da:	03240793          	addi	a5,s0,50
   134de:	01848613          	addi	a2,s1,24
   134e2:	00248513          	addi	a0,s1,2
   134e6:	4581                	li	a1,0
   134e8:	0007d703          	lhu	a4,0(a5)
   134ec:	00065683          	lhu	a3,0(a2)
   134f0:	1679                	addi	a2,a2,-2
   134f2:	17f9                	addi	a5,a5,-2
   134f4:	9736                	add	a4,a4,a3
   134f6:	972e                	add	a4,a4,a1
   134f8:	01075593          	srli	a1,a4,0x10
   134fc:	00e61123          	sh	a4,2(a2)
   13500:	8985                	andi	a1,a1,1
   13502:	fec513e3          	bne	a0,a2,134e8 <emdnorm+0x10c>
   13506:	1b205a63          	blez	s2,136ba <emdnorm+0x2de>
   1350a:	0044d783          	lhu	a5,4(s1)
   1350e:	18079b63          	bnez	a5,136a4 <emdnorm+0x2c8>
   13512:	67a1                	lui	a5,0x8
   13514:	00049c23          	sh	zero,24(s1)
   13518:	17f9                	addi	a5,a5,-2 # 7ffe <exit-0x80ea>
   1351a:	0b27c963          	blt	a5,s2,135cc <emdnorm+0x1f0>
   1351e:	01249123          	sh	s2,2(s1)
   13522:	70e2                	ld	ra,56(sp)
   13524:	7442                	ld	s0,48(sp)
   13526:	74a2                	ld	s1,40(sp)
   13528:	7902                	ld	s2,32(sp)
   1352a:	69e2                	ld	s3,24(sp)
   1352c:	6a42                	ld	s4,16(sp)
   1352e:	6aa2                	ld	s5,8(sp)
   13530:	6121                	addi	sp,sp,64
   13532:	8082                	ret
   13534:	02094b63          	bltz	s2,1356a <emdnorm+0x18e>
   13538:	fc0a8de3          	beqz	s5,13512 <emdnorm+0x136>
   1353c:	00442a83          	lw	s5,4(s0)
   13540:	401c                	lw	a5,0(s0)
   13542:	ecfa9ee3          	bne	s5,a5,1341e <emdnorm+0x42>
   13546:	23204263          	bgtz	s2,1376a <emdnorm+0x38e>
   1354a:	09000713          	li	a4,144
   1354e:	22e79063          	bne	a5,a4,1376e <emdnorm+0x392>
   13552:	440c                	lw	a1,8(s0)
   13554:	01445683          	lhu	a3,20(s0)
   13558:	09000a93          	li	s5,144
   1355c:	0586                	slli	a1,a1,0x1
   1355e:	95a6                	add	a1,a1,s1
   13560:	0005d703          	lhu	a4,0(a1)
   13564:	00d77633          	and	a2,a4,a3
   13568:	b791                	j	134ac <emdnorm+0xd0>
   1356a:	f7000793          	li	a5,-144
   1356e:	10f95c63          	bge	s2,a5,13686 <emdnorm+0x2aa>
   13572:	00248793          	addi	a5,s1,2
   13576:	04e9                	addi	s1,s1,26
   13578:	0789                	addi	a5,a5,2
   1357a:	fe079f23          	sh	zero,-2(a5)
   1357e:	fe979de3          	bne	a5,s1,13578 <emdnorm+0x19c>
   13582:	b745                	j	13522 <emdnorm+0x146>
   13584:	47e1                	li	a5,24
   13586:	06fa8163          	beq	s5,a5,135e8 <emdnorm+0x20c>
   1358a:	03500793          	li	a5,53
   1358e:	18fa9a63          	bne	s5,a5,13722 <emdnorm+0x346>
   13592:	6785                	lui	a5,0x1
   13594:	04000737          	lui	a4,0x4000
   13598:	4699                	li	a3,6
   1359a:	80078793          	addi	a5,a5,-2048 # 800 <exit-0xf8e8>
   1359e:	7ff70713          	addi	a4,a4,2047 # 40007ff <__BSS_END__+0x3fe0f9f>
   135a2:	c414                	sw	a3,8(s0)
   135a4:	c858                	sw	a4,20(s0)
   135a6:	00f41c23          	sh	a5,24(s0)
   135aa:	c454                	sw	a3,12(s0)
   135ac:	02f41323          	sh	a5,38(s0)
   135b0:	01542023          	sw	s5,0(s0)
   135b4:	05205c63          	blez	s2,1360c <emdnorm+0x230>
   135b8:	00c4d603          	lhu	a2,12(s1)
   135bc:	00c48593          	addi	a1,s1,12
   135c0:	479d                	li	a5,7
   135c2:	7ff67613          	andi	a2,a2,2047
   135c6:	bd55                	j	1347a <emdnorm+0x9e>
   135c8:	00049c23          	sh	zero,24(s1)
   135cc:	77e1                	lui	a5,0xffff8
   135ce:	fff7c793          	not	a5,a5
   135d2:	00f49123          	sh	a5,2(s1)
   135d6:	00448793          	addi	a5,s1,4
   135da:	04e1                	addi	s1,s1,24
   135dc:	00079023          	sh	zero,0(a5) # ffffffffffff8000 <__BSS_END__+0xfffffffffffd87a0>
   135e0:	0789                	addi	a5,a5,2
   135e2:	fe979de3          	bne	a5,s1,135dc <emdnorm+0x200>
   135e6:	bf35                	j	13522 <emdnorm+0x146>
   135e8:	008007b7          	lui	a5,0x800
   135ec:	4691                	li	a3,4
   135ee:	10000713          	li	a4,256
   135f2:	0ff78793          	addi	a5,a5,255 # 8000ff <__BSS_END__+0x7e089f>
   135f6:	c414                	sw	a3,8(s0)
   135f8:	c85c                	sw	a5,20(s0)
   135fa:	00e41c23          	sh	a4,24(s0)
   135fe:	c454                	sw	a3,12(s0)
   13600:	02e41123          	sh	a4,34(s0)
   13604:	01542023          	sw	s5,0(s0)
   13608:	15204663          	bgtz	s2,13754 <emdnorm+0x378>
   1360c:	0184d783          	lhu	a5,24(s1)
   13610:	8526                	mv	a0,s1
   13612:	8b85                	andi	a5,a5,1
   13614:	00f9e7b3          	or	a5,s3,a5
   13618:	0007899b          	sext.w	s3,a5
   1361c:	883ff0ef          	jal	ra,12e9e <eshdn1>
   13620:	441c                	lw	a5,8(s0)
   13622:	01445683          	lhu	a3,20(s0)
   13626:	08f00513          	li	a0,143
   1362a:	00179593          	slli	a1,a5,0x1
   1362e:	95a6                	add	a1,a1,s1
   13630:	0005d703          	lhu	a4,0(a1)
   13634:	00d77633          	and	a2,a4,a3
   13638:	e7554ae3          	blt	a0,s5,134ac <emdnorm+0xd0>
   1363c:	2785                	addiw	a5,a5,1
   1363e:	4531                	li	a0,12
   13640:	e2f55de3          	bge	a0,a5,1347a <emdnorm+0x9e>
   13644:	b5a5                	j	134ac <emdnorm+0xd0>
   13646:	00248793          	addi	a5,s1,2
   1364a:	04e9                	addi	s1,s1,26
   1364c:	0789                	addi	a5,a5,2
   1364e:	fe079f23          	sh	zero,-2(a5)
   13652:	fe979de3          	bne	a5,s1,1364c <emdnorm+0x270>
   13656:	b5f1                	j	13522 <emdnorm+0x146>
   13658:	479d                	li	a5,7
   1365a:	c41c                	sw	a5,8(s0)
   1365c:	800107b7          	lui	a5,0x80010
   13660:	17fd                	addi	a5,a5,-1 # ffffffff8000ffff <__BSS_END__+0xffffffff7fff079f>
   13662:	4705                	li	a4,1
   13664:	c85c                	sw	a5,20(s0)
   13666:	4799                	li	a5,6
   13668:	00e41c23          	sh	a4,24(s0)
   1366c:	c45c                	sw	a5,12(s0)
   1366e:	02e41323          	sh	a4,38(s0)
   13672:	01542023          	sw	s5,0(s0)
   13676:	f9205be3          	blez	s2,1360c <emdnorm+0x230>
   1367a:	00e4d603          	lhu	a2,14(s1)
   1367e:	00e48593          	addi	a1,s1,14
   13682:	47a1                	li	a5,8
   13684:	bbdd                	j	1347a <emdnorm+0x9e>
   13686:	0009059b          	sext.w	a1,s2
   1368a:	8526                	mv	a0,s1
   1368c:	a8dff0ef          	jal	ra,13118 <eshift.part.0>
   13690:	c955                	beqz	a0,13744 <emdnorm+0x368>
   13692:	0c0a8763          	beqz	s5,13760 <emdnorm+0x384>
   13696:	00442a83          	lw	s5,4(s0)
   1369a:	401c                	lw	a5,0(s0)
   1369c:	4985                	li	s3,1
   1369e:	d8fa90e3          	bne	s5,a5,1341e <emdnorm+0x42>
   136a2:	b565                	j	1354a <emdnorm+0x16e>
   136a4:	8526                	mv	a0,s1
   136a6:	ff8ff0ef          	jal	ra,12e9e <eshdn1>
   136aa:	67a1                	lui	a5,0x8
   136ac:	0905                	addi	s2,s2,1
   136ae:	00049c23          	sh	zero,24(s1)
   136b2:	17f9                	addi	a5,a5,-2 # 7ffe <exit-0x80ea>
   136b4:	f127cce3          	blt	a5,s2,135cc <emdnorm+0x1f0>
   136b8:	b59d                	j	1351e <emdnorm+0x142>
   136ba:	09000793          	li	a5,144
   136be:	00fa8f63          	beq	s5,a5,136dc <emdnorm+0x300>
   136c2:	8526                	mv	a0,s1
   136c4:	819ff0ef          	jal	ra,12edc <eshup1>
   136c8:	0044d783          	lhu	a5,4(s1)
   136cc:	eb99                	bnez	a5,136e2 <emdnorm+0x306>
   136ce:	00049c23          	sh	zero,24(s1)
   136d2:	e40956e3          	bgez	s2,1351e <emdnorm+0x142>
   136d6:	00049123          	sh	zero,2(s1)
   136da:	b5a1                	j	13522 <emdnorm+0x146>
   136dc:	0044d783          	lhu	a5,4(s1)
   136e0:	d7fd                	beqz	a5,136ce <emdnorm+0x2f2>
   136e2:	8526                	mv	a0,s1
   136e4:	fbaff0ef          	jal	ra,12e9e <eshdn1>
   136e8:	0905                	addi	s2,s2,1
   136ea:	b7d5                	j	136ce <emdnorm+0x2f2>
   136ec:	de0a07e3          	beqz	s4,134da <emdnorm+0xfe>
   136f0:	bd19                	j	13506 <emdnorm+0x12a>
   136f2:	008007b7          	lui	a5,0x800
   136f6:	4699                	li	a3,6
   136f8:	10000713          	li	a4,256
   136fc:	0ff78793          	addi	a5,a5,255 # 8000ff <__BSS_END__+0x7e089f>
   13700:	c414                	sw	a3,8(s0)
   13702:	c85c                	sw	a5,20(s0)
   13704:	00e41c23          	sh	a4,24(s0)
   13708:	c454                	sw	a3,12(s0)
   1370a:	02e41323          	sh	a4,38(s0)
   1370e:	01542023          	sw	s5,0(s0)
   13712:	ef205de3          	blez	s2,1360c <emdnorm+0x230>
   13716:	00c4c603          	lbu	a2,12(s1)
   1371a:	00c48593          	addi	a1,s1,12
   1371e:	479d                	li	a5,7
   13720:	bba9                	j	1347a <emdnorm+0x9e>
   13722:	47b1                	li	a5,12
   13724:	c41c                	sw	a5,8(s0)
   13726:	800107b7          	lui	a5,0x80010
   1372a:	17fd                	addi	a5,a5,-1 # ffffffff8000ffff <__BSS_END__+0xffffffff7fff079f>
   1372c:	4705                	li	a4,1
   1372e:	c85c                	sw	a5,20(s0)
   13730:	47ad                	li	a5,11
   13732:	c45c                	sw	a5,12(s0)
   13734:	00e41c23          	sh	a4,24(s0)
   13738:	02e41823          	sh	a4,48(s0)
   1373c:	01542023          	sw	s5,0(s0)
   13740:	87d6                	mv	a5,s5
   13742:	b511                	j	13546 <emdnorm+0x16a>
   13744:	000a8e63          	beqz	s5,13760 <emdnorm+0x384>
   13748:	00442a83          	lw	s5,4(s0)
   1374c:	401c                	lw	a5,0(s0)
   1374e:	ccfa98e3          	bne	s5,a5,1341e <emdnorm+0x42>
   13752:	bbe5                	j	1354a <emdnorm+0x16e>
   13754:	0084c603          	lbu	a2,8(s1)
   13758:	00848593          	addi	a1,s1,8
   1375c:	4795                	li	a5,5
   1375e:	bb31                	j	1347a <emdnorm+0x9e>
   13760:	00049c23          	sh	zero,24(s1)
   13764:	00049123          	sh	zero,2(s1)
   13768:	bb6d                	j	13522 <emdnorm+0x146>
   1376a:	8abe                	mv	s5,a5
   1376c:	bd55                	j	13620 <emdnorm+0x244>
   1376e:	8abe                	mv	s5,a5
   13770:	bd71                	j	1360c <emdnorm+0x230>

0000000000013772 <eiremain>:
   13772:	711d                	addi	sp,sp,-96
   13774:	e0ca                	sd	s2,64(sp)
   13776:	fc4e                	sd	s3,56(sp)
   13778:	892e                	mv	s2,a1
   1377a:	00255983          	lhu	s3,2(a0)
   1377e:	ec86                	sd	ra,88(sp)
   13780:	e8a2                	sd	s0,80(sp)
   13782:	e4a6                	sd	s1,72(sp)
   13784:	f852                	sd	s4,48(sp)
   13786:	84b2                	mv	s1,a2
   13788:	ec5e                	sd	s7,24(sp)
   1378a:	f456                	sd	s5,40(sp)
   1378c:	f05a                	sd	s6,32(sp)
   1378e:	e862                	sd	s8,16(sp)
   13790:	e466                	sd	s9,8(sp)
   13792:	e06a                	sd	s10,0(sp)
   13794:	8baa                	mv	s7,a0
   13796:	877ff0ef          	jal	ra,1300c <enormlz>
   1379a:	00295403          	lhu	s0,2(s2)
   1379e:	87aa                	mv	a5,a0
   137a0:	854a                	mv	a0,s2
   137a2:	40f989b3          	sub	s3,s3,a5
   137a6:	03448a13          	addi	s4,s1,52
   137aa:	863ff0ef          	jal	ra,1300c <enormlz>
   137ae:	8c09                	sub	s0,s0,a0
   137b0:	04e48713          	addi	a4,s1,78
   137b4:	87d2                	mv	a5,s4
   137b6:	0789                	addi	a5,a5,2
   137b8:	fe079f23          	sh	zero,-2(a5)
   137bc:	fee79de3          	bne	a5,a4,137b6 <eiremain+0x44>
   137c0:	07344a63          	blt	s0,s3,13834 <eiremain+0xc2>
   137c4:	004b8b13          	addi	s6,s7,4
   137c8:	00490a93          	addi	s5,s2,4
   137cc:	01ab8c13          	addi	s8,s7,26
   137d0:	00290d13          	addi	s10,s2,2
   137d4:	8756                	mv	a4,s5
   137d6:	87da                	mv	a5,s6
   137d8:	0007d603          	lhu	a2,0(a5)
   137dc:	00075683          	lhu	a3,0(a4)
   137e0:	0789                	addi	a5,a5,2
   137e2:	0709                	addi	a4,a4,2
   137e4:	06d61c63          	bne	a2,a3,1385c <eiremain+0xea>
   137e8:	fefc18e3          	bne	s8,a5,137d8 <eiremain+0x66>
   137ec:	018b8613          	addi	a2,s7,24
   137f0:	01890713          	addi	a4,s2,24
   137f4:	4681                	li	a3,0
   137f6:	00075783          	lhu	a5,0(a4)
   137fa:	00065583          	lhu	a1,0(a2)
   137fe:	1779                	addi	a4,a4,-2
   13800:	1679                	addi	a2,a2,-2
   13802:	8f8d                	sub	a5,a5,a1
   13804:	8f95                	sub	a5,a5,a3
   13806:	0107d693          	srli	a3,a5,0x10
   1380a:	00f71123          	sh	a5,2(a4)
   1380e:	8a85                	andi	a3,a3,1
   13810:	ffa713e3          	bne	a4,s10,137f6 <eiremain+0x84>
   13814:	4c85                	li	s9,1
   13816:	8552                	mv	a0,s4
   13818:	ec4ff0ef          	jal	ra,12edc <eshup1>
   1381c:	04c4d783          	lhu	a5,76(s1)
   13820:	147d                	addi	s0,s0,-1
   13822:	854a                	mv	a0,s2
   13824:	00fce7b3          	or	a5,s9,a5
   13828:	04f49623          	sh	a5,76(s1)
   1382c:	eb0ff0ef          	jal	ra,12edc <eshup1>
   13830:	fb3452e3          	bge	s0,s3,137d4 <eiremain+0x62>
   13834:	86a2                	mv	a3,s0
   13836:	6446                	ld	s0,80(sp)
   13838:	60e6                	ld	ra,88(sp)
   1383a:	79e2                	ld	s3,56(sp)
   1383c:	7a42                	ld	s4,48(sp)
   1383e:	7aa2                	ld	s5,40(sp)
   13840:	7b02                	ld	s6,32(sp)
   13842:	6be2                	ld	s7,24(sp)
   13844:	6c42                	ld	s8,16(sp)
   13846:	6ca2                	ld	s9,8(sp)
   13848:	6d02                	ld	s10,0(sp)
   1384a:	87a6                	mv	a5,s1
   1384c:	854a                	mv	a0,s2
   1384e:	64a6                	ld	s1,72(sp)
   13850:	6906                	ld	s2,64(sp)
   13852:	4701                	li	a4,0
   13854:	4601                	li	a2,0
   13856:	4581                	li	a1,0
   13858:	6125                	addi	sp,sp,96
   1385a:	b649                	j	133dc <emdnorm>
   1385c:	4c81                	li	s9,0
   1385e:	fac6ece3          	bltu	a3,a2,13816 <eiremain+0xa4>
   13862:	b769                	j	137ec <eiremain+0x7a>

0000000000013864 <e113toe.isra.0>:
   13864:	7179                	addi	sp,sp,-48
   13866:	f022                	sd	s0,32(sp)
   13868:	f406                	sd	ra,40(sp)
   1386a:	842e                	mv	s0,a1
   1386c:	878a                	mv	a5,sp
   1386e:	01a10713          	addi	a4,sp,26
   13872:	0789                	addi	a5,a5,2
   13874:	fe079f23          	sh	zero,-2(a5)
   13878:	fee79de3          	bne	a5,a4,13872 <e113toe.isra.0+0xe>
   1387c:	00e55783          	lhu	a5,14(a0)
   13880:	6721                	lui	a4,0x8
   13882:	177d                	addi	a4,a4,-1 # 7fff <exit-0x80e9>
   13884:	03079693          	slli	a3,a5,0x30
   13888:	96fd                	srai	a3,a3,0x3f
   1388a:	00d11023          	sh	a3,0(sp)
   1388e:	00e7f6b3          	and	a3,a5,a4
   13892:	8636                	mv	a2,a3
   13894:	04e68363          	beq	a3,a4,138da <e113toe.isra.0+0x76>
   13898:	00e50793          	addi	a5,a0,14
   1389c:	00d11123          	sh	a3,2(sp)
   138a0:	00610713          	addi	a4,sp,6
   138a4:	ffe7d683          	lhu	a3,-2(a5)
   138a8:	17f9                	addi	a5,a5,-2
   138aa:	0709                	addi	a4,a4,2
   138ac:	fed71f23          	sh	a3,-2(a4)
   138b0:	fef51ae3          	bne	a0,a5,138a4 <e113toe.isra.0+0x40>
   138b4:	ea19                	bnez	a2,138ca <e113toe.isra.0+0x66>
   138b6:	00011223          	sh	zero,4(sp)
   138ba:	85a2                	mv	a1,s0
   138bc:	850a                	mv	a0,sp
   138be:	ec2ff0ef          	jal	ra,12f80 <emovo.constprop.0>
   138c2:	70a2                	ld	ra,40(sp)
   138c4:	7402                	ld	s0,32(sp)
   138c6:	6145                	addi	sp,sp,48
   138c8:	8082                	ret
   138ca:	4785                	li	a5,1
   138cc:	55fd                	li	a1,-1
   138ce:	850a                	mv	a0,sp
   138d0:	00f11223          	sh	a5,4(sp)
   138d4:	845ff0ef          	jal	ra,13118 <eshift.part.0>
   138d8:	b7cd                	j	138ba <e113toe.isra.0+0x56>
   138da:	87aa                	mv	a5,a0
   138dc:	00e50693          	addi	a3,a0,14
   138e0:	0007d703          	lhu	a4,0(a5)
   138e4:	0789                	addi	a5,a5,2
   138e6:	ef21                	bnez	a4,1393e <e113toe.isra.0+0xda>
   138e8:	fed79ce3          	bne	a5,a3,138e0 <e113toe.isra.0+0x7c>
   138ec:	01440713          	addi	a4,s0,20
   138f0:	87a2                	mv	a5,s0
   138f2:	0789                	addi	a5,a5,2
   138f4:	fe079f23          	sh	zero,-2(a5)
   138f8:	fee79de3          	bne	a5,a4,138f2 <e113toe.isra.0+0x8e>
   138fc:	01240713          	addi	a4,s0,18
   13900:	87a2                	mv	a5,s0
   13902:	0789                	addi	a5,a5,2
   13904:	fe079f23          	sh	zero,-2(a5)
   13908:	fee79de3          	bne	a5,a4,13902 <e113toe.isra.0+0x9e>
   1390c:	01245783          	lhu	a5,18(s0)
   13910:	66a1                	lui	a3,0x8
   13912:	16fd                	addi	a3,a3,-1 # 7fff <exit-0x80e9>
   13914:	8fd5                	or	a5,a5,a3
   13916:	17c2                	slli	a5,a5,0x30
   13918:	93c1                	srli	a5,a5,0x30
   1391a:	00f41923          	sh	a5,18(s0)
   1391e:	00e51683          	lh	a3,14(a0)
   13922:	fa06d0e3          	bgez	a3,138c2 <e113toe.isra.0+0x5e>
   13926:	86a2                	mv	a3,s0
   13928:	0006d603          	lhu	a2,0(a3)
   1392c:	0689                	addi	a3,a3,2
   1392e:	fa51                	bnez	a2,138c2 <e113toe.isra.0+0x5e>
   13930:	fee69ce3          	bne	a3,a4,13928 <e113toe.isra.0+0xc4>
   13934:	7761                	lui	a4,0xffff8
   13936:	8fb9                	xor	a5,a5,a4
   13938:	00f41923          	sh	a5,18(s0)
   1393c:	b759                	j	138c2 <e113toe.isra.0+0x5e>
   1393e:	01040713          	addi	a4,s0,16
   13942:	87a2                	mv	a5,s0
   13944:	0789                	addi	a5,a5,2
   13946:	fe079f23          	sh	zero,-2(a5)
   1394a:	fee79de3          	bne	a5,a4,13944 <e113toe.isra.0+0xe0>
   1394e:	77f1                	lui	a5,0xffffc
   13950:	00f41823          	sh	a5,16(s0)
   13954:	77e1                	lui	a5,0xffff8
   13956:	fff7c793          	not	a5,a5
   1395a:	00f41923          	sh	a5,18(s0)
   1395e:	b795                	j	138c2 <e113toe.isra.0+0x5e>

0000000000013960 <ediv>:
   13960:	01255783          	lhu	a5,18(a0)
   13964:	7151                	addi	sp,sp,-240
   13966:	f1a2                	sd	s0,224(sp)
   13968:	fff7c793          	not	a5,a5
   1396c:	eda6                	sd	s1,216(sp)
   1396e:	e9ca                	sd	s2,208(sp)
   13970:	e5ce                	sd	s3,200(sp)
   13972:	f586                	sd	ra,232(sp)
   13974:	e1d2                	sd	s4,192(sp)
   13976:	fd56                	sd	s5,184(sp)
   13978:	f95a                	sd	s6,176(sp)
   1397a:	f55e                	sd	s7,168(sp)
   1397c:	f162                	sd	s8,160(sp)
   1397e:	ed66                	sd	s9,152(sp)
   13980:	e96a                	sd	s10,144(sp)
   13982:	e56e                	sd	s11,136(sp)
   13984:	03179713          	slli	a4,a5,0x31
   13988:	84aa                	mv	s1,a0
   1398a:	89ae                	mv	s3,a1
   1398c:	8432                	mv	s0,a2
   1398e:	8936                	mv	s2,a3
   13990:	eb11                	bnez	a4,139a4 <ediv+0x44>
   13992:	01250693          	addi	a3,a0,18
   13996:	87aa                	mv	a5,a0
   13998:	0007d703          	lhu	a4,0(a5) # ffffffffffff8000 <__BSS_END__+0xfffffffffffd87a0>
   1399c:	0789                	addi	a5,a5,2
   1399e:	ef45                	bnez	a4,13a56 <ediv+0xf6>
   139a0:	fed79ce3          	bne	a5,a3,13998 <ediv+0x38>
   139a4:	0129d783          	lhu	a5,18(s3)
   139a8:	fff7c793          	not	a5,a5
   139ac:	03179713          	slli	a4,a5,0x31
   139b0:	eb11                	bnez	a4,139c4 <ediv+0x64>
   139b2:	01298693          	addi	a3,s3,18
   139b6:	87ce                	mv	a5,s3
   139b8:	0007d703          	lhu	a4,0(a5)
   139bc:	0789                	addi	a5,a5,2
   139be:	e75d                	bnez	a4,13a6c <ediv+0x10c>
   139c0:	fed79ce3          	bne	a5,a3,139b8 <ediv+0x58>
   139c4:	6a75                	lui	s4,0x1d
   139c6:	d28a0593          	addi	a1,s4,-728 # 1cd28 <ezero>
   139ca:	8526                	mv	a0,s1
   139cc:	929ff0ef          	jal	ra,132f4 <ecmp>
   139d0:	12050763          	beqz	a0,13afe <ediv+0x19e>
   139d4:	0124d603          	lhu	a2,18(s1)
   139d8:	67a1                	lui	a5,0x8
   139da:	17fd                	addi	a5,a5,-1 # 7fff <exit-0x80e9>
   139dc:	00f67533          	and	a0,a2,a5
   139e0:	0af51163          	bne	a0,a5,13a82 <ediv+0x122>
   139e4:	01248693          	addi	a3,s1,18
   139e8:	87a6                	mv	a5,s1
   139ea:	0007d703          	lhu	a4,0(a5)
   139ee:	0789                	addi	a5,a5,2
   139f0:	eb49                	bnez	a4,13a82 <ediv+0x122>
   139f2:	fed79ce3          	bne	a5,a3,139ea <ediv+0x8a>
   139f6:	0129d703          	lhu	a4,18(s3)
   139fa:	fff74793          	not	a5,a4
   139fe:	03179693          	slli	a3,a5,0x31
   13a02:	e6f5                	bnez	a3,13aee <ediv+0x18e>
   13a04:	01298693          	addi	a3,s3,18
   13a08:	87ce                	mv	a5,s3
   13a0a:	0007d583          	lhu	a1,0(a5)
   13a0e:	0789                	addi	a5,a5,2
   13a10:	36059a63          	bnez	a1,13d84 <ediv+0x424>
   13a14:	fed79be3          	bne	a5,a3,13a0a <ediv+0xaa>
   13a18:	01040713          	addi	a4,s0,16
   13a1c:	87a2                	mv	a5,s0
   13a1e:	0789                	addi	a5,a5,2
   13a20:	fe079f23          	sh	zero,-2(a5)
   13a24:	fee79de3          	bne	a5,a4,13a1e <ediv+0xbe>
   13a28:	77f1                	lui	a5,0xffffc
   13a2a:	00f41823          	sh	a5,16(s0)
   13a2e:	77e1                	lui	a5,0xffff8
   13a30:	fff7c793          	not	a5,a5
   13a34:	00f41923          	sh	a5,18(s0)
   13a38:	70ae                	ld	ra,232(sp)
   13a3a:	740e                	ld	s0,224(sp)
   13a3c:	64ee                	ld	s1,216(sp)
   13a3e:	694e                	ld	s2,208(sp)
   13a40:	69ae                	ld	s3,200(sp)
   13a42:	6a0e                	ld	s4,192(sp)
   13a44:	7aea                	ld	s5,184(sp)
   13a46:	7b4a                	ld	s6,176(sp)
   13a48:	7baa                	ld	s7,168(sp)
   13a4a:	7c0a                	ld	s8,160(sp)
   13a4c:	6cea                	ld	s9,152(sp)
   13a4e:	6d4a                	ld	s10,144(sp)
   13a50:	6daa                	ld	s11,136(sp)
   13a52:	616d                	addi	sp,sp,240
   13a54:	8082                	ret
   13a56:	01448713          	addi	a4,s1,20
   13a5a:	0004d783          	lhu	a5,0(s1)
   13a5e:	0489                	addi	s1,s1,2
   13a60:	0409                	addi	s0,s0,2
   13a62:	fef41f23          	sh	a5,-2(s0)
   13a66:	fee49ae3          	bne	s1,a4,13a5a <ediv+0xfa>
   13a6a:	b7f9                	j	13a38 <ediv+0xd8>
   13a6c:	01440713          	addi	a4,s0,20
   13a70:	0009d783          	lhu	a5,0(s3)
   13a74:	0409                	addi	s0,s0,2
   13a76:	0989                	addi	s3,s3,2
   13a78:	fef41f23          	sh	a5,-2(s0)
   13a7c:	fee41ae3          	bne	s0,a4,13a70 <ediv+0x110>
   13a80:	bf65                	j	13a38 <ediv+0xd8>
   13a82:	0129d703          	lhu	a4,18(s3)
   13a86:	fff74793          	not	a5,a4
   13a8a:	03179693          	slli	a3,a5,0x31
   13a8e:	e2c1                	bnez	a3,13b0e <ediv+0x1ae>
   13a90:	4801                	li	a6,0
   13a92:	01298693          	addi	a3,s3,18
   13a96:	87ce                	mv	a5,s3
   13a98:	0007d583          	lhu	a1,0(a5) # ffffffffffff8000 <__BSS_END__+0xfffffffffffd87a0>
   13a9c:	0789                	addi	a5,a5,2
   13a9e:	e5b1                	bnez	a1,13aea <ediv+0x18a>
   13aa0:	fed79ce3          	bne	a5,a3,13a98 <ediv+0x138>
   13aa4:	67a1                	lui	a5,0x8
   13aa6:	17fd                	addi	a5,a5,-1 # 7fff <exit-0x80e9>
   13aa8:	0af50463          	beq	a0,a5,13b50 <ediv+0x1f0>
   13aac:	823d                	srli	a2,a2,0xf
   13aae:	0009d783          	lhu	a5,0(s3)
   13ab2:	0989                	addi	s3,s3,2
   13ab4:	2c079463          	bnez	a5,13d7c <ediv+0x41c>
   13ab8:	fed99be3          	bne	s3,a3,13aae <ediv+0x14e>
   13abc:	00f75793          	srli	a5,a4,0xf
   13ac0:	8fb1                	xor	a5,a5,a2
   13ac2:	00f7979b          	slliw	a5,a5,0xf
   13ac6:	00f41923          	sh	a5,18(s0)
   13aca:	01240713          	addi	a4,s0,18
   13ace:	87a2                	mv	a5,s0
   13ad0:	0789                	addi	a5,a5,2
   13ad2:	fe079f23          	sh	zero,-2(a5)
   13ad6:	fee79de3          	bne	a5,a4,13ad0 <ediv+0x170>
   13ada:	01245783          	lhu	a5,18(s0)
   13ade:	6721                	lui	a4,0x8
   13ae0:	177d                	addi	a4,a4,-1 # 7fff <exit-0x80e9>
   13ae2:	8fd9                	or	a5,a5,a4
   13ae4:	00f41923          	sh	a5,18(s0)
   13ae8:	bf81                	j	13a38 <ediv+0xd8>
   13aea:	02080263          	beqz	a6,13b0e <ediv+0x1ae>
   13aee:	01440793          	addi	a5,s0,20
   13af2:	0409                	addi	s0,s0,2
   13af4:	fe041f23          	sh	zero,-2(s0)
   13af8:	fef41de3          	bne	s0,a5,13af2 <ediv+0x192>
   13afc:	bf35                	j	13a38 <ediv+0xd8>
   13afe:	d28a0593          	addi	a1,s4,-728
   13b02:	854e                	mv	a0,s3
   13b04:	ff0ff0ef          	jal	ra,132f4 <ecmp>
   13b08:	ec0516e3          	bnez	a0,139d4 <ediv+0x74>
   13b0c:	b731                	j	13a18 <ediv+0xb8>
   13b0e:	100c                	addi	a1,sp,32
   13b10:	8526                	mv	a0,s1
   13b12:	f4eff0ef          	jal	ra,13260 <emovi>
   13b16:	008c                	addi	a1,sp,64
   13b18:	854e                	mv	a0,s3
   13b1a:	f46ff0ef          	jal	ra,13260 <emovi>
   13b1e:	04215b03          	lhu	s6,66(sp)
   13b22:	02215c03          	lhu	s8,34(sp)
   13b26:	020b1f63          	bnez	s6,13b64 <ediv+0x204>
   13b2a:	04210793          	addi	a5,sp,66
   13b2e:	05810c93          	addi	s9,sp,88
   13b32:	0007d703          	lhu	a4,0(a5)
   13b36:	0789                	addi	a5,a5,2
   13b38:	22071463          	bnez	a4,13d60 <ediv+0x400>
   13b3c:	fefc9be3          	bne	s9,a5,13b32 <ediv+0x1d2>
   13b40:	01440793          	addi	a5,s0,20
   13b44:	0409                	addi	s0,s0,2
   13b46:	fe041f23          	sh	zero,-2(s0)
   13b4a:	fef41de3          	bne	s0,a5,13b44 <ediv+0x1e4>
   13b4e:	b5ed                	j	13a38 <ediv+0xd8>
   13b50:	01248593          	addi	a1,s1,18
   13b54:	0004d783          	lhu	a5,0(s1)
   13b58:	0489                	addi	s1,s1,2
   13b5a:	22079363          	bnez	a5,13d80 <ediv+0x420>
   13b5e:	feb49be3          	bne	s1,a1,13b54 <ediv+0x1f4>
   13b62:	b7a9                	j	13aac <ediv+0x14c>
   13b64:	e45a                	sd	s6,8(sp)
   13b66:	040c1063          	bnez	s8,13ba6 <ediv+0x246>
   13b6a:	02210793          	addi	a5,sp,34
   13b6e:	1834                	addi	a3,sp,56
   13b70:	0007d703          	lhu	a4,0(a5)
   13b74:	0789                	addi	a5,a5,2
   13b76:	1e071c63          	bnez	a4,13d6e <ediv+0x40e>
   13b7a:	fed79be3          	bne	a5,a3,13b70 <ediv+0x210>
   13b7e:	02015683          	lhu	a3,32(sp)
   13b82:	04015603          	lhu	a2,64(sp)
   13b86:	01240713          	addi	a4,s0,18
   13b8a:	87a2                	mv	a5,s0
   13b8c:	8e91                	sub	a3,a3,a2
   13b8e:	00d036b3          	snez	a3,a3
   13b92:	00f6969b          	slliw	a3,a3,0xf
   13b96:	00d41923          	sh	a3,18(s0)
   13b9a:	0789                	addi	a5,a5,2
   13b9c:	fe079f23          	sh	zero,-2(a5)
   13ba0:	fee79de3          	bne	a5,a4,13b9a <ediv+0x23a>
   13ba4:	bf1d                	j	13ada <ediv+0x17a>
   13ba6:	e862                	sd	s8,16(sp)
   13ba8:	4786                	lw	a5,64(sp)
   13baa:	03890493          	addi	s1,s2,56
   13bae:	03490713          	addi	a4,s2,52
   13bb2:	02f92a23          	sw	a5,52(s2)
   13bb6:	ec3a                	sd	a4,24(sp)
   13bb8:	04e90993          	addi	s3,s2,78
   13bbc:	87a6                	mv	a5,s1
   13bbe:	0789                	addi	a5,a5,2
   13bc0:	fe079f23          	sh	zero,-2(a5)
   13bc4:	ff379de3          	bne	a5,s3,13bbe <ediv+0x25e>
   13bc8:	0088                	addi	a0,sp,64
   13bca:	ad4ff0ef          	jal	ra,12e9e <eshdn1>
   13bce:	02615b83          	lhu	s7,38(sp)
   13bd2:	6a41                	lui	s4,0x10
   13bd4:	04210d13          	addi	s10,sp,66
   13bd8:	010b9a93          	slli	s5,s7,0x10
   13bdc:	417a8ab3          	sub	s5,s5,s7
   13be0:	05810c93          	addi	s9,sp,88
   13be4:	1a7d                	addi	s4,s4,-1 # ffff <exit-0xe9>
   13be6:	07a10d93          	addi	s11,sp,122
   13bea:	06210c13          	addi	s8,sp,98
   13bee:	04415783          	lhu	a5,68(sp)
   13bf2:	04615703          	lhu	a4,70(sp)
   13bf6:	8b52                	mv	s6,s4
   13bf8:	07c2                	slli	a5,a5,0x10
   13bfa:	97ba                	add	a5,a5,a4
   13bfc:	00fae863          	bltu	s5,a5,13c0c <ediv+0x2ac>
   13c00:	0377d7b3          	divu	a5,a5,s7
   13c04:	03079b13          	slli	s6,a5,0x30
   13c08:	030b5b13          	srli	s6,s6,0x30
   13c0c:	1090                	addi	a2,sp,96
   13c0e:	100c                	addi	a1,sp,32
   13c10:	855a                	mv	a0,s6
   13c12:	b06ff0ef          	jal	ra,12f18 <m16m>
   13c16:	00d8                	addi	a4,sp,68
   13c18:	10dc                	addi	a5,sp,100
   13c1a:	0007d603          	lhu	a2,0(a5)
   13c1e:	00075683          	lhu	a3,0(a4)
   13c22:	0789                	addi	a5,a5,2
   13c24:	0709                	addi	a4,a4,2
   13c26:	0ad61a63          	bne	a2,a3,13cda <ediv+0x37a>
   13c2a:	ffb798e3          	bne	a5,s11,13c1a <ediv+0x2ba>
   13c2e:	4681                	li	a3,0
   13c30:	18b0                	addi	a2,sp,120
   13c32:	87e6                	mv	a5,s9
   13c34:	0007d703          	lhu	a4,0(a5)
   13c38:	00065583          	lhu	a1,0(a2)
   13c3c:	17f9                	addi	a5,a5,-2
   13c3e:	1679                	addi	a2,a2,-2
   13c40:	8f0d                	sub	a4,a4,a1
   13c42:	8f15                	sub	a4,a4,a3
   13c44:	01075693          	srli	a3,a4,0x10
